
main.elf:     file format elf32-littleriscv


Disassembly of section .init:

00000000 <InterruptVector>:
void InterruptVectorDefault()  __attribute__((naked)) __attribute((section(".init")));


void InterruptVectorDefault()
{
	asm volatile( "\n\
   0:	26c0006f          	j	26c <handle_reset>
   4:	0000                	unimp
   6:	0000                	unimp
   8:	02de                	slli	t0,t0,0x17
   a:	0000                	unimp
   c:	02de                	slli	t0,t0,0x17
	...
  2e:	0000                	unimp
  30:	02e0                	addi	s0,sp,332
  32:	0000                	unimp
  34:	0000                	unimp
  36:	0000                	unimp
  38:	02de                	slli	t0,t0,0x17
  3a:	0000                	unimp
  3c:	0000                	unimp
  3e:	0000                	unimp
  40:	02de                	slli	t0,t0,0x17
  42:	0000                	unimp
  44:	02de                	slli	t0,t0,0x17
  46:	0000                	unimp
  48:	02de                	slli	t0,t0,0x17
  4a:	0000                	unimp
  4c:	02de                	slli	t0,t0,0x17
  4e:	0000                	unimp
  50:	02de                	slli	t0,t0,0x17
  52:	0000                	unimp
  54:	02de                	slli	t0,t0,0x17
  56:	0000                	unimp
  58:	02de                	slli	t0,t0,0x17
  5a:	0000                	unimp
  5c:	02de                	slli	t0,t0,0x17
  5e:	0000                	unimp
  60:	02de                	slli	t0,t0,0x17
  62:	0000                	unimp
  64:	02de                	slli	t0,t0,0x17
  66:	0000                	unimp
  68:	02de                	slli	t0,t0,0x17
  6a:	0000                	unimp
  6c:	02de                	slli	t0,t0,0x17
  6e:	0000                	unimp
  70:	02de                	slli	t0,t0,0x17
  72:	0000                	unimp
  74:	02de                	slli	t0,t0,0x17
  76:	0000                	unimp
  78:	02de                	slli	t0,t0,0x17
  7a:	0000                	unimp
  7c:	02de                	slli	t0,t0,0x17
  7e:	0000                	unimp
  80:	02de                	slli	t0,t0,0x17
  82:	0000                	unimp
  84:	02de                	slli	t0,t0,0x17
  86:	0000                	unimp
  88:	02de                	slli	t0,t0,0x17
  8a:	0000                	unimp
  8c:	02de                	slli	t0,t0,0x17
  8e:	0000                	unimp
  90:	02de                	slli	t0,t0,0x17
  92:	0000                	unimp
  94:	02de                	slli	t0,t0,0x17
  96:	0000                	unimp
  98:	02de                	slli	t0,t0,0x17
  9a:	0000                	unimp
  9c:	0000                	unimp
	...

Disassembly of section .text:

000000a0 <digitalWrite>:
void digitalWrite(enum GPIOpins pin, uint8_t value) {
	// no checks given whether pin is currently being toggled by timer! your output trannys are in your hands! beware the magic smoke!
	GPIO_TypeDef * GPIOx;
	uint16_t PinOffset = 0;
	
	if (pin <= pin_A2) {
  a0:	4785                	li	a5,1
  a2:	02a7e163          	bltu	a5,a0,c4 <digitalWrite+0x24>
		GPIOx = GPIOA;
		PinOffset = (pin + 1);
  a6:	0505                	addi	a0,a0,1
  a8:	0542                	slli	a0,a0,0x10
		GPIOx = GPIOA;
  aa:	400117b7          	lui	a5,0x40011
		PinOffset = (pin + 1);
  ae:	8141                	srli	a0,a0,0x10
		GPIOx = GPIOA;
  b0:	80078793          	addi	a5,a5,-2048 # 40010800 <__global_pointer$+0x2000ff70>
	else {
		return;
	}

	if (value) {
		GPIOx-> BSHR |= 1 << PinOffset;
  b4:	4b94                	lw	a3,16(a5)
	if (value) {
  b6:	c99d                	beqz	a1,ec <digitalWrite+0x4c>
	}
	else {
		GPIOx-> BSHR |= 1 << (16 + PinOffset);
  b8:	4705                	li	a4,1
  ba:	00a71533          	sll	a0,a4,a0
  be:	8d55                	or	a0,a0,a3
  c0:	cb88                	sw	a0,16(a5)
	}
}
  c2:	8082                	ret
	else if (pin <= pin_C7) {
  c4:	47a5                	li	a5,9
  c6:	00a7e863          	bltu	a5,a0,d6 <digitalWrite+0x36>
		PinOffset = (pin - 2);
  ca:	1579                	addi	a0,a0,-2
  cc:	0542                	slli	a0,a0,0x10
  ce:	8141                	srli	a0,a0,0x10
		GPIOx = GPIOC;
  d0:	400117b7          	lui	a5,0x40011
  d4:	b7c5                	j	b4 <digitalWrite+0x14>
	else if (pin <= pin_D7) {
  d6:	47c5                	li	a5,17
  d8:	fea7e5e3          	bltu	a5,a0,c2 <digitalWrite+0x22>
		PinOffset = (pin - 10);
  dc:	1559                	addi	a0,a0,-10
  de:	0542                	slli	a0,a0,0x10
		GPIOx = GPIOD;
  e0:	400117b7          	lui	a5,0x40011
		PinOffset = (pin - 10);
  e4:	8141                	srli	a0,a0,0x10
		GPIOx = GPIOD;
  e6:	40078793          	addi	a5,a5,1024 # 40011400 <__global_pointer$+0x20010b70>
  ea:	b7e9                	j	b4 <digitalWrite+0x14>
		GPIOx-> BSHR |= 1 << (16 + PinOffset);
  ec:	0541                	addi	a0,a0,16
  ee:	b7e9                	j	b8 <digitalWrite+0x18>

000000f0 <pinMode>:
	if (pin <= pin_A2) {
  f0:	4785                	li	a5,1
  f2:	04a7ee63          	bltu	a5,a0,14e <pinMode+0x5e>
		PinOffset *= (pin + 1);
  f6:	00150793          	addi	a5,a0,1
  fa:	078a                	slli	a5,a5,0x2
  fc:	07c2                	slli	a5,a5,0x10
		GPIOx = GPIOA;
  fe:	40011737          	lui	a4,0x40011
		PinOffset *= (pin + 1);
 102:	83c1                	srli	a5,a5,0x10
		GPIOx = GPIOA;
 104:	80070713          	addi	a4,a4,-2048 # 40010800 <__global_pointer$+0x2000ff70>
	GPIOx->CFGLR &= ~(0b1111<<PinOffset);							// zero the 4 configuration bits
 108:	4310                	lw	a2,0(a4)
 10a:	46bd                	li	a3,15
 10c:	00f696b3          	sll	a3,a3,a5
 110:	fff6c693          	not	a3,a3
 114:	8ef1                	and	a3,a3,a2
 116:	c314                	sw	a3,0(a4)
	switch (mode) {
 118:	200006b7          	lui	a3,0x20000
 11c:	09868693          	addi	a3,a3,152 # 20000098 <CSWTCH.5>
 120:	96ae                	add	a3,a3,a1
 122:	0006c603          	lbu	a2,0(a3)
	GPIOx->CFGLR |= modeMask<<PinOffset;
 126:	200006b7          	lui	a3,0x20000
 12a:	09068693          	addi	a3,a3,144 # 20000090 <CSWTCH.6>
 12e:	95b6                	add	a1,a1,a3
 130:	0005c683          	lbu	a3,0(a1)
 134:	00072303          	lw	t1,0(a4)
 138:	00f697b3          	sll	a5,a3,a5
 13c:	0067e7b3          	or	a5,a5,t1
 140:	c31c                	sw	a5,0(a4)
	if (target_pin_state > pinState_nochange) {
 142:	ce15                	beqz	a2,17e <pinMode+0x8e>
		digitalWrite(pin, target_pin_state - 1);
 144:	fff60593          	addi	a1,a2,-1
 148:	0ff5f593          	andi	a1,a1,255
 14c:	bf91                	j	a0 <digitalWrite>
	else if (pin <= pin_C7) {
 14e:	47a5                	li	a5,9
 150:	00a7ea63          	bltu	a5,a0,164 <pinMode+0x74>
		PinOffset *= (pin - 2);
 154:	ffe50793          	addi	a5,a0,-2
 158:	078a                	slli	a5,a5,0x2
 15a:	07c2                	slli	a5,a5,0x10
 15c:	83c1                	srli	a5,a5,0x10
		GPIOx = GPIOC;
 15e:	40011737          	lui	a4,0x40011
 162:	b75d                	j	108 <pinMode+0x18>
	else if (pin <= pin_D7) {
 164:	47c5                	li	a5,17
 166:	00a7ec63          	bltu	a5,a0,17e <pinMode+0x8e>
		PinOffset *= (pin - 10);
 16a:	ff650793          	addi	a5,a0,-10
 16e:	078a                	slli	a5,a5,0x2
 170:	07c2                	slli	a5,a5,0x10
		GPIOx = GPIOD;
 172:	40011737          	lui	a4,0x40011
		PinOffset *= (pin - 10);
 176:	83c1                	srli	a5,a5,0x10
		GPIOx = GPIOD;
 178:	40070713          	addi	a4,a4,1024 # 40011400 <__global_pointer$+0x20010b70>
 17c:	b771                	j	108 <pinMode+0x18>
}
 17e:	8082                	ret

00000180 <main>:
}

/*
 * main() - does the stuff
 */
int main() {
 180:	1151                	addi	sp,sp,-12
 182:	c406                	sw	ra,8(sp)
 184:	c222                	sw	s0,4(sp)
}

void SystemInit48HSI( void )
{
	// Values lifted from the EVT.  There is little to no documentation on what this does.
	RCC->CFGR0 = RCC_HPRE_DIV1 | RCC_PLLSRC_HSI_Mul2;      // PLLCLK = HSI * 2 = 48 MHz; HCLK = SYSCLK = APB1
 186:	400217b7          	lui	a5,0x40021
	RCC->CTLR  = RCC_HSION | RCC_PLLON | ((HSITRIM) << 3); // Use HSI, but enable PLL.
 18a:	01000737          	lui	a4,0x1000
	RCC->CFGR0 = RCC_HPRE_DIV1 | RCC_PLLSRC_HSI_Mul2;      // PLLCLK = HSI * 2 = 48 MHz; HCLK = SYSCLK = APB1
 18e:	0007a223          	sw	zero,4(a5) # 40021004 <__global_pointer$+0x20020774>
	RCC->CTLR  = RCC_HSION | RCC_PLLON | ((HSITRIM) << 3); // Use HSI, but enable PLL.
 192:	08170713          	addi	a4,a4,129 # 1000081 <wiring.c.7604182b+0xffdbf2>
 196:	c398                	sw	a4,0(a5)
	FLASH->ACTLR = FLASH_ACTLR_LATENCY_1;                  // 1 Cycle Latency
 198:	4685                	li	a3,1
 19a:	40022737          	lui	a4,0x40022
 19e:	c314                	sw	a3,0(a4)
	RCC->INTR  = 0x009F0000;                               // Clear PLL, CSSC, HSE, HSI and LSI ready flags.
 1a0:	009f0737          	lui	a4,0x9f0
 1a4:	c798                	sw	a4,8(a5)

	// From SetSysClockTo_48MHZ_HSI
	while((RCC->CTLR & RCC_PLLRDY) == 0);                                      // Wait till PLL is ready
 1a6:	020006b7          	lui	a3,0x2000
 1aa:	40021737          	lui	a4,0x40021
 1ae:	431c                	lw	a5,0(a4)
 1b0:	8ff5                	and	a5,a5,a3
 1b2:	dff5                	beqz	a5,1ae <main+0x2e>
	RCC->CFGR0 = ( RCC->CFGR0 & ((uint32_t)~(RCC_SW))) | (uint32_t)RCC_SW_PLL; // Select PLL as system clock source
 1b4:	435c                	lw	a5,4(a4)
	while ((RCC->CFGR0 & (uint32_t)RCC_SWS) != (uint32_t)0x08);                // Wait till PLL is used as system clock source
 1b6:	46a1                	li	a3,8
	RCC->CFGR0 = ( RCC->CFGR0 & ((uint32_t)~(RCC_SW))) | (uint32_t)RCC_SW_PLL; // Select PLL as system clock source
 1b8:	9bf1                	andi	a5,a5,-4
 1ba:	0027e793          	ori	a5,a5,2
 1be:	c35c                	sw	a5,4(a4)
	while ((RCC->CFGR0 & (uint32_t)RCC_SWS) != (uint32_t)0x08);                // Wait till PLL is used as system clock source
 1c0:	400217b7          	lui	a5,0x40021
 1c4:	43d8                	lw	a4,4(a5)
 1c6:	8b31                	andi	a4,a4,12
 1c8:	fed71ee3          	bne	a4,a3,1c4 <main+0x44>
	SysTick->CTLR = 0;
 1cc:	e000f737          	lui	a4,0xe000f
 1d0:	00072023          	sw	zero,0(a4) # e000f000 <__global_pointer$+0xc000e770>
 *
 * @return  none
 */
RV_STATIC_INLINE void NVIC_EnableIRQ(IRQn_Type IRQn)
{
  NVIC->IENR[((uint32_t)(IRQn) >> 5)] = (1 << ((uint32_t)(IRQn) & 0x1F));
 1d4:	6605                	lui	a2,0x1
 1d6:	e000e6b7          	lui	a3,0xe000e
 1da:	10c6a023          	sw	a2,256(a3) # e000e100 <__global_pointer$+0xc000d870>
	SysTick->CMP = (SYSTEM_CORE_CLOCK/SYSTICKHZ)-1;
 1de:	5db00693          	li	a3,1499
 1e2:	cb14                	sw	a3,16(a4)
	SysTick->CNT = 0;
 1e4:	00072423          	sw	zero,8(a4)
	systick_cnt = 0;
 1e8:	8001aa23          	sw	zero,-2028(gp) # 200000a4 <systick_cnt>
	SysTick->CTLR = SYSTICK_CTLR_STE | SYSTICK_CTLR_STIE |
 1ec:	469d                	li	a3,7
 1ee:	c314                	sw	a3,0(a4)
			RCC->APB2PCENR |= RCC_APB2Periph_GPIOA;
 1f0:	4f98                	lw	a4,24(a5)
	// Enable GPIO ports
	portEnable(port_A);
	portEnable(port_C);

	// all to hi-Z // LED 'off'
	pinMode(pin_A1, pinMode_I_floating);
 1f2:	4581                	li	a1,0
 1f4:	4501                	li	a0,0
 1f6:	00476713          	ori	a4,a4,4
 1fa:	cf98                	sw	a4,24(a5)
			RCC->APB2PCENR |= RCC_APB2Periph_GPIOC;
 1fc:	4f98                	lw	a4,24(a5)
 1fe:	01076713          	ori	a4,a4,16
 202:	cf98                	sw	a4,24(a5)
 204:	35f5                	jal	f0 <pinMode>
	pinMode(pin_A2, pinMode_I_floating);
 206:	4581                	li	a1,0
 208:	4505                	li	a0,1
 20a:	35dd                	jal	f0 <pinMode>
	pinMode(pin_C1, pinMode_I_floating);
 20c:	4581                	li	a1,0
 20e:	450d                	li	a0,3
 210:	35c5                	jal	f0 <pinMode>
	pinMode(pin_C2, pinMode_I_floating);
 212:	4581                	li	a1,0
 214:	4511                	li	a0,4
 216:	3de9                	jal	f0 <pinMode>

	while(1){
				
		Delay_ms_ticks(30);
		int temp=LEDs[0].brightness;
 218:	200007b7          	lui	a5,0x20000
 21c:	86a2                	mv	a3,s0
 21e:	00078793          	mv	a5,a5
		for(int i=1; i<12; i++){
 222:	4331                	li	t1,12
	uint32_t end = systick_cnt + n; 
 224:	8141a603          	lw	a2,-2028(gp) # 200000a4 <systick_cnt>
 228:	3c060613          	addi	a2,a2,960 # 13c0 <ch32v003fun.c.297fed70+0x4de>
	while( ((int32_t)(systick_cnt - end )) < 0 );
 22c:	8141a703          	lw	a4,-2028(gp) # 200000a4 <systick_cnt>
 230:	8f11                	sub	a4,a4,a2
 232:	fe074de3          	bltz	a4,22c <main+0xac>
		int temp=LEDs[0].brightness;
 236:	0027c503          	lbu	a0,2(a5) # 20000002 <LEDs+0x2>
		for(int i=1; i<12; i++){
 23a:	4705                	li	a4,1
		int temp=LEDs[0].brightness;
 23c:	0ff57513          	andi	a0,a0,255
			LEDs[i-1].brightness=LEDs[i].brightness;
 240:	00171593          	slli	a1,a4,0x1
 244:	95ba                	add	a1,a1,a4
 246:	95be                	add	a1,a1,a5
 248:	fff70293          	addi	t0,a4,-1
 24c:	0025c583          	lbu	a1,2(a1)
 250:	00129613          	slli	a2,t0,0x1
 254:	9616                	add	a2,a2,t0
 256:	0ff5f593          	andi	a1,a1,255
 25a:	963e                	add	a2,a2,a5
 25c:	00b60123          	sb	a1,2(a2)
		for(int i=1; i<12; i++){
 260:	0705                	addi	a4,a4,1
 262:	fc671fe3          	bne	a4,t1,240 <main+0xc0>
		}
		LEDs[11].brightness=temp;
 266:	02a781a3          	sb	a0,35(a5)
	while(1){
 26a:	bf6d                	j	224 <main+0xa4>

0000026c <handle_reset>:
	asm volatile( "\n\
 26c:	20000197          	auipc	gp,0x20000
 270:	62418193          	addi	gp,gp,1572 # 20000890 <__global_pointer$>
 274:	f7018113          	addi	sp,gp,-144 # 20000800 <_eusrstack>
 278:	08000513          	li	a0,128
 27c:	30051073          	csrw	mstatus,a0
 280:	468d                	li	a3,3
 282:	80469073          	csrw	0x804,a3
 286:	00000517          	auipc	a0,0x0
 28a:	d7a50513          	addi	a0,a0,-646 # 0 <InterruptVector>
 28e:	8d55                	or	a0,a0,a3
 290:	30551073          	csrw	mtvec,a0
asm volatile(
 294:	81018513          	addi	a0,gp,-2032 # 200000a0 <currentgroup.0>
 298:	81818593          	addi	a1,gp,-2024 # 200000a8 <_ebss>
 29c:	4601                	li	a2,0
 29e:	00b55663          	bge	a0,a1,2aa <handle_reset+0x3e>
 2a2:	c110                	sw	a2,0(a0)
 2a4:	0511                	addi	a0,a0,4
 2a6:	feb54ee3          	blt	a0,a1,2a2 <handle_reset+0x36>
 2aa:	58400513          	li	a0,1412
 2ae:	20000597          	auipc	a1,0x20000
 2b2:	d5258593          	addi	a1,a1,-686 # 20000000 <LEDs>
 2b6:	81018613          	addi	a2,gp,-2032 # 200000a0 <currentgroup.0>
 2ba:	00c58863          	beq	a1,a2,2ca <handle_reset+0x5e>
 2be:	4114                	lw	a3,0(a0)
 2c0:	c194                	sw	a3,0(a1)
 2c2:	0511                	addi	a0,a0,4
 2c4:	0591                	addi	a1,a1,4
 2c6:	fec59ae3          	bne	a1,a2,2ba <handle_reset+0x4e>
	SETUP_SYSTICK_HCLK
 2ca:	e000f7b7          	lui	a5,0xe000f
 2ce:	4705                	li	a4,1
 2d0:	c398                	sw	a4,0(a5)
asm volatile(
 2d2:	18000793          	li	a5,384
 2d6:	34179073          	csrw	mepc,a5
 2da:	30200073          	mret

000002de <ADC1_IRQHandler>:
	asm volatile( "1: j 1b" );
 2de:	a001                	j	2de <ADC1_IRQHandler>

000002e0 <SysTick_Handler>:
{
 2e0:	fc410113          	addi	sp,sp,-60
 2e4:	00f12623          	sw	a5,12(sp)
	SysTick->CMP += (SYSTEM_CORE_CLOCK/SYSTICKHZ);
 2e8:	e000f7b7          	lui	a5,0xe000f
{
 2ec:	00e12823          	sw	a4,16(sp)
	SysTick->CMP += (SYSTEM_CORE_CLOCK/SYSTICKHZ);
 2f0:	0107a703          	lw	a4,16(a5) # e000f010 <__global_pointer$+0xc000e780>
{
 2f4:	02812423          	sw	s0,40(sp)
 2f8:	02912223          	sw	s1,36(sp)
 2fc:	00d12a23          	sw	a3,20(sp)
 300:	02112c23          	sw	ra,56(sp)
 304:	02512a23          	sw	t0,52(sp)
 308:	02612823          	sw	t1,48(sp)
 30c:	02712623          	sw	t2,44(sp)
 310:	02a12023          	sw	a0,32(sp)
 314:	00b12e23          	sw	a1,28(sp)
 318:	00c12c23          	sw	a2,24(sp)
	SysTick->CMP += (SYSTEM_CORE_CLOCK/SYSTICKHZ);
 31c:	5dc70713          	addi	a4,a4,1500
 320:	00e7a823          	sw	a4,16(a5)
	SysTick->SR = 0;
 324:	0007a223          	sw	zero,4(a5)
	systick_cnt++;
 328:	8141a703          	lw	a4,-2028(gp) # 200000a4 <systick_cnt>
 32c:	20000437          	lui	s0,0x20000
 330:	00170713          	addi	a4,a4,1
 334:	80e1aa23          	sw	a4,-2028(gp) # 200000a4 <systick_cnt>
	ramp=systick_cnt & 0x3F;		// 0 to 63
 338:	8141a703          	lw	a4,-2028(gp) # 200000a4 <systick_cnt>
 33c:	03f77713          	andi	a4,a4,63
 340:	80e188a3          	sb	a4,-2031(gp) # 200000a1 <ramp.1>
	if (ramp == 0) {
 344:	57800493          	li	s1,1400
 348:	00040413          	mv	s0,s0
 34c:	12071363          	bnez	a4,472 <SysTick_Handler+0x192>
		pinMode(LEDs[group[currentgroup][0]].pinCathode, pinMode_I_floating); // switch off this group
 350:	8101c783          	lbu	a5,-2032(gp) # 200000a0 <currentgroup.0>
 354:	00e12423          	sw	a4,8(sp)
 358:	00179613          	slli	a2,a5,0x1
 35c:	00f60633          	add	a2,a2,a5
 360:	00c48633          	add	a2,s1,a2
 364:	00064583          	lbu	a1,0(a2)
 368:	00f12023          	sw	a5,0(sp)
 36c:	00159613          	slli	a2,a1,0x1
 370:	00b60633          	add	a2,a2,a1
 374:	00c40633          	add	a2,s0,a2
 378:	00064503          	lbu	a0,0(a2)
 37c:	00000593          	li	a1,0
 380:	0ff57513          	andi	a0,a0,255
 384:	33b5                	jal	f0 <pinMode>
		currentgroup = (currentgroup + 1) & 0x3;	// move to next group
 386:	00012783          	lw	a5,0(sp)
 38a:	00178793          	addi	a5,a5,1
 38e:	0037f793          	andi	a5,a5,3
		pinMode(LEDs[group[currentgroup][0]].pinCathode, pinMode_O_pushPull); // switch on the group
 392:	00179613          	slli	a2,a5,0x1
		currentgroup = (currentgroup + 1) & 0x3;	// move to next group
 396:	80f18823          	sb	a5,-2032(gp) # 200000a0 <currentgroup.0>
		pinMode(LEDs[group[currentgroup][0]].pinCathode, pinMode_O_pushPull); // switch on the group
 39a:	00f607b3          	add	a5,a2,a5
 39e:	00f487b3          	add	a5,s1,a5
 3a2:	0007c583          	lbu	a1,0(a5)
 3a6:	00f12223          	sw	a5,4(sp)
 3aa:	00159613          	slli	a2,a1,0x1
 3ae:	00b60633          	add	a2,a2,a1
 3b2:	00c407b3          	add	a5,s0,a2
 3b6:	0007c503          	lbu	a0,0(a5)
 3ba:	00400593          	li	a1,4
 3be:	00f12023          	sw	a5,0(sp)
 3c2:	0ff57513          	andi	a0,a0,255
 3c6:	332d                	jal	f0 <pinMode>
		digitalWrite(LEDs[group[currentgroup][0]].pinCathode, low);
 3c8:	00012783          	lw	a5,0(sp)
 3cc:	00000593          	li	a1,0
 3d0:	0007c503          	lbu	a0,0(a5)
 3d4:	0ff57513          	andi	a0,a0,255
 3d8:	31e1                	jal	a0 <digitalWrite>
		pinMode(LEDs[group[currentgroup][0]].pinAnode, pinMode_O_pushPull); // switch on this LED
 3da:	00012783          	lw	a5,0(sp)
 3de:	00400593          	li	a1,4
 3e2:	0017c503          	lbu	a0,1(a5)
 3e6:	0ff57513          	andi	a0,a0,255
 3ea:	3319                	jal	f0 <pinMode>
		digitalWrite(LEDs[group[currentgroup][0]].pinAnode, high);
 3ec:	00012783          	lw	a5,0(sp)
 3f0:	00100593          	li	a1,1
 3f4:	0017c503          	lbu	a0,1(a5)
 3f8:	0ff57513          	andi	a0,a0,255
 3fc:	3155                	jal	a0 <digitalWrite>
		pinMode(LEDs[group[currentgroup][1]].pinAnode, pinMode_O_pushPull); // switch on this LED
 3fe:	00412783          	lw	a5,4(sp)
 402:	0017c583          	lbu	a1,1(a5)
 406:	00159613          	slli	a2,a1,0x1
 40a:	00b60633          	add	a2,a2,a1
 40e:	00c40633          	add	a2,s0,a2
 412:	00164503          	lbu	a0,1(a2)
 416:	00400593          	li	a1,4
 41a:	00c12023          	sw	a2,0(sp)
 41e:	0ff57513          	andi	a0,a0,255
 422:	31f9                	jal	f0 <pinMode>
		digitalWrite(LEDs[group[currentgroup][1]].pinAnode, high);
 424:	00012603          	lw	a2,0(sp)
 428:	00100593          	li	a1,1
 42c:	00164503          	lbu	a0,1(a2)
 430:	0ff57513          	andi	a0,a0,255
 434:	31b5                	jal	a0 <digitalWrite>
		pinMode(LEDs[group[currentgroup][2]].pinAnode, pinMode_O_pushPull); // switch on this LED
 436:	00412783          	lw	a5,4(sp)
 43a:	00400593          	li	a1,4
 43e:	0027c603          	lbu	a2,2(a5)
 442:	00161793          	slli	a5,a2,0x1
 446:	00c787b3          	add	a5,a5,a2
 44a:	00f407b3          	add	a5,s0,a5
 44e:	0017c503          	lbu	a0,1(a5)
 452:	00f12023          	sw	a5,0(sp)
 456:	0ff57513          	andi	a0,a0,255
 45a:	3959                	jal	f0 <pinMode>
		digitalWrite(LEDs[group[currentgroup][2]].pinAnode, high);
 45c:	00012783          	lw	a5,0(sp)
 460:	00100593          	li	a1,1
 464:	0017c503          	lbu	a0,1(a5)
 468:	0ff57513          	andi	a0,a0,255
 46c:	3915                	jal	a0 <digitalWrite>
 46e:	00812703          	lw	a4,8(sp)
	if (LEDs[group[currentgroup][0]].brightness == ramp) { // if the target pulse width has been achieved
 472:	8101c603          	lbu	a2,-2032(gp) # 200000a0 <currentgroup.0>
 476:	00161693          	slli	a3,a2,0x1
 47a:	00c687b3          	add	a5,a3,a2
 47e:	00f487b3          	add	a5,s1,a5
 482:	0007c583          	lbu	a1,0(a5)
 486:	00159793          	slli	a5,a1,0x1
 48a:	00b787b3          	add	a5,a5,a1
 48e:	00f407b3          	add	a5,s0,a5
 492:	0027c583          	lbu	a1,2(a5)
 496:	0ff5f593          	andi	a1,a1,255
 49a:	02b71563          	bne	a4,a1,4c4 <SysTick_Handler+0x1e4>
		pinMode(LEDs[group[currentgroup][0]].pinAnode, pinMode_I_floating); // switch off this LED
 49e:	0017c503          	lbu	a0,1(a5)
 4a2:	00000593          	li	a1,0
 4a6:	00d12423          	sw	a3,8(sp)
 4aa:	0ff57513          	andi	a0,a0,255
 4ae:	00c12223          	sw	a2,4(sp)
 4b2:	00e12023          	sw	a4,0(sp)
 4b6:	392d                	jal	f0 <pinMode>
 4b8:	00812683          	lw	a3,8(sp)
 4bc:	00412603          	lw	a2,4(sp)
 4c0:	00012703          	lw	a4,0(sp)
	if (LEDs[group[currentgroup][1]].brightness == ramp) {
 4c4:	00c687b3          	add	a5,a3,a2
 4c8:	00f487b3          	add	a5,s1,a5
 4cc:	0017c583          	lbu	a1,1(a5)
 4d0:	00159793          	slli	a5,a1,0x1
 4d4:	00b787b3          	add	a5,a5,a1
 4d8:	00f407b3          	add	a5,s0,a5
 4dc:	0027c583          	lbu	a1,2(a5)
 4e0:	0ff5f593          	andi	a1,a1,255
 4e4:	02b71563          	bne	a4,a1,50e <SysTick_Handler+0x22e>
		pinMode(LEDs[group[currentgroup][1]].pinAnode, pinMode_I_floating); // switch off this LED
 4e8:	0017c503          	lbu	a0,1(a5)
 4ec:	00000593          	li	a1,0
 4f0:	00d12423          	sw	a3,8(sp)
 4f4:	0ff57513          	andi	a0,a0,255
 4f8:	00c12223          	sw	a2,4(sp)
 4fc:	00e12023          	sw	a4,0(sp)
 500:	3ec5                	jal	f0 <pinMode>
 502:	00812683          	lw	a3,8(sp)
 506:	00412603          	lw	a2,4(sp)
 50a:	00012703          	lw	a4,0(sp)
	if (LEDs[group[currentgroup][2]].brightness == ramp) {
 50e:	00c686b3          	add	a3,a3,a2
 512:	00d484b3          	add	s1,s1,a3
 516:	0024c683          	lbu	a3,2(s1)
 51a:	00169793          	slli	a5,a3,0x1
 51e:	00d787b3          	add	a5,a5,a3
 522:	00f40433          	add	s0,s0,a5
 526:	00244783          	lbu	a5,2(s0) # 20000002 <LEDs+0x2>
 52a:	0ff7f793          	andi	a5,a5,255
 52e:	00f71963          	bne	a4,a5,540 <SysTick_Handler+0x260>
		pinMode(LEDs[group[currentgroup][2]].pinAnode, pinMode_I_floating); // switch off this LED
 532:	00144503          	lbu	a0,1(s0)
 536:	00000593          	li	a1,0
 53a:	0ff57513          	andi	a0,a0,255
 53e:	3e4d                	jal	f0 <pinMode>
}
 540:	02812403          	lw	s0,40(sp)
 544:	03812083          	lw	ra,56(sp)
 548:	03412283          	lw	t0,52(sp)
 54c:	03012303          	lw	t1,48(sp)
 550:	02c12383          	lw	t2,44(sp)
 554:	02412483          	lw	s1,36(sp)
 558:	02012503          	lw	a0,32(sp)
 55c:	01c12583          	lw	a1,28(sp)
 560:	01812603          	lw	a2,24(sp)
 564:	01412683          	lw	a3,20(sp)
 568:	01012703          	lw	a4,16(sp)
 56c:	00c12783          	lw	a5,12(sp)
 570:	03c10113          	addi	sp,sp,60
 574:	30200073          	mret

00000578 <group>:
 578:	0400                	addi	s0,sp,512
 57a:	010a                	slli	sp,sp,0x2
 57c:	0802                	c.slli64	a6
 57e:	06070503          	lb	a0,96(a4)
 582:	0b09                	addi	s6,s6,2

Disassembly of section .data:

20000000 <LEDs>:
20000000:	0100                	addi	s0,sp,128
20000002:	0110                	addi	a2,sp,128
20000004:	3f00                	fld	fs0,56(a4)
20000006:	0301                	addi	t1,t1,0
20000008:	0320                	addi	s0,sp,392
2000000a:	1001                	c.nop	-32
2000000c:	0300                	addi	s0,sp,384
2000000e:	06000307          	0x6000307
20000012:	0304                	addi	s1,sp,384
20000014:	0305                	addi	t1,t1,1
20000016:	0404                	addi	s1,sp,512
20000018:	0401                	addi	s0,s0,0
2000001a:	02010403          	lb	s0,32(sp)
2000001e:	0400                	addi	s0,sp,512
20000020:	0401                	addi	s0,s0,0
20000022:	0100                	addi	s0,sp,128

20000024 <APBAHBPrescTable.lto_priv.0>:
20000024:	0201                	addi	tp,tp,0
20000026:	06050403          	lb	s0,96(a0)
2000002a:	02010807          	0x2010807
2000002e:	06050403          	lb	s0,96(a0)
20000032:	          	0x4020807

20000034 <ADCPrescTable.lto_priv.0>:
20000034:	0402                	c.slli64	s0
20000036:	0806                	slli	a6,a6,0x1
20000038:	0804                	addi	s1,sp,16
2000003a:	100c                	addi	a1,sp,32
2000003c:	1008                	addi	a0,sp,32
2000003e:	2018                	fld	fa4,0(s0)
20000040:	2010                	fld	fa2,0(s0)
20000042:	4030                	lw	a2,64(s0)
20000044:	4020                	lw	s0,64(s0)
20000046:	8060                	0x8060

20000048 <APBAHBPrescTable.lto_priv.1>:
20000048:	0201                	addi	tp,tp,0
2000004a:	06050403          	lb	s0,96(a0)
2000004e:	02010807          	0x2010807
20000052:	06050403          	lb	s0,96(a0)
20000056:	          	0x4020807

20000058 <ADCPrescTable.lto_priv.1>:
20000058:	0402                	c.slli64	s0
2000005a:	0806                	slli	a6,a6,0x1
2000005c:	0804                	addi	s1,sp,16
2000005e:	100c                	addi	a1,sp,32
20000060:	1008                	addi	a0,sp,32
20000062:	2018                	fld	fa4,0(s0)
20000064:	2010                	fld	fa2,0(s0)
20000066:	4030                	lw	a2,64(s0)
20000068:	4020                	lw	s0,64(s0)
2000006a:	8060                	0x8060

2000006c <APBAHBPrescTable.lto_priv.2>:
2000006c:	0201                	addi	tp,tp,0
2000006e:	06050403          	lb	s0,96(a0)
20000072:	02010807          	0x2010807
20000076:	06050403          	lb	s0,96(a0)
2000007a:	          	0x4020807

2000007c <ADCPrescTable.lto_priv.2>:
2000007c:	0402                	c.slli64	s0
2000007e:	0806                	slli	a6,a6,0x1
20000080:	0804                	addi	s1,sp,16
20000082:	100c                	addi	a1,sp,32
20000084:	1008                	addi	a0,sp,32
20000086:	2018                	fld	fa4,0(s0)
20000088:	2010                	fld	fa2,0(s0)
2000008a:	4030                	lw	a2,64(s0)
2000008c:	4020                	lw	s0,64(s0)
2000008e:	8060                	0x8060

20000090 <CSWTCH.6>:
20000090:	0804                	addi	s1,sp,16
20000092:	0008                	0x8
20000094:	0501                	addi	a0,a0,0
20000096:	0d09                	addi	s10,s10,2

20000098 <CSWTCH.5>:
20000098:	0200                	addi	s0,sp,256
2000009a:	0001                	nop
2000009c:	0000                	unimp
	...

Disassembly of section .bss:

200000a0 <currentgroup.0>:
	...

200000a1 <ramp.1>:
200000a1:	0000                	unimp
	...

200000a4 <systick_cnt>:
200000a4:	0000                	unimp
	...

Disassembly of section .debug_info:

00000000 <ch32v003fun.c.297fed70-0xee2>:
	asm volatile( "\n\
       0:	0ede                	slli	t4,t4,0x17
       2:	0000                	unimp
       4:	0004                	0x4
       6:	0000                	unimp
       8:	0000                	unimp
       a:	0104                	addi	s1,sp,128
       c:	001e                	c.slli	zero,0x7
       e:	0000                	unimp
      10:	110c                	addi	a1,sp,160
      12:	0000                	unimp
      14:	ce00                	sw	s0,24(a2)
      16:	0000                	unimp
      18:	f800                	fsw	fs0,48(s0)
      1a:	0001                	nop
	...
      24:	0200                	addi	s0,sp,256
      26:	16d0                	addi	a2,sp,868
	...
      30:	0000                	unimp
      32:	9c01                	0x9c01
      34:	006d                	c.nop	27
      36:	0000                	unimp
      38:	0016e103          	0x16e103
      3c:	0000                	unimp
      3e:	0000                	unimp
      40:	0300                	addi	s0,sp,384
      42:	16ec                	addi	a1,sp,876
      44:	0000                	unimp
      46:	001e                	c.slli	zero,0x7
      48:	0000                	unimp
      4a:	f904                	fsw	fs1,48(a0)
      4c:	0016                	c.slli	zero,0x5
      4e:	0100                	addi	s0,sp,128
      50:	055c                	addi	a5,sp,644
      52:	1706                	slli	a4,a4,0x21
      54:	0000                	unimp
      56:	0055                	c.nop	21
      58:	0000                	unimp
      5a:	1105                	addi	sp,sp,-31
      5c:	73000017          	auipc	zero,0x73000
      60:	0000                	unimp
      62:	0500                	addi	s0,sp,640
      64:	171d                	addi	a4,a4,-25
      66:	0000                	unimp
      68:	0091                	addi	ra,ra,4
      6a:	0000                	unimp
      6c:	0200                	addi	s0,sp,256
      6e:	0000172f          	0x172f
	...
      7a:	9c01                	0x9c01
      7c:	00e0                	addi	s0,sp,76
      7e:	0000                	unimp
      80:	00174003          	lbu	zero,1(a4)
      84:	d300                	sw	s0,32(a4)
      86:	0000                	unimp
      88:	0300                	addi	s0,sp,384
      8a:	174d                	addi	a4,a4,-13
      8c:	0000                	unimp
      8e:	013a                	slli	sp,sp,0xe
      90:	0000                	unimp
      92:	00175a03          	lhu	s4,1(a4)
      96:	8700                	0x8700
      98:	0001                	nop
      9a:	0300                	addi	s0,sp,384
      9c:	00001767          	0x1767
	if (pin <= pin_A2) {
      a0:	01c1                	addi	gp,gp,16
      a2:	0000                	unimp
      a4:	00177403          	0x177403
		PinOffset = (pin + 1);
      a8:	ed00                	fsw	fs0,24(a0)
		GPIOx = GPIOA;
      aa:	0001                	nop
      ac:	0500                	addi	s0,sp,640
		PinOffset = (pin + 1);
      ae:	1781                	addi	a5,a5,-32
		GPIOx = GPIOA;
      b0:	0000                	unimp
      b2:	00000227          	0x227
	if (value) {
      b6:	8c05                	sub	s0,s0,s1
		GPIOx-> BSHR |= 1 << (16 + PinOffset);
      b8:	c6000017          	auipc	zero,0xc6000
      bc:	0002                	c.slli64	zero
      be:	0500                	addi	s0,sp,640
      c0:	1799                	addi	a5,a5,-26
}
      c2:	0000                	unimp
	else if (pin <= pin_C7) {
      c4:	0315                	addi	t1,t1,5
      c6:	0000                	unimp
      c8:	0006                	c.slli	zero,0x1
		PinOffset = (pin - 2);
      ca:	0000                	unimp
      cc:	b900                	fsd	fs0,48(a0)
      ce:	000e                	c.slli	zero,0x3
		GPIOx = GPIOC;
      d0:	0700                	addi	s0,sp,896
      d2:	5a01                	li	s4,-32
      d4:	5e01f303          	0x5e01f303
	else if (pin <= pin_D7) {
      d8:	025c0107          	0x25c0107
		PinOffset = (pin - 10);
      dc:	0078                	addi	a4,sp,12
      de:	0000                	unimp
		GPIOx = GPIOD;
      e0:	a702                	fsd	ft0,392(sp)
      e2:	00000017          	auipc	zero,0x0
      e6:	0000                	unimp
      e8:	0000                	unimp
      ea:	0000                	unimp
		GPIOx-> BSHR |= 1 << (16 + PinOffset);
      ec:	0100                	addi	s0,sp,128
      ee:	7f9c                	flw	fa5,56(a5)
	if (pin <= pin_A2) {
      f0:	0001                	nop
      f2:	0300                	addi	s0,sp,384
      f4:	17b8                	addi	a4,sp,1000
		PinOffset *= (pin + 1);
      f6:	0000                	unimp
      f8:	000003bb          	0x3bb
      fc:	0017c503          	lbu	a0,1(a5)
		GPIOx = GPIOA;
     100:	0600                	addi	s0,sp,768
		PinOffset *= (pin + 1);
     102:	0004                	0x4
		GPIOx = GPIOA;
     104:	0300                	addi	s0,sp,384
     106:	17d2                	slli	a5,a5,0x34
	GPIOx->CFGLR &= ~(0b1111<<PinOffset);							// zero the 4 configuration bits
     108:	0000                	unimp
     10a:	0476                	slli	s0,s0,0x1d
     10c:	0000                	unimp
     10e:	0017df03          	lhu	t5,1(a5)
     112:	9700                	0x9700
     114:	0004                	0x4
     116:	0300                	addi	s0,sp,384
	switch (mode) {
     118:	17ec                	addi	a1,sp,1004
     11a:	0000                	unimp
     11c:	04b8                	addi	a4,sp,584
     11e:	0000                	unimp
     120:	f905                	bnez	a0,50 <InterruptVector+0x50>
     122:	f9000017          	auipc	zero,0xf9000
	GPIOx->CFGLR |= modeMask<<PinOffset;
     126:	0004                	0x4
     128:	0500                	addi	s0,sp,640
     12a:	1806                	slli	a6,a6,0x21
     12c:	0000                	unimp
     12e:	0551                	addi	a0,a0,20
     130:	0000                	unimp
     132:	1305                	addi	t1,t1,-31
     134:	0018                	0x18
     136:	8900                	0x8900
     138:	0005                	c.nop	1
     13a:	0500                	addi	s0,sp,640
     13c:	181e                	slli	a6,a6,0x27
     13e:	0000                	unimp
     140:	000005cb          	fnmsub.s	fa1,ft0,ft0,ft0,rne
		digitalWrite(pin, target_pin_state - 1);
     144:	2b08                	fld	fa0,16(a4)
     146:	0018                	0x18
     148:	0000                	unimp
     14a:	0000                	unimp
     14c:	6d00                	flw	fs0,24(a0)
	else if (pin <= pin_C7) {
     14e:	0001                	nop
     150:	0500                	addi	s0,sp,640
     152:	1830                	addi	a2,sp,56
		PinOffset *= (pin - 2);
     154:	0000                	unimp
     156:	05e9                	addi	a1,a1,26
     158:	0000                	unimp
     15a:	0009                	c.nop	2
     15c:	0000                	unimp
		GPIOx = GPIOC;
     15e:	c400                	sw	s0,8(s0)
     160:	000e                	c.slli	zero,0x3
     162:	0900                	addi	s0,sp,144
	else if (pin <= pin_D7) {
     164:	0000                	unimp
     166:	0000                	unimp
     168:	0ecd                	addi	t4,t4,19
		PinOffset *= (pin - 10);
     16a:	0000                	unimp
     16c:	0a00                	addi	s0,sp,272
     16e:	183e                	slli	a6,a6,0x2f
     170:	0000                	unimp
		GPIOx = GPIOD;
     172:	0028                	addi	a0,sp,8
     174:	0000                	unimp
		PinOffset *= (pin - 10);
     176:	00183f0b          	0x183f0b
		GPIOx = GPIOD;
     17a:	0100                	addi	s0,sp,128
     17c:	0056                	c.slli	zero,0x15
}
     17e:	0200                	addi	s0,sp,256
int main() {
     180:	2a88                	fld	fa0,16(a3)
     182:	0000                	unimp
     184:	00a0                	addi	s0,sp,72
	RCC->CFGR0 = RCC_HPRE_DIV1 | RCC_PLLSRC_HSI_Mul2;      // PLLCLK = HSI * 2 = 48 MHz; HCLK = SYSCLK = APB1
     186:	0000                	unimp
     188:	0050                	addi	a2,sp,4
	RCC->CTLR  = RCC_HSION | RCC_PLLON | ((HSITRIM) << 3); // Use HSI, but enable PLL.
     18a:	0000                	unimp
     18c:	9c01                	0x9c01
	RCC->CFGR0 = RCC_HPRE_DIV1 | RCC_PLLSRC_HSI_Mul2;      // PLLCLK = HSI * 2 = 48 MHz; HCLK = SYSCLK = APB1
     18e:	01b5                	addi	gp,gp,13
     190:	0000                	unimp
	RCC->CTLR  = RCC_HSION | RCC_PLLON | ((HSITRIM) << 3); // Use HSI, but enable PLL.
     192:	002a9403          	lh	s0,2(s5)
     196:	0700                	addi	s0,sp,896
	FLASH->ACTLR = FLASH_ACTLR_LATENCY_1;                  // 1 Cycle Latency
     198:	0006                	c.slli	zero,0x1
     19a:	0400                	addi	s0,sp,512
     19c:	2aa0                	fld	fs0,80(a3)
     19e:	0000                	unimp
	RCC->INTR  = 0x009F0000;                               // Clear PLL, CSSC, HSE, HSI and LSI ready flags.
     1a0:	5b01                	li	s6,-32
     1a2:	ac05                	j	3d2 <SysTick_Handler+0xf2>
     1a4:	002a                	c.slli	zero,0xa
	while((RCC->CTLR & RCC_PLLRDY) == 0);                                      // Wait till PLL is ready
     1a6:	8100                	0x8100
     1a8:	0006                	c.slli	zero,0x1
     1aa:	0500                	addi	s0,sp,640
     1ac:	2ab8                	fld	fa4,80(a3)
     1ae:	0000                	unimp
     1b0:	000006cf          	fnmadd.s	fa3,ft0,ft0,ft0,rne
	RCC->CFGR0 = ( RCC->CFGR0 & ((uint32_t)~(RCC_SW))) | (uint32_t)RCC_SW_PLL; // Select PLL as system clock source
     1b4:	0200                	addi	s0,sp,256
	while ((RCC->CFGR0 & (uint32_t)RCC_SWS) != (uint32_t)0x08);                // Wait till PLL is used as system clock source
     1b6:	2ac5                	jal	3a6 <SysTick_Handler+0xc6>
	RCC->CFGR0 = ( RCC->CFGR0 & ((uint32_t)~(RCC_SW))) | (uint32_t)RCC_SW_PLL; // Select PLL as system clock source
     1b8:	0000                	unimp
     1ba:	00f0                	addi	a2,sp,76
     1bc:	0000                	unimp
     1be:	0090                	addi	a2,sp,64
	while ((RCC->CFGR0 & (uint32_t)RCC_SWS) != (uint32_t)0x08);                // Wait till PLL is used as system clock source
     1c0:	0000                	unimp
     1c2:	9c01                	0x9c01
     1c4:	021d                	addi	tp,tp,7
     1c6:	0000                	unimp
     1c8:	002ad103          	lhu	sp,2(s5)
	SysTick->CTLR = 0;
     1cc:	1c00                	addi	s0,sp,560
     1ce:	03000007          	0x3000007
     1d2:	2add                	jal	3c8 <SysTick_Handler+0xe8>
     1d4:	0000                	unimp
     1d6:	0748                	addi	a0,sp,900
     1d8:	0000                	unimp
     1da:	e905                	bnez	a0,20a <main+0x8a>
     1dc:	002a                	c.slli	zero,0xa
	SysTick->CMP = (SYSTEM_CORE_CLOCK/SYSTICKHZ)-1;
     1de:	8200                	0x8200
     1e0:	05000007          	0x5000007
	SysTick->CNT = 0;
     1e4:	2af5                	jal	3e0 <SysTick_Handler+0x100>
     1e6:	0000                	unimp
	systick_cnt = 0;
     1e8:	07c5                	addi	a5,a5,17
     1ea:	0000                	unimp
	SysTick->CTLR = SYSTICK_CTLR_STE | SYSTICK_CTLR_STIE |
     1ec:	0105                	addi	sp,sp,1
     1ee:	1200002b          	0x1200002b
	pinMode(pin_A1, pinMode_I_floating);
     1f2:	0008                	0x8
     1f4:	0500                	addi	s0,sp,640
			RCC->APB2PCENR |= RCC_APB2Periph_GPIOA;
     1f6:	2b0d                	jal	728 <_data_lma+0x1a4>
     1f8:	0000                	unimp
     1fa:	0844                	addi	s1,sp,20
			RCC->APB2PCENR |= RCC_APB2Periph_GPIOC;
     1fc:	0000                	unimp
     1fe:	4e0c                	lw	a1,24(a2)
     200:	0001                	nop
     202:	7f00                	flw	fs0,56(a4)
     204:	0001                	nop
	pinMode(pin_A2, pinMode_I_floating);
     206:	0700                	addi	s0,sp,896
     208:	5b01                	li	s6,-32
     20a:	f310                	fsw	fa2,32(a4)
	pinMode(pin_C1, pinMode_I_floating);
     20c:	5b01                	li	s6,-32
     20e:	00009803          	lh	a6,0(ra)
	pinMode(pin_C2, pinMode_I_floating);
     212:	2220                	fld	fs0,64(a2)
     214:	0194                	addi	a3,sp,192
     216:	ff08                	fsw	fa0,56(a4)
		int temp=LEDs[0].brightness;
     218:	311a                	fld	ft2,416(sp)
     21a:	001c                	0x1c
     21c:	0200                	addi	s0,sp,256
     21e:	143e                	slli	s0,s0,0x2f
	...
	uint32_t end = systick_cnt + n; 
     228:	0000                	unimp
     22a:	9c01                	0x9c01
	while( ((int32_t)(systick_cnt - end )) < 0 );
     22c:	0258                	addi	a4,sp,260
     22e:	0000                	unimp
     230:	00145b03          	lhu	s6,1(s0)
     234:	7d00                	flw	fs0,56(a0)
		int temp=LEDs[0].brightness;
     236:	0008                	0x8
     238:	0400                	addi	s0,sp,512
		for(int i=1; i<12; i++){
     23a:	1468                	addi	a0,sp,556
		int temp=LEDs[0].brightness;
     23c:	0000                	unimp
     23e:	5b01                	li	s6,-32
			LEDs[i-1].brightness=LEDs[i].brightness;
     240:	4f0d                	li	t5,3
     242:	0014                	0x14
     244:	0000                	unimp
     246:	750a                	flw	fa0,160(sp)
     248:	0014                	0x14
     24a:	4000                	lw	s0,0(s0)
     24c:	0000                	unimp
     24e:	0b00                	addi	s0,sp,400
     250:	1476                	slli	s0,s0,0x3d
     252:	0000                	unimp
     254:	5f01                	li	t5,-32
     256:	0000                	unimp
     258:	7302                	flw	ft6,32(sp)
     25a:	001d                	c.nop	7
	...
		for(int i=1; i<12; i++){
     264:	0100                	addi	s0,sp,128
		LEDs[11].brightness=temp;
     266:	a59c                	fsd	fa5,8(a1)
     268:	0002                	c.slli64	zero
	while(1){
     26a:	0300                	addi	s0,sp,384
	asm volatile( "\n\
     26c:	00001d83          	lh	s11,0(zero) # 0 <InterruptVector>
     270:	08cd                	addi	a7,a7,19
     272:	0000                	unimp
     274:	001d8d03          	lb	s10,1(s11)
     278:	ee00                	fsw	fs0,24(a2)
     27a:	0008                	0x8
     27c:	0300                	addi	s0,sp,384
     27e:	1d99                	addi	s11,s11,-26
     280:	0000                	unimp
     282:	00000917          	auipc	s2,0x0
     286:	0006                	c.slli	zero,0x1
     288:	0000                	unimp
     28a:	1d00                	addi	s0,sp,688
     28c:	0002                	c.slli64	zero
     28e:	0700                	addi	s0,sp,896
     290:	5a01                	li	s4,-32
     292:	5a01f303          	0x5a01f303
asm volatile(
     296:	025b0107          	0x25b0107
     29a:	0078                	addi	a4,sp,12
     29c:	ae0e                	fsd	ft3,280(sp)
     29e:	0002                	c.slli64	zero
     2a0:	0100                	addi	s0,sp,128
     2a2:	0030                	addi	a2,sp,8
     2a4:	0f00                	addi	s0,sp,912
     2a6:	143e                	slli	s0,s0,0x2f
     2a8:	0000                	unimp
     2aa:	02b4                	addi	a3,sp,328
     2ac:	0000                	unimp
     2ae:	4f10                	lw	a2,24(a4)
     2b0:	0014                	0x14
     2b2:	0000                	unimp
     2b4:	e502                	fsw	ft0,136(sp)
     2b6:	80000023          	sb	zero,-2048(zero) # fffff800 <__global_pointer$+0xdfffef70>
     2ba:	0001                	nop
     2bc:	ec00                	fsw	fs0,24(s0)
     2be:	0000                	unimp
     2c0:	0100                	addi	s0,sp,128
     2c2:	219c                	fld	fa5,0(a1)
     2c4:	0004                	0x4
     2c6:	1100                	addi	s0,sp,160
     2c8:	14dd                	addi	s1,s1,-9
	SETUP_SYSTICK_HCLK
     2ca:	0000                	unimp
     2cc:	0180                	addi	s0,sp,192
     2ce:	0000                	unimp
     2d0:	0058                	addi	a4,sp,4
asm volatile(
     2d2:	0000                	unimp
     2d4:	1202d303          	lhu	t1,288(t0)
     2d8:	0000246f          	jal	s0,22d8 <main.c.6f2e4722+0x51f>
     2dc:	01cc                	addi	a1,sp,196
	asm volatile( "1: j 1b" );
     2de:	0000                	unimp
{
     2e0:	0024                	addi	s1,sp,8
     2e2:	0000                	unimp
     2e4:	0602d403          	lhu	s0,96(t0)
	SysTick->CMP += (SYSTEM_CORE_CLOCK/SYSTICKHZ);
     2e8:	13000003          	lb	zero,304(zero) # 130 <pinMode+0x40>
{
     2ec:	00002477          	0x2477
	SysTick->CMP += (SYSTEM_CORE_CLOCK/SYSTICKHZ);
     2f0:	01d4                	addi	a3,sp,196
     2f2:	0000                	unimp
{
     2f4:	000a                	c.slli	zero,0x2
     2f6:	0000                	unimp
     2f8:	03026f03          	0x3026f03
     2fc:	2480                	fld	fs0,8(s1)
     2fe:	0000                	unimp
     300:	0938                	addi	a4,sp,152
     302:	0000                	unimp
     304:	0000                	unimp
     306:	1a14                	addi	a3,sp,304
     308:	f000002b          	0xf000002b
     30c:	0001                	nop
     30e:	7000                	flw	fs0,32(s0)
     310:	0000                	unimp
     312:	0300                	addi	s0,sp,384
     314:	033a02d7          	0x33a02d7
     318:	0000                	unimp
     31a:	002b2603          	lw	a2,2(s6)
	SysTick->CMP += (SYSTEM_CORE_CLOCK/SYSTICKHZ);
     31e:	4c00                	lw	s0,24(s0)
     320:	0009                	c.nop	2
     322:	1500                	addi	s0,sp,672
	SysTick->SR = 0;
     324:	2b1a                	fld	fs6,384(sp)
     326:	0000                	unimp
	systick_cnt++;
     328:	01f0                	addi	a2,sp,204
     32a:	0000                	unimp
     32c:	0070                	addi	a2,sp,12
     32e:	0000                	unimp
     330:	1702                	slli	a4,a4,0x20
     332:	1006                	c.slli	zero,0x21
     334:	2b26                	fld	fs6,72(sp)
     336:	0000                	unimp
	ramp=systick_cnt & 0x3F;		// 0 to 63
     338:	0000                	unimp
     33a:	1a12                	slli	s4,s4,0x24
     33c:	fc00002b          	0xfc00002b
     340:	0001                	nop
     342:	0800                	addi	s0,sp,16
	if (ramp == 0) {
     344:	0000                	unimp
     346:	0300                	addi	s0,sp,384
     348:	02d8                	addi	a4,sp,324
     34a:	0358                	addi	a4,sp,388
     34c:	0000                	unimp
     34e:	002b2603          	lw	a2,2(s6)
		pinMode(LEDs[group[currentgroup][0]].pinCathode, pinMode_I_floating); // switch off this group
     352:	6000                	flw	fs0,0(s0)
     354:	0009                	c.nop	2
     356:	0000                	unimp
     358:	f508                	fsw	fa0,40(a0)
     35a:	88000023          	sb	zero,-1920(zero) # fffff880 <__global_pointer$+0xdfffeff0>
     35e:	0000                	unimp
     360:	c400                	sw	s0,8(s0)
     362:	0b000003          	lb	zero,176(zero) # b0 <digitalWrite+0x10>
     366:	23f6                	fld	ft7,344(sp)
     368:	0000                	unimp
     36a:	7a06                	flw	fs4,96(sp)
     36c:	0800                	addi	s0,sp,16
     36e:	1aff                	0x1aff
     370:	089f 2402 0000      	0x2402089f
     376:	00b0                	addi	a2,sp,72
     378:	0000                	unimp
     37a:	0386                	slli	t2,t2,0x1
     37c:	0000                	unimp
     37e:	0024030b          	0x24030b
     382:	0100                	addi	s0,sp,128
     384:	005e                	c.slli	zero,0x17
		currentgroup = (currentgroup + 1) & 0x3;	// move to next group
     386:	00241013          	slli	zero,s0,0x2
     38a:	2400                	fld	fs0,8(s0)
     38c:	0002                	c.slli64	zero
     38e:	1200                	addi	s0,sp,288
     390:	0000                	unimp
		pinMode(LEDs[group[currentgroup][0]].pinCathode, pinMode_O_pushPull); // switch on the group
     392:	0300                	addi	s0,sp,384
     394:	03e2                	slli	t2,t2,0x18
		currentgroup = (currentgroup + 1) & 0x3;	// move to next group
     396:	00241c03          	lh	s8,2(s0)
		pinMode(LEDs[group[currentgroup][0]].pinCathode, pinMode_O_pushPull); // switch on the group
     39a:	7400                	flw	fs0,40(s0)
     39c:	0009                	c.nop	2
     39e:	1300                	addi	s0,sp,416
     3a0:	00002427          	fsw	ft0,8(zero) # 8 <InterruptVector+0x8>
     3a4:	0224                	addi	s1,sp,264
     3a6:	0000                	unimp
     3a8:	0012                	c.slli	zero,0x4
     3aa:	0000                	unimp
     3ac:	0302cc03          	lbu	s8,48(t0)
     3b0:	00002433          	sltz	s0,zero
     3b4:	0988                	addi	a0,sp,208
     3b6:	0000                	unimp
     3b8:	3d05                	jal	1e8 <main+0x68>
     3ba:	0024                	addi	s1,sp,8
     3bc:	9e00                	0x9e00
     3be:	0009                	c.nop	2
     3c0:	0000                	unimp
     3c2:	0000                	unimp
     3c4:	0616                	slli	a2,a2,0x5
     3c6:	0002                	c.slli64	zero
		digitalWrite(LEDs[group[currentgroup][0]].pinCathode, low);
     3c8:	b500                	fsd	fs0,40(a0)
     3ca:	0001                	nop
     3cc:	dc00                	sw	s0,56(s0)
     3ce:	07000003          	lb	zero,112(zero) # 70 <InterruptVector+0x70>
     3d2:	5a01                	li	s4,-32
     3d4:	3001                	jal	fffffbd4 <__global_pointer$+0xdffff344>
     3d6:	015b0107          	0x15b0107
		pinMode(LEDs[group[currentgroup][0]].pinAnode, pinMode_O_pushPull); // switch on this LED
     3da:	0030                	addi	a2,sp,8
     3dc:	0c16                	slli	s8,s8,0x5
     3de:	0002                	c.slli64	zero
     3e0:	b500                	fsd	fs0,40(a0)
     3e2:	0001                	nop
     3e4:	f400                	fsw	fs0,40(s0)
     3e6:	07000003          	lb	zero,112(zero) # 70 <InterruptVector+0x70>
     3ea:	5a01                	li	s4,-32
		digitalWrite(LEDs[group[currentgroup][0]].pinAnode, high);
     3ec:	3101                	jal	ffffffec <__global_pointer$+0xdffff75c>
     3ee:	015b0107          	0x15b0107
     3f2:	0030                	addi	a2,sp,8
     3f4:	1216                	slli	tp,tp,0x25
     3f6:	0002                	c.slli64	zero
     3f8:	b500                	fsd	fs0,40(a0)
     3fa:	0001                	nop
     3fc:	0c00                	addi	s0,sp,528
		pinMode(LEDs[group[currentgroup][1]].pinAnode, pinMode_O_pushPull); // switch on this LED
     3fe:	0004                	0x4
     400:	0700                	addi	s0,sp,896
     402:	5a01                	li	s4,-32
     404:	3301                	jal	104 <pinMode+0x14>
     406:	015b0107          	0x15b0107
     40a:	0030                	addi	a2,sp,8
     40c:	1806                	slli	a6,a6,0x21
     40e:	0002                	c.slli64	zero
     410:	b500                	fsd	fs0,40(a0)
     412:	0001                	nop
     414:	0700                	addi	s0,sp,896
     416:	5a01                	li	s4,-32
     418:	3401                	jal	fffffe18 <__global_pointer$+0xdffff588>
     41a:	015b0107          	0x15b0107
     41e:	0030                	addi	a2,sp,8
     420:	1700                	addi	s0,sp,928
     422:	00001daf          	0x1daf
		digitalWrite(LEDs[group[currentgroup][1]].pinAnode, high);
     426:	026c                	addi	a1,sp,268
     428:	0000                	unimp
     42a:	0072                	c.slli	zero,0x1c
     42c:	0000                	unimp
     42e:	9c01                	0x9c01
     430:	001da617          	auipc	a2,0x1da
     434:	de00                	sw	s0,56(a2)
		pinMode(LEDs[group[currentgroup][2]].pinAnode, pinMode_O_pushPull); // switch on this LED
     436:	0002                	c.slli64	zero
     438:	0200                	addi	s0,sp,256
     43a:	0000                	unimp
     43c:	0100                	addi	s0,sp,128
     43e:	029c                	addi	a5,sp,320
     440:	1d18                	addi	a4,sp,688
	...
     44a:	0000                	unimp
     44c:	9c01                	0x9c01
     44e:	0465                	addi	s0,s0,25
     450:	0000                	unimp
     452:	001d2803          	lw	a6,1(s10)
     456:	b100                	fsd	fs0,32(a0)
     458:	0009                	c.nop	2
     45a:	0500                	addi	s0,sp,640
		digitalWrite(LEDs[group[currentgroup][2]].pinAnode, high);
     45c:	1d32                	slli	s10,s10,0x2c
     45e:	0000                	unimp
     460:	000009cf          	fnmadd.s	fs3,ft0,ft0,ft0,rne
     464:	0200                	addi	s0,sp,256
     466:	1d3d                	addi	s10,s10,-17
	...
     470:	0000                	unimp
	if (LEDs[group[currentgroup][0]].brightness == ramp) { // if the target pulse width has been achieved
     472:	9c01                	0x9c01
     474:	0728                	addi	a0,sp,904
     476:	0000                	unimp
     478:	001d4d03          	lbu	s10,1(s10)
     47c:	fb00                	fsw	fs0,48(a4)
     47e:	0009                	c.nop	2
     480:	0b00                	addi	s0,sp,400
     482:	1d5a                	slli	s10,s10,0x36
     484:	0000                	unimp
     486:	7fac9103          	lh	sp,2042(s9)
     48a:	6618                	flw	fa4,8(a2)
     48c:	001d                	c.nop	7
     48e:	1500                	addi	s0,sp,672
     490:	15b4                	addi	a3,sp,744
     492:	0000                	unimp
     494:	0000                	unimp
     496:	0000                	unimp
     498:	00c8                	addi	a0,sp,68
     49a:	0000                	unimp
     49c:	1e01                	addi	t3,t3,-32
		pinMode(LEDs[group[currentgroup][0]].pinAnode, pinMode_I_floating); // switch off this LED
     49e:	15c51013          	0x15c51013
     4a2:	0000                	unimp
     4a4:	d20d                	beqz	a2,3c6 <SysTick_Handler+0xe6>
     4a6:	0015                	c.nop	5
     4a8:	0000                	unimp
     4aa:	0015ec03          	0x15ec03
     4ae:	1c00                	addi	s0,sp,560
     4b0:	000a                	c.slli	zero,0x2
     4b2:	0300                	addi	s0,sp,384
     4b4:	15df 0000 0b01      	0xb01000015df
     4ba:	0000                	unimp
     4bc:	e019                	bnez	s0,4c2 <SysTick_Handler+0x1e2>
     4be:	0000                	unimp
     4c0:	0b00                	addi	s0,sp,400
     4c2:	15f8                	addi	a4,sp,748
	if (LEDs[group[currentgroup][1]].brightness == ramp) {
     4c4:	0000                	unimp
     4c6:	7fb09103          	lh	sp,2043(ra)
     4ca:	0016040b          	0x16040b
     4ce:	0200                	addi	s0,sp,256
     4d0:	4891                	li	a7,4
     4d2:	0016110b          	0x16110b
     4d6:	0300                	addi	s0,sp,384
     4d8:	ab91                	j	a2c <_data_lma+0x4a8>
     4da:	057f                	0x57f
     4dc:	161d                	addi	a2,a2,-25
     4de:	0000                	unimp
     4e0:	00000ba7          	0xba7
     4e4:	281a                	fld	fa6,384(sp)
     4e6:	0016                	c.slli	zero,0x5
		pinMode(LEDs[group[currentgroup][1]].pinAnode, pinMode_I_floating); // switch off this LED
     4e8:	0000                	unimp
     4ea:	0000                	unimp
     4ec:	0a00                	addi	s0,sp,272
     4ee:	1631                	addi	a2,a2,-20
     4f0:	0000                	unimp
     4f2:	00e8                	addi	a0,sp,76
     4f4:	0000                	unimp
     4f6:	3205                	jal	fffffe16 <__global_pointer$+0xdffff586>
     4f8:	0016                	c.slli	zero,0x5
     4fa:	fa00                	fsw	fs0,48(a2)
     4fc:	0800000b          	0x800000b
     500:	0000163f 00000120 	0x1200000163f
     508:	0709                	addi	a4,a4,2
     50a:	0000                	unimp
     50c:	4005                	c.li	zero,1
	if (LEDs[group[currentgroup][2]].brightness == ramp) {
     50e:	0016                	c.slli	zero,0x5
     510:	7d00                	flw	fs0,56(a0)
     512:	000c                	0xc
     514:	0500                	addi	s0,sp,640
     516:	164d                	addi	a2,a2,-13
     518:	0000                	unimp
     51a:	0cb5                	addi	s9,s9,13
     51c:	0000                	unimp
     51e:	5a05                	li	s4,-31
     520:	0016                	c.slli	zero,0x5
     522:	0500                	addi	s0,sp,640
     524:	000d                	c.nop	3
     526:	0b00                	addi	s0,sp,400
     528:	1665                	addi	a2,a2,-7
     52a:	0000                	unimp
     52c:	5f01                	li	t5,-32
     52e:	0017a71b          	0x17a71b
	...
		pinMode(LEDs[group[currentgroup][2]].pinAnode, pinMode_I_floating); // switch off this LED
     53a:	0100                	addi	s0,sp,128
     53c:	0236                	slli	tp,tp,0xd
     53e:	8d0d                	sub	a0,a0,a1
}
     540:	0005                	c.nop	1
     542:	0300                	addi	s0,sp,384
     544:	17ec                	addi	a1,sp,1004
     546:	0000                	unimp
     548:	0d68                	addi	a0,sp,668
     54a:	0000                	unimp
     54c:	0017df03          	lhu	t5,1(a5)
     550:	8800                	0x8800
     552:	000d                	c.nop	3
     554:	0300                	addi	s0,sp,384
     556:	17d2                	slli	a5,a5,0x34
     558:	0000                	unimp
     55a:	0da6                	slli	s11,s11,0x9
     55c:	0000                	unimp
     55e:	0017c503          	lbu	a0,1(a5)
     562:	ba00                	fsd	fs0,48(a2)
     564:	000d                	c.nop	3
     566:	0300                	addi	s0,sp,384
     568:	17b8                	addi	a4,sp,1000
     56a:	0000                	unimp
     56c:	0dce                	slli	s11,s11,0x13
     56e:	0000                	unimp
     570:	f905                	bnez	a0,4a0 <SysTick_Handler+0x1c0>
     572:	68000017          	auipc	zero,0x68000
     576:	000d                	c.nop	3
     578:	0500                	addi	s0,sp,640
     57a:	1806                	slli	a6,a6,0x21
     57c:	0000                	unimp
     57e:	0da6                	slli	s11,s11,0x9
     580:	0000                	unimp
     582:	1318                	addi	a4,sp,416
     584:	0018                	0x18
     586:	1800                	addi	s0,sp,48
     588:	181e                	slli	a6,a6,0x27
     58a:	0000                	unimp
     58c:	1c00                	addi	s0,sp,560
     58e:	000017a7          	0x17a7
     592:	0000                	unimp
     594:	0000                	unimp
     596:	0150                	addi	a2,sp,132
     598:	0000                	unimp
     59a:	3b01                	jal	2aa <handle_reset+0x3e>
     59c:	0e02                	c.slli64	t3
     59e:	0602                	c.slli64	a2
     5a0:	0000                	unimp
     5a2:	0017ec03          	0x17ec03
     5a6:	e200                	fsw	fs0,0(a2)
     5a8:	000d                	c.nop	3
     5aa:	0300                	addi	s0,sp,384
     5ac:	17df 0000 0e02      	0xe02000017df
     5b2:	0000                	unimp
     5b4:	0017d203          	lhu	tp,1(a5)
     5b8:	0200                	addi	s0,sp,256
     5ba:	000e                	c.slli	zero,0x3
     5bc:	0300                	addi	s0,sp,384
     5be:	17c5                	addi	a5,a5,-15
     5c0:	0000                	unimp
     5c2:	0e16                	slli	t3,t3,0x5
     5c4:	0000                	unimp
     5c6:	b810                	fsd	fa2,48(s0)
     5c8:	19000017          	auipc	zero,0x19000
     5cc:	0150                	addi	a2,sp,132
     5ce:	0000                	unimp
     5d0:	f905                	bnez	a0,500 <SysTick_Handler+0x220>
     5d2:	e2000017          	auipc	zero,0xe2000
     5d6:	000d                	c.nop	3
     5d8:	0500                	addi	s0,sp,640
     5da:	1806                	slli	a6,a6,0x21
     5dc:	0000                	unimp
     5de:	0e02                	c.slli64	t3
     5e0:	0000                	unimp
     5e2:	1318                	addi	a4,sp,416
     5e4:	0018                	0x18
     5e6:	1800                	addi	s0,sp,48
     5e8:	181e                	slli	a6,a6,0x27
     5ea:	0000                	unimp
     5ec:	0006                	c.slli	zero,0x1
     5ee:	0000                	unimp
     5f0:	e000                	fsw	fs0,0(s0)
     5f2:	0000                	unimp
     5f4:	0700                	addi	s0,sp,896
     5f6:	5b01                	li	s6,-32
     5f8:	3a01                	jal	ffffff08 <__global_pointer$+0xdffff678>
     5fa:	015c0107          	0x15c0107
     5fe:	0030                	addi	a2,sp,8
     600:	0000                	unimp
     602:	0017a71b          	0x17a71b
	...
     60e:	0100                	addi	s0,sp,128
     610:	0239                	addi	tp,tp,14
     612:	610e                	flw	ft2,192(sp)
     614:	0006                	c.slli	zero,0x1
     616:	0300                	addi	s0,sp,384
     618:	17ec                	addi	a1,sp,1004
     61a:	0000                	unimp
     61c:	0e2a                	slli	t3,t3,0xa
     61e:	0000                	unimp
     620:	0017df03          	lhu	t5,1(a5)
     624:	4a00                	lw	s0,16(a2)
     626:	000e                	c.slli	zero,0x3
     628:	0300                	addi	s0,sp,384
     62a:	17d2                	slli	a5,a5,0x34
     62c:	0000                	unimp
     62e:	0e5e                	slli	t3,t3,0x17
     630:	0000                	unimp
     632:	0017c503          	lbu	a0,1(a5)
     636:	7200                	flw	fs0,32(a2)
     638:	000e                	c.slli	zero,0x3
     63a:	0300                	addi	s0,sp,384
     63c:	17b8                	addi	a4,sp,1000
     63e:	0000                	unimp
     640:	0e86                	slli	t4,t4,0x1
     642:	0000                	unimp
     644:	f905                	bnez	a0,574 <SysTick_Handler+0x294>
     646:	2a000017          	auipc	zero,0x2a000
     64a:	000e                	c.slli	zero,0x3
     64c:	0500                	addi	s0,sp,640
     64e:	1806                	slli	a6,a6,0x21
     650:	0000                	unimp
     652:	0e5e                	slli	t3,t3,0x17
     654:	0000                	unimp
     656:	1318                	addi	a4,sp,416
     658:	0018                	0x18
     65a:	1800                	addi	s0,sp,48
     65c:	181e                	slli	a6,a6,0x27
     65e:	0000                	unimp
     660:	1c00                	addi	s0,sp,560
     662:	000017a7          	0x17a7
     666:	0000                	unimp
     668:	0000                	unimp
     66a:	0168                	addi	a0,sp,140
     66c:	0000                	unimp
     66e:	4701                	li	a4,0
     670:	0d02                	c.slli64	s10
     672:	06e0                	addi	s0,sp,844
     674:	0000                	unimp
     676:	0017ec03          	0x17ec03
     67a:	9a00                	0x9a00
     67c:	000e                	c.slli	zero,0x3
     67e:	0300                	addi	s0,sp,384
     680:	17df 0000 0ec7      	0xec7000017df
     686:	0000                	unimp
     688:	0017d203          	lhu	tp,1(a5)
     68c:	db00                	sw	s0,48(a4)
     68e:	000e                	c.slli	zero,0x3
     690:	0300                	addi	s0,sp,384
     692:	17c5                	addi	a5,a5,-15
     694:	0000                	unimp
     696:	00000f0f          	0xf0f
     69a:	0017b803          	0x17b803
     69e:	2300                	fld	fs0,0(a4)
     6a0:	1900000f          	0x1900000f
     6a4:	0168                	addi	a0,sp,140
     6a6:	0000                	unimp
     6a8:	f905                	bnez	a0,5d8 <_data_lma+0x54>
     6aa:	36000017          	auipc	zero,0x36000
     6ae:	0500000f          	fence	ow,unknown
     6b2:	1806                	slli	a6,a6,0x21
     6b4:	0000                	unimp
     6b6:	00000f63          	beqz	zero,6d4 <_data_lma+0x150>
     6ba:	1318                	addi	a4,sp,416
     6bc:	0018                	0x18
     6be:	1800                	addi	s0,sp,48
     6c0:	181e                	slli	a6,a6,0x27
     6c2:	0000                	unimp
     6c4:	0006                	c.slli	zero,0x1
     6c6:	0000                	unimp
     6c8:	e000                	fsw	fs0,0(s0)
     6ca:	0000                	unimp
     6cc:	0700                	addi	s0,sp,896
     6ce:	5b01                	li	s6,-32
     6d0:	4001                	c.li	zero,0
     6d2:	015d0107          	0x15d0107
     6d6:	0731                	addi	a4,a4,12
     6d8:	5e01                	li	t3,-32
     6da:	9102                	jalr	sp
     6dc:	0048                	addi	a0,sp,4
     6de:	0000                	unimp
     6e0:	0016                	c.slli	zero,0x5
     6e2:	0000                	unimp
     6e4:	3f00                	fld	fs0,56(a4)
     6e6:	0004                	0x4
     6e8:	f600                	fsw	fs0,40(a2)
     6ea:	0006                	c.slli	zero,0x1
     6ec:	0700                	addi	s0,sp,896
     6ee:	5a01                	li	s4,-32
     6f0:	9104                	0x9104
     6f2:	7fa0                	flw	fs0,120(a5)
     6f4:	0006                	c.slli	zero,0x1
     6f6:	0009                	c.nop	2
     6f8:	0000                	unimp
     6fa:	6d00                	flw	fs0,24(a0)
     6fc:	0000                	unimp
     6fe:	0900                	addi	s0,sp,144
     700:	0000                	unimp
     702:	0000                	unimp
     704:	0258                	addi	a4,sp,260
     706:	0000                	unimp
     708:	0600                	addi	s0,sp,768
     70a:	0000                	unimp
     70c:	0000                	unimp
     70e:	0258                	addi	a4,sp,260
     710:	0000                	unimp
     712:	035a0107          	0x35a0107
     716:	ab91                	j	c6a <_data_lma+0x6e6>
     718:	077f                	0x77f
     71a:	5b01                	li	s6,-32
     71c:	3101                	jal	31c <SysTick_Handler+0x3c>
     71e:	015c0107          	0x15c0107
     722:	0030                	addi	a2,sp,8
     724:	0000                	unimp
     726:	0000                	unimp
     728:	ae02                	fsd	ft0,280(sp)
     72a:	001c                	0x1c
	...
     734:	0100                	addi	s0,sp,128
     736:	5c9c                	lw	a5,56(s1)
     738:	04000007          	0x4000007
     73c:	1cbe                	slli	s9,s9,0x2f
     73e:	0000                	unimp
     740:	5a01                	li	s4,-32
     742:	ca04                	sw	s1,16(a2)
     744:	001c                	0x1c
     746:	0100                	addi	s0,sp,128
     748:	1cd4035b          	0x1cd4035b
     74c:	0000                	unimp
     74e:	00000f77          	0xf77
     752:	de05                	beqz	a2,68a <_data_lma+0x106>
     754:	001c                	0x1c
     756:	d500                	sw	s0,40(a0)
     758:	0000000f          	fence	unknown,unknown
     75c:	8902                	jr	s2
     75e:	001c                	0x1c
	...
     768:	0100                	addi	s0,sp,128
     76a:	829c                	0x829c
     76c:	03000007          	0x3000007
     770:	1c99                	addi	s9,s9,-26
     772:	0000                	unimp
     774:	00000ff3          	0xff3
     778:	001ca303          	lw	t1,1(s9)
     77c:	1100                	addi	s0,sp,160
     77e:	0010                	0x10
     780:	0000                	unimp
     782:	5a02                	lw	s4,32(sp)
     784:	001c                	0x1c
	...
     78e:	0100                	addi	s0,sp,128
     790:	b19c                	fsd	fa5,32(a1)
     792:	03000007          	0x3000007
     796:	1c6a                	slli	s8,s8,0x3a
     798:	0000                	unimp
     79a:	0000102f          	0x102f
     79e:	001c7403          	0x1c7403
     7a2:	4d00                	lw	s0,24(a0)
     7a4:	0010                	0x10
     7a6:	0300                	addi	s0,sp,384
     7a8:	1c7e                	slli	s8,s8,0x3f
     7aa:	0000                	unimp
     7ac:	0000106b          	0x106b
     7b0:	0200                	addi	s0,sp,256
     7b2:	1c35                	addi	s8,s8,-19
	...
     7bc:	0000                	unimp
     7be:	9c01                	0x9c01
     7c0:	000007d7          	0x7d7
     7c4:	001c4503          	lbu	a0,1(s8)
     7c8:	9c00                	0x9c00
     7ca:	0010                	0x10
     7cc:	0300                	addi	s0,sp,384
     7ce:	00001c4f          	fnmadd.s	fs8,ft0,ft0,ft0,rtz
     7d2:	10ba                	slli	ra,ra,0x2e
     7d4:	0000                	unimp
     7d6:	0200                	addi	s0,sp,256
     7d8:	1bf0                	addi	a2,sp,508
	...
     7e2:	0000                	unimp
     7e4:	9c01                	0x9c01
     7e6:	0816                	slli	a6,a6,0x5
     7e8:	0000                	unimp
     7ea:	001c0003          	lb	zero,1(s8)
     7ee:	d800                	sw	s0,48(s0)
     7f0:	0010                	0x10
     7f2:	0400                	addi	s0,sp,512
     7f4:	00001c0b          	0x1c0b
     7f8:	5b01                	li	s6,-32
     7fa:	001c1603          	lh	a2,1(s8)
     7fe:	1200                	addi	s0,sp,288
     800:	0011                	c.nop	4
     802:	0500                	addi	s0,sp,640
     804:	1c20                	addi	s0,sp,568
     806:	0000                	unimp
     808:	116c                	addi	a1,sp,172
     80a:	0000                	unimp
     80c:	2a05                	jal	93c <_data_lma+0x3b8>
     80e:	001c                	0x1c
     810:	d500                	sw	s0,40(a0)
     812:	0011                	c.nop	4
     814:	0000                	unimp
     816:	0d02                	c.slli64	s10
     818:	001a                	c.slli	zero,0x6
	...
     822:	0100                	addi	s0,sp,128
     824:	6c9c                	flw	fa5,24(s1)
     826:	0008                	0x8
     828:	0300                	addi	s0,sp,384
     82a:	1a1e                	slli	s4,s4,0x27
     82c:	0000                	unimp
     82e:	1230                	addi	a2,sp,296
     830:	0000                	unimp
     832:	001a2903          	lw	s2,1(s4)
     836:	5900                	lw	s0,48(a0)
     838:	0012                	c.slli	zero,0x4
     83a:	1d00                	addi	s0,sp,688
     83c:	1a0d                	addi	s4,s4,-29
	...
     846:	0000                	unimp
     848:	1b01                	addi	s6,s6,-32
     84a:	0701                	addi	a4,a4,0
     84c:	2910                	fld	fa2,16(a0)
     84e:	001a                	c.slli	zero,0x6
     850:	0300                	addi	s0,sp,384
     852:	1a1e                	slli	s4,s4,0x27
     854:	0000                	unimp
     856:	12a1                	addi	t0,t0,-24
     858:	0000                	unimp
     85a:	0006                	c.slli	zero,0x1
     85c:	0000                	unimp
     85e:	3f00                	fld	fs0,56(a4)
     860:	0004                	0x4
     862:	0700                	addi	s0,sp,896
     864:	5a01                	li	s4,-32
     866:	7802                	flw	fa6,32(sp)
     868:	0000                	unimp
     86a:	0000                	unimp
     86c:	a702                	fsd	ft0,392(sp)
     86e:	0019                	c.nop	6
	...
     878:	0100                	addi	s0,sp,128
     87a:	e29c                	fsw	fa5,0(a3)
     87c:	0008                	0x8
     87e:	0300                	addi	s0,sp,384
     880:	19b8                	addi	a4,sp,248
     882:	0000                	unimp
     884:	000012bf 0019c303 	0x19c303000012bf
     88c:	f800                	fsw	fs0,48(s0)
     88e:	0012                	c.slli	zero,0x4
     890:	1b00                	addi	s0,sp,432
     892:	000019cf          	fnmadd.s	fs3,ft0,ft0,ft0,rtz
	...
     89e:	2e01                	jal	bae <_data_lma+0x62a>
     8a0:	0901                	addi	s2,s2,0
     8a2:	08d1                	addi	a7,a7,20
     8a4:	0000                	unimp
     8a6:	0019f603          	0x19f603
     8aa:	2400                	fld	fs0,8(s0)
     8ac:	03000013          	li	zero,48
     8b0:	000019eb          	0x19eb
     8b4:	136c                	addi	a1,sp,428
     8b6:	0000                	unimp
     8b8:	0019e003          	0x19e003
     8bc:	8a00                	0x8a00
     8be:	19000013          	li	zero,400
     8c2:	0188                	addi	a0,sp,192
     8c4:	0000                	unimp
     8c6:	0105                	addi	sp,sp,1
     8c8:	001a                	c.slli	zero,0x6
     8ca:	b700                	fsd	fs0,40(a4)
     8cc:	00000013          	nop
     8d0:	0600                	addi	s0,sp,768
     8d2:	0000                	unimp
     8d4:	0000                	unimp
     8d6:	0000043f 025a0107 	0x25a01070000043f
     8de:	0078                	addi	a4,sp,12
     8e0:	0000                	unimp
     8e2:	5a02                	lw	s4,32(sp)
     8e4:	0019                	c.nop	6
	...
     8ee:	0100                	addi	s0,sp,128
     8f0:	1f9c                	addi	a5,sp,1008
     8f2:	0009                	c.nop	2
     8f4:	0400                	addi	s0,sp,512
     8f6:	0000196b          	0x196b
     8fa:	5a01                	li	s4,-32
     8fc:	7804                	flw	fs1,48(s0)
     8fe:	0019                	c.nop	6
     900:	0100                	addi	s0,sp,128
     902:	1985035b          	0x1985035b
     906:	0000                	unimp
     908:	13e5                	addi	t2,t2,-7
     90a:	0000                	unimp
     90c:	9005                	srli	s0,s0,0x21
     90e:	0019                	c.nop	6
     910:	1a00                	addi	s0,sp,304
     912:	0014                	0x14
     914:	0500                	addi	s0,sp,640
     916:	0000199b          	0x199b
     91a:	145f 0000 0200      	0x2000000145f
     920:	0000190f          	0x190f
	...
     92c:	9c01                	0x9c01
     92e:	095e                	slli	s2,s2,0x17
     930:	0000                	unimp
     932:	00192003          	lw	zero,1(s2) # 283 <handle_reset+0x17>
     936:	a400                	fsd	fs0,8(s0)
     938:	0014                	0x14
     93a:	0400                	addi	s0,sp,512
     93c:	192c                	addi	a1,sp,184
     93e:	0000                	unimp
     940:	5b01                	li	s6,-32
     942:	00193803          	0x193803
     946:	de00                	sw	s0,56(a2)
     948:	0014                	0x14
     94a:	0500                	addi	s0,sp,640
     94c:	00001943          	fmadd.s	fs2,ft0,ft0,ft0,rtz
     950:	00001523          	sh	zero,10(zero) # a <InterruptVector+0xa>
     954:	4e05                	li	t3,1
     956:	0019                	c.nop	6
     958:	9700                	0x9700
     95a:	0015                	c.nop	5
     95c:	0000                	unimp
     95e:	c202                	sw	zero,4(sp)
     960:	0018                	0x18
	...
     96a:	0100                	addi	s0,sp,128
     96c:	079c                	addi	a5,sp,960
     96e:	000a                	c.slli	zero,0x2
     970:	0300                	addi	s0,sp,384
     972:	000018d3          	fadd.s	fa7,ft0,ft0,rtz
     976:	15dc                	addi	a5,sp,740
     978:	0000                	unimp
     97a:	0018e003          	0x18e003
     97e:	1e00                	addi	s0,sp,816
     980:	0016                	c.slli	zero,0x5
     982:	0300                	addi	s0,sp,384
     984:	18ed                	addi	a7,a7,-5
     986:	0000                	unimp
     988:	166e                	slli	a2,a2,0x3b
     98a:	0000                	unimp
     98c:	f805                	bnez	s0,8bc <_data_lma+0x338>
     98e:	0018                	0x18
     990:	d700                	sw	s0,40(a4)
     992:	0016                	c.slli	zero,0x5
     994:	0500                	addi	s0,sp,640
     996:	00001903          	lh	s2,0(zero) # 0 <InterruptVector>
     99a:	1719                	addi	a4,a4,-26
     99c:	0000                	unimp
     99e:	c21c                	sw	a5,0(a2)
     9a0:	0018                	0x18
     9a2:	0000                	unimp
     9a4:	0000                	unimp
     9a6:	a000                	fsd	fs0,0(s0)
     9a8:	0001                	nop
     9aa:	0100                	addi	s0,sp,128
     9ac:	0141                	addi	sp,sp,16
     9ae:	0009e707          	0x9e707
     9b2:	0300                	addi	s0,sp,384
     9b4:	18ed                	addi	a7,a7,-5
     9b6:	0000                	unimp
     9b8:	1769                	addi	a4,a4,-6
     9ba:	0000                	unimp
     9bc:	0018e003          	0x18e003
     9c0:	cf00                	sw	s0,24(a4)
     9c2:	03000017          	auipc	zero,0x3000
     9c6:	000018d3          	fadd.s	fa7,ft0,ft0,rtz
     9ca:	17f8                	addi	a4,sp,1004
     9cc:	0000                	unimp
     9ce:	a019                	j	9d4 <_data_lma+0x450>
     9d0:	0001                	nop
     9d2:	0500                	addi	s0,sp,640
     9d4:	18f8                	addi	a4,sp,124
     9d6:	0000                	unimp
     9d8:	1821                	addi	a6,a6,-24
     9da:	0000                	unimp
     9dc:	0305                	addi	t1,t1,1
     9de:	0019                	c.nop	6
     9e0:	4b00                	lw	s0,16(a4)
     9e2:	0018                	0x18
     9e4:	0000                	unimp
     9e6:	0c00                	addi	s0,sp,528
     9e8:	0000                	unimp
     9ea:	0000                	unimp
     9ec:	0ed6                	slli	t4,t4,0x15
     9ee:	0000                	unimp
     9f0:	035a0107          	0x35a0107
     9f4:	075a01f3          	0x75a01f3
     9f8:	5b01                	li	s6,-32
     9fa:	5b01f303          	0x5b01f303
     9fe:	035c0107          	0x35c0107
     a02:	005c01f3          	0x5c01f3
     a06:	0200                	addi	s0,sp,256
     a08:	1875                	addi	a6,a6,-3
	...
     a12:	0000                	unimp
     a14:	9c01                	0x9c01
     a16:	00000a3f 00188603 	0x18860300000a3f
     a1e:	7500                	flw	fs0,40(a0)
     a20:	0018                	0x18
     a22:	0300                	addi	s0,sp,384
     a24:	00001893          	slli	a7,zero,0x0
     a28:	1896                	slli	a7,a7,0x25
     a2a:	0000                	unimp
     a2c:	00189e03          	lh	t3,1(a7)
     a30:	b400                	fsd	fs0,40(s0)
     a32:	0018                	0x18
     a34:	0500                	addi	s0,sp,640
     a36:	18a9                	addi	a7,a7,-22
     a38:	0000                	unimp
     a3a:	18d5                	addi	a7,a7,-11
     a3c:	0000                	unimp
     a3e:	0200                	addi	s0,sp,256
     a40:	1ce9                	addi	s9,s9,-6
	...
     a4a:	0000                	unimp
     a4c:	9c01                	0x9c01
     a4e:	0a89                	addi	s5,s5,2
     a50:	0000                	unimp
     a52:	001cf903          	0x1cf903
     a56:	e800                	fsw	fs0,16(s0)
     a58:	0018                	0x18
     a5a:	0300                	addi	s0,sp,384
     a5c:	00001d03          	lh	s10,0(zero) # 0 <InterruptVector>
     a60:	1914                	addi	a3,sp,176
     a62:	0000                	unimp
     a64:	0d05                	addi	s10,s10,1
     a66:	001d                	c.nop	7
     a68:	4000                	lw	s0,0(s0)
     a6a:	0019                	c.nop	6
     a6c:	0600                	addi	s0,sp,768
     a6e:	0000                	unimp
     a70:	0000                	unimp
     a72:	00000a07          	0xa07
     a76:	025a0107          	0x25a0107
     a7a:	0079                	c.nop	30
     a7c:	015b0107          	0x15b0107
     a80:	0730                	addi	a2,sp,904
     a82:	5c01                	li	s8,-32
     a84:	7802                	flw	fa6,32(sp)
     a86:	0000                	unimp
     a88:	0200                	addi	s0,sp,256
     a8a:	1a5d                	addi	s4,s4,-9
	...
     a94:	0000                	unimp
     a96:	9c01                	0x9c01
     a98:	0b9c                	addi	a5,sp,464
     a9a:	0000                	unimp
     a9c:	001a6d03          	0x1a6d03
     aa0:	5300                	lw	s0,32(a4)
     aa2:	0019                	c.nop	6
     aa4:	0300                	addi	s0,sp,384
     aa6:	00001a77          	0x1a77
     aaa:	000019c7          	fmsub.s	fs3,ft0,ft0,ft0,rtz
     aae:	8105                	srli	a0,a0,0x1
     ab0:	001a                	c.slli	zero,0x6
     ab2:	2800                	fld	fs0,16(s0)
     ab4:	001a                	c.slli	zero,0x6
     ab6:	0500                	addi	s0,sp,640
     ab8:	00001a8b          	0x1a8b
     abc:	1a69                	addi	s4,s4,-6
     abe:	0000                	unimp
     ac0:	9505                	srai	a0,a0,0x21
     ac2:	001a                	c.slli	zero,0x6
     ac4:	ab00                	fsd	fs0,16(a4)
     ac6:	001a                	c.slli	zero,0x6
     ac8:	0500                	addi	s0,sp,640
     aca:	1aa0                	addi	s0,sp,376
     acc:	0000                	unimp
     ace:	1b02                	slli	s6,s6,0x20
     ad0:	0000                	unimp
     ad2:	ab05                	j	1002 <ch32v003fun.c.297fed70+0x120>
     ad4:	001a                	c.slli	zero,0x6
     ad6:	7800                	flw	fs0,48(s0)
     ad8:	0500001b          	0x500001b
     adc:	1ab5                	addi	s5,s5,-19
     ade:	0000                	unimp
     ae0:	1c54                	addi	a3,sp,564
     ae2:	0000                	unimp
     ae4:	bf05                	j	a14 <_data_lma+0x490>
     ae6:	001a                	c.slli	zero,0x6
     ae8:	1d00                	addi	s0,sp,688
     aea:	001d                	c.nop	7
     aec:	1800                	addi	s0,sp,48
     aee:	1aca                	slli	s5,s5,0x32
     af0:	0000                	unimp
     af2:	d505                	beqz	a0,a1a <_data_lma+0x496>
     af4:	001a                	c.slli	zero,0x6
     af6:	6b00                	flw	fs0,16(a4)
     af8:	001d                	c.nop	7
     afa:	0500                	addi	s0,sp,640
     afc:	1ae1                	addi	s5,s5,-8
     afe:	0000                	unimp
     b00:	00001de7          	0x1de7
     b04:	001aed0b          	0x1aed0b
     b08:	0300                	addi	s0,sp,384
     b0a:	d491                	beqz	s1,a16 <_data_lma+0x492>
     b0c:	1af90b77          	0x1af90b77
     b10:	0000                	unimp
     b12:	77f49103          	lh	sp,1919(s1)
     b16:	0508                	addi	a0,sp,640
     b18:	b800001b          	0xb800001b
     b1c:	0001                	nop
     b1e:	5500                	lw	s0,40(a0)
     b20:	0500000b          	0x500000b
     b24:	1b06                	slli	s6,s6,0x21
     b26:	0000                	unimp
     b28:	00001dfb          	0x1dfb
     b2c:	1205                	addi	tp,tp,-31
     b2e:	2800001b          	0x2800001b
     b32:	001e                	c.slli	zero,0x7
     b34:	0600                	addi	s0,sp,768
     b36:	0000                	unimp
     b38:	0000                	unimp
     b3a:	00000a07          	0xa07
     b3e:	045a0107          	0x45a0107
     b42:	c091                	beqz	s1,b46 <_data_lma+0x5c2>
     b44:	01070677          	0x1070677
     b48:	0730015b          	0x730015b
     b4c:	5c01                	li	s8,-32
     b4e:	9104                	0x9104
     b50:	77bc                	flw	fa5,104(a5)
     b52:	0006                	c.slli	zero,0x1
     b54:	1600                	addi	s0,sp,800
     b56:	0000                	unimp
     b58:	0000                	unimp
     b5a:	0eb9                	addi	t4,t4,14
     b5c:	0000                	unimp
     b5e:	0b75                	addi	s6,s6,29
     b60:	0000                	unimp
     b62:	035a0107          	0x35a0107
     b66:	d491                	beqz	s1,a72 <_data_lma+0x4ee>
     b68:	5b010777          	0x5b010777
     b6c:	3001                	jal	36c <SysTick_Handler+0x8c>
     b6e:	025c0107          	0x25c0107
     b72:	2008                	fld	fa0,0(s0)
     b74:	0600                	addi	s0,sp,768
     b76:	0000                	unimp
     b78:	0000                	unimp
     b7a:	091f 0000 0107      	0x1070000091f
     b80:	045a                	slli	s0,s0,0x16
     b82:	bc91                	j	5d6 <_data_lma+0x52>
     b84:	01070677          	0x1070677
     b88:	bc91095b          	0xbc91095b
     b8c:	b8910677          	0xb8910677
     b90:	07220677          	0x7220677
     b94:	5c01                	li	s8,-32
     b96:	06007203          	0x6007203
     b9a:	0000                	unimp
     b9c:	3502                	fld	fa0,32(sp)
     b9e:	001a                	c.slli	zero,0x6
	...
     ba8:	0100                	addi	s0,sp,128
     baa:	a29c                	fsd	fa5,0(a3)
     bac:	000c                	0xc
     bae:	0300                	addi	s0,sp,384
     bb0:	1a46                	slli	s4,s4,0x31
     bb2:	0000                	unimp
     bb4:	1e46                	slli	t3,t3,0x31
     bb6:	0000                	unimp
     bb8:	001a5103          	lhu	sp,1(s4)
     bbc:	7d00                	flw	fs0,56(a0)
     bbe:	001e                	c.slli	zero,0x7
     bc0:	1b00                	addi	s0,sp,432
     bc2:	1bb5                	addi	s7,s7,-19
	...
     bcc:	0000                	unimp
     bce:	1201                	addi	tp,tp,-32
     bd0:	1401                	addi	s0,s0,-32
     bd2:	00000bfb          	0xbfb
     bd6:	001bcf03          	lbu	t5,1(s7)
     bda:	cd00                	sw	s0,24(a0)
     bdc:	001e                	c.slli	zero,0x7
     bde:	0300                	addi	s0,sp,384
     be0:	1bc5                	addi	s7,s7,-15
     be2:	0000                	unimp
     be4:	1ee0                	addi	s0,sp,892
     be6:	0000                	unimp
     be8:	d905                	beqz	a0,b18 <_data_lma+0x594>
     bea:	1600001b          	0x1600001b
     bee:	001f 0500 1be4      	0x1be40500001f
     bf4:	0000                	unimp
     bf6:	1f41                	addi	t5,t5,-16
     bf8:	0000                	unimp
     bfa:	1b00                	addi	s0,sp,432
     bfc:	1b7a                	slli	s6,s6,0x3e
	...
     c06:	0000                	unimp
     c08:	1401                	addi	s0,s0,-32
     c0a:	1401                	addi	s0,s0,-32
     c0c:	0c35                	addi	s8,s8,13
     c0e:	0000                	unimp
     c10:	001b9403          	lh	s0,1(s7)
     c14:	5f00                	lw	s0,56(a4)
     c16:	001f 0300 1b8a      	0x1b8a0300001f
     c1c:	0000                	unimp
     c1e:	1f72                	slli	t5,t5,0x3c
     c20:	0000                	unimp
     c22:	9e05                	0x9e05
     c24:	a800001b          	0xa800001b
     c28:	001f 0500 1ba9      	0x1ba90500001f
     c2e:	0000                	unimp
     c30:	00001fbb          	0x1fbb
     c34:	1c00                	addi	s0,sp,560
     c36:	00001b3f 00000000 	0x1b3f
     c3e:	01e0                	addi	s0,sp,204
     c40:	0000                	unimp
     c42:	1601                	addi	a2,a2,-32
     c44:	1401                	addi	s0,s0,-32
     c46:	0c75                	addi	s8,s8,29
     c48:	0000                	unimp
     c4a:	001b5903          	lhu	s2,1(s6)
     c4e:	d900                	sw	s0,48(a0)
     c50:	001f 0300 1b4f      	0x1b4f0300001f
     c56:	0000                	unimp
     c58:	00001ff7          	0x1ff7
     c5c:	e019                	bnez	s0,c62 <_data_lma+0x6de>
     c5e:	0001                	nop
     c60:	0500                	addi	s0,sp,640
     c62:	00001b63          	bnez	zero,c78 <_data_lma+0x6f4>
     c66:	2020                	fld	fs0,64(s0)
     c68:	0000                	unimp
     c6a:	6e05                	lui	t3,0x1
     c6c:	3e00001b          	0x3e00001b
     c70:	0020                	addi	s0,sp,8
     c72:	0000                	unimp
     c74:	1600                	addi	s0,sp,800
     c76:	0000                	unimp
     c78:	0000                	unimp
     c7a:	0816                	slli	a6,a6,0x5
     c7c:	0000                	unimp
     c7e:	0c90                	addi	a2,sp,592
     c80:	0000                	unimp
     c82:	035a0107          	0x35a0107
     c86:	075a01f3          	0x75a01f3
     c8a:	5b01                	li	s6,-32
     c8c:	7902                	flw	fs2,32(sp)
     c8e:	0000                	unimp
     c90:	000c                	0xc
     c92:	0000                	unimp
     c94:	8900                	0x8900
     c96:	000a                	c.slli	zero,0x2
     c98:	0700                	addi	s0,sp,896
     c9a:	5b01                	li	s6,-32
     c9c:	5b01f303          	0x5b01f303
     ca0:	0000                	unimp
     ca2:	4c02                	lw	s8,0(sp)
     ca4:	0018                	0x18
	...
     cae:	0100                	addi	s0,sp,128
     cb0:	1c9c                	addi	a5,sp,624
     cb2:	000d                	c.nop	3
     cb4:	0300                	addi	s0,sp,384
     cb6:	185d                	addi	a6,a6,-9
     cb8:	0000                	unimp
     cba:	00002067          	0x2067
     cbe:	6805                	lui	a6,0x1
     cc0:	0018                	0x18
     cc2:	9300                	0x9300
     cc4:	0020                	addi	s0,sp,8
     cc6:	1600                	addi	s0,sp,800
     cc8:	0000                	unimp
     cca:	0000                	unimp
     ccc:	0000043f 00000cdb 	0xcdb0000043f
     cd4:	025a0107          	0x25a0107
     cd8:	0079                	c.nop	30
     cda:	1600                	addi	s0,sp,800
     cdc:	0000                	unimp
     cde:	0000                	unimp
     ce0:	021d                	addi	tp,tp,7
     ce2:	0000                	unimp
     ce4:	0cfc                	addi	a5,sp,604
     ce6:	0000                	unimp
     ce8:	025a0107          	0x25a0107
     cec:	0079                	c.nop	30
     cee:	025b0107          	0x25b0107
     cf2:	0078                	addi	a4,sp,12
     cf4:	ae0e                	fsd	ft3,280(sp)
     cf6:	0002                	c.slli64	zero
     cf8:	0100                	addi	s0,sp,128
     cfa:	0030                	addi	a2,sp,8
     cfc:	0006                	c.slli	zero,0x1
     cfe:	0000                	unimp
     d00:	1d00                	addi	s0,sp,688
     d02:	0002                	c.slli64	zero
     d04:	0700                	addi	s0,sp,896
     d06:	5a01                	li	s4,-32
     d08:	0305                	addi	t1,t1,1
     d0a:	0000                	unimp
     d0c:	0000                	unimp
     d0e:	015b0107          	0x15b0107
     d12:	0e31                	addi	t3,t3,12
     d14:	02ae                	slli	t0,t0,0xb
     d16:	0000                	unimp
     d18:	3001                	jal	518 <SysTick_Handler+0x238>
     d1a:	0000                	unimp
     d1c:	0014e617          	auipc	a2,0x14e
     d20:	0000                	unimp
     d22:	0000                	unimp
     d24:	9c00                	0x9c00
     d26:	0000                	unimp
     d28:	0100                	addi	s0,sp,128
     d2a:	029c                	addi	a5,sp,320
     d2c:	1421                	addi	s0,s0,-24
	...
     d36:	0000                	unimp
     d38:	9c01                	0x9c01
     d3a:	0d48                	addi	a0,sp,660
     d3c:	0000                	unimp
     d3e:	00143203          	0x143203
     d42:	b300                	fsd	fs0,32(a4)
     d44:	0020                	addi	s0,sp,8
     d46:	0000                	unimp
     d48:	4a02                	lw	s4,0(sp)
     d4a:	0024                	addi	s1,sp,8
     d4c:	e000                	fsw	fs0,0(s0)
     d4e:	0002                	c.slli64	zero
     d50:	9800                	0x9800
     d52:	0002                	c.slli64	zero
     d54:	0100                	addi	s0,sp,128
     d56:	569c                	lw	a5,40(a3)
     d58:	000e                	c.slli	zero,0x3
     d5a:	1600                	addi	s0,sp,800
     d5c:	0386                	slli	t2,t2,0x1
     d5e:	0000                	unimp
     d60:	01b5                	addi	gp,gp,13
     d62:	0000                	unimp
     d64:	0d6e                	slli	s10,s10,0x1b
     d66:	0000                	unimp
     d68:	015b0107          	0x15b0107
     d6c:	0030                	addi	a2,sp,8
     d6e:	c816                	sw	t0,16(sp)
     d70:	b5000003          	lb	zero,-1200(zero) # fffffb50 <__global_pointer$+0xdffff2c0>
     d74:	0001                	nop
     d76:	8100                	0x8100
     d78:	000d                	c.nop	3
     d7a:	0700                	addi	s0,sp,896
     d7c:	5b01                	li	s6,-32
     d7e:	3401                	jal	77e <_data_lma+0x1fa>
     d80:	1600                	addi	s0,sp,800
     d82:	03da                	slli	t2,t2,0x16
     d84:	0000                	unimp
     d86:	017f                	0x17f
     d88:	0000                	unimp
     d8a:	0d94                	addi	a3,sp,720
     d8c:	0000                	unimp
     d8e:	015b0107          	0x15b0107
     d92:	0030                	addi	a2,sp,8
     d94:	ec16                	fsw	ft5,24(sp)
     d96:	b5000003          	lb	zero,-1200(zero) # fffffb50 <__global_pointer$+0xdffff2c0>
     d9a:	0001                	nop
     d9c:	a700                	fsd	fs0,8(a4)
     d9e:	000d                	c.nop	3
     da0:	0700                	addi	s0,sp,896
     da2:	5b01                	li	s6,-32
     da4:	3401                	jal	7a4 <_data_lma+0x220>
     da6:	1600                	addi	s0,sp,800
     da8:	03fe                	slli	t2,t2,0x1f
     daa:	0000                	unimp
     dac:	017f                	0x17f
     dae:	0000                	unimp
     db0:	0dba                	slli	s11,s11,0xe
     db2:	0000                	unimp
     db4:	015b0107          	0x15b0107
     db8:	0031                	c.nop	12
     dba:	2416                	fld	fs0,320(sp)
     dbc:	0004                	0x4
     dbe:	b500                	fsd	fs0,40(a0)
     dc0:	0001                	nop
     dc2:	cd00                	sw	s0,24(a0)
     dc4:	000d                	c.nop	3
     dc6:	0700                	addi	s0,sp,896
     dc8:	5b01                	li	s6,-32
     dca:	3401                	jal	7ca <_data_lma+0x246>
     dcc:	1600                	addi	s0,sp,800
     dce:	0436                	slli	s0,s0,0xd
     dd0:	0000                	unimp
     dd2:	017f                	0x17f
     dd4:	0000                	unimp
     dd6:	0de0                	addi	s0,sp,732
     dd8:	0000                	unimp
     dda:	015b0107          	0x15b0107
     dde:	0031                	c.nop	12
     de0:	5c16                	lw	s8,100(sp)
     de2:	0004                	0x4
     de4:	b500                	fsd	fs0,40(a0)
     de6:	0001                	nop
     de8:	f300                	fsw	fs0,32(a4)
     dea:	000d                	c.nop	3
     dec:	0700                	addi	s0,sp,896
     dee:	5b01                	li	s6,-32
     df0:	3401                	jal	7f0 <_data_lma+0x26c>
     df2:	1600                	addi	s0,sp,800
     df4:	046e                	slli	s0,s0,0x1b
     df6:	0000                	unimp
     df8:	017f                	0x17f
     dfa:	0000                	unimp
     dfc:	0e06                	slli	t3,t3,0x1
     dfe:	0000                	unimp
     e00:	015b0107          	0x15b0107
     e04:	0031                	c.nop	12
     e06:	b816                	fsd	ft5,48(sp)
     e08:	0004                	0x4
     e0a:	b500                	fsd	fs0,40(a0)
     e0c:	0001                	nop
     e0e:	1900                	addi	s0,sp,176
     e10:	000e                	c.slli	zero,0x3
     e12:	0700                	addi	s0,sp,896
     e14:	5b01                	li	s6,-32
     e16:	3001                	jal	616 <_data_lma+0x92>
     e18:	1600                	addi	s0,sp,800
     e1a:	0502                	c.slli64	a0
     e1c:	0000                	unimp
     e1e:	01b5                	addi	gp,gp,13
     e20:	0000                	unimp
     e22:	0e2c                	addi	a1,sp,792
     e24:	0000                	unimp
     e26:	015b0107          	0x15b0107
     e2a:	0030                	addi	a2,sp,8
     e2c:	4016                	0x4016
     e2e:	0005                	c.nop	1
     e30:	b500                	fsd	fs0,40(a0)
     e32:	0001                	nop
     e34:	3f00                	fld	fs0,56(a4)
     e36:	000e                	c.slli	zero,0x3
     e38:	0700                	addi	s0,sp,896
     e3a:	5b01                	li	s6,-32
     e3c:	3001                	jal	63c <_data_lma+0xb8>
     e3e:	0b00                	addi	s0,sp,400
     e40:	2456                	fld	fs0,336(sp)
     e42:	0000                	unimp
     e44:	0305                	addi	t1,t1,1
     e46:	00a1                	addi	ra,ra,8
     e48:	2000                	fld	fs0,0(s0)
     e4a:	0024620b          	0x24620b
     e4e:	0500                	addi	s0,sp,640
     e50:	0000a003          	lw	zero,0(ra)
     e54:	0020                	addi	s0,sp,8
     e56:	0012f50b          	0x12f50b
     e5a:	0500                	addi	s0,sp,640
     e5c:	00002403          	lw	s0,0(zero) # 0 <InterruptVector>
     e60:	0b20                	addi	s0,sp,408
     e62:	131c                	addi	a5,sp,416
     e64:	0000                	unimp
     e66:	0305                	addi	t1,t1,1
     e68:	0034                	addi	a3,sp,8
     e6a:	2000                	fld	fs0,0(s0)
     e6c:	001f580b          	0x1f580b
     e70:	0500                	addi	s0,sp,640
     e72:	00004803          	lbu	a6,0(zero) # 0 <InterruptVector>
     e76:	0b20                	addi	s0,sp,408
     e78:	1f7f                	0x1f7f
     e7a:	0000                	unimp
     e7c:	0305                	addi	t1,t1,1
     e7e:	0058                	addi	a4,sp,4
     e80:	2000                	fld	fs0,0(s0)
     e82:	0027c50b          	0x27c50b
     e86:	0500                	addi	s0,sp,640
     e88:	00006c03          	0x6c03
     e8c:	0b20                	addi	s0,sp,408
     e8e:	27ec                	fld	fa1,200(a5)
     e90:	0000                	unimp
     e92:	0305                	addi	t1,t1,1
     e94:	007c                	addi	a5,sp,12
     e96:	2000                	fld	fs0,0(s0)
     e98:	0023b20b          	0x23b20b
     e9c:	0500                	addi	s0,sp,640
     e9e:	00000003          	lb	zero,0(zero) # 0 <InterruptVector>
     ea2:	0b20                	addi	s0,sp,408
     ea4:	23d9                	jal	146a <ch32v003fun.c.297fed70+0x588>
     ea6:	0000                	unimp
     ea8:	0305                	addi	t1,t1,1
     eaa:	0578                	addi	a4,sp,652
     eac:	0000                	unimp
     eae:	00234f0b          	0x234f0b
     eb2:	0500                	addi	s0,sp,640
     eb4:	0000a403          	lw	s0,0(ra)
     eb8:	1e20                	addi	s0,sp,824
     eba:	00bd                	addi	ra,ra,15
     ebc:	0000                	unimp
     ebe:	000000b3          	add	ra,zero,zero
     ec2:	0005                	c.nop	1
     ec4:	c41f 0000 c400      	0xc4000000c41f
     eca:	0000                	unimp
     ecc:	1f00                	addi	s0,sp,944
     ece:	00fa                	slli	ra,ra,0x1e
     ed0:	0000                	unimp
     ed2:	00fa                	slli	ra,ra,0x1e
     ed4:	0000                	unimp
     ed6:	0a1e                	slli	s4,s4,0x7
     ed8:	0000                	unimp
     eda:	0000                	unimp
     edc:	0000                	unimp
     ede:	0500                	addi	s0,sp,640
	...

00000ee2 <ch32v003fun.c.297fed70>:
     ee2:	00000ed3          	fadd.s	ft9,ft0,ft0,rne
     ee6:	0004                	0x4
     ee8:	0195                	addi	gp,gp,5
     eea:	0000                	unimp
     eec:	0104                	addi	s1,sp,128
     eee:	0546                	slli	a0,a0,0x11
     ef0:	0000                	unimp
     ef2:	3a0c                	fld	fa1,48(a2)
     ef4:	0001                	nop
     ef6:	ce00                	sw	s0,24(a2)
     ef8:	0000                	unimp
     efa:	4400                	lw	s0,8(s0)
     efc:	02000023          	sb	zero,32(zero) # 20 <InterruptVector+0x20>
     f00:	0601                	addi	a2,a2,0
     f02:	0500                	addi	s0,sp,640
     f04:	0000                	unimp
     f06:	0004c403          	lbu	s0,0(s1)
     f0a:	0100                	addi	s0,sp,128
     f0c:	0030182b          	0x30182b
     f10:	0000                	unimp
     f12:	0102                	c.slli64	sp
     f14:	fe08                	fsw	fa0,56(a2)
     f16:	0004                	0x4
     f18:	0400                	addi	s0,sp,512
     f1a:	0030                	addi	a2,sp,8
     f1c:	0000                	unimp
     f1e:	0202                	c.slli64	tp
     f20:	5805                	li	a6,-31
     f22:	0004                	0x4
     f24:	0300                	addi	s0,sp,384
     f26:	00000293          	li	t0,0
     f2a:	3901                	jal	b3a <_data_lma+0x5b6>
     f2c:	4f19                	li	t5,6
     f2e:	0000                	unimp
     f30:	0200                	addi	s0,sp,256
     f32:	0702                	c.slli64	a4
     f34:	0591                	addi	a1,a1,4
     f36:	0000                	unimp
     f38:	00017803          	0x17803
     f3c:	0100                	addi	s0,sp,128
     f3e:	184d                	addi	a6,a6,-13
     f40:	0062                	c.slli	zero,0x18
     f42:	0000                	unimp
     f44:	0402                	c.slli64	s0
     f46:	5505                	li	a0,-31
     f48:	03000003          	lb	zero,48(zero) # 30 <InterruptVector+0x30>
     f4c:	050c                	addi	a1,sp,640
     f4e:	0000                	unimp
     f50:	4f01                	li	t5,0
     f52:	7519                	lui	a0,0xfffe6
     f54:	0000                	unimp
     f56:	0200                	addi	s0,sp,256
     f58:	0704                	addi	s1,sp,896
     f5a:	0252                	slli	tp,tp,0x14
     f5c:	0000                	unimp
     f5e:	0802                	c.slli64	a6
     f60:	5005                	c.li	zero,-31
     f62:	02000003          	lb	zero,32(zero) # 20 <InterruptVector+0x20>
     f66:	0708                	addi	a0,sp,896
     f68:	024d                	addi	tp,tp,19
     f6a:	0000                	unimp
     f6c:	0405                	addi	s0,s0,1
     f6e:	6905                	lui	s2,0x1
     f70:	746e                	flw	fs0,248(sp)
     f72:	0300                	addi	s0,sp,384
     f74:	03e9                	addi	t2,t2,26
     f76:	0000                	unimp
     f78:	e801                	bnez	s0,f88 <ch32v003fun.c.297fed70+0xa6>
     f7a:	9d1a                	add	s10,s10,t1
     f7c:	0000                	unimp
     f7e:	0200                	addi	s0,sp,256
     f80:	0704                	addi	s1,sp,896
     f82:	00000257          	0x257
     f86:	0002c803          	lbu	a6,0(t0)
     f8a:	0200                	addi	s0,sp,256
     f8c:	17d1                	addi	a5,a5,-12
     f8e:	009d                	addi	ra,ra,7
     f90:	0000                	unimp
     f92:	1002                	c.slli	zero,0x20
     f94:	c404                	sw	s1,8(s0)
     f96:	03000003          	lb	zero,48(zero) # 30 <InterruptVector+0x30>
     f9a:	02a4                	addi	s1,sp,328
     f9c:	0000                	unimp
     f9e:	c31b2803          	lw	a6,-975(s6)
     fa2:	0000                	unimp
     fa4:	0600                	addi	s0,sp,768
     fa6:	a404                	fsd	fs1,8(s0)
     fa8:	0005                	c.nop	1
     faa:	0300                	addi	s0,sp,384
     fac:	000002ab          	0x2ab
     fb0:	2e04                	fld	fs1,24(a2)
     fb2:	b718                	fsd	fa4,40(a4)
     fb4:	0000                	unimp
     fb6:	0700                	addi	s0,sp,896
     fb8:	0804                	addi	s1,sp,16
     fba:	3004                	fld	fs1,32(s0)
     fbc:	0000                	unimp
     fbe:	0800                	addi	s0,sp,16
     fc0:	e304                	fsw	fs1,0(a4)
     fc2:	0000                	unimp
     fc4:	0200                	addi	s0,sp,256
     fc6:	0801                	addi	a6,a6,0
     fc8:	00000507          	0x507
     fcc:	e304                	fsw	fs1,0(a4)
     fce:	0000                	unimp
     fd0:	0800                	addi	s0,sp,16
     fd2:	ea04                	fsw	fs1,16(a2)
     fd4:	0000                	unimp
     fd6:	0900                	addi	s0,sp,144
     fd8:	000000e3          	beqz	zero,17d8 <ch32v003fun.c.297fed70+0x8f6>
     fdc:	0105                	addi	sp,sp,1
     fde:	0000                	unimp
     fe0:	9d0a                	add	s10,s10,sp
     fe2:	0000                	unimp
     fe4:	1700                	addi	s0,sp,928
     fe6:	0300                	addi	s0,sp,384
     fe8:	04c6                	slli	s1,s1,0x11
     fea:	0000                	unimp
     fec:	1805                	addi	a6,a6,-31
     fee:	00002413          	slti	s0,zero,0
     ff2:	0400                	addi	s0,sp,512
     ff4:	0105                	addi	sp,sp,1
     ff6:	0000                	unimp
     ff8:	0001110b          	0x1110b
     ffc:	0300                	addi	s0,sp,384
     ffe:	0295                	addi	t0,t0,5
    1000:	0000                	unimp
    1002:	2405                	jal	1222 <ch32v003fun.c.297fed70+0x340>
    1004:	4314                	lw	a3,0(a4)
    1006:	0000                	unimp
    1008:	0b00                	addi	s0,sp,400
    100a:	0000011b          	0x11b
    100e:	00017a03          	0x17a03
    1012:	0500                	addi	s0,sp,640
    1014:	132c                	addi	a1,sp,424
    1016:	0056                	c.slli	zero,0x15
    1018:	0000                	unimp
    101a:	00050e03          	lb	t3,0(a0) # fffe6000 <__global_pointer$+0xdffe5770>
    101e:	0500                	addi	s0,sp,640
    1020:	1430                	addi	a2,sp,552
    1022:	0069                	c.nop	26
    1024:	0000                	unimp
    1026:	0001380b          	0x1380b
    102a:	0400                	addi	s0,sp,512
    102c:	0144                	addi	s1,sp,132
    102e:	0000                	unimp
    1030:	0003eb03          	0x3eb03
    1034:	0500                	addi	s0,sp,640
    1036:	1552                	slli	a0,a0,0x34
    1038:	0091                	addi	ra,ra,4
    103a:	0000                	unimp
    103c:	2c0c                	fld	fa1,24(s0)
    103e:	ac06                	fsd	ft1,24(sp)
    1040:	f309                	bnez	a4,f42 <ch32v003fun.c.297fed70+0x60>
    1042:	0001                	nop
    1044:	0d00                	addi	s0,sp,656
    1046:	00000303          	lb	t1,0(zero) # 0 <InterruptVector>
    104a:	ae06                	fsd	ft1,280(sp)
    104c:	00014413          	xori	s0,sp,0
    1050:	0000                	unimp
    1052:	3b0d                	jal	d84 <_data_lma+0x800>
    1054:	0005                	c.nop	1
    1056:	0600                	addi	s0,sp,768
    1058:	014413af          	0x14413af
    105c:	0000                	unimp
    105e:	0d04                	addi	s1,sp,656
    1060:	0539                	addi	a0,a0,14
    1062:	0000                	unimp
    1064:	b006                	fsd	ft1,32(sp)
    1066:	00014413          	xori	s0,sp,0
    106a:	0800                	addi	s0,sp,16
    106c:	400d                	c.li	zero,3
    106e:	0005                	c.nop	1
    1070:	0600                	addi	s0,sp,768
    1072:	13b1                	addi	t2,t2,-20
    1074:	0144                	addi	s1,sp,132
    1076:	0000                	unimp
    1078:	0d0c                	addi	a1,sp,656
    107a:	0304                	addi	s1,sp,384
    107c:	0000                	unimp
    107e:	b206                	fsd	ft1,288(sp)
    1080:	00014413          	xori	s0,sp,0
    1084:	1000                	addi	s0,sp,32
    1086:	660d                	lui	a2,0x3
    1088:	0009                	c.nop	2
    108a:	0600                	addi	s0,sp,768
    108c:	014413b3          	sll	t2,s0,s4
    1090:	0000                	unimp
    1092:	0d14                	addi	a3,sp,656
    1094:	0104                	addi	s1,sp,128
    1096:	0000                	unimp
    1098:	b406                	fsd	ft1,40(sp)
    109a:	00014413          	xori	s0,sp,0
    109e:	1800                	addi	s0,sp,48
    10a0:	4f0e                	lw	t5,192(sp)
    10a2:	5242                	lw	tp,48(sp)
    10a4:	0600                	addi	s0,sp,768
    10a6:	13b5                	addi	t2,t2,-19
    10a8:	0144                	addi	s1,sp,132
    10aa:	0000                	unimp
    10ac:	0e1c                	addi	a5,sp,784
    10ae:	00525057          	0x525057
    10b2:	b606                	fsd	ft1,296(sp)
    10b4:	00014413          	xori	s0,sp,0
    10b8:	2000                	fld	fs0,0(s0)
    10ba:	120d                	addi	tp,tp,-29
    10bc:	0001                	nop
    10be:	0600                	addi	s0,sp,768
    10c0:	014413b7          	lui	t2,0x1441
    10c4:	0000                	unimp
    10c6:	0d24                	addi	s1,sp,664
    10c8:	010d                	addi	sp,sp,3
    10ca:	0000                	unimp
    10cc:	b806                	fsd	ft1,48(sp)
    10ce:	00014413          	xori	s0,sp,0
    10d2:	2800                	fld	fs0,16(s0)
    10d4:	0300                	addi	s0,sp,384
    10d6:	02dc                	addi	a5,sp,324
    10d8:	0000                	unimp
    10da:	b906                	fsd	ft1,176(sp)
    10dc:	00015a03          	lhu	s4,0(sp)
    10e0:	0f00                	addi	s0,sp,912
    10e2:	061c                	addi	a5,sp,768
    10e4:	6c090137          	lui	sp,0x6c090
    10e8:	0002                	c.slli64	zero
    10ea:	1000                	addi	s0,sp,32
    10ec:	0000021b          	0x21b
    10f0:	3906                	fld	fs2,96(sp)
    10f2:	1001                	c.nop	-32
    10f4:	0144                	addi	s1,sp,132
    10f6:	0000                	unimp
    10f8:	1000                	addi	s0,sp,32
    10fa:	05c0                	addi	s0,sp,708
    10fc:	0000                	unimp
    10fe:	3a06                	fld	fs4,96(sp)
    1100:	1001                	c.nop	-32
    1102:	0144                	addi	s1,sp,132
    1104:	0000                	unimp
    1106:	1004                	addi	s1,sp,32
    1108:	01b2                	slli	gp,gp,0xc
    110a:	0000                	unimp
    110c:	3b06                	fld	fs6,96(sp)
    110e:	1001                	c.nop	-32
    1110:	0149                	addi	sp,sp,18
    1112:	0000                	unimp
    1114:	1008                	addi	a0,sp,32
    1116:	000002cf          	fnmadd.s	ft5,ft0,ft0,ft0,rne
    111a:	3c06                	fld	fs8,96(sp)
    111c:	1001                	c.nop	-32
    111e:	0144                	addi	s1,sp,132
    1120:	0000                	unimp
    1122:	100c                	addi	a1,sp,32
    1124:	00000317          	auipc	t1,0x0
    1128:	3d06                	fld	fs10,96(sp)
    112a:	1001                	c.nop	-32
    112c:	0144                	addi	s1,sp,132
    112e:	0000                	unimp
    1130:	1110                	addi	a2,sp,160
    1132:	4342                	lw	t1,16(sp)
    1134:	0052                	c.slli	zero,0x14
    1136:	3e06                	fld	ft8,96(sp)
    1138:	1001                	c.nop	-32
    113a:	0144                	addi	s1,sp,132
    113c:	0000                	unimp
    113e:	1014                	addi	a3,sp,32
    1140:	05da                	slli	a1,a1,0x16
    1142:	0000                	unimp
    1144:	3f06                	fld	ft10,96(sp)
    1146:	1001                	c.nop	-32
    1148:	0144                	addi	s1,sp,132
    114a:	0000                	unimp
    114c:	0018                	0x18
    114e:	ce12                	sw	tp,28(sp)
    1150:	0004                	0x4
    1152:	0600                	addi	s0,sp,768
    1154:	0140                	addi	s0,sp,132
    1156:	0001ff03          	0x1ff03
    115a:	0f00                	addi	s0,sp,912
    115c:	0628                	addi	a0,sp,776
    115e:	10090177          	0x10090177
    1162:	10000003          	lb	zero,256(zero) # 100 <pinMode+0x10>
    1166:	0304                	addi	s1,sp,384
    1168:	0000                	unimp
    116a:	7906                	flw	fs2,96(sp)
    116c:	1301                	addi	t1,t1,-32
    116e:	0144                	addi	s1,sp,132
    1170:	0000                	unimp
    1172:	1000                	addi	s0,sp,32
    1174:	0390                	addi	a2,sp,448
    1176:	0000                	unimp
    1178:	7a06                	flw	fs4,96(sp)
    117a:	1301                	addi	t1,t1,-32
    117c:	0144                	addi	s1,sp,132
    117e:	0000                	unimp
    1180:	1004                	addi	s1,sp,32
    1182:	0208                	addi	a0,sp,256
    1184:	0000                	unimp
    1186:	7b06                	flw	fs6,96(sp)
    1188:	1301                	addi	t1,t1,-32
    118a:	0144                	addi	s1,sp,132
    118c:	0000                	unimp
    118e:	1008                	addi	a0,sp,32
    1190:	04b4                	addi	a3,sp,584
    1192:	0000                	unimp
    1194:	7c06                	flw	fs8,96(sp)
    1196:	1301                	addi	t1,t1,-32
    1198:	0144                	addi	s1,sp,132
    119a:	0000                	unimp
    119c:	100c                	addi	a1,sp,32
    119e:	01fe                	slli	gp,gp,0x1f
    11a0:	0000                	unimp
    11a2:	7d06                	flw	fs10,96(sp)
    11a4:	1301                	addi	t1,t1,-32
    11a6:	0144                	addi	s1,sp,132
    11a8:	0000                	unimp
    11aa:	1010                	addi	a2,sp,32
    11ac:	00000387          	0x387
    11b0:	7e06                	flw	ft8,96(sp)
    11b2:	1301                	addi	t1,t1,-32
    11b4:	0144                	addi	s1,sp,132
    11b6:	0000                	unimp
    11b8:	1014                	addi	a3,sp,32
    11ba:	01a8                	addi	a0,sp,200
    11bc:	0000                	unimp
    11be:	7f06                	flw	ft10,96(sp)
    11c0:	1301                	addi	t1,t1,-32
    11c2:	0144                	addi	s1,sp,132
    11c4:	0000                	unimp
    11c6:	1018                	addi	a4,sp,32
    11c8:	03a8                	addi	a0,sp,456
    11ca:	0000                	unimp
    11cc:	8006                	c.mv	zero,ra
    11ce:	1301                	addi	t1,t1,-32
    11d0:	0144                	addi	s1,sp,132
    11d2:	0000                	unimp
    11d4:	101c                	addi	a5,sp,32
    11d6:	0412                	slli	s0,s0,0x4
    11d8:	0000                	unimp
    11da:	8106                	mv	sp,ra
    11dc:	1301                	addi	t1,t1,-32
    11de:	0144                	addi	s1,sp,132
    11e0:	0000                	unimp
    11e2:	1020                	addi	s0,sp,40
    11e4:	00000403          	lb	s0,0(zero) # 0 <InterruptVector>
    11e8:	8206                	mv	tp,ra
    11ea:	1301                	addi	t1,t1,-32
    11ec:	0144                	addi	s1,sp,132
    11ee:	0000                	unimp
    11f0:	0024                	addi	s1,sp,8
    11f2:	f712                	fsw	ft4,172(sp)
    11f4:	0002                	c.slli64	zero
    11f6:	0600                	addi	s0,sp,768
    11f8:	79030183          	lb	gp,1936(t1) # 18b4 <ch32v003fun.c.297fed70+0x9d2>
    11fc:	0002                	c.slli64	zero
    11fe:	0f00                	addi	s0,sp,912
    1200:	061c                	addi	a5,sp,768
    1202:	01c6                	slli	gp,gp,0x11
    1204:	ec09                	bnez	s0,121e <ch32v003fun.c.297fed70+0x33c>
    1206:	10000003          	lb	zero,256(zero) # 100 <pinMode+0x10>
    120a:	0540                	addi	s0,sp,644
    120c:	0000                	unimp
    120e:	c806                	sw	ra,16(sp)
    1210:	1301                	addi	t1,t1,-32
    1212:	00000127          	0x127
    1216:	1000                	addi	s0,sp,32
    1218:	0412                	slli	s0,s0,0x4
    121a:	0000                	unimp
    121c:	c906                	sw	ra,144(sp)
    121e:	1301                	addi	t1,t1,-32
    1220:	0000011b          	0x11b
    1224:	1002                	c.slli	zero,0x20
    1226:	0b2d                	addi	s6,s6,11
    1228:	0000                	unimp
    122a:	ca06                	sw	ra,20(sp)
    122c:	1301                	addi	t1,t1,-32
    122e:	00000127          	0x127
    1232:	1004                	addi	s1,sp,32
    1234:	041c                	addi	a5,sp,512
    1236:	0000                	unimp
    1238:	cb06                	sw	ra,148(sp)
    123a:	1301                	addi	t1,t1,-32
    123c:	0000011b          	0x11b
    1240:	1106                	slli	sp,sp,0x21
    1242:	5242                	lw	tp,48(sp)
    1244:	0052                	c.slli	zero,0x14
    1246:	cc06                	sw	ra,24(sp)
    1248:	1301                	addi	t1,t1,-32
    124a:	00000127          	0x127
    124e:	1008                	addi	a0,sp,32
    1250:	0426                	slli	s0,s0,0x9
    1252:	0000                	unimp
    1254:	cd06                	sw	ra,152(sp)
    1256:	1301                	addi	t1,t1,-32
    1258:	0000011b          	0x11b
    125c:	100a                	c.slli	zero,0x22
    125e:	000003d7          	0x3d7
    1262:	ce06                	sw	ra,28(sp)
    1264:	1301                	addi	t1,t1,-32
    1266:	00000127          	0x127
    126a:	100c                	addi	a1,sp,32
    126c:	0430                	addi	a2,sp,520
    126e:	0000                	unimp
    1270:	cf06                	sw	ra,156(sp)
    1272:	1301                	addi	t1,t1,-32
    1274:	0000011b          	0x11b
    1278:	100e                	c.slli	zero,0x23
    127a:	03dd                	addi	t2,t2,23
    127c:	0000                	unimp
    127e:	d006                	sw	ra,32(sp)
    1280:	1301                	addi	t1,t1,-32
    1282:	00000127          	0x127
    1286:	1010                	addi	a2,sp,32
    1288:	043a                	slli	s0,s0,0xe
    128a:	0000                	unimp
    128c:	d106                	sw	ra,160(sp)
    128e:	1301                	addi	t1,t1,-32
    1290:	0000011b          	0x11b
    1294:	1012                	c.slli	zero,0x24
    1296:	000003e3          	beqz	zero,1a9c <ch32v003fun.c.297fed70+0xbba>
    129a:	d206                	sw	ra,36(sp)
    129c:	1301                	addi	t1,t1,-32
    129e:	00000127          	0x127
    12a2:	1014                	addi	a3,sp,32
    12a4:	0444                	addi	s1,sp,516
    12a6:	0000                	unimp
    12a8:	d306                	sw	ra,164(sp)
    12aa:	1301                	addi	t1,t1,-32
    12ac:	0000011b          	0x11b
    12b0:	1116                	slli	sp,sp,0x25
    12b2:	00525047          	fmsub.s	ft0,ft4,ft5,ft0,unknown
    12b6:	d406                	sw	ra,40(sp)
    12b8:	1301                	addi	t1,t1,-32
    12ba:	00000127          	0x127
    12be:	1018                	addi	a4,sp,32
    12c0:	044e                	slli	s0,s0,0x13
    12c2:	0000                	unimp
    12c4:	d506                	sw	ra,168(sp)
    12c6:	1301                	addi	t1,t1,-32
    12c8:	0000011b          	0x11b
    12cc:	001a                	c.slli	zero,0x6
    12ce:	1c12                	slli	s8,s8,0x24
    12d0:	06000003          	lb	zero,96(zero) # 60 <InterruptVector+0x60>
    12d4:	01d6                	slli	gp,gp,0x15
    12d6:	00031d03          	lh	s10,0(t1)
    12da:	0900                	addi	s0,sp,144
    12dc:	0116                	slli	sp,sp,0x5
    12de:	0000                	unimp
    12e0:	0409                	addi	s0,s0,2
    12e2:	0000                	unimp
    12e4:	9d0a                	add	s10,s10,sp
    12e6:	0000                	unimp
    12e8:	0f00                	addi	s0,sp,912
    12ea:	0400                	addi	s0,sp,512
    12ec:	03f9                	addi	t2,t2,30
    12ee:	0000                	unimp
    12f0:	0004090b          	0x4090b
    12f4:	1300                	addi	s0,sp,416
    12f6:	0462                	slli	s0,s0,0x18
    12f8:	0000                	unimp
    12fa:	7306                	flw	ft6,96(sp)
    12fc:	040e140b          	0x40e140b
    1300:	0000                	unimp
    1302:	1609                	addi	a2,a2,-30
    1304:	0001                	nop
    1306:	3000                	fld	fs0,32(s0)
    1308:	0004                	0x4
    130a:	0a00                	addi	s0,sp,272
    130c:	009d                	addi	ra,ra,7
    130e:	0000                	unimp
    1310:	20040013          	addi	zero,s0,512
    1314:	0004                	0x4
    1316:	0b00                	addi	s0,sp,400
    1318:	0430                	addi	a2,sp,520
    131a:	0000                	unimp
    131c:	00015c13          	srli	s8,sp,0x0
    1320:	0600                	addi	s0,sp,768
    1322:	0b74                	addi	a3,sp,412
    1324:	3514                	fld	fa3,40(a0)
    1326:	0004                	0x4
    1328:	1400                	addi	s0,sp,544
    132a:	009d0407          	0x9d0407
    132e:	0000                	unimp
    1330:	1306                	slli	t1,t1,0x21
    1332:	010d                	addi	sp,sp,3
    1334:	0469                	addi	s0,s0,26
    1336:	0000                	unimp
    1338:	3415                	jal	d5c <_data_lma+0x7d8>
    133a:	0002                	c.slli64	zero
    133c:	0100                	addi	s0,sp,128
    133e:	c615                	beqz	a2,136a <ch32v003fun.c.297fed70+0x488>
    1340:	0001                	nop
    1342:	0200                	addi	s0,sp,256
    1344:	1715                	addi	a4,a4,-27
    1346:	0005                	c.nop	1
    1348:	0300                	addi	s0,sp,384
    134a:	0f00                	addi	s0,sp,912
    134c:	0618                	addi	a4,sp,768
    134e:	115c                	addi	a5,sp,164
    1350:	c709                	beqz	a4,135a <ch32v003fun.c.297fed70+0x478>
    1352:	0004                	0x4
    1354:	1000                	addi	s0,sp,32
    1356:	0304                	addi	s1,sp,384
    1358:	0000                	unimp
    135a:	5e06                	lw	t3,96(sp)
    135c:	1311                	addi	t1,t1,-28
    135e:	0144                	addi	s1,sp,132
    1360:	0000                	unimp
    1362:	1100                	addi	s0,sp,160
    1364:	06005253          	fadd.q	ft4,ft0,ft0,unknown
    1368:	115f 4413 0001      	0x14413115f
    136e:	0400                	addi	s0,sp,512
    1370:	4311                	li	t1,4
    1372:	544e                	lw	s0,240(sp)
    1374:	0600                	addi	s0,sp,768
    1376:	1160                	addi	s0,sp,172
    1378:	00014413          	xori	s0,sp,0
    137c:	0800                	addi	s0,sp,16
    137e:	1210                	addi	a2,sp,288
    1380:	0004                	0x4
    1382:	0600                	addi	s0,sp,768
    1384:	1161                	addi	sp,sp,-8
    1386:	380e                	fld	fa6,224(sp)
    1388:	0001                	nop
    138a:	0c00                	addi	s0,sp,528
    138c:	4311                	li	t1,4
    138e:	504d                	c.li	zero,-13
    1390:	0600                	addi	s0,sp,768
    1392:	1162                	slli	sp,sp,0x38
    1394:	00014413          	xori	s0,sp,0
    1398:	1000                	addi	s0,sp,32
    139a:	1c10                	addi	a2,sp,560
    139c:	0004                	0x4
    139e:	0600                	addi	s0,sp,768
    13a0:	380e1163          	bnez	t3,1722 <ch32v003fun.c.297fed70+0x840>
    13a4:	0001                	nop
    13a6:	1400                	addi	s0,sp,544
    13a8:	1200                	addi	s0,sp,288
    13aa:	000003b7          	lui	t2,0x0
    13ae:	6406                	flw	fs0,64(sp)
    13b0:	0211                	addi	tp,tp,4
    13b2:	0469                	addi	s0,s0,26
    13b4:	0000                	unimp
    13b6:	6a16                	flw	fs4,68(sp)
    13b8:	0001                	nop
    13ba:	0700                	addi	s0,sp,896
    13bc:	008a050f          	0x8a050f
    13c0:	0000                	unimp
    13c2:	0005b617          	auipc	a2,0x5b
    13c6:	0c00                	addi	s0,sp,528
    13c8:	0801d107          	0x801d107
    13cc:	0519                	addi	a0,a0,6
    13ce:	0000                	unimp
    13d0:	5f10                	lw	a2,56(a4)
    13d2:	07000003          	lb	zero,112(zero) # 70 <InterruptVector+0x70>
    13d6:	01d2                	slli	gp,gp,0x14
    13d8:	dd08                	sw	a0,56(a0)
    13da:	0000                	unimp
    13dc:	0000                	unimp
    13de:	5e10                	lw	a2,56(a2)
    13e0:	07000003          	lb	zero,112(zero) # 70 <InterruptVector+0x70>
    13e4:	01d2                	slli	gp,gp,0x14
    13e6:	dd11                	beqz	a0,1302 <ch32v003fun.c.297fed70+0x420>
    13e8:	0000                	unimp
    13ea:	0400                	addi	s0,sp,512
    13ec:	eb10                	fsw	fa2,16(a4)
    13ee:	0004                	0x4
    13f0:	0700                	addi	s0,sp,896
    13f2:	9d0f01d3          	0x9d0f01d3
    13f6:	0000                	unimp
    13f8:	0800                	addi	s0,sp,16
    13fa:	1800                	addi	s0,sp,48
    13fc:	027a                	slli	tp,tp,0x1e
    13fe:	0000                	unimp
    1400:	0603d407          	0x603d407
    1404:	0000053f 07006e19 	0x7006e190000053f
    140c:	03d4                	addi	a3,sp,452
    140e:	381d                	jal	c44 <_data_lma+0x6c0>
    1410:	0001                	nop
    1412:	1300                	addi	s0,sp,416
    1414:	0182                	c.slli64	gp
    1416:	0000                	unimp
    1418:	0b03d607          	0xb03d607
    141c:	0138                	addi	a4,sp,136
    141e:	0000                	unimp
    1420:	1a00                	addi	s0,sp,304
    1422:	01a0                	addi	s0,sp,200
    1424:	0000                	unimp
    1426:	05038b07          	0x5038b07
    142a:	008a                	slli	ra,ra,0x2
    142c:	0000                	unimp
    142e:	055c                	addi	a5,sp,644
    1430:	0000                	unimp
    1432:	6319                	lui	t1,0x6
    1434:	0700                	addi	s0,sp,896
    1436:	8a11038b          	0x8a11038b
    143a:	0000                	unimp
    143c:	0000                	unimp
    143e:	d01a                	sw	t1,32(sp)
    1440:	07000003          	lb	zero,112(zero) # 70 <InterruptVector+0x70>
    1444:	0381                	addi	t2,t2,0
    1446:	8a05                	andi	a2,a2,1
    1448:	0000                	unimp
    144a:	a100                	fsd	fs0,0(a0)
    144c:	0005                	c.nop	1
    144e:	1900                	addi	s0,sp,176
    1450:	6466                	flw	fs0,88(sp)
    1452:	0700                	addi	s0,sp,896
    1454:	0381                	addi	t2,t2,0
    1456:	8a10                	0x8a10
    1458:	0000                	unimp
    145a:	1900                	addi	s0,sp,176
    145c:	7562                	flw	fa0,56(sp)
    145e:	0066                	c.slli	zero,0x19
    1460:	20038107          	0x20038107
    1464:	000000ef          	jal	ra,1464 <ch32v003fun.c.297fed70+0x582>
    1468:	0003821b          	0x3821b
    146c:	0700                	addi	s0,sp,896
    146e:	0381                	addi	t2,t2,0
    1470:	8a29                	andi	a2,a2,10
    1472:	0000                	unimp
    1474:	1c00                	addi	s0,sp,560
    1476:	691d                	lui	s2,0x7
    1478:	0700                	addi	s0,sp,896
    147a:	8a0a0383          	lb	t2,-1888(s4)
    147e:	0000                	unimp
    1480:	0000                	unimp
    1482:	1800                	addi	s0,sp,48
    1484:	022a                	slli	tp,tp,0xa
    1486:	0000                	unimp
    1488:	06036d07          	0x6036d07
    148c:	05bc                	addi	a5,sp,712
    148e:	0000                	unimp
    1490:	0002451b          	0x2451b
    1494:	0700                	addi	s0,sp,896
    1496:	036d                	addi	t1,t1,27
    1498:	8a15                	andi	a2,a2,5
    149a:	0000                	unimp
    149c:	0000                	unimp
    149e:	3f18                	fld	fa4,56(a4)
    14a0:	07000003          	lb	zero,112(zero) # 70 <InterruptVector+0x70>
    14a4:	035c                	addi	a5,sp,388
    14a6:	d706                	sw	ra,172(sp)
    14a8:	0005                	c.nop	1
    14aa:	1b00                	addi	s0,sp,432
    14ac:	02d5                	addi	t0,t0,21
    14ae:	0000                	unimp
    14b0:	1c035c07          	0x1c035c07
    14b4:	008a                	slli	ra,ra,0x2
    14b6:	0000                	unimp
    14b8:	1800                	addi	s0,sp,48
    14ba:	03f5                	addi	t2,t2,29
    14bc:	0000                	unimp
    14be:	06034e07          	flq	ft8,96(t1) # 6060 <wiring.c.7604182b+0x3bd1>
    14c2:	05f2                	slli	a1,a1,0x1c
    14c4:	0000                	unimp
    14c6:	0002d51b          	0x2d51b
    14ca:	0700                	addi	s0,sp,896
    14cc:	034e                	slli	t1,t1,0x13
    14ce:	8a19                	andi	a2,a2,6
    14d0:	0000                	unimp
    14d2:	0000                	unimp
    14d4:	8a1e                	mv	s4,t2
    14d6:	0001                	nop
    14d8:	0700                	addi	s0,sp,896
    14da:	0345                	addi	t1,t1,17
    14dc:	1e06                	slli	t3,t3,0x21
    14de:	04a4                	addi	s1,sp,584
    14e0:	0000                	unimp
    14e2:	06033707          	fld	fa4,96(t1)
    14e6:	e71f 0001 0700      	0x7000001e71f
    14ec:	1a0602cf          	fnmadd.d	ft5,fa2,ft0,ft3,rne
    14f0:	02ea                	slli	t0,t0,0x1a
    14f2:	0000                	unimp
    14f4:	01028507          	0x1028507
    14f8:	008a                	slli	ra,ra,0x2
    14fa:	0000                	unimp
    14fc:	0660                	addi	s0,sp,780
    14fe:	0000                	unimp
    1500:	0003971b          	0x3971b
    1504:	0700                	addi	s0,sp,896
    1506:	0285                	addi	t0,t0,1
    1508:	7914                	flw	fa3,48(a0)
    150a:	0006                	c.slli	zero,0x1
    150c:	1900                	addi	s0,sp,176
    150e:	7562                	flw	fa0,56(sp)
    1510:	0066                	c.slli	zero,0x19
    1512:	3d028507          	0x3d028507
    1516:	00d5                	addi	ra,ra,21
    1518:	0000                	unimp
    151a:	6619                	lui	a2,0x6
    151c:	746d                	lui	s0,0xffffb
    151e:	0700                	addi	s0,sp,896
    1520:	0285                	addi	t0,t0,1
    1522:	ef4e                	fsw	fs3,156(sp)
    1524:	0000                	unimp
    1526:	2000                	fld	fs0,0(s0)
    1528:	721d                	lui	tp,0xfffe7
    152a:	7465                	lui	s0,0xffff9
    152c:	0700                	addi	s0,sp,896
    152e:	8a060287          	0x8a060287
    1532:	0000                	unimp
    1534:	1d00                	addi	s0,sp,688
    1536:	6176                	flw	ft2,92(sp)
    1538:	0700                	addi	s0,sp,896
    153a:	0288                	addi	a0,sp,320
    153c:	c90a                	sw	sp,144(sp)
    153e:	0000                	unimp
    1540:	0000                	unimp
    1542:	8a21                	andi	a2,a2,8
    1544:	0000                	unimp
    1546:	7900                	flw	fs0,48(a0)
    1548:	0006                	c.slli	zero,0x1
    154a:	2200                	fld	fs0,0(a2)
    154c:	00dd                	addi	ra,ra,23
    154e:	0000                	unimp
    1550:	8a22                	mv	s4,s0
    1552:	0000                	unimp
    1554:	2200                	fld	fs0,0(a2)
    1556:	00d5                	addi	ra,ra,21
    1558:	0000                	unimp
    155a:	0800                	addi	s0,sp,16
    155c:	6004                	flw	fs1,0(s0)
    155e:	0006                	c.slli	zero,0x1
    1560:	1a00                	addi	s0,sp,304
    1562:	0264                	addi	s1,sp,268
    1564:	0000                	unimp
    1566:	01027907          	0x1027907
    156a:	008a                	slli	ra,ra,0x2
    156c:	0000                	unimp
    156e:	06d2                	slli	a3,a3,0x14
    1570:	0000                	unimp
    1572:	00035f1b          	0x35f1b
    1576:	0700                	addi	s0,sp,896
    1578:	0279                	addi	tp,tp,30
    157a:	dd15                	beqz	a0,14b6 <ch32v003fun.c.297fed70+0x5d4>
    157c:	0000                	unimp
    157e:	1b00                	addi	s0,sp,432
    1580:	000004eb          	0x4eb
    1584:	2a027907          	0x2a027907
    1588:	009d                	addi	ra,ra,7
    158a:	0000                	unimp
    158c:	6619                	lui	a2,0x6
    158e:	746d                	lui	s0,0xffffb
    1590:	0700                	addi	s0,sp,896
    1592:	0279                	addi	tp,tp,30
    1594:	ef42                	fsw	fa6,156(sp)
    1596:	0000                	unimp
    1598:	2000                	fld	fs0,0(s0)
    159a:	721d                	lui	tp,0xfffe7
    159c:	7465                	lui	s0,0xffff9
    159e:	0700                	addi	s0,sp,896
    15a0:	8a06027b          	0x8a06027b
    15a4:	0000                	unimp
    15a6:	1d00                	addi	s0,sp,688
    15a8:	6176                	flw	ft2,92(sp)
    15aa:	0700                	addi	s0,sp,896
    15ac:	027c                	addi	a5,sp,268
    15ae:	c90a                	sw	sp,144(sp)
    15b0:	0000                	unimp
    15b2:	0000                	unimp
    15b4:	311a                	fld	ft2,416(sp)
    15b6:	07000003          	lb	zero,112(zero) # 70 <InterruptVector+0x70>
    15ba:	0208                	addi	a0,sp,256
    15bc:	8a01                	andi	a2,a2,0
    15be:	0000                	unimp
    15c0:	9300                	0x9300
    15c2:	1b000007          	0x1b000007
    15c6:	00000397          	auipc	t2,0x0
    15ca:	15020807          	0x15020807
    15ce:	0679                	addi	a2,a2,30
    15d0:	0000                	unimp
    15d2:	6219                	lui	tp,0x6
    15d4:	6675                	lui	a2,0x1d
    15d6:	0700                	addi	s0,sp,896
    15d8:	0208                	addi	a0,sp,256
    15da:	0000d53f 6d661900 	0x6d6619000000d53f
    15e2:	0074                	addi	a3,sp,12
    15e4:	50020807          	0x50020807
    15e8:	000000ef          	jal	ra,15e8 <ch32v003fun.c.297fed70+0x706>
    15ec:	7619                	lui	a2,0xfffe6
    15ee:	0061                	c.nop	24
    15f0:	5d020807          	0x5d020807
    15f4:	00c9                	addi	ra,ra,18
    15f6:	0000                	unimp
    15f8:	621d                	lui	tp,0x7
    15fa:	0066                	c.slli	zero,0x19
    15fc:	07020a07          	0x7020a07
    1600:	00f5                	addi	ra,ra,29
    1602:	0000                	unimp
    1604:	621d                	lui	tp,0x7
    1606:	3266                	fld	ft4,120(sp)
    1608:	0700                	addi	s0,sp,896
    160a:	f507020b          	0xf507020b
    160e:	0000                	unimp
    1610:	1d00                	addi	s0,sp,688
    1612:	07006863          	bltu	zero,a6,1682 <ch32v003fun.c.297fed70+0x7a0>
    1616:	020c                	addi	a1,sp,256
    1618:	0000e307          	0xe307
    161c:	1d00                	addi	s0,sp,688
    161e:	006e                	c.slli	zero,0x1b
    1620:	06021407          	0x6021407
    1624:	008a                	slli	ra,ra,0x2
    1626:	0000                	unimp
    1628:	646e6523          	0x646e6523
    162c:	0700                	addi	s0,sp,896
    162e:	1c010273          	0x1c010273
    1632:	6c1d                	lui	s8,0x7
    1634:	6e65                	lui	t3,0x19
    1636:	0700                	addi	s0,sp,896
    1638:	0216                	slli	tp,tp,0x5
    163a:	00008a07          	0x8a07
    163e:	1c00                	addi	s0,sp,560
    1640:	00036613          	ori	a2,t1,0
    1644:	0700                	addi	s0,sp,896
    1646:	e309021b          	0xe309021b
    164a:	0000                	unimp
    164c:	1300                	addi	s0,sp,416
    164e:	039c                	addi	a5,sp,448
    1650:	0000                	unimp
    1652:	08021c07          	0x8021c07
    1656:	008a                	slli	ra,ra,0x2
    1658:	0000                	unimp
    165a:	6c1d                	lui	s8,0x7
    165c:	0700                	addi	s0,sp,896
    165e:	021d                	addi	tp,tp,7
    1660:	e309                	bnez	a4,1662 <ch32v003fun.c.297fed70+0x780>
    1662:	0000                	unimp
    1664:	1d00                	addi	s0,sp,688
    1666:	7470                	flw	fa2,108(s0)
    1668:	0072                	c.slli	zero,0x1c
    166a:	0a021e07          	0xa021e07
    166e:	00dd                	addi	ra,ra,23
    1670:	0000                	unimp
    1672:	0000                	unimp
    1674:	1a00                	addi	s0,sp,304
    1676:	000001b7          	lui	gp,0x0
    167a:	0101f907          	0x101f907
    167e:	008a                	slli	ra,ra,0x2
    1680:	0000                	unimp
    1682:	07ee                	slli	a5,a5,0x1b
    1684:	0000                	unimp
    1686:	00035f1b          	0x35f1b
    168a:	0700                	addi	s0,sp,896
    168c:	01f9                	addi	gp,gp,30
    168e:	dd16                	sw	t0,184(sp)
    1690:	0000                	unimp
    1692:	1b00                	addi	s0,sp,432
    1694:	000004eb          	0x4eb
    1698:	2b01f907          	0x2b01f907
    169c:	009d                	addi	ra,ra,7
    169e:	0000                	unimp
    16a0:	6619                	lui	a2,0x6
    16a2:	746d                	lui	s0,0xffffb
    16a4:	0700                	addi	s0,sp,896
    16a6:	01f9                	addi	gp,gp,30
    16a8:	0000ef43          	fmadd.s	ft10,ft1,ft0,ft0,unknown
    16ac:	1900                	addi	s0,sp,176
    16ae:	6176                	flw	ft2,92(sp)
    16b0:	0700                	addi	s0,sp,896
    16b2:	01f9                	addi	gp,gp,30
    16b4:	c950                	sw	a2,20(a0)
    16b6:	0000                	unimp
    16b8:	1d00                	addi	s0,sp,688
    16ba:	0062                	c.slli	zero,0x18
    16bc:	1301fb07          	0x1301fb07
    16c0:	04e0                	addi	s0,sp,588
    16c2:	0000                	unimp
    16c4:	6e1d                	lui	t3,0x7
    16c6:	0700                	addi	s0,sp,896
    16c8:	0200                	addi	s0,sp,256
    16ca:	8a06                	mv	s4,ra
    16cc:	0000                	unimp
    16ce:	0000                	unimp
    16d0:	9624                	0x9624
    16d2:	07000003          	lb	zero,112(zero) # 70 <InterruptVector+0x70>
    16d6:	8a0101d7          	0x8a0101d7
    16da:	0000                	unimp
    16dc:	4700                	lw	s0,8(a4)
    16de:	0008                	0x8
    16e0:	1900                	addi	s0,sp,176
    16e2:	d7070073          	0xd7070073
    16e6:	0d01                	addi	s10,s10,0
    16e8:	00dd                	addi	ra,ra,23
    16ea:	0000                	unimp
    16ec:	6c19                	lui	s8,0x6
    16ee:	6e65                	lui	t3,0x19
    16f0:	0700                	addi	s0,sp,896
    16f2:	8a1401d7          	0x8a1401d7
    16f6:	0000                	unimp
    16f8:	1900                	addi	s0,sp,176
    16fa:	7562                	flw	fa0,56(sp)
    16fc:	0066                	c.slli	zero,0x19
    16fe:	1f01d707          	0x1f01d707
    1702:	00d5                	addi	ra,ra,21
    1704:	0000                	unimp
    1706:	621d                	lui	tp,0x7
    1708:	0700                	addi	s0,sp,896
    170a:	01da                	slli	gp,gp,0x16
    170c:	4714                	lw	a3,8(a4)
    170e:	0008                	0x8
    1710:	1d00                	addi	s0,sp,688
    1712:	3070                	fld	fa2,224(s0)
    1714:	0700                	addi	s0,sp,896
    1716:	dd0901db          	0xdd0901db
    171a:	0000                	unimp
    171c:	1d00                	addi	s0,sp,688
    171e:	0069                	c.nop	26
    1720:	0601dc07          	0x601dc07
    1724:	008a                	slli	ra,ra,0x2
    1726:	0000                	unimp
    1728:	0800                	addi	s0,sp,16
    172a:	e004                	fsw	fs1,0(s0)
    172c:	0004                	0x4
    172e:	2400                	fld	fs0,8(s0)
    1730:	0221                	addi	tp,tp,8
    1732:	0000                	unimp
    1734:	0101b807          	fld	fa6,16(gp) # 10 <InterruptVector+0x10>
    1738:	008a                	slli	ra,ra,0x2
    173a:	0000                	unimp
    173c:	08c5                	addi	a7,a7,17
    173e:	0000                	unimp
    1740:	7019                	c.lui	zero,0xfffe6
    1742:	7274                	flw	fa3,100(a2)
    1744:	0700                	addi	s0,sp,896
    1746:	01b8                	addi	a4,sp,200
    1748:	dd10                	sw	a2,56(a0)
    174a:	0000                	unimp
    174c:	1900                	addi	s0,sp,176
    174e:	656c                	flw	fa1,76(a0)
    1750:	006e                	c.slli	zero,0x1b
    1752:	1901b807          	fld	fa6,400(gp) # 20000a20 <__global_pointer$+0x190>
    1756:	008a                	slli	ra,ra,0x2
    1758:	0000                	unimp
    175a:	0003661b          	0x3661b
    175e:	0700                	addi	s0,sp,896
    1760:	01b8                	addi	a4,sp,200
    1762:	0000e323          	0xe323
    1766:	1b00                	addi	s0,sp,432
    1768:	039c                	addi	a5,sp,448
    176a:	0000                	unimp
    176c:	3101b807          	fld	fa6,784(gp) # 20000ba0 <__global_pointer$+0x310>
    1770:	008a                	slli	ra,ra,0x2
    1772:	0000                	unimp
    1774:	00035f1b          	0x35f1b
    1778:	0700                	addi	s0,sp,896
    177a:	01b8                	addi	a4,sp,200
    177c:	0000dd3f 00691d00 	0x691d000000dd3f
    1784:	0601ba07          	fld	fs4,96(gp) # 200008f0 <__global_pointer$+0x60>
    1788:	008a                	slli	ra,ra,0x2
    178a:	0000                	unimp
    178c:	00012313          	slti	t1,sp,0
    1790:	0700                	addi	s0,sp,896
    1792:	8a0601bb          	0x8a0601bb
    1796:	0000                	unimp
    1798:	1300                	addi	s0,sp,416
    179a:	035e                	slli	t1,t1,0x17
    179c:	0000                	unimp
    179e:	0901bc07          	fld	fs8,144(gp) # 20000920 <__global_pointer$+0x90>
    17a2:	00dd                	addi	ra,ra,23
    17a4:	0000                	unimp
    17a6:	2400                	fld	fs0,8(s0)
    17a8:	01d6                	slli	gp,gp,0x15
    17aa:	0000                	unimp
    17ac:	01018f07          	0x1018f07
    17b0:	008a                	slli	ra,ra,0x2
    17b2:	0000                	unimp
    17b4:	096a                	slli	s2,s2,0x1a
    17b6:	0000                	unimp
    17b8:	00029e1b          	0x29e1b
    17bc:	0700                	addi	s0,sp,896
    17be:	6210018f          	0x6210018f
    17c2:	0000                	unimp
    17c4:	1b00                	addi	s0,sp,432
    17c6:	04be                	slli	s1,s1,0xf
    17c8:	0000                	unimp
    17ca:	24018f07          	0x24018f07
    17ce:	009d                	addi	ra,ra,7
    17d0:	0000                	unimp
    17d2:	0002be1b          	0x2be1b
    17d6:	0700                	addi	s0,sp,896
    17d8:	8a2f018f          	0x8a2f018f
    17dc:	0000                	unimp
    17de:	1b00                	addi	s0,sp,432
    17e0:	019a                	slli	gp,gp,0x6
    17e2:	0000                	unimp
    17e4:	3e018f07          	0x3e018f07
    17e8:	008a                	slli	ra,ra,0x2
    17ea:	0000                	unimp
    17ec:	00035f1b          	0x35f1b
    17f0:	0700                	addi	s0,sp,896
    17f2:	0190                	addi	a2,sp,192
    17f4:	dd09                	beqz	a0,170e <ch32v003fun.c.297fed70+0x82c>
    17f6:	0000                	unimp
    17f8:	1300                	addi	s0,sp,416
    17fa:	035e                	slli	t1,t1,0x17
    17fc:	0000                	unimp
    17fe:	08019207          	0x8019207
    1802:	00dd                	addi	ra,ra,23
    1804:	0000                	unimp
    1806:	00047313          	andi	t1,s0,0
    180a:	0700                	addi	s0,sp,896
    180c:	8a060193          	addi	gp,a2,-1888 # 58a0 <wiring.c.7604182b+0x3411>
    1810:	0000                	unimp
    1812:	1d00                	addi	s0,sp,688
    1814:	0069                	c.nop	26
    1816:	06019407          	0x6019407
    181a:	008a                	slli	ra,ra,0x2
    181c:	0000                	unimp
    181e:	6c1d                	lui	s8,0x7
    1820:	6e65                	lui	t3,0x19
    1822:	0700                	addi	s0,sp,896
    1824:	0194                	addi	a3,sp,192
    1826:	8a09                	andi	a2,a2,2
    1828:	0000                	unimp
    182a:	2500                	fld	fs0,8(a0)
    182c:	095c                	addi	a5,sp,148
    182e:	0000                	unimp
    1830:	00036f13          	ori	t5,t1,0
    1834:	0700                	addi	s0,sp,896
    1836:	01a1                	addi	gp,gp,8
    1838:	00008a07          	0x8a07
    183c:	0000                	unimp
    183e:	1d1c                	addi	a5,sp,688
    1840:	006a                	c.slli	zero,0x1a
    1842:	0801af07          	flw	ft10,128(gp) # 20000910 <__global_pointer$+0x80>
    1846:	000000e3          	beqz	zero,2046 <main.c.6f2e4722+0x28d>
    184a:	0000                	unimp
    184c:	971a                	add	a4,a4,t1
    184e:	07000003          	lb	zero,112(zero) # 70 <InterruptVector+0x70>
    1852:	0159                	addi	sp,sp,22
    1854:	8a05                	andi	a2,a2,1
    1856:	0000                	unimp
    1858:	9300                	0x9300
    185a:	0009                	c.nop	2
    185c:	1900                	addi	s0,sp,176
    185e:	59070073          	0x59070073
    1862:	1601                	addi	a2,a2,-32
    1864:	000000ef          	jal	ra,1864 <ch32v003fun.c.297fed70+0x982>
    1868:	731d                	lui	t1,0xfffe7
    186a:	006c                	addi	a1,sp,12
    186c:	06015b07          	0x6015b07
    1870:	008a                	slli	ra,ra,0x2
    1872:	0000                	unimp
    1874:	1a00                	addi	s0,sp,304
    1876:	032a                	slli	t1,t1,0xa
    1878:	0000                	unimp
    187a:	07015107          	0x7015107
    187e:	00d5                	addi	ra,ra,21
    1880:	0000                	unimp
    1882:	000009d3          	fadd.s	fs3,ft0,ft0,rne
    1886:	7319                	lui	t1,0xfffe6
    1888:	6372                	flw	ft6,28(sp)
    188a:	0700                	addi	s0,sp,896
    188c:	0151                	addi	sp,sp,20
    188e:	d31a                	sw	t1,164(sp)
    1890:	0009                	c.nop	2
    1892:	1900                	addi	s0,sp,176
    1894:	51070063          	beq	a4,a6,1d94 <ch32v003fun.c.297fed70+0xeb2>
    1898:	2301                	jal	1d98 <ch32v003fun.c.297fed70+0xeb6>
    189a:	008a                	slli	ra,ra,0x2
    189c:	0000                	unimp
    189e:	6e19                	lui	t3,0x6
    18a0:	0700                	addi	s0,sp,896
    18a2:	0151                	addi	sp,sp,20
    18a4:	a42d                	j	1ace <ch32v003fun.c.297fed70+0xbec>
    18a6:	0000                	unimp
    18a8:	1d00                	addi	s0,sp,688
    18aa:	53070073          	0x53070073
    18ae:	1701                	addi	a4,a4,-32
    18b0:	09da                	slli	s3,s3,0x16
    18b2:	0000                	unimp
    18b4:	0800                	addi	s0,sp,16
    18b6:	d904                	sw	s1,48(a0)
    18b8:	0009                	c.nop	2
    18ba:	2600                	fld	fs0,8(a2)
    18bc:	0408                	addi	a0,sp,512
    18be:	00000037          	lui	zero,0x0
    18c2:	131a                	slli	t1,t1,0x26
    18c4:	0002                	c.slli64	zero
    18c6:	0700                	addi	s0,sp,896
    18c8:	0141                	addi	sp,sp,16
    18ca:	0000d507          	0xd507
    18ce:	2d00                	fld	fs0,24(a0)
    18d0:	000a                	c.slli	zero,0x2
    18d2:	1b00                	addi	s0,sp,432
    18d4:	05c6                	slli	a1,a1,0x11
    18d6:	0000                	unimp
    18d8:	15014107          	flq	ft2,336(sp) # 6c090150 <__global_pointer$+0x4c08f8c0>
    18dc:	00d5                	addi	ra,ra,21
    18de:	0000                	unimp
    18e0:	7319                	lui	t1,0xfffe6
    18e2:	6372                	flw	ft6,28(sp)
    18e4:	0700                	addi	s0,sp,896
    18e6:	0141                	addi	sp,sp,16
    18e8:	0009d327          	0x9d327
    18ec:	1900                	addi	s0,sp,176
    18ee:	006e                	c.slli	zero,0x1b
    18f0:	33014107          	flq	ft2,816(sp)
    18f4:	00a4                	addi	s1,sp,72
    18f6:	0000                	unimp
    18f8:	641d                	lui	s0,0x7
    18fa:	0700                	addi	s0,sp,896
    18fc:	dd080143          	0xdd080143
    1900:	0000                	unimp
    1902:	1d00                	addi	s0,sp,688
    1904:	44070073          	0x44070073
    1908:	0e01                	addi	t3,t3,0
    190a:	000000ef          	jal	ra,190a <ch32v003fun.c.297fed70+0xa28>
    190e:	1a00                	addi	s0,sp,304
    1910:	0481                	addi	s1,s1,0
    1912:	0000                	unimp
    1914:	05013907          	fld	fs2,80(sp)
    1918:	008a                	slli	ra,ra,0x2
    191a:	0000                	unimp
    191c:	0a78                	addi	a4,sp,284
    191e:	0000                	unimp
    1920:	7619                	lui	a2,0xfffe6
    1922:	006c                	addi	a1,sp,12
    1924:	18013907          	fld	fs2,384(sp)
    1928:	000009d3          	fadd.s	fs3,ft0,ft0,rne
    192c:	7619                	lui	a2,0xfffe6
    192e:	0072                	c.slli	zero,0x1c
    1930:	28013907          	fld	fs2,640(sp)
    1934:	000009d3          	fadd.s	fs3,ft0,ft0,rne
    1938:	6e19                	lui	t3,0x6
    193a:	0700                	addi	s0,sp,896
    193c:	0139                	addi	sp,sp,14
    193e:	0000a433          	sltz	s0,ra
    1942:	1d00                	addi	s0,sp,688
    1944:	006c                	addi	a1,sp,12
    1946:	17013b07          	fld	fs6,368(sp)
    194a:	09da                	slli	s3,s3,0x16
    194c:	0000                	unimp
    194e:	721d                	lui	tp,0xfffe7
    1950:	0700                	addi	s0,sp,896
    1952:	da1e013b          	0xda1e013b
    1956:	0009                	c.nop	2
    1958:	0000                	unimp
    195a:	0a1a                	slli	s4,s4,0x6
    195c:	0000                	unimp
    195e:	0700                	addi	s0,sp,896
    1960:	0131                	addi	sp,sp,12
    1962:	0000d507          	0xd507
    1966:	c500                	sw	s0,8(a0)
    1968:	000a                	c.slli	zero,0x2
    196a:	1b00                	addi	s0,sp,432
    196c:	05c6                	slli	a1,a1,0x11
    196e:	0000                	unimp
    1970:	14013107          	fld	ft2,320(sp)
    1974:	00d5                	addi	ra,ra,21
    1976:	0000                	unimp
    1978:	7319                	lui	t1,0xfffe6
    197a:	6372                	flw	ft6,28(sp)
    197c:	0700                	addi	s0,sp,896
    197e:	0131                	addi	sp,sp,12
    1980:	d326                	sw	s1,164(sp)
    1982:	0009                	c.nop	2
    1984:	1900                	addi	s0,sp,176
    1986:	006e                	c.slli	zero,0x1b
    1988:	32013107          	fld	ft2,800(sp)
    198c:	00a4                	addi	s1,sp,72
    198e:	0000                	unimp
    1990:	641d                	lui	s0,0x7
    1992:	0700                	addi	s0,sp,896
    1994:	d7110133          	0xd7110133
    1998:	0000                	unimp
    199a:	1d00                	addi	s0,sp,688
    199c:	34070073          	0x34070073
    19a0:	1701                	addi	a4,a4,-32
    19a2:	09da                	slli	s3,s3,0x16
    19a4:	0000                	unimp
    19a6:	1a00                	addi	s0,sp,304
    19a8:	0000011b          	0x11b
    19ac:	07012c07          	flw	fs8,112(sp)
    19b0:	00dd                	addi	ra,ra,23
    19b2:	0000                	unimp
    19b4:	0aed                	addi	s5,s5,27
    19b6:	0000                	unimp
    19b8:	7319                	lui	t1,0xfffe6
    19ba:	0700                	addi	s0,sp,896
    19bc:	012c                	addi	a1,sp,136
    19be:	0000ef1b          	0xef1b
    19c2:	1900                	addi	s0,sp,176
    19c4:	2c070063          	beqz	a4,1c84 <ch32v003fun.c.297fed70+0xda2>
    19c8:	2201                	jal	1ac8 <ch32v003fun.c.297fed70+0xbe6>
    19ca:	008a                	slli	ra,ra,0x2
    19cc:	0000                	unimp
    19ce:	1a00                	addi	s0,sp,304
    19d0:	049a                	slli	s1,s1,0x6
    19d2:	0000                	unimp
    19d4:	07012407          	flw	fs0,112(sp)
    19d8:	00d5                	addi	ra,ra,21
    19da:	0000                	unimp
    19dc:	00000b2b          	0xb2b
    19e0:	6d19                	lui	s10,0x6
    19e2:	0700                	addi	s0,sp,896
    19e4:	0124                	addi	s1,sp,136
    19e6:	d31d                	beqz	a4,190c <ch32v003fun.c.297fed70+0xa2a>
    19e8:	0009                	c.nop	2
    19ea:	1900                	addi	s0,sp,176
    19ec:	24070063          	beqz	a4,1c2c <ch32v003fun.c.297fed70+0xd4a>
    19f0:	2401                	jal	1bf0 <ch32v003fun.c.297fed70+0xd0e>
    19f2:	008a                	slli	ra,ra,0x2
    19f4:	0000                	unimp
    19f6:	6e19                	lui	t3,0x6
    19f8:	0700                	addi	s0,sp,896
    19fa:	0124                	addi	s1,sp,136
    19fc:	a42e                	fsd	fa1,8(sp)
    19fe:	0000                	unimp
    1a00:	1d00                	addi	s0,sp,688
    1a02:	26070073          	0x26070073
    1a06:	1701                	addi	a4,a4,-32
    1a08:	09da                	slli	s3,s3,0x16
    1a0a:	0000                	unimp
    1a0c:	1a00                	addi	s0,sp,304
    1a0e:	0000040b          	0x40b
    1a12:	07011b07          	0x7011b07
    1a16:	00dd                	addi	ra,ra,23
    1a18:	0000                	unimp
    1a1a:	00000b53          	fadd.s	fs6,ft0,ft0,rne
    1a1e:	7319                	lui	t1,0xfffe6
    1a20:	0700                	addi	s0,sp,896
    1a22:	ef1a011b          	0xef1a011b
    1a26:	0000                	unimp
    1a28:	1900                	addi	s0,sp,176
    1a2a:	1b070063          	beq	a4,a6,1bca <ch32v003fun.c.297fed70+0xce8>
    1a2e:	2101                	jal	1e2e <main.c.6f2e4722+0x75>
    1a30:	008a                	slli	ra,ra,0x2
    1a32:	0000                	unimp
    1a34:	1a00                	addi	s0,sp,304
    1a36:	0532                	slli	a0,a0,0xc
    1a38:	0000                	unimp
    1a3a:	07010907          	0x7010907
    1a3e:	00dd                	addi	ra,ra,23
    1a40:	0000                	unimp
    1a42:	00000b7b          	0xb7b
    1a46:	6819                	lui	a6,0x6
    1a48:	0700                	addi	s0,sp,896
    1a4a:	0109                	addi	sp,sp,2
    1a4c:	ef1a                	fsw	ft6,156(sp)
    1a4e:	0000                	unimp
    1a50:	1900                	addi	s0,sp,176
    1a52:	006e                	c.slli	zero,0x1b
    1a54:	29010907          	0x29010907
    1a58:	000000ef          	jal	ra,1a58 <ch32v003fun.c.297fed70+0xb76>
    1a5c:	2700                	fld	fs0,8(a4)
    1a5e:	0309                	addi	t1,t1,2
    1a60:	0000                	unimp
    1a62:	dd0ea007          	flw	ft0,-560(t4)
    1a66:	0000                	unimp
    1a68:	3d00                	fld	fs0,56(a0)
    1a6a:	000c                	0xc
    1a6c:	2800                	fld	fs0,16(s0)
    1a6e:	0068                	addi	a0,sp,12
    1a70:	da31a007          	flw	ft0,-605(gp) # 20000633 <_ebss+0x58b>
    1a74:	0009                	c.nop	2
    1a76:	2800                	fld	fs0,16(s0)
    1a78:	006e                	c.slli	zero,0x1b
    1a7a:	da49a007          	flw	ft0,-604(s3)
    1a7e:	0009                	c.nop	2
    1a80:	2900                	fld	fs0,16(a0)
    1a82:	007a                	c.slli	zero,0x1e
    1a84:	da17a207          	flw	ft4,-607(a5)
    1a88:	0009                	c.nop	2
    1a8a:	2900                	fld	fs0,16(a0)
    1a8c:	006c                	addi	a1,sp,12
    1a8e:	a409a307          	flw	ft6,-1472(s3)
    1a92:	0000                	unimp
    1a94:	2900                	fld	fs0,16(a0)
    1a96:	7069                	c.lui	zero,0xffffa
    1a98:	0700                	addi	s0,sp,896
    1a9a:	00a40ca3          	sb	a0,25(s0) # 7019 <wiring.c.7604182b+0x4b8a>
    1a9e:	0000                	unimp
    1aa0:	6a29                	lui	s4,0xa
    1aa2:	0070                	addi	a2,sp,12
    1aa4:	a410a307          	flw	ft6,-1471(ra)
    1aa8:	0000                	unimp
    1aaa:	2900                	fld	fs0,16(a0)
    1aac:	a307006b          	0xa307006b
    1ab0:	a414                	fsd	fa3,8(s0)
    1ab2:	0000                	unimp
    1ab4:	2900                	fld	fs0,16(a0)
    1ab6:	0070                	addi	a2,sp,12
    1ab8:	a417a307          	flw	ft6,-1471(a5)
    1abc:	0000                	unimp
    1abe:	2900                	fld	fs0,16(a0)
    1ac0:	736d                	lui	t1,0xffffb
    1ac2:	0700                	addi	s0,sp,896
    1ac4:	00a41aa3          	sh	a0,21(s0)
    1ac8:	0000                	unimp
    1aca:	7029                	c.lui	zero,0xfffea
    1acc:	0030                	addi	a2,sp,8
    1ace:	a41ea307          	flw	ft6,-1471(t4)
    1ad2:	0000                	unimp
    1ad4:	2900                	fld	fs0,16(a0)
    1ad6:	656d                	lui	a0,0x1b
    1ad8:	006d                	c.nop	27
    1ada:	a422a307          	flw	ft6,-1470(t0)
    1ade:	0000                	unimp
    1ae0:	2a00                	fld	fs0,16(a2)
    1ae2:	047c                	addi	a5,sp,524
    1ae4:	0000                	unimp
    1ae6:	a427a307          	flw	ft6,-1470(a5)
    1aea:	0000                	unimp
    1aec:	2a00                	fld	fs0,16(a2)
    1aee:	04f6                	slli	s1,s1,0x1d
    1af0:	0000                	unimp
    1af2:	3d09a407          	flw	fs0,976(s3)
    1af6:	000c                	0xc
    1af8:	2a00                	fld	fs0,16(a2)
    1afa:	020d                	addi	tp,tp,3
    1afc:	0000                	unimp
    1afe:	4d09a507          	flw	fa0,1232(s3)
    1b02:	000c                	0xc
    1b04:	1c00                	addi	s0,sp,560
    1b06:	a32a                	fsd	fa0,384(sp)
    1b08:	07000003          	lb	zero,112(zero) # 70 <InterruptVector+0x70>
    1b0c:	00a40be3          	beq	s0,a0,2322 <main.c.6f2e4722+0x569>
    1b10:	0000                	unimp
    1b12:	7a29                	lui	s4,0xfffea
    1b14:	0032                	c.slli	zero,0xc
    1b16:	da19e407          	0xda19e407
    1b1a:	0009                	c.nop	2
    1b1c:	0000                	unimp
    1b1e:	0900                	addi	s0,sp,144
    1b20:	00a4                	addi	s1,sp,72
    1b22:	0000                	unimp
    1b24:	0c4d                	addi	s8,s8,19
    1b26:	0000                	unimp
    1b28:	9d0a                	add	s10,s10,sp
    1b2a:	0000                	unimp
    1b2c:	0700                	addi	s0,sp,896
    1b2e:	0900                	addi	s0,sp,144
    1b30:	00a4                	addi	s1,sp,72
    1b32:	0000                	unimp
    1b34:	0c5d                	addi	s8,s8,23
    1b36:	0000                	unimp
    1b38:	9d0a                	add	s10,s10,sp
    1b3a:	0000                	unimp
    1b3c:	ff00                	fsw	fs0,56(a4)
    1b3e:	2700                	fld	fs0,8(a4)
    1b40:	000004db          	0x4db
    1b44:	dd0e9207          	0xdd0e9207
    1b48:	0000                	unimp
    1b4a:	9800                	0x9800
    1b4c:	000c                	0xc
    1b4e:	2800                	fld	fs0,16(s0)
    1b50:	0068                	addi	a0,sp,12
    1b52:	da339207          	0xda339207
    1b56:	0009                	c.nop	2
    1b58:	2800                	fld	fs0,16(s0)
    1b5a:	006e                	c.slli	zero,0x1b
    1b5c:	da4b9207          	0xda4b9207
    1b60:	0009                	c.nop	2
    1b62:	2900                	fld	fs0,16(a0)
    1b64:	776e                	flw	fa4,248(sp)
    1b66:	0700                	addi	s0,sp,896
    1b68:	0b94                	addi	a3,sp,464
    1b6a:	0138                	addi	a4,sp,136
    1b6c:	0000                	unimp
    1b6e:	6829                	lui	a6,0xa
    1b70:	95070077          	0x95070077
    1b74:	0001380b          	0x1380b
    1b78:	0000                	unimp
    1b7a:	00052827          	fsw	ft0,16(a0) # 1b010 <wiring.c.7604182b+0x18b81>
    1b7e:	0700                	addi	s0,sp,896
    1b80:	0e8a                	slli	t4,t4,0x2
    1b82:	00dd                	addi	ra,ra,23
    1b84:	0000                	unimp
    1b86:	00000cd3          	fadd.s	fs9,ft0,ft0,rne
    1b8a:	6828                	flw	fa0,80(s0)
    1b8c:	0700                	addi	s0,sp,896
    1b8e:	348a                	fld	fs1,160(sp)
    1b90:	09da                	slli	s3,s3,0x16
    1b92:	0000                	unimp
    1b94:	6e28                	flw	fa0,88(a2)
    1b96:	0700                	addi	s0,sp,896
    1b98:	4c8a                	lw	s9,128(sp)
    1b9a:	09da                	slli	s3,s3,0x16
    1b9c:	0000                	unimp
    1b9e:	6e29                	lui	t3,0xa
    1ba0:	8c070077          	0x8c070077
    1ba4:	0001380b          	0x1380b
    1ba8:	2900                	fld	fs0,16(a0)
    1baa:	7768                	flw	fa0,108(a4)
    1bac:	0700                	addi	s0,sp,896
    1bae:	0b8d                	addi	s7,s7,3
    1bb0:	0138                	addi	a4,sp,136
    1bb2:	0000                	unimp
    1bb4:	2700                	fld	fs0,8(a4)
    1bb6:	000005cb          	fnmsub.s	fa1,ft0,ft0,ft0,rne
    1bba:	dd0e8307          	0xdd0e8307
    1bbe:	0000                	unimp
    1bc0:	0e00                	addi	s0,sp,784
    1bc2:	000d                	c.nop	3
    1bc4:	2800                	fld	fs0,16(s0)
    1bc6:	0068                	addi	a0,sp,12
    1bc8:	da328307          	0xda328307
    1bcc:	0009                	c.nop	2
    1bce:	2800                	fld	fs0,16(s0)
    1bd0:	006e                	c.slli	zero,0x1b
    1bd2:	da4a8307          	0xda4a8307
    1bd6:	0009                	c.nop	2
    1bd8:	2900                	fld	fs0,16(a0)
    1bda:	776e                	flw	fa4,248(sp)
    1bdc:	0700                	addi	s0,sp,896
    1bde:	0b85                	addi	s7,s7,1
    1be0:	0000011b          	0x11b
    1be4:	6829                	lui	a6,0xa
    1be6:	85070077          	0x85070077
    1bea:	1b20                	addi	s0,sp,440
    1bec:	0001                	nop
    1bee:	0000                	unimp
    1bf0:	0001542b          	0x1542b
    1bf4:	0700                	addi	s0,sp,896
    1bf6:	008a057b          	0x8a057b
    1bfa:	0000                	unimp
    1bfc:	00000d53          	fadd.s	fs10,ft0,ft0,rne
    1c00:	5f28                	lw	a0,120(a4)
    1c02:	006c                	addi	a1,sp,12
    1c04:	ef197b07          	0xef197b07
    1c08:	0000                	unimp
    1c0a:	2800                	fld	fs0,16(s0)
    1c0c:	725f 0700 297b      	0x297b0700725f
    1c12:	000000ef          	jal	ra,1c12 <ch32v003fun.c.297fed70+0xd30>
    1c16:	6e28                	flw	fa0,88(a2)
    1c18:	0700                	addi	s0,sp,896
    1c1a:	00a4347b          	0xa4347b
    1c1e:	0000                	unimp
    1c20:	6c29                	lui	s8,0xa
    1c22:	0700                	addi	s0,sp,896
    1c24:	177d                	addi	a4,a4,-1
    1c26:	09da                	slli	s3,s3,0x16
    1c28:	0000                	unimp
    1c2a:	7229                	lui	tp,0xfffea
    1c2c:	0700                	addi	s0,sp,896
    1c2e:	267d                	jal	1fdc <main.c.6f2e4722+0x223>
    1c30:	09da                	slli	s3,s3,0x16
    1c32:	0000                	unimp
    1c34:	2b00                	fld	fs0,16(a4)
    1c36:	05df 0000 7607      	0x7607000005df
    1c3c:	8a05                	andi	a2,a2,1
    1c3e:	0000                	unimp
    1c40:	7800                	flw	fs0,48(s0)
    1c42:	000d                	c.nop	3
    1c44:	2800                	fld	fs0,16(s0)
    1c46:	006c                	addi	a1,sp,12
    1c48:	ef187607          	0xef187607
    1c4c:	0000                	unimp
    1c4e:	2800                	fld	fs0,16(s0)
    1c50:	0072                	c.slli	zero,0x1c
    1c52:	ef277607          	0xef277607
    1c56:	0000                	unimp
    1c58:	0000                	unimp
    1c5a:	0002722b          	0x2722b
    1c5e:	0700                	addi	s0,sp,896
    1c60:	0775                	addi	a4,a4,29
    1c62:	00dd                	addi	ra,ra,23
    1c64:	0000                	unimp
    1c66:	00000da7          	0xda7
    1c6a:	6428                	flw	fa0,72(s0)
    1c6c:	0700                	addi	s0,sp,896
    1c6e:	1575                	addi	a0,a0,-3
    1c70:	00dd                	addi	ra,ra,23
    1c72:	0000                	unimp
    1c74:	7328                	flw	fa0,96(a4)
    1c76:	0700                	addi	s0,sp,896
    1c78:	2475                	jal	1f24 <main.c.6f2e4722+0x16b>
    1c7a:	000000ef          	jal	ra,1c7a <ch32v003fun.c.297fed70+0xd98>
    1c7e:	6e28                	flw	fa0,88(a2)
    1c80:	0700                	addi	s0,sp,896
    1c82:	2e75                	jal	203e <main.c.6f2e4722+0x285>
    1c84:	00a4                	addi	s1,sp,72
    1c86:	0000                	unimp
    1c88:	2b00                	fld	fs0,16(a4)
    1c8a:	01e0                	addi	s0,sp,204
    1c8c:	0000                	unimp
    1c8e:	dd077407          	0xdd077407
    1c92:	0000                	unimp
    1c94:	cc00                	sw	s0,24(s0)
    1c96:	000d                	c.nop	3
    1c98:	2800                	fld	fs0,16(s0)
    1c9a:	0064                	addi	s1,sp,12
    1c9c:	dd147407          	0xdd147407
    1ca0:	0000                	unimp
    1ca2:	2800                	fld	fs0,16(s0)
    1ca4:	74070073          	0x74070073
    1ca8:	0000ef23          	0xef23
    1cac:	0000                	unimp
    1cae:	0000bd2b          	0xbd2b
    1cb2:	0700                	addi	s0,sp,896
    1cb4:	00d50773          	0xd50773
    1cb8:	0000                	unimp
    1cba:	00000e07          	0xe07
    1cbe:	c62c                	sw	a1,72(a2)
    1cc0:	0005                	c.nop	1
    1cc2:	0700                	addi	s0,sp,896
    1cc4:	00d51473          	csrrw	s0,0xd,a0
    1cc8:	0000                	unimp
    1cca:	6328                	flw	fa0,64(a4)
    1ccc:	0700                	addi	s0,sp,896
    1cce:	008a1e73          	csrrw	t3,0x8,s4
    1cd2:	0000                	unimp
    1cd4:	6e28                	flw	fa0,88(a2)
    1cd6:	0700                	addi	s0,sp,896
    1cd8:	00a42873          	csrrs	a6,0xa,s0
    1cdc:	0000                	unimp
    1cde:	7329                	lui	t1,0xfffea
    1ce0:	0700                	addi	s0,sp,896
    1ce2:	00d73c73          	csrrc	s8,0xd,a4
    1ce6:	0000                	unimp
    1ce8:	2b00                	fld	fs0,16(a4)
    1cea:	0170                	addi	a2,sp,140
    1cec:	0000                	unimp
    1cee:	a4087207          	0xa4087207
    1cf2:	0000                	unimp
    1cf4:	3600                	fld	fs0,40(a2)
    1cf6:	000e                	c.slli	zero,0x3
    1cf8:	2800                	fld	fs0,16(s0)
    1cfa:	72070073          	0x72070073
    1cfe:	ef1c                	fsw	fa5,24(a4)
    1d00:	0000                	unimp
    1d02:	2800                	fld	fs0,16(s0)
    1d04:	006e                	c.slli	zero,0x1b
    1d06:	a4267207          	0xa4267207
    1d0a:	0000                	unimp
    1d0c:	2900                	fld	fs0,16(a0)
    1d0e:	0070                	addi	a2,sp,12
    1d10:	ef377207          	0xef377207
    1d14:	0000                	unimp
    1d16:	0000                	unimp
    1d18:	00012c2b          	0x12c2b
    1d1c:	0700                	addi	s0,sp,896
    1d1e:	0871                	addi	a6,a6,28
    1d20:	00a4                	addi	s1,sp,72
    1d22:	0000                	unimp
    1d24:	00000e5b          	0xe5b
    1d28:	7328                	flw	fa0,96(a4)
    1d2a:	0700                	addi	s0,sp,896
    1d2c:	1b71                	addi	s6,s6,-4
    1d2e:	000000ef          	jal	ra,1d2e <ch32v003fun.c.297fed70+0xe4c>
    1d32:	6129                	addi	sp,sp,192
    1d34:	0700                	addi	s0,sp,896
    1d36:	2c71                	jal	1fd2 <main.c.6f2e4722+0x219>
    1d38:	000000ef          	jal	ra,1d38 <ch32v003fun.c.297fed70+0xe56>
    1d3c:	2b00                	fld	fs0,16(a4)
    1d3e:	0000026b          	0x26b
    1d42:	8a051a07          	0x8a051a07
    1d46:	0000                	unimp
    1d48:	9100                	0x9100
    1d4a:	000e                	c.slli	zero,0x3
    1d4c:	2c00                	fld	fs0,24(s0)
    1d4e:	00000133          	add	sp,zero,zero
    1d52:	ef181a07          	0xef181a07
    1d56:	0000                	unimp
    1d58:	2000                	fld	fs0,0(s0)
    1d5a:	b22a                	fsd	fa0,288(sp)
    1d5c:	07000003          	lb	zero,112(zero) # 70 <InterruptVector+0x70>
    1d60:	0a1c                	addi	a5,sp,272
    1d62:	00c9                	addi	ra,ra,18
    1d64:	0000                	unimp
    1d66:	b32a                	fsd	fa0,416(sp)
    1d68:	0002                	c.slli64	zero
    1d6a:	0700                	addi	s0,sp,896
    1d6c:	061e                	slli	a2,a2,0x7
    1d6e:	008a                	slli	ra,ra,0x2
    1d70:	0000                	unimp
    1d72:	2700                	fld	fs0,8(a4)
    1d74:	00000287          	0x287
    1d78:	8a0c1407          	0x8a0c1407
    1d7c:	0000                	unimp
    1d7e:	c400                	sw	s0,8(s0)
    1d80:	000e                	c.slli	zero,0x3
    1d82:	2800                	fld	fs0,16(s0)
    1d84:	14070073          	0x14070073
    1d88:	dd1e                	sw	t2,184(sp)
    1d8a:	0000                	unimp
    1d8c:	2800                	fld	fs0,16(s0)
    1d8e:	656c                	flw	fa1,76(a0)
    1d90:	006e                	c.slli	zero,0x1b
    1d92:	8a251407          	0x8a251407
    1d96:	0000                	unimp
    1d98:	2800                	fld	fs0,16(s0)
    1d9a:	7562                	flw	fa0,56(sp)
    1d9c:	0066                	c.slli	zero,0x19
    1d9e:	d5301407          	0xd5301407
    1da2:	0000                	unimp
    1da4:	0000                	unimp
    1da6:	881e                	mv	a6,t2
    1da8:	0004                	0x4
    1daa:	0700                	addi	s0,sp,896
    1dac:	1f0602a7          	0x1f0602a7
    1db0:	0375                	addi	t1,t1,29
    1db2:	0000                	unimp
    1db4:	0602fe07          	0x602fe07
	...

00001db9 <main.c.6f2e4722>:
    1db9:	06d2                	slli	a3,a3,0x14
    1dbb:	0000                	unimp
    1dbd:	0004                	0x4
    1dbf:	03e2                	slli	t2,t2,0x18
    1dc1:	0000                	unimp
    1dc3:	0104                	addi	s1,sp,128
    1dc5:	0546                	slli	a0,a0,0x11
    1dc7:	0000                	unimp
    1dc9:	f80c                	fsw	fa1,48(s0)
    1dcb:	0005                	c.nop	1
    1dcd:	ce00                	sw	s0,24(a2)
    1dcf:	0000                	unimp
    1dd1:	4c00                	lw	s0,24(s0)
    1dd3:	0024                	addi	s1,sp,8
    1dd5:	0200                	addi	s0,sp,256
    1dd7:	05ee                	slli	a1,a1,0x1b
    1dd9:	0000                	unimp
    1ddb:	00d20407          	0xd20407
    1ddf:	0000                	unimp
    1de1:	4201                	li	tp,0
    1de3:	d20e                	sw	gp,36(sp)
    1de5:	0000                	unimp
    1de7:	0300                	addi	s0,sp,384
    1de9:	000008a3          	sb	zero,17(zero) # 11 <InterruptVector+0x11>
    1ded:	0302                	c.slli64	t1
    1def:	0672                	slli	a2,a2,0x1c
    1df1:	0000                	unimp
    1df3:	07d50303          	lb	t1,125(a0)
    1df7:	0000                	unimp
    1df9:	030c                	addi	a1,sp,384
    1dfb:	06a6                	slli	a3,a3,0x9
    1dfd:	0000                	unimp
    1dff:	030e                	slli	t1,t1,0x3
    1e01:	0808                	addi	a0,sp,16
    1e03:	0000                	unimp
    1e05:	0310                	addi	a2,sp,384
    1e07:	083e                	slli	a6,a6,0xf
    1e09:	0000                	unimp
    1e0b:	0311                	addi	t1,t1,4
    1e0d:	0648                	addi	a0,sp,772
    1e0f:	0000                	unimp
    1e11:	0312                	slli	t1,t1,0x4
    1e13:	0682                	c.slli64	a3
    1e15:	0000                	unimp
    1e17:	05e60313          	addi	t1,a2,94 # fffe605e <__global_pointer$+0xdffe57ce>
    1e1b:	0000                	unimp
    1e1d:	0314                	addi	a3,sp,384
    1e1f:	00000613          	li	a2,0
    1e23:	0315                	addi	t1,t1,5
    1e25:	07f5                	addi	a5,a5,29
    1e27:	0000                	unimp
    1e29:	0316                	slli	t1,t1,0x5
    1e2b:	0635                	addi	a2,a2,13
    1e2d:	0000                	unimp
    1e2f:	08500317          	auipc	t1,0x8500
    1e33:	0000                	unimp
    1e35:	0318                	addi	a4,sp,384
    1e37:	000006cf          	fnmadd.s	fa3,ft0,ft0,ft0,rne
    1e3b:	0319                	addi	t1,t1,6
    1e3d:	0950                	addi	a2,sp,148
    1e3f:	0000                	unimp
    1e41:	031a                	slli	t1,t1,0x6
    1e43:	07e2                	slli	a5,a5,0x18
    1e45:	0000                	unimp
    1e47:	061c031b          	0x61c031b
    1e4b:	0000                	unimp
    1e4d:	031c                	addi	a5,sp,384
    1e4f:	00000847          	fmsub.s	fa6,ft0,ft0,ft0,rne
    1e53:	031d                	addi	t1,t1,7
    1e55:	00000653          	fadd.s	fa2,ft0,ft0,rne
    1e59:	031e                	slli	t1,t1,0x7
    1e5b:	00000923          	sb	zero,18(zero) # 12 <InterruptVector+0x12>
    1e5f:	031f 0897 0000      	0x897031f
    1e65:	0320                	addi	s0,sp,392
    1e67:	06ba                	slli	a3,a3,0xe
    1e69:	0000                	unimp
    1e6b:	0321                	addi	t1,t1,8
    1e6d:	0692                	slli	a3,a3,0x4
    1e6f:	0000                	unimp
    1e71:	0322                	slli	t1,t1,0x8
    1e73:	0874                	addi	a3,sp,28
    1e75:	0000                	unimp
    1e77:	09110323          	sb	a7,134(sp)
    1e7b:	0000                	unimp
    1e7d:	0324                	addi	s1,sp,392
    1e7f:	08cc                	addi	a1,sp,84
    1e81:	0000                	unimp
    1e83:	0325                	addi	t1,t1,9
    1e85:	0935                	addi	s2,s2,13
    1e87:	0000                	unimp
    1e89:	0026                	c.slli	zero,0x9
    1e8b:	0404                	addi	s1,sp,512
    1e8d:	00025707          	0x25707
    1e91:	0500                	addi	s0,sp,640
    1e93:	0731                	addi	a4,a4,12
    1e95:	0000                	unimp
    1e97:	6301                	0x6301
    1e99:	00001d03          	lh	s10,0(zero) # 0 <InterruptVector>
    1e9d:	0400                	addi	s0,sp,512
    1e9f:	0601                	addi	a2,a2,0
    1ea1:	0500                	addi	s0,sp,640
    1ea3:	0000                	unimp
    1ea5:	c405                	beqz	s0,1ecd <main.c.6f2e4722+0x114>
    1ea7:	0004                	0x4
    1ea9:	0200                	addi	s0,sp,256
    1eab:	00f8182b          	0xf8182b
    1eaf:	0000                	unimp
    1eb1:	0104                	addi	s1,sp,128
    1eb3:	fe08                	fsw	fa0,56(a2)
    1eb5:	0004                	0x4
    1eb7:	0400                	addi	s0,sp,512
    1eb9:	0502                	c.slli64	a0
    1ebb:	0458                	addi	a4,sp,516
    1ebd:	0000                	unimp
    1ebf:	0204                	addi	s1,sp,256
    1ec1:	00059107          	0x59107
    1ec5:	0500                	addi	s0,sp,640
    1ec7:	0178                	addi	a4,sp,140
    1ec9:	0000                	unimp
    1ecb:	4d02                	lw	s10,0(sp)
    1ecd:	1918                	addi	a4,sp,176
    1ecf:	0001                	nop
    1ed1:	0400                	addi	s0,sp,512
    1ed3:	0504                	addi	s1,sp,640
    1ed5:	0355                	addi	t1,t1,21
    1ed7:	0000                	unimp
    1ed9:	0c05                	addi	s8,s8,1
    1edb:	0005                	c.nop	1
    1edd:	0200                	addi	s0,sp,256
    1edf:	012c194f          	fnmadd.s	fs2,fs8,fs2,ft0,rtz
    1ee3:	0000                	unimp
    1ee5:	0404                	addi	s1,sp,512
    1ee7:	00025207          	0x25207
    1eeb:	0400                	addi	s0,sp,512
    1eed:	0508                	addi	a0,sp,640
    1eef:	0350                	addi	a2,sp,388
    1ef1:	0000                	unimp
    1ef3:	0804                	addi	s1,sp,16
    1ef5:	00024d07          	flq	fs10,0(tp) # fffea000 <__global_pointer$+0xdffe9770>
    1ef9:	0600                	addi	s0,sp,768
    1efb:	0504                	addi	s1,sp,640
    1efd:	6e69                	lui	t3,0x1a
    1eff:	0074                	addi	a3,sp,12
    1f01:	c605                	beqz	a2,1f29 <main.c.6f2e4722+0x170>
    1f03:	0004                	0x4
    1f05:	0300                	addi	s0,sp,384
    1f07:	1318                	addi	a4,sp,416
    1f09:	00ec                	addi	a1,sp,76
    1f0b:	0000                	unimp
    1f0d:	00014807          	flq	fa6,0(sp)
    1f11:	0800                	addi	s0,sp,16
    1f13:	0154                	addi	a3,sp,132
    1f15:	0000                	unimp
    1f17:	4808                	lw	a0,16(s0)
    1f19:	0001                	nop
    1f1b:	0500                	addi	s0,sp,640
    1f1d:	017a                	slli	sp,sp,0x1e
    1f1f:	0000                	unimp
    1f21:	0d132c03          	lw	s8,209(t1) # 8501f00 <wiring.c.7604182b+0x84ffa71>
    1f25:	0001                	nop
    1f27:	0500                	addi	s0,sp,640
    1f29:	050e                	slli	a0,a0,0x3
    1f2b:	0000                	unimp
    1f2d:	20143003          	0x20143003
    1f31:	0001                	nop
    1f33:	0800                	addi	s0,sp,16
    1f35:	0000016f          	jal	sp,1f35 <main.c.6f2e4722+0x17c>
    1f39:	00017b07          	0x17b07
    1f3d:	0900                	addi	s0,sp,144
    1f3f:	0159                	addi	sp,sp,22
    1f41:	0000                	unimp
    1f43:	0195                	addi	gp,gp,5
    1f45:	0000                	unimp
    1f47:	d20a                	sw	sp,36(sp)
    1f49:	0000                	unimp
    1f4b:	0f00                	addi	s0,sp,912
    1f4d:	0700                	addi	s0,sp,896
    1f4f:	0185                	addi	gp,gp,1
    1f51:	0000                	unimp
    1f53:	9508                	0x9508
    1f55:	0001                	nop
    1f57:	0b00                	addi	s0,sp,400
    1f59:	0462                	slli	s0,s0,0x18
    1f5b:	0000                	unimp
    1f5d:	7301                	lui	t1,0xfffe0
    1f5f:	019a140b          	0x19a140b
    1f63:	0000                	unimp
    1f65:	5909                	li	s2,-30
    1f67:	0001                	nop
    1f69:	bc00                	fsd	fs0,56(s0)
    1f6b:	0001                	nop
    1f6d:	0a00                	addi	s0,sp,272
    1f6f:	00d2                	slli	ra,ra,0x14
    1f71:	0000                	unimp
    1f73:	ac070013          	addi	zero,a4,-1344
    1f77:	0001                	nop
    1f79:	0800                	addi	s0,sp,16
    1f7b:	01bc                	addi	a5,sp,200
    1f7d:	0000                	unimp
    1f7f:	00015c0b          	0x15c0b
    1f83:	0100                	addi	s0,sp,128
    1f85:	0b74                	addi	a3,sp,412
    1f87:	c114                	sw	a3,0(a0)
    1f89:	0001                	nop
    1f8b:	0c00                	addi	s0,sp,528
    1f8d:	0d14                	addi	a3,sp,656
    1f8f:	4101                	li	sp,0
    1f91:	0911                	addi	s2,s2,4
    1f93:	032e                	slli	t1,t1,0xb
    1f95:	0000                	unimp
    1f97:	490d                	li	s2,3
    1f99:	01005253          	fadd.s	ft4,ft0,fa6,unknown
    1f9d:	1142                	slli	sp,sp,0x30
    1f9f:	00034313          	xori	t1,t1,0
    1fa3:	0000                	unimp
    1fa5:	490d                	li	s2,3
    1fa7:	5250                	lw	a2,36(a2)
    1fa9:	0100                	addi	s0,sp,128
    1fab:	48131143          	fmadd.s	ft2,ft6,ft1,fs1,rtz
    1faf:	20000003          	lb	zero,512(zero) # 200 <main+0x80>
    1fb3:	690e                	flw	fs2,192(sp)
    1fb5:	0006                	c.slli	zero,0x1
    1fb7:	0100                	addi	s0,sp,128
    1fb9:	1144                	addi	s1,sp,164
    1fbb:	00017b13          	andi	s6,sp,0
    1fbf:	4000                	lw	s0,0(s0)
    1fc1:	040e                	slli	s0,s0,0x3
    1fc3:	0001                	nop
    1fc5:	0100                	addi	s0,sp,128
    1fc7:	1145                	addi	sp,sp,-15
    1fc9:	00017b13          	andi	s6,sp,0
    1fcd:	4400                	lw	s0,8(s0)
    1fcf:	d90e                	sw	gp,176(sp)
    1fd1:	0008                	0x8
    1fd3:	0100                	addi	s0,sp,128
    1fd5:	1146                	slli	sp,sp,0x31
    1fd7:	00017b13          	andi	s6,sp,0
    1fdb:	4800                	lw	s0,16(s0)
    1fdd:	f30e                	fsw	ft3,164(sp)
    1fdf:	0005                	c.nop	1
    1fe1:	0100                	addi	s0,sp,128
    1fe3:	80131147          	fmsub.s	ft2,ft6,ft1,fa6,rtz
    1fe7:	0001                	nop
    1fe9:	4c00                	lw	s0,24(s0)
    1feb:	7b0e                	flw	fs6,224(sp)
    1fed:	0006                	c.slli	zero,0x1
    1fef:	0100                	addi	s0,sp,128
    1ff1:	1148                	addi	a0,sp,164
    1ff3:	5d12                	lw	s10,36(sp)
    1ff5:	50000003          	lb	zero,1280(zero) # 500 <SysTick_Handler+0x220>
    1ff9:	120e                	slli	tp,tp,0x23
    1ffb:	0004                	0x4
    1ffd:	0100                	addi	s0,sp,128
    1fff:	1149                	addi	sp,sp,-14
    2001:	620d                	lui	tp,0x3
    2003:	54000003          	lb	zero,1344(zero) # 540 <SysTick_Handler+0x260>
    2007:	630e                	flw	ft6,192(sp)
    2009:	0009                	c.nop	2
    200b:	0100                	addi	s0,sp,128
    200d:	114a                	slli	sp,sp,0x32
    200f:	00038213          	mv	tp,t2
    2013:	6000                	flw	fs0,0(s0)
    2015:	1c0e                	slli	s8,s8,0x23
    2017:	0004                	0x4
    2019:	0100                	addi	s0,sp,128
    201b:	870d114b          	fnmsub.q	ft2,fs10,fa6,fa6,rtz
    201f:	70000003          	lb	zero,1792(zero) # 700 <_data_lma+0x17c>
    2023:	0006f10f          	0x6f10f
    2027:	0100                	addi	s0,sp,128
    2029:	114c                	addi	a1,sp,164
    202b:	0003a713          	slti	a4,t2,0
    202f:	0000                	unimp
    2031:	0f01                	addi	t5,t5,0
    2033:	0426                	slli	s0,s0,0x9
    2035:	0000                	unimp
    2037:	4d01                	li	s10,0
    2039:	0d11                	addi	s10,s10,4
    203b:	03ac                	addi	a1,sp,456
    203d:	0000                	unimp
    203f:	0120                	addi	s0,sp,136
    2041:	0009460f          	0x9460f
    2045:	0100                	addi	s0,sp,128
    2047:	114e                	slli	sp,sp,0x33
    2049:	0003a713          	slti	a4,t2,0
    204d:	8000                	0x8000
    204f:	0f01                	addi	t5,t5,0
    2051:	0430                	addi	a2,sp,520
    2053:	0000                	unimp
    2055:	4f01                	li	t5,0
    2057:	0d11                	addi	s10,s10,4
    2059:	03ac                	addi	a1,sp,456
    205b:	0000                	unimp
    205d:	01a0                	addi	s0,sp,200
    205f:	00098f0f          	0x98f0f
    2063:	0100                	addi	s0,sp,128
    2065:	1150                	addi	a2,sp,164
    2067:	0003a713          	slti	a4,t2,0
    206b:	0000                	unimp
    206d:	0f02                	c.slli64	t5
    206f:	043a                	slli	s0,s0,0xe
    2071:	0000                	unimp
    2073:	5101                	li	sp,-32
    2075:	0d11                	addi	s10,s10,4
    2077:	03ac                	addi	a1,sp,456
    2079:	0000                	unimp
    207b:	0220                	addi	s0,sp,264
    207d:	00094b0f          	0x94b0f
    2081:	0100                	addi	s0,sp,128
    2083:	1152                	slli	sp,sp,0x34
    2085:	0003a713          	slti	a4,t2,0
    2089:	8000                	0x8000
    208b:	0f02                	c.slli64	t5
    208d:	0444                	addi	s1,sp,516
    208f:	0000                	unimp
    2091:	5301                	li	t1,-32
    2093:	0d11                	addi	s10,s10,4
    2095:	03ac                	addi	a1,sp,456
    2097:	0000                	unimp
    2099:	02a0                	addi	s0,sp,328
    209b:	0006a00f          	0x6a00f
    209f:	0100                	addi	s0,sp,128
    20a1:	1154                	addi	a3,sp,164
    20a3:	0003a713          	slti	a4,t2,0
    20a7:	0000                	unimp
    20a9:	044e0f03          	lb	t5,68(t3) # 1a044 <wiring.c.7604182b+0x17bb5>
    20ad:	0000                	unimp
    20af:	5501                	li	a0,-32
    20b1:	0d11                	addi	s10,s10,4
    20b3:	03bc                	addi	a5,sp,456
    20b5:	0000                	unimp
    20b7:	0320                	addi	s0,sp,392
    20b9:	0007570f          	0x7570f
    20bd:	0100                	addi	s0,sp,128
    20bf:	1156                	slli	sp,sp,0x35
    20c1:	dc12                	sw	tp,56(sp)
    20c3:	00000003          	lb	zero,0(zero) # 0 <InterruptVector>
    20c7:	0f04                	addi	s1,sp,912
    20c9:	099d                	addi	s3,s3,7
    20cb:	0000                	unimp
    20cd:	5701                	li	a4,-32
    20cf:	0d11                	addi	s10,s10,4
    20d1:	03e1                	addi	t2,t2,24
    20d3:	0000                	unimp
    20d5:	0500                	addi	s0,sp,640
    20d7:	00062f0f          	0x62f0f
    20db:	0100                	addi	s0,sp,128
    20dd:	1158                	addi	a4,sp,164
    20df:	00017b13          	andi	s6,sp,0
    20e3:	1000                	addi	s0,sp,32
    20e5:	000d                	c.nop	3
    20e7:	8009                	srli	s0,s0,0x2
    20e9:	0001                	nop
    20eb:	3e00                	fld	fs0,56(a2)
    20ed:	0a000003          	lb	zero,160(zero) # a0 <digitalWrite>
    20f1:	00d2                	slli	ra,ra,0x14
    20f3:	0000                	unimp
    20f5:	2e070007          	0x2e070007
    20f9:	08000003          	lb	zero,128(zero) # 80 <InterruptVector+0x80>
    20fd:	033e                	slli	t1,t1,0xf
    20ff:	0000                	unimp
    2101:	3e08                	fld	fa0,56(a2)
    2103:	09000003          	lb	zero,144(zero) # 90 <InterruptVector+0x90>
    2107:	015e                	slli	sp,sp,0x17
    2109:	0000                	unimp
    210b:	035d                	addi	t1,t1,23
    210d:	0000                	unimp
    210f:	d20a                	sw	sp,36(sp)
    2111:	0000                	unimp
    2113:	0300                	addi	s0,sp,384
    2115:	0800                	addi	s0,sp,16
    2117:	034d                	addi	t1,t1,19
    2119:	0000                	unimp
    211b:	4809                	li	a6,2
    211d:	0001                	nop
    211f:	7200                	flw	fs0,32(a2)
    2121:	0a000003          	lb	zero,160(zero) # a0 <digitalWrite>
    2125:	00d2                	slli	ra,ra,0x14
    2127:	0000                	unimp
    2129:	7b09000b          	0x7b09000b
    212d:	0001                	nop
    212f:	8200                	0x8200
    2131:	0a000003          	lb	zero,160(zero) # a0 <digitalWrite>
    2135:	00d2                	slli	ra,ra,0x14
    2137:	0000                	unimp
    2139:	72080003          	lb	zero,1824(a6) # a720 <wiring.c.7604182b+0x8291>
    213d:	09000003          	lb	zero,144(zero) # 90 <InterruptVector+0x90>
    2141:	0148                	addi	a0,sp,132
    2143:	0000                	unimp
    2145:	00000397          	auipc	t2,0x0
    2149:	d20a                	sw	sp,36(sp)
    214b:	0000                	unimp
    214d:	8f00                	0x8f00
    214f:	0900                	addi	s0,sp,144
    2151:	0000017b          	0x17b
    2155:	000003a7          	0x3a7
    2159:	d20a                	sw	sp,36(sp)
    215b:	0000                	unimp
    215d:	0700                	addi	s0,sp,896
    215f:	0800                	addi	s0,sp,16
    2161:	00000397          	auipc	t2,0x0
    2165:	4809                	li	a6,2
    2167:	0001                	nop
    2169:	bc00                	fsd	fs0,56(s0)
    216b:	0a000003          	lb	zero,160(zero) # a0 <digitalWrite>
    216f:	00d2                	slli	ra,ra,0x14
    2171:	0000                	unimp
    2173:	005f 4809 0001      	0x14809005f
    2179:	cc00                	sw	s0,24(s0)
    217b:	0a000003          	lb	zero,160(zero) # a0 <digitalWrite>
    217f:	00d2                	slli	ra,ra,0x14
    2181:	0000                	unimp
    2183:	00df 5e09 0001      	0x15e0900df
    2189:	dc00                	sw	s0,56(s0)
    218b:	0a000003          	lb	zero,160(zero) # a0 <digitalWrite>
    218f:	00d2                	slli	ra,ra,0x14
    2191:	0000                	unimp
    2193:	00ff                	0xff
    2195:	cc08                	sw	a0,24(s0)
    2197:	09000003          	lb	zero,144(zero) # 90 <InterruptVector+0x90>
    219b:	0148                	addi	a0,sp,132
    219d:	0000                	unimp
    219f:	03f2                	slli	t2,t2,0x1c
    21a1:	0000                	unimp
    21a3:	d210                	sw	a2,32(a2)
    21a5:	0000                	unimp
    21a7:	0f00                	addi	s0,sp,912
    21a9:	0008                	0x8
    21ab:	2d11                	jal	27bf <wiring.c.7604182b+0x330>
    21ad:	0008                	0x8
    21af:	0100                	addi	s0,sp,128
    21b1:	1159                	addi	sp,sp,-10
    21b3:	d302                	sw	zero,164(sp)
    21b5:	0001                	nop
    21b7:	1200                	addi	s0,sp,288
    21b9:	0118                	addi	a4,sp,128
    21bb:	115c                	addi	a5,sp,164
    21bd:	5d09                	li	s10,-30
    21bf:	0004                	0x4
    21c1:	0e00                	addi	s0,sp,784
    21c3:	0304                	addi	s1,sp,384
    21c5:	0000                	unimp
    21c7:	5e01                	li	t3,-32
    21c9:	1311                	addi	t1,t1,-28
    21cb:	0000017b          	0x17b
    21cf:	0d00                	addi	s0,sp,656
    21d1:	01005253          	fadd.s	ft4,ft0,fa6,unknown
    21d5:	115f 7b13 0001      	0x17b13115f
    21db:	0400                	addi	s0,sp,512
    21dd:	430d                	li	t1,3
    21df:	544e                	lw	s0,240(sp)
    21e1:	0100                	addi	s0,sp,128
    21e3:	1160                	addi	s0,sp,172
    21e5:	00017b13          	andi	s6,sp,0
    21e9:	0800                	addi	s0,sp,16
    21eb:	120e                	slli	tp,tp,0x23
    21ed:	0004                	0x4
    21ef:	0100                	addi	s0,sp,128
    21f1:	1161                	addi	sp,sp,-8
    21f3:	6f0e                	flw	ft10,192(sp)
    21f5:	0001                	nop
    21f7:	0c00                	addi	s0,sp,528
    21f9:	430d                	li	t1,3
    21fb:	504d                	c.li	zero,-13
    21fd:	0100                	addi	s0,sp,128
    21ff:	1162                	slli	sp,sp,0x38
    2201:	00017b13          	andi	s6,sp,0
    2205:	1000                	addi	s0,sp,32
    2207:	1c0e                	slli	s8,s8,0x23
    2209:	0004                	0x4
    220b:	0100                	addi	s0,sp,128
    220d:	6f0e1163          	bne	t3,a6,28ef <wiring.c.7604182b+0x460>
    2211:	0001                	nop
    2213:	1400                	addi	s0,sp,544
    2215:	1100                	addi	s0,sp,160
    2217:	000003b7          	lui	t2,0x0
    221b:	6401                	0x6401
    221d:	0211                	addi	tp,tp,4
    221f:	03ff                	0x3ff
    2221:	0000                	unimp
    2223:	6b02                	flw	fs6,0(sp)
    2225:	0009                	c.nop	2
    2227:	0700                	addi	s0,sp,896
    2229:	d204                	sw	s1,32(a2)
    222b:	0000                	unimp
    222d:	0400                	addi	s0,sp,512
    222f:	0608                	addi	a0,sp,768
    2231:	0489                	addi	s1,s1,2
    2233:	0000                	unimp
    2235:	776f6c13          	ori	s8,t5,1910
    2239:	0000                	unimp
    223b:	000bdf03          	lhu	t5,0(s7)
    223f:	0100                	addi	s0,sp,128
    2241:	0200                	addi	s0,sp,256
    2243:	09c4                	addi	s1,sp,212
    2245:	0000                	unimp
    2247:	00d20407          	0xd20407
    224b:	0000                	unimp
    224d:	0f04                	addi	s1,sp,912
    224f:	b406                	fsd	ft1,40(sp)
    2251:	0004                	0x4
    2253:	0300                	addi	s0,sp,384
    2255:	000008b7          	lui	a7,0x0
    2259:	0300                	addi	s0,sp,384
    225b:	08be                	slli	a7,a7,0xf
    225d:	0000                	unimp
    225f:	0301                	addi	t1,t1,0
    2261:	08c5                	addi	a7,a7,17
    2263:	0000                	unimp
    2265:	0302                	c.slli64	t1
    2267:	09ce                	slli	s3,s3,0x13
    2269:	0000                	unimp
    226b:	60020003          	lb	zero,1536(tp) # 3600 <wiring.c.7604182b+0x1171>
    226f:	0006                	c.slli	zero,0x1
    2271:	0700                	addi	s0,sp,896
    2273:	d204                	sw	s1,32(a2)
    2275:	0000                	unimp
    2277:	0400                	addi	s0,sp,512
    2279:	0616                	slli	a2,a2,0x5
    227b:	0539                	addi	a0,a0,14
    227d:	0000                	unimp
    227f:	00083703          	0x83703
    2283:	0000                	unimp
    2285:	00068b03          	lb	s6,0(a3)
    2289:	0100                	addi	s0,sp,128
    228b:	00071c03          	lh	s8,0(a4)
    228f:	0200                	addi	s0,sp,256
    2291:	00072303          	lw	t1,0(a4)
    2295:	0300                	addi	s0,sp,384
    2297:	00072a03          	lw	s4,0(a4)
    229b:	0400                	addi	s0,sp,512
    229d:	00093f03          	0x93f03
    22a1:	0500                	addi	s0,sp,640
    22a3:	00073b03          	0x73b03
    22a7:	0600                	addi	s0,sp,768
    22a9:	00074203          	lbu	tp,0(a4)
    22ad:	0700                	addi	s0,sp,896
    22af:	00074903          	lbu	s2,0(a4)
    22b3:	0800                	addi	s0,sp,16
    22b5:	00075003          	lhu	zero,0(a4)
    22b9:	0900                	addi	s0,sp,144
    22bb:	00078503          	lb	a0,0(a5)
    22bf:	0a00                	addi	s0,sp,272
    22c1:	00078c03          	lb	s8,0(a5)
    22c5:	0b00                	addi	s0,sp,400
    22c7:	00079303          	lh	t1,0(a5)
    22cb:	0c00                	addi	s0,sp,528
    22cd:	00079a03          	lh	s4,0(a5)
    22d1:	0d00                	addi	s0,sp,656
    22d3:	0007a103          	lw	sp,0(a5)
    22d7:	0e00                	addi	s0,sp,784
    22d9:	0007a803          	lw	a6,0(a5)
    22dd:	0f00                	addi	s0,sp,912
    22df:	0007af03          	lw	t5,0(a5)
    22e3:	1000                	addi	s0,sp,32
    22e5:	0007b603          	0x7b603
    22e9:	1100                	addi	s0,sp,160
    22eb:	00099403          	lh	s0,0(s3)
    22ef:	1200                	addi	s0,sp,288
    22f1:	0200                	addi	s0,sp,256
    22f3:	00000983          	lb	s3,0(zero) # 0 <InterruptVector>
    22f7:	00d20407          	0xd20407
    22fb:	0000                	unimp
    22fd:	2d04                	fld	fs1,24(a0)
    22ff:	7c06                	flw	fs8,96(sp)
    2301:	0005                	c.nop	1
    2303:	0300                	addi	s0,sp,384
    2305:	07c2                	slli	a5,a5,0x10
    2307:	0000                	unimp
    2309:	0300                	addi	s0,sp,384
    230b:	000009a7          	0x9a7
    230f:	0301                	addi	t1,t1,0
    2311:	08f5                	addi	a7,a7,29
    2313:	0000                	unimp
    2315:	0302                	c.slli64	t1
    2317:	00000863          	beqz	zero,2327 <main.c.6f2e4722+0x56e>
    231b:	076d0303          	lb	t1,118(s10) # 6076 <wiring.c.7604182b+0x3be7>
    231f:	0000                	unimp
    2321:	0304                	addi	s1,sp,384
    2323:	05ff                	0x5ff
    2325:	0000                	unimp
    2327:	0305                	addi	t1,t1,1
    2329:	0881                	addi	a7,a7,0
    232b:	0000                	unimp
    232d:	0306                	slli	t1,t1,0x1
    232f:	08de                	slli	a7,a7,0x17
    2331:	0000                	unimp
    2333:	10040007          	0x10040007
    2337:	c404                	sw	s1,8(s0)
    2339:	04000003          	lb	zero,64(zero) # 40 <InterruptVector+0x40>
    233d:	0801                	addi	a6,a6,0
    233f:	00000507          	0x507
    2343:	b414                	fsd	fa3,40(s0)
    2345:	0006                	c.slli	zero,0x1
    2347:	0500                	addi	s0,sp,640
    2349:	016f0a3b          	0x16f0a3b
    234d:	0000                	unimp
    234f:	f614                	fsw	fa3,40(a2)
    2351:	0006                	c.slli	zero,0x1
    2353:	0500                	addi	s0,sp,640
    2355:	133c                	addi	a5,sp,424
    2357:	0000017b          	0x17b
    235b:	0315                	addi	t1,t1,5
    235d:	4505                	li	a0,1
    235f:	d309                	beqz	a4,2261 <main.c.6f2e4722+0x4a8>
    2361:	0005                	c.nop	1
    2363:	1600                	addi	s0,sp,800
    2365:	06c4                	addi	s1,sp,836
    2367:	0000                	unimp
    2369:	4605                	li	a2,1
    236b:	5410                	lw	a2,40(s0)
    236d:	0001                	nop
    236f:	0000                	unimp
    2371:	0816                	slli	a6,a6,0x5
    2373:	0009                	c.nop	2
    2375:	0500                	addi	s0,sp,640
    2377:	01541047          	fmsub.s	ft0,fs0,fs5,ft0,rtz
    237b:	0000                	unimp
    237d:	1601                	addi	a2,a2,-32
    237f:	0812                	slli	a6,a6,0x4
    2381:	0000                	unimp
    2383:	4805                	li	a6,1
    2385:	480a                	lw	a6,128(sp)
    2387:	0001                	nop
    2389:	0200                	addi	s0,sp,256
    238b:	0500                	addi	s0,sp,640
    238d:	00000973          	0x973
    2391:	4905                	li	s2,1
    2393:	0005a203          	lw	tp,0(a1)
    2397:	0800                	addi	s0,sp,16
    2399:	000005d3          	fadd.s	fa1,ft0,ft0,rne
    239d:	df09                	beqz	a4,22b7 <main.c.6f2e4722+0x4fe>
    239f:	0005                	c.nop	1
    23a1:	f400                	fsw	fs0,40(s0)
    23a3:	0005                	c.nop	1
    23a5:	0a00                	addi	s0,sp,272
    23a7:	00d2                	slli	ra,ra,0x14
    23a9:	0000                	unimp
    23ab:	e408000b          	0xe408000b
    23af:	0005                	c.nop	1
    23b1:	1400                	addi	s0,sp,544
    23b3:	0780                	addi	s0,sp,960
    23b5:	0000                	unimp
    23b7:	4b05                	li	s6,1
    23b9:	f415                	bnez	s0,22e5 <main.c.6f2e4722+0x52c>
    23bb:	0005                	c.nop	1
    23bd:	0900                	addi	s0,sp,144
    23bf:	0154                	addi	a3,sp,132
    23c1:	0000                	unimp
    23c3:	0000061b          	0x61b
    23c7:	d20a                	sw	sp,36(sp)
    23c9:	0000                	unimp
    23cb:	0300                	addi	s0,sp,384
    23cd:	d20a                	sw	sp,36(sp)
    23cf:	0000                	unimp
    23d1:	0200                	addi	s0,sp,256
    23d3:	0700                	addi	s0,sp,896
    23d5:	0605                	addi	a2,a2,1
    23d7:	0000                	unimp
    23d9:	00071617          	auipc	a2,0x71
    23dd:	0500                	addi	s0,sp,640
    23df:	165f 061b 0000      	0x61b165f
    23e5:	7e18                	flw	fa4,56(a2)
    23e7:	0009                	c.nop	2
    23e9:	0500                	addi	s0,sp,640
    23eb:	05d2                	slli	a1,a1,0x14
    23ed:	0141                	addi	sp,sp,16
    23ef:	0000                	unimp
    23f1:	00000657          	0x657
    23f5:	1719                	addi	a4,a4,-26
    23f7:	07bd                	addi	a5,a5,15
    23f9:	0000                	unimp
    23fb:	e305                	bnez	a4,241b <main.c.6f2e4722+0x662>
    23fd:	00014107          	flq	ft2,0(sp)
    2401:	1900                	addi	s0,sp,176
    2403:	691a                	flw	fs2,132(sp)
    2405:	0500                	addi	s0,sp,640
    2407:	0be4                	addi	s1,sp,476
    2409:	0141                	addi	sp,sp,16
    240b:	0000                	unimp
    240d:	0000                	unimp
    240f:	1b00                	addi	s0,sp,432
    2411:	075e                	slli	a4,a4,0x17
    2413:	0000                	unimp
    2415:	cb05                	beqz	a4,2445 <main.c.6f2e4722+0x68c>
    2417:	6e06                	flw	ft8,64(sp)
    2419:	0006                	c.slli	zero,0x1
    241b:	1c00                	addi	s0,sp,560
    241d:	006e                	c.slli	zero,0x1b
    241f:	cb05                	beqz	a4,244f <main.c.6f2e4722+0x696>
    2421:	6f1e                	flw	ft10,196(sp)
    2423:	0001                	nop
    2425:	0000                	unimp
    2427:	0009b81b          	0x9b81b
    242b:	0500                	addi	s0,sp,640
    242d:	06c6                	slli	a3,a3,0x11
    242f:	0691                	addi	a3,a3,4
    2431:	0000                	unimp
    2433:	6e1c                	flw	fa5,24(a2)
    2435:	0500                	addi	s0,sp,640
    2437:	1bc6                	slli	s7,s7,0x31
    2439:	0000016f          	jal	sp,2439 <main.c.6f2e4722+0x680>
    243d:	651a                	flw	fa0,132(sp)
    243f:	646e                	flw	fs0,216(sp)
    2441:	0500                	addi	s0,sp,640
    2443:	016f0bc7          	fmsub.s	fs7,ft10,fs6,ft0,rne
    2447:	0000                	unimp
    2449:	1b00                	addi	s0,sp,432
    244b:	081d                	addi	a6,a6,7
    244d:	0000                	unimp
    244f:	9605                	srai	a2,a2,0x21
    2451:	b606                	fsd	ft1,296(sp)
    2453:	0006                	c.slli	zero,0x1
    2455:	1700                	addi	s0,sp,928
    2457:	0930                	addi	a2,sp,152
    2459:	0000                	unimp
    245b:	a505                	j	2a7b <wiring.c.7604182b+0x5ec>
    245d:	4811                	li	a6,4
    245f:	0001                	nop
    2461:	1700                	addi	s0,sp,928
    2463:	0000070f          	0x70f
    2467:	a605                	j	2787 <wiring.c.7604182b+0x2f8>
    2469:	480a                	lw	a6,128(sp)
    246b:	0001                	nop
    246d:	0000                	unimp
    246f:	021d                	addi	tp,tp,7
    2471:	05000007          	0x5000007
    2475:	0669                	addi	a2,a2,26
    2477:	e21e                	fsw	ft7,4(sp)
    2479:	0006                	c.slli	zero,0x1
    247b:	0100                	addi	s0,sp,128
    247d:	1f1711a7          	0x1f1711a7
    2481:	05ee                	slli	a1,a1,0x1b
    2483:	0000                	unimp
    2485:	a701                	j	2b85 <wiring.c.7604182b+0x6f6>
    2487:	3011                	jal	1c8b <ch32v003fun.c.297fed70+0xda9>
    2489:	00d9                	addi	ra,ra,22
    248b:	0000                	unimp
	...

0000248f <wiring.c.7604182b>:
    248f:	06ba                	slli	a3,a3,0xe
    2491:	0000                	unimp
    2493:	0004                	0x4
    2495:	058e                	slli	a1,a1,0x3
    2497:	0000                	unimp
    2499:	0104                	addi	s1,sp,128
    249b:	0546                	slli	a0,a0,0x11
    249d:	0000                	unimp
    249f:	030c                	addi	a1,sp,384
    24a1:	000a                	c.slli	zero,0x2
    24a3:	ce00                	sw	s0,24(a2)
    24a5:	0000                	unimp
    24a7:	f200                	fsw	fs0,32(a2)
    24a9:	0024                	addi	s1,sp,8
    24ab:	0200                	addi	s0,sp,256
    24ad:	0704                	addi	s1,sp,896
    24af:	00000257          	0x257
    24b3:	000b4b03          	lbu	s6,0(s6)
    24b7:	0100                	addi	s0,sp,128
    24b9:	1729                	addi	a4,a4,-22
    24bb:	0030                	addi	a2,sp,8
    24bd:	0000                	unimp
    24bf:	0102                	c.slli64	sp
    24c1:	0006                	c.slli	zero,0x1
    24c3:	0005                	c.nop	1
    24c5:	0300                	addi	s0,sp,384
    24c7:	04c4                	addi	s1,sp,580
    24c9:	0000                	unimp
    24cb:	2b01                	jal	29db <wiring.c.7604182b+0x54c>
    24cd:	4318                	lw	a4,0(a4)
    24cf:	0000                	unimp
    24d1:	0200                	addi	s0,sp,256
    24d3:	0801                	addi	a6,a6,0
    24d5:	04fe                	slli	s1,s1,0x1f
    24d7:	0000                	unimp
    24d9:	0202                	c.slli64	tp
    24db:	5805                	li	a6,-31
    24dd:	0004                	0x4
    24df:	0300                	addi	s0,sp,384
    24e1:	00000293          	li	t0,0
    24e5:	3901                	jal	20f5 <main.c.6f2e4722+0x33c>
    24e7:	5d19                	li	s10,-26
    24e9:	0000                	unimp
    24eb:	0200                	addi	s0,sp,256
    24ed:	0702                	c.slli64	a4
    24ef:	0591                	addi	a1,a1,4
    24f1:	0000                	unimp
    24f3:	0402                	c.slli64	s0
    24f5:	5505                	li	a0,-31
    24f7:	03000003          	lb	zero,48(zero) # 30 <InterruptVector+0x30>
    24fb:	050c                	addi	a1,sp,640
    24fd:	0000                	unimp
    24ff:	4f01                	li	t5,0
    2501:	7719                	lui	a4,0xfffe6
    2503:	0000                	unimp
    2505:	0200                	addi	s0,sp,256
    2507:	0704                	addi	s1,sp,896
    2509:	0252                	slli	tp,tp,0x14
    250b:	0000                	unimp
    250d:	0802                	c.slli64	a6
    250f:	5005                	c.li	zero,-31
    2511:	02000003          	lb	zero,32(zero) # 20 <InterruptVector+0x20>
    2515:	0708                	addi	a0,sp,896
    2517:	024d                	addi	tp,tp,19
    2519:	0000                	unimp
    251b:	0404                	addi	s1,sp,512
    251d:	6905                	lui	s2,0x1
    251f:	746e                	flw	fs0,248(sp)
    2521:	0300                	addi	s0,sp,384
    2523:	0b4d                	addi	s6,s6,19
    2525:	0000                	unimp
    2527:	1402                	slli	s0,s0,0x20
    2529:	2412                	fld	fs0,256(sp)
    252b:	0000                	unimp
    252d:	0300                	addi	s0,sp,384
    252f:	04c6                	slli	s1,s1,0x11
    2531:	0000                	unimp
    2533:	1802                	slli	a6,a6,0x20
    2535:	00003713          	sltiu	a4,zero,0
    2539:	0500                	addi	s0,sp,640
    253b:	009f 0000 ab06      	0xab060000009f
    2541:	0000                	unimp
    2543:	0300                	addi	s0,sp,384
    2545:	0295                	addi	t0,t0,5
    2547:	0000                	unimp
    2549:	2402                	fld	fs0,0(sp)
    254b:	5114                	lw	a3,32(a0)
    254d:	0000                	unimp
    254f:	0300                	addi	s0,sp,384
    2551:	050e                	slli	a0,a0,0x3
    2553:	0000                	unimp
    2555:	3002                	fld	ft0,32(sp)
    2557:	6b14                	flw	fa3,16(a4)
    2559:	0000                	unimp
    255b:	0600                	addi	s0,sp,768
    255d:	00c1                	addi	ra,ra,16
    255f:	0000                	unimp
    2561:	cd05                	beqz	a0,2599 <wiring.c.7604182b+0x10a>
    2563:	0000                	unimp
    2565:	0700                	addi	s0,sp,896
    2567:	0354                	addi	a3,sp,388
    2569:	0971                	addi	s2,s2,28
    256b:	01f2                	slli	gp,gp,0x1c
    256d:	0000                	unimp
    256f:	4008                	lw	a0,0(s0)
    2571:	0005                	c.nop	1
    2573:	0300                	addi	s0,sp,384
    2575:	00cd1373          	csrrw	t1,0xc,s10
    2579:	0000                	unimp
    257b:	0800                	addi	s0,sp,16
    257d:	000003d7          	0x3d7
    2581:	cd137403          	0xcd137403
    2585:	0000                	unimp
    2587:	0400                	addi	s0,sp,512
    2589:	dd08                	sw	a0,56(a0)
    258b:	03000003          	lb	zero,48(zero) # 30 <InterruptVector+0x30>
    258f:	1375                	addi	t1,t1,-3
    2591:	00cd                	addi	ra,ra,19
    2593:	0000                	unimp
    2595:	0808                	addi	a0,sp,16
    2597:	0a5a                	slli	s4,s4,0x16
    2599:	0000                	unimp
    259b:	cd137603          	0xcd137603
    259f:	0000                	unimp
    25a1:	0c00                	addi	s0,sp,528
    25a3:	6208                	flw	fa0,0(a2)
    25a5:	000a                	c.slli	zero,0x2
    25a7:	0300                	addi	s0,sp,384
    25a9:	00cd1377          	0xcd1377
    25ad:	0000                	unimp
    25af:	0810                	addi	a2,sp,16
    25b1:	0a7c                	addi	a5,sp,284
    25b3:	0000                	unimp
    25b5:	cd137803          	0xcd137803
    25b9:	0000                	unimp
    25bb:	1400                	addi	s0,sp,544
    25bd:	8208                	0x8208
    25bf:	000a                	c.slli	zero,0x2
    25c1:	0300                	addi	s0,sp,384
    25c3:	1379                	addi	t1,t1,-2
    25c5:	00cd                	addi	ra,ra,19
    25c7:	0000                	unimp
    25c9:	0818                	addi	a4,sp,16
    25cb:	0a88                	addi	a0,sp,336
    25cd:	0000                	unimp
    25cf:	cd137a03          	0xcd137a03
    25d3:	0000                	unimp
    25d5:	1c00                	addi	s0,sp,560
    25d7:	8e08                	0x8e08
    25d9:	000a                	c.slli	zero,0x2
    25db:	0300                	addi	s0,sp,384
    25dd:	00cd137b          	0xcd137b
    25e1:	0000                	unimp
    25e3:	0820                	addi	s0,sp,24
    25e5:	09dd                	addi	s3,s3,23
    25e7:	0000                	unimp
    25e9:	cd137c03          	0xcd137c03
    25ed:	0000                	unimp
    25ef:	2400                	fld	fs0,8(s0)
    25f1:	4508                	lw	a0,8(a0)
    25f3:	0300000b          	0x300000b
    25f7:	137d                	addi	t1,t1,-1
    25f9:	00cd                	addi	ra,ra,19
    25fb:	0000                	unimp
    25fd:	0828                	addi	a0,sp,24
    25ff:	0ba4                	addi	s1,sp,472
    2601:	0000                	unimp
    2603:	cd137e03          	0xcd137e03
    2607:	0000                	unimp
    2609:	2c00                	fld	fs0,24(s0)
    260b:	aa08                	fsd	fa0,16(a2)
    260d:	0300000b          	0x300000b
    2611:	137f                	0x137f
    2613:	00cd                	addi	ra,ra,19
    2615:	0000                	unimp
    2617:	0830                	addi	a2,sp,24
    2619:	0bb0                	addi	a2,sp,472
    261b:	0000                	unimp
    261d:	cd138003          	lb	zero,-815(t2) # fffffcd1 <__global_pointer$+0xdffff441>
    2621:	0000                	unimp
    2623:	3400                	fld	fs0,40(s0)
    2625:	d808                	sw	a0,48(s0)
    2627:	0009                	c.nop	2
    2629:	0300                	addi	s0,sp,384
    262b:	1381                	addi	t2,t2,-32
    262d:	00cd                	addi	ra,ra,19
    262f:	0000                	unimp
    2631:	0838                	addi	a4,sp,24
    2633:	0ab2                	slli	s5,s5,0xc
    2635:	0000                	unimp
    2637:	cd138203          	lb	tp,-815(t2)
    263b:	0000                	unimp
    263d:	3c00                	fld	fs0,56(s0)
    263f:	ba08                	fsd	fa0,48(a2)
    2641:	000a                	c.slli	zero,0x2
    2643:	0300                	addi	s0,sp,384
    2645:	00cd1383          	lh	t2,12(s10)
    2649:	0000                	unimp
    264b:	0840                	addi	s0,sp,20
    264d:	0ac2                	slli	s5,s5,0x10
    264f:	0000                	unimp
    2651:	cd138403          	lb	s0,-815(t2)
    2655:	0000                	unimp
    2657:	4400                	lw	s0,8(s0)
    2659:	ca08                	sw	a0,16(a2)
    265b:	000a                	c.slli	zero,0x2
    265d:	0300                	addi	s0,sp,384
    265f:	1385                	addi	t2,t2,-31
    2661:	00cd                	addi	ra,ra,19
    2663:	0000                	unimp
    2665:	0848                	addi	a0,sp,20
    2667:	0b2c                	addi	a1,sp,408
    2669:	0000                	unimp
    266b:	cd138603          	lb	a2,-815(t2)
    266f:	0000                	unimp
    2671:	4c00                	lw	s0,24(s0)
    2673:	b608                	fsd	fa0,40(a2)
    2675:	0300000b          	0x300000b
    2679:	00cd1387          	0xcd1387
    267d:	0000                	unimp
    267f:	0050                	addi	a2,sp,4
    2681:	000b0803          	lb	a6,0(s6)
    2685:	0300                	addi	s0,sp,384
    2687:	0388                	addi	a0,sp,448
    2689:	000000d7          	0xd7
    268d:	1c09                	addi	s8,s8,-30
    268f:	09013703          	0x9013703
    2693:	0000026b          	0x26b
    2697:	1b0a                	slli	s6,s6,0x22
    2699:	0002                	c.slli64	zero
    269b:	0300                	addi	s0,sp,384
    269d:	0139                	addi	sp,sp,14
    269f:	cd10                	sw	a2,24(a0)
    26a1:	0000                	unimp
    26a3:	0000                	unimp
    26a5:	c00a                	sw	sp,0(sp)
    26a7:	0005                	c.nop	1
    26a9:	0300                	addi	s0,sp,384
    26ab:	013a                	slli	sp,sp,0xe
    26ad:	cd10                	sw	a2,24(a0)
    26af:	0000                	unimp
    26b1:	0400                	addi	s0,sp,512
    26b3:	b20a                	fsd	ft2,288(sp)
    26b5:	0001                	nop
    26b7:	0300                	addi	s0,sp,384
    26b9:	d210013b          	0xd210013b
    26bd:	0000                	unimp
    26bf:	0800                	addi	s0,sp,16
    26c1:	cf0a                	sw	sp,156(sp)
    26c3:	0002                	c.slli64	zero
    26c5:	0300                	addi	s0,sp,384
    26c7:	013c                	addi	a5,sp,136
    26c9:	cd10                	sw	a2,24(a0)
    26cb:	0000                	unimp
    26cd:	0c00                	addi	s0,sp,528
    26cf:	170a                	slli	a4,a4,0x22
    26d1:	03000003          	lb	zero,48(zero) # 30 <InterruptVector+0x30>
    26d5:	013d                	addi	sp,sp,15
    26d7:	cd10                	sw	a2,24(a0)
    26d9:	0000                	unimp
    26db:	1000                	addi	s0,sp,32
    26dd:	5243420b          	0x5243420b
    26e1:	0300                	addi	s0,sp,384
    26e3:	013e                	slli	sp,sp,0xf
    26e5:	cd10                	sw	a2,24(a0)
    26e7:	0000                	unimp
    26e9:	1400                	addi	s0,sp,544
    26eb:	da0a                	sw	sp,52(sp)
    26ed:	0005                	c.nop	1
    26ef:	0300                	addi	s0,sp,384
    26f1:	cd10013f 18000000 	0x18000000cd10013f
    26f9:	0c00                	addi	s0,sp,528
    26fb:	04ce                	slli	s1,s1,0x13
    26fd:	0000                	unimp
    26ff:	03014003          	lbu	zero,48(sp)
    2703:	01fe                	slli	gp,gp,0x1f
    2705:	0000                	unimp
    2707:	2809                	jal	2719 <wiring.c.7604182b+0x28a>
    2709:	09017703          	0x9017703
    270d:	0000030f          	0x30f
    2711:	040a                	slli	s0,s0,0x2
    2713:	03000003          	lb	zero,48(zero) # 30 <InterruptVector+0x30>
    2717:	0179                	addi	sp,sp,30
    2719:	0000cd13          	xori	s10,ra,0
    271d:	0000                	unimp
    271f:	900a                	c.add	zero,sp
    2721:	03000003          	lb	zero,48(zero) # 30 <InterruptVector+0x30>
    2725:	017a                	slli	sp,sp,0x1e
    2727:	0000cd13          	xori	s10,ra,0
    272b:	0400                	addi	s0,sp,512
    272d:	080a                	slli	a6,a6,0x2
    272f:	0002                	c.slli64	zero
    2731:	0300                	addi	s0,sp,384
    2733:	cd13017b          	0xcd13017b
    2737:	0000                	unimp
    2739:	0800                	addi	s0,sp,16
    273b:	b40a                	fsd	ft2,40(sp)
    273d:	0004                	0x4
    273f:	0300                	addi	s0,sp,384
    2741:	017c                	addi	a5,sp,140
    2743:	0000cd13          	xori	s10,ra,0
    2747:	0c00                	addi	s0,sp,528
    2749:	fe0a                	fsw	ft2,60(sp)
    274b:	0001                	nop
    274d:	0300                	addi	s0,sp,384
    274f:	017d                	addi	sp,sp,31
    2751:	0000cd13          	xori	s10,ra,0
    2755:	1000                	addi	s0,sp,32
    2757:	870a                	mv	a4,sp
    2759:	03000003          	lb	zero,48(zero) # 30 <InterruptVector+0x30>
    275d:	017e                	slli	sp,sp,0x1f
    275f:	0000cd13          	xori	s10,ra,0
    2763:	1400                	addi	s0,sp,544
    2765:	a80a                	fsd	ft2,16(sp)
    2767:	0001                	nop
    2769:	0300                	addi	s0,sp,384
    276b:	017f                	0x17f
    276d:	0000cd13          	xori	s10,ra,0
    2771:	1800                	addi	s0,sp,48
    2773:	a80a                	fsd	ft2,16(sp)
    2775:	03000003          	lb	zero,48(zero) # 30 <InterruptVector+0x30>
    2779:	0180                	addi	s0,sp,192
    277b:	0000cd13          	xori	s10,ra,0
    277f:	1c00                	addi	s0,sp,560
    2781:	120a                	slli	tp,tp,0x22
    2783:	0004                	0x4
    2785:	0300                	addi	s0,sp,384
    2787:	0181                	addi	gp,gp,0
    2789:	0000cd13          	xori	s10,ra,0
    278d:	2000                	fld	fs0,0(s0)
    278f:	030a                	slli	t1,t1,0x2
    2791:	0004                	0x4
    2793:	0300                	addi	s0,sp,384
    2795:	0182                	c.slli64	gp
    2797:	0000cd13          	xori	s10,ra,0
    279b:	2400                	fld	fs0,8(s0)
    279d:	0c00                	addi	s0,sp,528
    279f:	000002f7          	0x2f7
    27a3:	03018303          	lb	t1,48(gp) # 200008c0 <__global_pointer$+0x30>
    27a7:	0278                	addi	a4,sp,268
    27a9:	0000                	unimp
    27ab:	b00d                	j	1fcd <main.c.6f2e4722+0x214>
    27ad:	0000                	unimp
    27af:	2c00                	fld	fs0,24(s0)
    27b1:	0e000003          	lb	zero,224(zero) # e0 <digitalWrite+0x40>
    27b5:	001d                	c.nop	7
    27b7:	0000                	unimp
    27b9:	1c05000f          	0x1c05000f
    27bd:	06000003          	lb	zero,96(zero) # 60 <InterruptVector+0x60>
    27c1:	032c                	addi	a1,sp,392
    27c3:	0000                	unimp
    27c5:	0004620f          	0x4620f
    27c9:	0300                	addi	s0,sp,384
    27cb:	31140b73          	0x31140b73
    27cf:	0d000003          	lb	zero,208(zero) # d0 <digitalWrite+0x30>
    27d3:	00b0                	addi	a2,sp,72
    27d5:	0000                	unimp
    27d7:	00000353          	fadd.s	ft6,ft0,ft0,rne
    27db:	1d0e                	slli	s10,s10,0x23
    27dd:	0000                	unimp
    27df:	1300                	addi	s0,sp,416
    27e1:	0500                	addi	s0,sp,640
    27e3:	00000343          	fmadd.s	ft6,ft0,ft0,ft0,rne
    27e7:	5306                	lw	t1,96(sp)
    27e9:	0f000003          	lb	zero,240(zero) # f0 <pinMode>
    27ed:	015c                	addi	a5,sp,132
    27ef:	0000                	unimp
    27f1:	140b7403          	0x140b7403
    27f5:	0358                	addi	a4,sp,388
    27f7:	0000                	unimp
    27f9:	0710                	addi	a2,sp,896
    27fb:	1d04                	addi	s1,sp,688
    27fd:	0000                	unimp
    27ff:	0300                	addi	s0,sp,384
    2801:	8c010d13          	addi	s10,sp,-1856
    2805:	11000003          	lb	zero,272(zero) # 110 <pinMode+0x20>
    2809:	0234                	addi	a3,sp,264
    280b:	0000                	unimp
    280d:	1101                	addi	sp,sp,-32
    280f:	01c6                	slli	gp,gp,0x11
    2811:	0000                	unimp
    2813:	1102                	slli	sp,sp,0x20
    2815:	00000517          	auipc	a0,0x0
    2819:	c4120003          	lb	zero,-959(tp) # fffffc41 <__global_pointer$+0xdffff3b1>
    281d:	0009                	c.nop	2
    281f:	0700                	addi	s0,sp,896
    2821:	1d04                	addi	s1,sp,688
    2823:	0000                	unimp
    2825:	0400                	addi	s0,sp,512
    2827:	03b7060f          	0x3b7060f
    282b:	0000                	unimp
    282d:	b711                	j	2731 <wiring.c.7604182b+0x2a2>
    282f:	0008                	0x8
    2831:	0000                	unimp
    2833:	be11                	j	2347 <main.c.6f2e4722+0x58e>
    2835:	0008                	0x8
    2837:	0100                	addi	s0,sp,128
    2839:	c511                	beqz	a0,2845 <wiring.c.7604182b+0x3b6>
    283b:	0008                	0x8
    283d:	0200                	addi	s0,sp,256
    283f:	ce11                	beqz	a2,285b <wiring.c.7604182b+0x3cc>
    2841:	0009                	c.nop	2
    2843:	0300                	addi	s0,sp,384
    2845:	1200                	addi	s0,sp,288
    2847:	0660                	addi	s0,sp,780
    2849:	0000                	unimp
    284b:	001d0407          	0x1d0407
    284f:	0000                	unimp
    2851:	1604                	addi	s1,sp,800
    2853:	3c06                	fld	fs8,96(sp)
    2855:	0004                	0x4
    2857:	1100                	addi	s0,sp,160
    2859:	00000837          	lui	a6,0x0
    285d:	1100                	addi	s0,sp,160
    285f:	0000068b          	0x68b
    2863:	1101                	addi	sp,sp,-32
    2865:	071c                	addi	a5,sp,896
    2867:	0000                	unimp
    2869:	1102                	slli	sp,sp,0x20
    286b:	00000723          	sb	zero,14(zero) # e <InterruptVector+0xe>
    286f:	072a1103          	lh	sp,114(s4) # fffea072 <__global_pointer$+0xdffe97e2>
    2873:	0000                	unimp
    2875:	1104                	addi	s1,sp,160
    2877:	0000093f 073b1105 	0x73b11050000093f
    287f:	0000                	unimp
    2881:	1106                	slli	sp,sp,0x21
    2883:	0742                	slli	a4,a4,0x10
    2885:	0000                	unimp
    2887:	07491107          	0x7491107
    288b:	0000                	unimp
    288d:	1108                	addi	a0,sp,160
    288f:	0750                	addi	a2,sp,900
    2891:	0000                	unimp
    2893:	1109                	addi	sp,sp,-30
    2895:	0785                	addi	a5,a5,1
    2897:	0000                	unimp
    2899:	110a                	slli	sp,sp,0x22
    289b:	078c                	addi	a1,sp,960
    289d:	0000                	unimp
    289f:	0793110b          	0x793110b
    28a3:	0000                	unimp
    28a5:	110c                	addi	a1,sp,160
    28a7:	079a                	slli	a5,a5,0x6
    28a9:	0000                	unimp
    28ab:	110d                	addi	sp,sp,-29
    28ad:	07a1                	addi	a5,a5,8
    28af:	0000                	unimp
    28b1:	110e                	slli	sp,sp,0x23
    28b3:	07a8                	addi	a0,sp,968
    28b5:	0000                	unimp
    28b7:	07af110f          	0x7af110f
    28bb:	0000                	unimp
    28bd:	1110                	addi	a2,sp,160
    28bf:	07b6                	slli	a5,a5,0xd
    28c1:	0000                	unimp
    28c3:	1111                	addi	sp,sp,-28
    28c5:	0994                	addi	a3,sp,208
    28c7:	0000                	unimp
    28c9:	0012                	c.slli	zero,0x4
    28cb:	8312                	mv	t1,tp
    28cd:	0009                	c.nop	2
    28cf:	0700                	addi	s0,sp,896
    28d1:	1d04                	addi	s1,sp,688
    28d3:	0000                	unimp
    28d5:	0400                	addi	s0,sp,512
    28d7:	062d                	addi	a2,a2,11
    28d9:	047f                	0x47f
    28db:	0000                	unimp
    28dd:	c211                	beqz	a2,28e1 <wiring.c.7604182b+0x452>
    28df:	00000007          	0x7
    28e3:	a711                	j	2fe7 <wiring.c.7604182b+0xb58>
    28e5:	0009                	c.nop	2
    28e7:	0100                	addi	s0,sp,128
    28e9:	f511                	bnez	a0,27f5 <wiring.c.7604182b+0x366>
    28eb:	0008                	0x8
    28ed:	0200                	addi	s0,sp,256
    28ef:	6311                	lui	t1,0x4
    28f1:	0008                	0x8
    28f3:	0300                	addi	s0,sp,384
    28f5:	6d11                	lui	s10,0x4
    28f7:	04000007          	0x4000007
    28fb:	ff11                	bnez	a4,2817 <wiring.c.7604182b+0x388>
    28fd:	0005                	c.nop	1
    28ff:	0500                	addi	s0,sp,640
    2901:	8111                	srli	a0,a0,0x4
    2903:	0008                	0x8
    2905:	0600                	addi	s0,sp,768
    2907:	de11                	beqz	a2,2823 <wiring.c.7604182b+0x394>
    2909:	0008                	0x8
    290b:	0700                	addi	s0,sp,896
    290d:	1200                	addi	s0,sp,288
    290f:	0a3e                	slli	s4,s4,0xf
    2911:	0000                	unimp
    2913:	001d0407          	0x1d0407
    2917:	0000                	unimp
    2919:	3804                	fld	fs1,48(s0)
    291b:	a406                	fsd	ft1,8(sp)
    291d:	0004                	0x4
    291f:	1100                	addi	s0,sp,160
    2921:	0a6a                	slli	s4,s4,0x1a
    2923:	0000                	unimp
    2925:	1100                	addi	s0,sp,160
    2927:	0aee                	slli	s5,s5,0x1b
    2929:	0000                	unimp
    292b:	1101                	addi	sp,sp,-32
    292d:	0bd6                	slli	s7,s7,0x15
    292f:	0000                	unimp
    2931:	0002                	c.slli64	zero
    2933:	e912                	fsw	ft4,144(sp)
    2935:	0009                	c.nop	2
    2937:	0700                	addi	s0,sp,896
    2939:	1d04                	addi	s1,sp,688
    293b:	0000                	unimp
    293d:	0400                	addi	s0,sp,512
    293f:	063e                	slli	a2,a2,0xf
    2941:	000004f3          	0x4f3
    2945:	5a11                	li	s4,-28
    2947:	0000000b          	0xb
    294b:	4b11                	li	s6,4
    294d:	000a                	c.slli	zero,0x2
    294f:	0100                	addi	s0,sp,128
    2951:	ed11                	bnez	a0,296d <wiring.c.7604182b+0x4de>
    2953:	0200000b          	0x200000b
    2957:	2411                	jal	2b5b <wiring.c.7604182b+0x6cc>
    2959:	0300000b          	0x300000b
    295d:	1911                	addi	s2,s2,-28
    295f:	000a                	c.slli	zero,0x2
    2961:	0400                	addi	s0,sp,512
    2963:	7f11                	lui	t5,0xfffe4
    2965:	0500000b          	0x500000b
    2969:	0e11                	addi	t3,t3,4
    296b:	000c                	0xc
    296d:	0600                	addi	s0,sp,768
    296f:	c411                	beqz	s0,297b <wiring.c.7604182b+0x4ec>
    2971:	0700000b          	0x700000b
    2975:	1411                	addi	s0,s0,-28
    2977:	0800000b          	0x800000b
    297b:	1c11                	addi	s8,s8,-28
    297d:	0900000b          	0x900000b
    2981:	1200                	addi	s0,sp,288
    2983:	00000b33          	add	s6,zero,zero
    2987:	001d0407          	0x1d0407
    298b:	0000                	unimp
    298d:	4b04                	lw	s1,16(a4)
    298f:	3606                	fld	fa2,96(sp)
    2991:	0005                	c.nop	1
    2993:	1100                	addi	s0,sp,160
    2995:	0a0c                	addi	a1,sp,272
    2997:	0000                	unimp
    2999:	1100                	addi	s0,sp,160
    299b:	0c06                	slli	s8,s8,0x1
    299d:	0000                	unimp
    299f:	1101                	addi	sp,sp,-32
    29a1:	0a9d                	addi	s5,s5,7
    29a3:	0000                	unimp
    29a5:	1102                	slli	sp,sp,0x20
    29a7:	0ad2                	slli	s5,s5,0x14
    29a9:	0000                	unimp
    29ab:	0be41103          	lh	sp,190(s0)
    29af:	0000                	unimp
    29b1:	1104                	addi	s1,sp,160
    29b3:	0a94                	addi	a3,sp,336
    29b5:	0000                	unimp
    29b7:	1105                	addi	sp,sp,-31
    29b9:	00000bbb          	0xbbb
    29bd:	1106                	slli	sp,sp,0x21
    29bf:	0a2c                	addi	a1,sp,280
    29c1:	0000                	unimp
    29c3:	db130007          	0xdb130007
    29c7:	000a                	c.slli	zero,0x2
    29c9:	0500                	addi	s0,sp,640
    29cb:	0aec                	addi	a1,sp,348
    29cd:	00b5                	addi	ra,ra,13
    29cf:	0000                	unimp
    29d1:	00000553          	fadd.s	fa0,ft0,ft0,rne
    29d5:	e314                	fsw	fa3,0(a4)
    29d7:	0009                	c.nop	2
    29d9:	0500                	addi	s0,sp,640
    29db:	27ec                	fld	fa1,200(a5)
    29dd:	04a4                	addi	s1,sp,584
    29df:	0000                	unimp
    29e1:	1500                	addi	s0,sp,672
    29e3:	00000afb          	0xafb
    29e7:	df05                	beqz	a4,291f <wiring.c.7604182b+0x490>
    29e9:	1606                	slli	a2,a2,0x21
    29eb:	0aa6                	slli	s5,s5,0x9
    29ed:	0000                	unimp
    29ef:	cf05                	beqz	a4,2a27 <wiring.c.7604182b+0x598>
    29f1:	7406                	flw	fs0,96(sp)
    29f3:	0005                	c.nop	1
    29f5:	1400                	addi	s0,sp,544
    29f7:	00000b87          	0xb87
    29fb:	cf05                	beqz	a4,2a33 <wiring.c.7604182b+0x5a4>
    29fd:	9f1a                	add	t5,t5,t1
    29ff:	0000                	unimp
    2a01:	0000                	unimp
    2a03:	6216                	flw	ft4,68(sp)
    2a05:	0500000b          	0x500000b
    2a09:	06c6                	slli	a3,a3,0x11
    2a0b:	0599                	addi	a1,a1,6
    2a0d:	0000                	unimp
    2a0f:	e314                	fsw	fa3,0(a4)
    2a11:	0009                	c.nop	2
    2a13:	0500                	addi	s0,sp,640
    2a15:	29c6                	fld	fs3,80(sp)
    2a17:	04a4                	addi	s1,sp,584
    2a19:	0000                	unimp
    2a1b:	6e14                	flw	fa3,24(a2)
    2a1d:	0500000b          	0x500000b
    2a21:	47c6                	lw	a5,80(sp)
    2a23:	000004f3          	0x4f3
    2a27:	1700                	addi	s0,sp,928
    2a29:	00000b97          	auipc	s7,0x0
    2a2d:	a705                	j	314d <wiring.c.7604182b+0xcbe>
    2a2f:	b206                	fsd	ft1,288(sp)
    2a31:	0005                	c.nop	1
    2a33:	1800                	addi	s0,sp,48
    2a35:	6919                	lui	s2,0x6
    2a37:	0500                	addi	s0,sp,640
    2a39:	0fb4                	addi	a3,sp,984
    2a3b:	009f 0000 0000      	0x9f
    2a41:	000b7313          	andi	t1,s6,0
    2a45:	0500                	addi	s0,sp,640
    2a47:	009f098b          	0x9f098b
    2a4b:	0000                	unimp
    2a4d:	000005f3          	0x5f3
    2a51:	701a                	flw	ft0,164(sp)
    2a53:	6e69                	lui	t3,0x1a
    2a55:	0500                	addi	s0,sp,640
    2a57:	009f1d8b          	0x9f1d8b
    2a5b:	0000                	unimp
    2a5d:	000b541b          	0xb541b
    2a61:	0500                	addi	s0,sp,640
    2a63:	118c                	addi	a1,sp,224
    2a65:	000005f3          	0x5f3
    2a69:	000bcc1b          	0xbcc1b
    2a6d:	0500                	addi	s0,sp,640
    2a6f:	0b8d                	addi	s7,s7,3
    2a71:	00b5                	addi	ra,ra,13
    2a73:	0000                	unimp
    2a75:	000a531b          	0xa531b
    2a79:	0500                	addi	s0,sp,640
    2a7b:	099f 0093 0000      	0x93099f
    2a81:	1c00                	addi	s0,sp,560
    2a83:	6b04                	flw	fs1,16(a4)
    2a85:	0002                	c.slli64	zero
    2a87:	1600                	addi	s0,sp,800
    2a89:	09f6                	slli	s3,s3,0x1d
    2a8b:	0000                	unimp
    2a8d:	6c05                	lui	s8,0x1
    2a8f:	3606                	fld	fa2,96(sp)
    2a91:	0006                	c.slli	zero,0x1
    2a93:	1a00                	addi	s0,sp,304
    2a95:	6970                	flw	fa2,84(a0)
    2a97:	006e                	c.slli	zero,0x1b
    2a99:	6c05                	lui	s8,0x1
    2a9b:	b721                	j	29a3 <wiring.c.7604182b+0x514>
    2a9d:	14000003          	lb	zero,320(zero) # 140 <pinMode+0x50>
    2aa1:	029e                	slli	t0,t0,0x7
    2aa3:	0000                	unimp
    2aa5:	6c05                	lui	s8,0x1
    2aa7:	9f2e                	add	t5,t5,a1
    2aa9:	0000                	unimp
    2aab:	1b00                	addi	s0,sp,432
    2aad:	0b54                	addi	a3,sp,404
    2aaf:	0000                	unimp
    2ab1:	6e05                	lui	t3,0x1
    2ab3:	f311                	bnez	a4,29b7 <wiring.c.7604182b+0x528>
    2ab5:	0005                	c.nop	1
    2ab7:	1b00                	addi	s0,sp,432
    2ab9:	0bcc                	addi	a1,sp,468
    2abb:	0000                	unimp
    2abd:	6f05                	lui	t5,0x1
    2abf:	0000b50b          	0xb50b
    2ac3:	0000                	unimp
    2ac5:	8716                	mv	a4,t0
    2ac7:	0009                	c.nop	2
    2ac9:	0500                	addi	s0,sp,640
    2acb:	062a                	slli	a2,a2,0xa
    2acd:	0000068b          	0x68b
    2ad1:	701a                	flw	ft0,164(sp)
    2ad3:	6e69                	lui	t3,0x1a
    2ad5:	0500                	addi	s0,sp,640
    2ad7:	1c2a                	slli	s8,s8,0x2a
    2ad9:	000003b7          	lui	t2,0x0
    2add:	1414                	addi	a3,sp,544
    2adf:	000a                	c.slli	zero,0x2
    2ae1:	0500                	addi	s0,sp,640
    2ae3:	322a                	fld	ft4,168(sp)
    2ae5:	043c                	addi	a5,sp,520
    2ae7:	0000                	unimp
    2ae9:	000b541b          	0xb541b
    2aed:	0500                	addi	s0,sp,640
    2aef:	05f3112b          	0x5f3112b
    2af3:	0000                	unimp
    2af5:	000bcc1b          	0xbcc1b
    2af9:	0500                	addi	s0,sp,640
    2afb:	0b2c                	addi	a1,sp,408
    2afd:	00b5                	addi	ra,ra,13
    2aff:	0000                	unimp
    2b01:	000bf51b          	0xbf51b
    2b05:	0500                	addi	s0,sp,640
    2b07:	0a40                	addi	s0,sp,276
    2b09:	009f 0000 8e1b      	0x8e1b0000009f
    2b0f:	0500000b          	0x500000b
    2b13:	0a42                	slli	s4,s4,0x10
    2b15:	009f 0000 1600      	0x16000000009f
    2b1b:	0a21                	addi	s4,s4,8
    2b1d:	0000                	unimp
    2b1f:	1705                	addi	a4,a4,-31
    2b21:	a406                	fsd	ft1,8(sp)
    2b23:	0006                	c.slli	zero,0x1
    2b25:	1400                	addi	s0,sp,544
    2b27:	0b9f 0000 1705      	0x170500000b9f
    2b2d:	8c20                	0x8c20
    2b2f:	00000003          	lb	zero,0(zero) # 0 <InterruptVector>
    2b33:	e61d                	bnez	a2,2b61 <wiring.c.7604182b+0x6d2>
    2b35:	000a                	c.slli	zero,0x2
    2b37:	0500                	addi	s0,sp,640
    2b39:	1008                	addi	a0,sp,32
    2b3b:	038c                	addi	a1,sp,448
    2b3d:	0000                	unimp
    2b3f:	701a                	flw	ft0,164(sp)
    2b41:	6e69                	lui	t3,0x1a
    2b43:	0500                	addi	s0,sp,640
    2b45:	2708                	fld	fa0,8(a4)
    2b47:	000003b7          	lui	t2,0x0
	...

Disassembly of section .debug_abbrev:

00000000 <.debug_abbrev>:
	asm volatile( "\n\
   0:	1101                	addi	sp,sp,-32
   2:	2501                	jal	602 <_data_lma+0x7e>
   4:	130e                	slli	t1,t1,0x23
   6:	1b0e030b          	0x1b0e030b
   a:	550e                	lw	a0,224(sp)
   c:	10011117          	auipc	sp,0x10011
  10:	02000017          	auipc	zero,0x2000
  14:	012e                	slli	sp,sp,0xb
  16:	1031                	c.nop	-20
  18:	0111                	addi	sp,sp,4
  1a:	0612                	slli	a2,a2,0x4
  1c:	1840                	addi	s0,sp,52
  1e:	01194297          	auipc	t0,0x1194
  22:	03000013          	li	zero,48
  26:	0005                	c.nop	1
  28:	1031                	c.nop	-20
  2a:	1702                	slli	a4,a4,0x20
  2c:	0000                	unimp
  2e:	0504                	addi	s1,sp,640
  30:	3100                	fld	fs0,32(a0)
  32:	0210                	addi	a2,sp,256
  34:	0018                	0x18
  36:	0500                	addi	s0,sp,640
  38:	0034                	addi	a3,sp,8
  3a:	1031                	c.nop	-20
  3c:	1702                	slli	a4,a4,0x20
  3e:	0000                	unimp
  40:	8906                	mv	s2,ra
  42:	0182                	c.slli64	gp
  44:	1101                	addi	sp,sp,-32
  46:	3101                	jal	fffffc46 <__global_pointer$+0xdffff3b6>
  48:	07000013          	li	zero,112
  4c:	828a                	mv	t0,sp
  4e:	0001                	nop
  50:	1802                	slli	a6,a6,0x20
  52:	4291                	li	t0,4
  54:	0018                	0x18
  56:	0800                	addi	s0,sp,16
  58:	1031010b          	0x1031010b
  5c:	1755                	addi	a4,a4,-11
  5e:	1301                	addi	t1,t1,-32
  60:	0000                	unimp
  62:	8909                	andi	a0,a0,2
  64:	0182                	c.slli64	gp
  66:	1100                	addi	s0,sp,160
  68:	3101                	jal	fffffc68 <__global_pointer$+0xdffff3d8>
  6a:	0a000013          	li	zero,160
  6e:	1031010b          	0x1031010b
  72:	1755                	addi	a4,a4,-11
  74:	0000                	unimp
  76:	3100340b          	0x3100340b
  7a:	0210                	addi	a2,sp,256
  7c:	0018                	0x18
  7e:	0c00                	addi	s0,sp,528
  80:	8289                	srli	a3,a3,0x2
  82:	0101                	addi	sp,sp,0
  84:	0111                	addi	sp,sp,4
  86:	4295                	li	t0,5
  88:	3119                	jal	fffffc8e <__global_pointer$+0xdffff3fe>
  8a:	0d000013          	li	zero,208
  8e:	0005                	c.nop	1
  90:	1031                	c.nop	-20
  92:	0b1c                	addi	a5,sp,400
  94:	0000                	unimp
  96:	8a0e                	mv	s4,gp
  98:	0182                	c.slli64	gp
  9a:	3100                	fld	fs0,32(a0)
  9c:	18429113          	0x18429113
	if (pin <= pin_A2) {
  a0:	0000                	unimp
  a2:	31012e0f          	0x31012e0f
		PinOffset = (pin + 1);
  a6:	0110                	addi	a2,sp,128
  a8:	10000013          	li	zero,256
		GPIOx = GPIOA;
  ac:	0005                	c.nop	1
		PinOffset = (pin + 1);
  ae:	1031                	c.nop	-20
		GPIOx = GPIOA;
  b0:	0000                	unimp
  b2:	1d11                	addi	s10,s10,-28
		GPIOx-> BSHR |= 1 << PinOffset;
  b4:	3100                	fld	fs0,32(a0)
	if (value) {
  b6:	5210                	lw	a2,32(a2)
		GPIOx-> BSHR |= 1 << (16 + PinOffset);
  b8:	5501                	li	a0,-32
  ba:	590b5817          	auipc	a6,0x590b5
  be:	000b570b          	0xb570b
}
  c2:	1200                	addi	s0,sp,288
	else if (pin <= pin_C7) {
  c4:	011d                	addi	sp,sp,7
  c6:	1031                	c.nop	-20
  c8:	0111                	addi	sp,sp,4
		PinOffset = (pin - 2);
  ca:	0612                	slli	a2,a2,0x4
  cc:	0b58                	addi	a4,sp,404
  ce:	0b59                	addi	s6,s6,22
		GPIOx = GPIOC;
  d0:	13010b57          	0x13010b57
  d4:	0000                	unimp
	else if (pin <= pin_D7) {
  d6:	31011d13          	0x31011d13
  da:	1110                	addi	a2,sp,160
		PinOffset = (pin - 10);
  dc:	1201                	addi	tp,tp,-32
  de:	5806                	lw	a6,96(sp)
		GPIOx = GPIOD;
  e0:	570b590b          	0x570b590b
		PinOffset = (pin - 10);
  e4:	1400000b          	0x1400000b
		GPIOx = GPIOD;
  e8:	011d                	addi	sp,sp,7
  ea:	1031                	c.nop	-20
		GPIOx-> BSHR |= 1 << (16 + PinOffset);
  ec:	0152                	slli	sp,sp,0x14
  ee:	1755                	addi	a4,a4,-11
	if (pin <= pin_A2) {
  f0:	0b58                	addi	a4,sp,404
  f2:	0b59                	addi	s6,s6,22
  f4:	13010b57          	0x13010b57
		PinOffset *= (pin + 1);
  f8:	0000                	unimp
  fa:	1d15                	addi	s10,s10,-27
  fc:	3101                	jal	fffffcfc <__global_pointer$+0xdffff46c>
		GPIOx = GPIOA;
  fe:	5210                	lw	a2,32(a2)
 100:	5501                	li	a0,-32
		PinOffset *= (pin + 1);
 102:	590b5817          	auipc	a6,0x590b5
		GPIOx = GPIOA;
 106:	000b570b          	0xb570b
	GPIOx->CFGLR &= ~(0b1111<<PinOffset);							// zero the 4 configuration bits
 10a:	1600                	addi	s0,sp,800
 10c:	8289                	srli	a3,a3,0x2
 10e:	0101                	addi	sp,sp,0
 110:	0111                	addi	sp,sp,4
 112:	1331                	addi	t1,t1,-20
 114:	1301                	addi	t1,t1,-32
 116:	0000                	unimp
	switch (mode) {
 118:	31002e17          	auipc	t3,0x31002
 11c:	1110                	addi	a2,sp,160
 11e:	1201                	addi	tp,tp,-32
 120:	4006                	0x4006
 122:	9718                	0x9718
 124:	1942                	slli	s2,s2,0x30
	GPIOx->CFGLR |= modeMask<<PinOffset;
 126:	0000                	unimp
 128:	3418                	fld	fa4,40(s0)
 12a:	3100                	fld	fs0,32(a0)
 12c:	0010                	0x10
 12e:	1900                	addi	s0,sp,176
 130:	1755010b          	0x1755010b
 134:	0000                	unimp
 136:	0a1a                	slli	s4,s4,0x6
 138:	3100                	fld	fs0,32(a0)
 13a:	1110                	addi	a2,sp,160
 13c:	0001                	nop
 13e:	1b00                	addi	s0,sp,432
 140:	011d                	addi	sp,sp,7
	if (target_pin_state > pinState_nochange) {
 142:	1031                	c.nop	-20
		digitalWrite(pin, target_pin_state - 1);
 144:	0111                	addi	sp,sp,4
 146:	0612                	slli	a2,a2,0x4
 148:	0b58                	addi	a4,sp,404
 14a:	0559                	addi	a0,a0,22
 14c:	13010b57          	0x13010b57
	else if (pin <= pin_C7) {
 150:	0000                	unimp
 152:	1d1c                	addi	a5,sp,688
		PinOffset *= (pin - 2);
 154:	3101                	jal	fffffd54 <__global_pointer$+0xdffff4c4>
 156:	5210                	lw	a2,32(a2)
 158:	5501                	li	a0,-32
 15a:	590b5817          	auipc	a6,0x590b5
		GPIOx = GPIOC;
 15e:	5705                	li	a4,-31
 160:	0013010b          	0x13010b
	else if (pin <= pin_D7) {
 164:	1d00                	addi	s0,sp,688
 166:	011d                	addi	sp,sp,7
 168:	1031                	c.nop	-20
		PinOffset *= (pin - 10);
 16a:	0111                	addi	sp,sp,4
 16c:	0612                	slli	a2,a2,0x4
 16e:	0b58                	addi	a4,sp,404
 170:	0559                	addi	a0,a0,22
		GPIOx = GPIOD;
 172:	00000b57          	0xb57
		PinOffset *= (pin - 10);
 176:	2e1e                	fld	ft8,448(sp)
		GPIOx = GPIOD;
 178:	3f00                	fld	fs0,56(a4)
 17a:	3c19                	jal	fffffb90 <__global_pointer$+0xdffff300>
 17c:	6e19                	lui	t3,0x6
}
 17e:	030e                	slli	t1,t1,0x3
int main() {
 180:	3a0e                	fld	fs4,224(sp)
 182:	000b3b0b          	0xb3b0b
	RCC->CFGR0 = RCC_HPRE_DIV1 | RCC_PLLSRC_HSI_Mul2;      // PLLCLK = HSI * 2 = 48 MHz; HCLK = SYSCLK = APB1
 186:	1f00                	addi	s0,sp,944
 188:	002e                	c.slli	zero,0xb
	RCC->CTLR  = RCC_HSION | RCC_PLLON | ((HSITRIM) << 3); // Use HSI, but enable PLL.
 18a:	193c193f 0e030e6e 	0xe030e6e193c193f
 192:	0000                	unimp
 194:	0100                	addi	s0,sp,128
 196:	0111                	addi	sp,sp,4
	FLASH->ACTLR = FLASH_ACTLR_LATENCY_1;                  // 1 Cycle Latency
 198:	0e25                	addi	t3,t3,9
 19a:	0e030b13          	addi	s6,t1,224 # 40e0 <wiring.c.7604182b+0x1c51>
 19e:	17100e1b          	0x17100e1b
	RCC->INTR  = 0x009F0000;                               // Clear PLL, CSSC, HSE, HSI and LSI ready flags.
 1a2:	0000                	unimp
 1a4:	2402                	fld	fs0,0(sp)
	while((RCC->CTLR & RCC_PLLRDY) == 0);                                      // Wait till PLL is ready
 1a6:	0b00                	addi	s0,sp,400
 1a8:	030b3e0b          	0x30b3e0b
 1ac:	000e                	c.slli	zero,0x3
 1ae:	0300                	addi	s0,sp,384
 1b0:	0016                	c.slli	zero,0x5
 1b2:	0b3a0e03          	lb	t3,179(s4)
	while ((RCC->CFGR0 & (uint32_t)RCC_SWS) != (uint32_t)0x08);                // Wait till PLL is used as system clock source
 1b6:	0b390b3b          	0xb390b3b
	RCC->CFGR0 = ( RCC->CFGR0 & ((uint32_t)~(RCC_SW))) | (uint32_t)RCC_SW_PLL; // Select PLL as system clock source
 1ba:	1349                	addi	t1,t1,-14
 1bc:	0000                	unimp
 1be:	2604                	fld	fs1,8(a2)
	while ((RCC->CFGR0 & (uint32_t)RCC_SWS) != (uint32_t)0x08);                // Wait till PLL is used as system clock source
 1c0:	4900                	lw	s0,16(a0)
 1c2:	05000013          	li	zero,80
 1c6:	0024                	addi	s1,sp,8
 1c8:	0b3e0b0b          	0xb3e0b0b
	SysTick->CTLR = 0;
 1cc:	00000803          	lb	a6,0(zero) # 0 <InterruptVector>
 1d0:	0f06                	slli	t5,t5,0x1
 1d2:	0b00                	addi	s0,sp,400
 1d4:	000e030b          	0xe030b
 1d8:	0700                	addi	s0,sp,896
 1da:	0b0b000f          	0xb0b000f
	SysTick->CMP = (SYSTEM_CORE_CLOCK/SYSTICKHZ)-1;
 1de:	0000                	unimp
 1e0:	0f08                	addi	a0,sp,912
 1e2:	0b00                	addi	s0,sp,400
	SysTick->CNT = 0;
 1e4:	0013490b          	0x13490b
	systick_cnt = 0;
 1e8:	0900                	addi	s0,sp,144
 1ea:	0101                	addi	sp,sp,0
	SysTick->CTLR = SYSTICK_CTLR_STE | SYSTICK_CTLR_STIE |
 1ec:	1349                	addi	t1,t1,-14
 1ee:	1301                	addi	t1,t1,-32
			RCC->APB2PCENR |= RCC_APB2Periph_GPIOA;
 1f0:	0000                	unimp
	pinMode(pin_A1, pinMode_I_floating);
 1f2:	210a                	fld	ft2,128(sp)
 1f4:	4900                	lw	s0,16(a0)
 1f6:	000b2f13          	slti	t5,s6,0
 1fa:	0b00                	addi	s0,sp,400
			RCC->APB2PCENR |= RCC_APB2Periph_GPIOC;
 1fc:	0035                	c.nop	13
 1fe:	1349                	addi	t1,t1,-14
 200:	0000                	unimp
 202:	130c                	addi	a1,sp,416
 204:	0b01                	addi	s6,s6,0
	pinMode(pin_A2, pinMode_I_floating);
 206:	3b0b3a0b          	0x3b0b3a0b
 20a:	010b390b          	0x10b390b
	pinMode(pin_C1, pinMode_I_floating);
 20e:	0d000013          	li	zero,208
	pinMode(pin_C2, pinMode_I_floating);
 212:	000d                	c.nop	3
 214:	0b3a0e03          	lb	t3,179(s4)
		int temp=LEDs[0].brightness;
 218:	0b390b3b          	0xb390b3b
 21c:	1349                	addi	t1,t1,-14
 21e:	0b38                	addi	a4,sp,408
 220:	0000                	unimp
		for(int i=1; i<12; i++){
 222:	0d0e                	slli	s10,s10,0x3
	uint32_t end = systick_cnt + n; 
 224:	0300                	addi	s0,sp,384
 226:	3a08                	fld	fa0,48(a2)
 228:	390b3b0b          	0x390b3b0b
	while( ((int32_t)(systick_cnt - end )) < 0 );
 22c:	3813490b          	0x3813490b
 230:	0f00000b          	0xf00000b
 234:	0b0b0113          	addi	sp,s6,176
		int temp=LEDs[0].brightness;
 238:	0b3a                	slli	s6,s6,0xe
		for(int i=1; i<12; i++){
 23a:	0b39053b          	0xb39053b
		int temp=LEDs[0].brightness;
 23e:	1301                	addi	t1,t1,-32
			LEDs[i-1].brightness=LEDs[i].brightness;
 240:	0000                	unimp
 242:	0d10                	addi	a2,sp,656
 244:	0300                	addi	s0,sp,384
 246:	3a0e                	fld	fs4,224(sp)
 248:	39053b0b          	0x39053b0b
 24c:	3813490b          	0x3813490b
 250:	1100000b          	0x1100000b
 254:	000d                	c.nop	3
 256:	0b3a0803          	lb	a6,179(s4)
 25a:	0b39053b          	0xb39053b
 25e:	1349                	addi	t1,t1,-14
		for(int i=1; i<12; i++){
 260:	0b38                	addi	a4,sp,408
 262:	0000                	unimp
 264:	1612                	slli	a2,a2,0x24
		LEDs[11].brightness=temp;
 266:	0300                	addi	s0,sp,384
 268:	3a0e                	fld	fs4,224(sp)
	while(1){
 26a:	39053b0b          	0x39053b0b
	asm volatile( "\n\
 26e:	0013490b          	0x13490b
 272:	1300                	addi	s0,sp,416
 274:	0034                	addi	a3,sp,8
 276:	0b3a0e03          	lb	t3,179(s4)
 27a:	0b39053b          	0xb39053b
 27e:	1349                	addi	t1,t1,-14
 280:	0000                	unimp
 282:	0414                	addi	a3,sp,512
 284:	3e01                	jal	fffffd94 <__global_pointer$+0xdffff504>
 286:	490b0b0b          	0x490b0b0b
 28a:	3b0b3a13          	sltiu	s4,s6,944
 28e:	3905                	jal	fffffebe <__global_pointer$+0xdffff62e>
 290:	0013010b          	0x13010b
asm volatile(
 294:	1500                	addi	s0,sp,672
 296:	0028                	addi	a0,sp,8
 298:	0b1c0e03          	lb	t3,177(s8) # 10b1 <ch32v003fun.c.297fed70+0x1cf>
 29c:	0000                	unimp
 29e:	3416                	fld	fs0,352(sp)
 2a0:	0300                	addi	s0,sp,384
 2a2:	3a0e                	fld	fs4,224(sp)
 2a4:	390b3b0b          	0x390b3b0b
 2a8:	3f13490b          	0x3f13490b
 2ac:	0019                	c.nop	6
 2ae:	1700                	addi	s0,sp,928
 2b0:	0e030113          	addi	sp,t1,224
 2b4:	0b3a0b0b          	0xb3a0b0b
 2b8:	0b39053b          	0xb39053b
 2bc:	1301                	addi	t1,t1,-32
 2be:	0000                	unimp
 2c0:	2e18                	fld	fa4,24(a2)
 2c2:	3f01                	jal	1d2 <main+0x52>
 2c4:	0319                	addi	t1,t1,6
 2c6:	3a0e                	fld	fs4,224(sp)
 2c8:	39053b0b          	0x39053b0b
	SETUP_SYSTICK_HCLK
 2cc:	0119270b          	0x119270b
 2d0:	19000013          	li	zero,400
asm volatile(
 2d4:	0005                	c.nop	1
 2d6:	0b3a0803          	lb	a6,179(s4)
 2da:	0b39053b          	0xb39053b
	asm volatile( "1: j 1b" );
 2de:	1349                	addi	t1,t1,-14
{
 2e0:	0000                	unimp
 2e2:	2e1a                	fld	ft8,384(sp)
 2e4:	3f01                	jal	1f4 <main+0x74>
 2e6:	0319                	addi	t1,t1,6
	SysTick->CMP += (SYSTEM_CORE_CLOCK/SYSTICKHZ);
 2e8:	3a0e                	fld	fs4,224(sp)
 2ea:	39053b0b          	0x39053b0b
{
 2ee:	4919270b          	0x4919270b
	SysTick->CMP += (SYSTEM_CORE_CLOCK/SYSTICKHZ);
 2f2:	00130113          	addi	sp,t1,1
{
 2f6:	1b00                	addi	s0,sp,432
 2f8:	0005                	c.nop	1
 2fa:	0b3a0e03          	lb	t3,179(s4)
 2fe:	0b39053b          	0xb39053b
 302:	1349                	addi	t1,t1,-14
 304:	0000                	unimp
 306:	0b1c                	addi	a5,sp,400
 308:	0001                	nop
 30a:	1d00                	addi	s0,sp,688
 30c:	0034                	addi	a3,sp,8
 30e:	0b3a0803          	lb	a6,179(s4)
 312:	0b39053b          	0xb39053b
 316:	1349                	addi	t1,t1,-14
 318:	0000                	unimp
 31a:	2e1e                	fld	ft8,448(sp)
	SysTick->CMP += (SYSTEM_CORE_CLOCK/SYSTICKHZ);
 31c:	3f00                	fld	fs0,56(a4)
 31e:	0319                	addi	t1,t1,6
 320:	3a0e                	fld	fs4,224(sp)
 322:	39053b0b          	0x39053b0b
	SysTick->SR = 0;
 326:	0019270b          	0x19270b
	systick_cnt++;
 32a:	1f00                	addi	s0,sp,944
 32c:	002e                	c.slli	zero,0xb
 32e:	0e03193f 053b0b3a 	0x53b0b3a0e03193f
 336:	0b39                	addi	s6,s6,14
	ramp=systick_cnt & 0x3F;		// 0 to 63
 338:	0000                	unimp
 33a:	1820                	addi	s0,sp,56
 33c:	0000                	unimp
 33e:	2100                	fld	fs0,0(a0)
 340:	0115                	addi	sp,sp,5
 342:	13491927          	0x13491927
	if (ramp == 0) {
 346:	1301                	addi	t1,t1,-32
 348:	0000                	unimp
 34a:	0522                	slli	a0,a0,0x8
 34c:	4900                	lw	s0,16(a0)
 34e:	23000013          	li	zero,560
		pinMode(LEDs[group[currentgroup][0]].pinCathode, pinMode_I_floating); // switch off this group
 352:	000a                	c.slli	zero,0x2
 354:	0b3a0803          	lb	a6,179(s4)
 358:	0b39053b          	0xb39053b
 35c:	0000                	unimp
 35e:	2e24                	fld	fs1,88(a2)
 360:	0301                	addi	t1,t1,0
 362:	3a0e                	fld	fs4,224(sp)
 364:	39053b0b          	0x39053b0b
 368:	4919270b          	0x4919270b
 36c:	00130113          	addi	sp,t1,1
 370:	2500                	fld	fs0,8(a0)
 372:	1301010b          	0x1301010b
 376:	0000                	unimp
 378:	2626                	fld	fa2,72(sp)
 37a:	0000                	unimp
 37c:	2700                	fld	fs0,8(a4)
 37e:	012e                	slli	sp,sp,0xb
 380:	0b3a0e03          	lb	t3,179(s4)
 384:	0b390b3b          	0xb390b3b
		currentgroup = (currentgroup + 1) & 0x3;	// move to next group
 388:	13491927          	0x13491927
 38c:	1301                	addi	t1,t1,-32
 38e:	0000                	unimp
 390:	0528                	addi	a0,sp,648
		pinMode(LEDs[group[currentgroup][0]].pinCathode, pinMode_O_pushPull); // switch on the group
 392:	0300                	addi	s0,sp,384
 394:	3a08                	fld	fa0,48(a2)
		currentgroup = (currentgroup + 1) & 0x3;	// move to next group
 396:	390b3b0b          	0x390b3b0b
		pinMode(LEDs[group[currentgroup][0]].pinCathode, pinMode_O_pushPull); // switch on the group
 39a:	0013490b          	0x13490b
 39e:	2900                	fld	fs0,16(a0)
 3a0:	0034                	addi	a3,sp,8
 3a2:	0b3a0803          	lb	a6,179(s4)
 3a6:	0b390b3b          	0xb390b3b
 3aa:	1349                	addi	t1,t1,-14
 3ac:	0000                	unimp
 3ae:	342a                	fld	fs0,168(sp)
 3b0:	0300                	addi	s0,sp,384
 3b2:	3a0e                	fld	fs4,224(sp)
 3b4:	390b3b0b          	0x390b3b0b
 3b8:	0013490b          	0x13490b
 3bc:	2b00                	fld	fs0,16(a4)
 3be:	012e                	slli	sp,sp,0xb
 3c0:	0e03193f 0b3b0b3a 	0xb3b0b3a0e03193f
		digitalWrite(LEDs[group[currentgroup][0]].pinCathode, low);
 3c8:	0b39                	addi	s6,s6,14
 3ca:	13491927          	0x13491927
 3ce:	1301                	addi	t1,t1,-32
 3d0:	0000                	unimp
 3d2:	052c                	addi	a1,sp,648
 3d4:	0300                	addi	s0,sp,384
 3d6:	3a0e                	fld	fs4,224(sp)
 3d8:	390b3b0b          	0x390b3b0b
		pinMode(LEDs[group[currentgroup][0]].pinAnode, pinMode_O_pushPull); // switch on this LED
 3dc:	0013490b          	0x13490b
 3e0:	0000                	unimp
 3e2:	1101                	addi	sp,sp,-32
 3e4:	2501                	jal	9e4 <_data_lma+0x460>
 3e6:	130e                	slli	t1,t1,0x23
 3e8:	1b0e030b          	0x1b0e030b
		digitalWrite(LEDs[group[currentgroup][0]].pinAnode, high);
 3ec:	100e                	c.slli	zero,0x23
 3ee:	02000017          	auipc	zero,0x2000
 3f2:	0104                	addi	s1,sp,128
 3f4:	0b3e0e03          	lb	t3,179(t3) # 60b3 <wiring.c.7604182b+0x3c24>
 3f8:	13490b0b          	0x13490b0b
 3fc:	0b3a                	slli	s6,s6,0xe
		pinMode(LEDs[group[currentgroup][1]].pinAnode, pinMode_O_pushPull); // switch on this LED
 3fe:	0b390b3b          	0xb390b3b
 402:	1301                	addi	t1,t1,-32
 404:	0000                	unimp
 406:	03002803          	lw	a6,48(zero) # 30 <InterruptVector+0x30>
 40a:	1c0e                	slli	s8,s8,0x23
 40c:	0400000b          	0x400000b
 410:	0024                	addi	s1,sp,8
 412:	0b3e0b0b          	0xb3e0b0b
 416:	00000e03          	lb	t3,0(zero) # 0 <InterruptVector>
 41a:	1605                	addi	a2,a2,-31
 41c:	0300                	addi	s0,sp,384
 41e:	3a0e                	fld	fs4,224(sp)
 420:	390b3b0b          	0x390b3b0b
		digitalWrite(LEDs[group[currentgroup][1]].pinAnode, high);
 424:	0013490b          	0x13490b
 428:	0600                	addi	s0,sp,768
 42a:	0024                	addi	s1,sp,8
 42c:	0b3e0b0b          	0xb3e0b0b
 430:	00000803          	lb	a6,0(zero) # 0 <InterruptVector>
 434:	49002607          	flw	fa2,1168(zero) # 490 <SysTick_Handler+0x1b0>
		pinMode(LEDs[group[currentgroup][2]].pinAnode, pinMode_O_pushPull); // switch on this LED
 438:	08000013          	li	zero,128
 43c:	0035                	c.nop	13
 43e:	1349                	addi	t1,t1,-14
 440:	0000                	unimp
 442:	0109                	addi	sp,sp,2
 444:	4901                	li	s2,0
 446:	00130113          	addi	sp,t1,1
 44a:	0a00                	addi	s0,sp,272
 44c:	0021                	c.nop	8
 44e:	1349                	addi	t1,t1,-14
 450:	00000b2f          	0xb2f
 454:	0300340b          	0x300340b
 458:	3a0e                	fld	fs4,224(sp)
 45a:	39053b0b          	0x39053b0b
		digitalWrite(LEDs[group[currentgroup][2]].pinAnode, high);
 45e:	0013490b          	0x13490b
 462:	0c00                	addi	s0,sp,528
 464:	050b0113          	addi	sp,s6,80
 468:	0b3a                	slli	s6,s6,0xe
 46a:	0b39053b          	0xb39053b
 46e:	1301                	addi	t1,t1,-32
 470:	0000                	unimp
	if (LEDs[group[currentgroup][0]].brightness == ramp) { // if the target pulse width has been achieved
 472:	0d0d                	addi	s10,s10,3
 474:	0300                	addi	s0,sp,384
 476:	3a08                	fld	fa0,48(a2)
 478:	39053b0b          	0x39053b0b
 47c:	3813490b          	0x3813490b
 480:	0e00000b          	0xe00000b
 484:	000d                	c.nop	3
 486:	0b3a0e03          	lb	t3,179(s4)
 48a:	0b39053b          	0xb39053b
 48e:	1349                	addi	t1,t1,-14
 490:	0b38                	addi	a4,sp,408
 492:	0000                	unimp
 494:	03000d0f          	0x3000d0f
 498:	3a0e                	fld	fs4,224(sp)
 49a:	39053b0b          	0x39053b0b
		pinMode(LEDs[group[currentgroup][0]].pinAnode, pinMode_I_floating); // switch off this LED
 49e:	3813490b          	0x3813490b
 4a2:	0005                	c.nop	1
 4a4:	1000                	addi	s0,sp,32
 4a6:	0021                	c.nop	8
 4a8:	1349                	addi	t1,t1,-14
 4aa:	0000052f          	0x52f
 4ae:	1611                	addi	a2,a2,-28
 4b0:	0300                	addi	s0,sp,384
 4b2:	3a0e                	fld	fs4,224(sp)
 4b4:	39053b0b          	0x39053b0b
 4b8:	0013490b          	0x13490b
 4bc:	1200                	addi	s0,sp,288
 4be:	0b0b0113          	addi	sp,s6,176
 4c2:	0b3a                	slli	s6,s6,0xe
	if (LEDs[group[currentgroup][1]].brightness == ramp) {
 4c4:	0b39053b          	0xb39053b
 4c8:	1301                	addi	t1,t1,-32
 4ca:	0000                	unimp
 4cc:	03002813          	slti	a6,zero,48
 4d0:	1c08                	addi	a0,sp,560
 4d2:	1400000b          	0x1400000b
 4d6:	0034                	addi	a3,sp,8
 4d8:	0b3a0e03          	lb	t3,179(s4)
 4dc:	0b390b3b          	0xb390b3b
 4e0:	1349                	addi	t1,t1,-14
 4e2:	0000193f 0b011315 	0xb0113150000193f
		pinMode(LEDs[group[currentgroup][1]].pinAnode, pinMode_I_floating); // switch off this LED
 4ea:	3b0b3a0b          	0x3b0b3a0b
 4ee:	010b390b          	0x10b390b
 4f2:	16000013          	li	zero,352
 4f6:	000d                	c.nop	3
 4f8:	0b3a0e03          	lb	t3,179(s4)
 4fc:	0b390b3b          	0xb390b3b
 500:	1349                	addi	t1,t1,-14
 502:	0b38                	addi	a4,sp,408
 504:	0000                	unimp
 506:	03003417          	auipc	s0,0x3003
 50a:	3a0e                	fld	fs4,224(sp)
 50c:	390b3b0b          	0x390b3b0b
	if (LEDs[group[currentgroup][2]].brightness == ramp) {
 510:	0013490b          	0x13490b
 514:	1800                	addi	s0,sp,48
 516:	012e                	slli	sp,sp,0xb
 518:	0e03193f 0b3b0b3a 	0xb3b0b3a0e03193f
 520:	0b39                	addi	s6,s6,14
 522:	1349                	addi	t1,t1,-14
 524:	1301                	addi	t1,t1,-32
 526:	0000                	unimp
 528:	0b19                	addi	s6,s6,6
 52a:	0001                	nop
 52c:	1a00                	addi	s0,sp,304
 52e:	0034                	addi	a3,sp,8
 530:	0b3a0803          	lb	a6,179(s4)
		pinMode(LEDs[group[currentgroup][2]].pinAnode, pinMode_I_floating); // switch off this LED
 534:	0b390b3b          	0xb390b3b
 538:	1349                	addi	t1,t1,-14
 53a:	0000                	unimp
 53c:	3f012e1b          	0x3f012e1b
}
 540:	0319                	addi	t1,t1,6
 542:	3a0e                	fld	fs4,224(sp)
 544:	390b3b0b          	0x390b3b0b
 548:	0119270b          	0x119270b
 54c:	1c000013          	li	zero,448
 550:	0005                	c.nop	1
 552:	0b3a0803          	lb	a6,179(s4)
 556:	0b390b3b          	0xb390b3b
 55a:	1349                	addi	t1,t1,-14
 55c:	0000                	unimp
 55e:	2e1d                	jal	894 <_data_lma+0x310>
 560:	3f00                	fld	fs0,56(a4)
 562:	0319                	addi	t1,t1,6
 564:	3a0e                	fld	fs4,224(sp)
 566:	390b3b0b          	0x390b3b0b
 56a:	0019270b          	0x19270b
 56e:	1e00                	addi	s0,sp,816
 570:	012e                	slli	sp,sp,0xb
 572:	0b3a0e03          	lb	t3,179(s4)
 576:	0b39053b          	0xb39053b
 57a:	00001927          	0x1927
 57e:	051f 0300 3a0e      	0x3a0e0300051f
 584:	39053b0b          	0x39053b0b
 588:	0013490b          	0x13490b
 58c:	0000                	unimp
 58e:	1101                	addi	sp,sp,-32
 590:	2501                	jal	b90 <_data_lma+0x60c>
 592:	130e                	slli	t1,t1,0x23
 594:	1b0e030b          	0x1b0e030b
 598:	100e                	c.slli	zero,0x23
 59a:	02000017          	auipc	zero,0x2000
 59e:	0024                	addi	s1,sp,8
 5a0:	0b3e0b0b          	0xb3e0b0b
 5a4:	00000e03          	lb	t3,0(zero) # 0 <InterruptVector>
 5a8:	03001603          	lh	a2,48(zero) # 30 <InterruptVector+0x30>
 5ac:	3a0e                	fld	fs4,224(sp)
 5ae:	390b3b0b          	0x390b3b0b
 5b2:	0013490b          	0x13490b
 5b6:	0400                	addi	s0,sp,512
 5b8:	0024                	addi	s1,sp,8
 5ba:	0b3e0b0b          	0xb3e0b0b
 5be:	00000803          	lb	a6,0(zero) # 0 <InterruptVector>
 5c2:	2605                	jal	8e2 <_data_lma+0x35e>
 5c4:	4900                	lw	s0,16(a0)
 5c6:	06000013          	li	zero,96
 5ca:	0035                	c.nop	13
 5cc:	1349                	addi	t1,t1,-14
 5ce:	0000                	unimp
 5d0:	0b011307          	0xb011307
 5d4:	3b0b3a0b          	0x3b0b3a0b
 5d8:	010b390b          	0x10b390b
 5dc:	08000013          	li	zero,128
 5e0:	000d                	c.nop	3
 5e2:	0b3a0e03          	lb	t3,179(s4)
 5e6:	0b390b3b          	0xb390b3b
 5ea:	1349                	addi	t1,t1,-14
 5ec:	0b38                	addi	a4,sp,408
 5ee:	0000                	unimp
 5f0:	1309                	addi	t1,t1,-30
 5f2:	0b01                	addi	s6,s6,0
 5f4:	3b0b3a0b          	0x3b0b3a0b
 5f8:	3905                	jal	228 <main+0xa8>
 5fa:	0013010b          	0x13010b
 5fe:	0a00                	addi	s0,sp,272
 600:	000d                	c.nop	3
 602:	0b3a0e03          	lb	t3,179(s4)
 606:	0b39053b          	0xb39053b
 60a:	1349                	addi	t1,t1,-14
 60c:	0b38                	addi	a4,sp,408
 60e:	0000                	unimp
 610:	03000d0b          	0x3000d0b
 614:	3a08                	fld	fa0,48(a2)
 616:	39053b0b          	0x39053b0b
 61a:	3813490b          	0x3813490b
 61e:	0c00000b          	0xc00000b
 622:	0016                	c.slli	zero,0x5
 624:	0b3a0e03          	lb	t3,179(s4)
 628:	0b39053b          	0xb39053b
 62c:	1349                	addi	t1,t1,-14
 62e:	0000                	unimp
 630:	010d                	addi	sp,sp,3
 632:	4901                	li	s2,0
 634:	00130113          	addi	sp,t1,1
 638:	0e00                	addi	s0,sp,784
 63a:	0021                	c.nop	8
 63c:	1349                	addi	t1,t1,-14
 63e:	00000b2f          	0xb2f
 642:	0300340f          	0x300340f
 646:	3a0e                	fld	fs4,224(sp)
 648:	39053b0b          	0x39053b0b
 64c:	0013490b          	0x13490b
 650:	1000                	addi	s0,sp,32
 652:	0104                	addi	s1,sp,128
 654:	0b3e                	slli	s6,s6,0xf
 656:	13490b0b          	0x13490b0b
 65a:	0b3a                	slli	s6,s6,0xe
 65c:	0b39053b          	0xb39053b
 660:	1301                	addi	t1,t1,-32
 662:	0000                	unimp
 664:	2811                	jal	678 <_data_lma+0xf4>
 666:	0300                	addi	s0,sp,384
 668:	1c0e                	slli	s8,s8,0x23
 66a:	1200000b          	0x1200000b
 66e:	0104                	addi	s1,sp,128
 670:	0b3e0e03          	lb	t3,179(t3)
 674:	13490b0b          	0x13490b0b
 678:	0b3a                	slli	s6,s6,0xe
 67a:	0b390b3b          	0xb390b3b
 67e:	1301                	addi	t1,t1,-32
 680:	0000                	unimp
 682:	3f012e13          	slti	t3,sp,1008
 686:	0319                	addi	t1,t1,6
 688:	3a0e                	fld	fs4,224(sp)
 68a:	390b3b0b          	0x390b3b0b
 68e:	4919270b          	0x4919270b
 692:	00130113          	addi	sp,t1,1
 696:	1400                	addi	s0,sp,544
 698:	0005                	c.nop	1
 69a:	0b3a0e03          	lb	t3,179(s4)
 69e:	0b390b3b          	0xb390b3b
 6a2:	1349                	addi	t1,t1,-14
 6a4:	0000                	unimp
 6a6:	2e15                	jal	9da <_data_lma+0x456>
 6a8:	3f00                	fld	fs0,56(a4)
 6aa:	0319                	addi	t1,t1,6
 6ac:	3a0e                	fld	fs4,224(sp)
 6ae:	390b3b0b          	0x390b3b0b
 6b2:	1600000b          	0x1600000b
 6b6:	012e                	slli	sp,sp,0xb
 6b8:	0e03193f 0b3b0b3a 	0xb3b0b3a0e03193f
 6c0:	0b39                	addi	s6,s6,14
 6c2:	13011927          	0x13011927
 6c6:	0000                	unimp
 6c8:	3f012e17          	auipc	t3,0x3f012
 6cc:	0319                	addi	t1,t1,6
 6ce:	3a0e                	fld	fs4,224(sp)
 6d0:	390b3b0b          	0x390b3b0b
 6d4:	0013010b          	0x13010b
 6d8:	1800                	addi	s0,sp,48
 6da:	0000010b          	0x10b
 6de:	3419                	jal	e4 <digitalWrite+0x44>
 6e0:	0300                	addi	s0,sp,384
 6e2:	3a08                	fld	fa0,48(a2)
 6e4:	390b3b0b          	0x390b3b0b
 6e8:	0013490b          	0x13490b
 6ec:	1a00                	addi	s0,sp,304
 6ee:	0005                	c.nop	1
 6f0:	0b3a0803          	lb	a6,179(s4)
 6f4:	0b390b3b          	0xb390b3b
 6f8:	1349                	addi	t1,t1,-14
 6fa:	0000                	unimp
 6fc:	0300341b          	0x300341b
 700:	3a0e                	fld	fs4,224(sp)
 702:	390b3b0b          	0x390b3b0b
 706:	0013490b          	0x13490b
 70a:	1c00                	addi	s0,sp,560
 70c:	0b0b000f          	0xb0b000f
 710:	1349                	addi	t1,t1,-14
 712:	0000                	unimp
 714:	2e1d                	jal	a4a <_data_lma+0x4c6>
 716:	3f01                	jal	626 <_data_lma+0xa2>
 718:	0319                	addi	t1,t1,6
 71a:	3a0e                	fld	fs4,224(sp)
 71c:	390b3b0b          	0x390b3b0b
 720:	4919270b          	0x4919270b
 724:	00000013          	nop

Disassembly of section .debug_loc:

00000000 <.debug_loc>:
	...
	asm volatile( "\n\
       8:	0001                	nop
       a:	005a                	c.slli	zero,0x16
       c:	0000                	unimp
       e:	0000                	unimp
      10:	0000                	unimp
      12:	0100                	addi	s0,sp,128
      14:	5600                	lw	s0,40(a2)
	...
      26:	0001                	nop
      28:	0000005b          	0x5b
      2c:	0000                	unimp
      2e:	0000                	unimp
      30:	0100                	addi	s0,sp,128
      32:	5a00                	lw	s0,48(a2)
	...
      3c:	0004                	0x4
      3e:	9f5b01f3          	0x9f5b01f3
	...
      4a:	0001                	nop
      4c:	005a                	c.slli	zero,0x16
	...
      5a:	0000                	unimp
      5c:	0100                	addi	s0,sp,128
      5e:	5c00                	lw	s0,56(s0)
	...
      68:	0001                	nop
      6a:	005c                	addi	a5,sp,4
	...
      78:	0000                	unimp
      7a:	0100                	addi	s0,sp,128
      7c:	5500                	lw	s0,40(a0)
	...
      86:	0001                	nop
      88:	0055                	c.nop	21
	...
      96:	0000                	unimp
      98:	0200                	addi	s0,sp,256
      9a:	3000                	fld	fs0,32(s0)
      9c:	009f 0000 0000      	0x9f
	if (pin <= pin_A2) {
      a2:	0000                	unimp
      a4:	0100                	addi	s0,sp,128
		PinOffset = (pin + 1);
      a6:	5e00                	lw	s0,56(a2)
	...
		GPIOx = GPIOA;
      b0:	0001                	nop
      b2:	005e                	c.slli	zero,0x17
		GPIOx-> BSHR |= 1 << PinOffset;
      b4:	0000                	unimp
	if (value) {
      b6:	0000                	unimp
		GPIOx-> BSHR |= 1 << (16 + PinOffset);
      b8:	0000                	unimp
      ba:	0300                	addi	s0,sp,384
      bc:	7e00                	flw	fs0,56(a2)
      be:	9f7f                	0x9f7f
	...
	else if (pin <= pin_C7) {
      c8:	0001                	nop
		PinOffset = (pin - 2);
      ca:	005e                	c.slli	zero,0x17
	...
	else if (pin <= pin_D7) {
      d8:	0000                	unimp
      da:	0100                	addi	s0,sp,128
		PinOffset = (pin - 10);
      dc:	5a00                	lw	s0,48(a2)
	...
		GPIOx = GPIOD;
      e6:	0001                	nop
      e8:	005f 0000 0000      	0x5f
		GPIOx-> BSHR |= 1 << (16 + PinOffset);
      ee:	0000                	unimp
	if (pin <= pin_A2) {
      f0:	0200                	addi	s0,sp,256
      f2:	9100                	0x9100
      f4:	0070                	addi	a2,sp,12
		PinOffset *= (pin + 1);
      f6:	0000                	unimp
      f8:	0000                	unimp
      fa:	0000                	unimp
      fc:	0600                	addi	s0,sp,768
		GPIOx = GPIOA;
      fe:	7f00                	flw	fs0,56(a4)
     100:	7c00                	flw	fs0,56(s0)
		PinOffset *= (pin + 1);
     102:	2200                	fld	fs0,0(a2)
		GPIOx = GPIOA;
     104:	009f 0000 0000      	0x9f
	GPIOx->CFGLR &= ~(0b1111<<PinOffset);							// zero the 4 configuration bits
     10a:	0000                	unimp
     10c:	0100                	addi	s0,sp,128
     10e:	5a00                	lw	s0,48(a2)
	...
	switch (mode) {
     118:	0008                	0x8
     11a:	007f                	0x7f
     11c:	007c                	addi	a5,sp,12
     11e:	2322                	fld	ft6,8(sp)
     120:	9f01                	0x9f01
	...
	GPIOx->CFGLR |= modeMask<<PinOffset;
     12a:	0006                	c.slli	zero,0x1
     12c:	007f                	0x7f
     12e:	007c                	addi	a5,sp,12
     130:	9f22                	add	t5,t5,s0
	...
	if (target_pin_state > pinState_nochange) {
     142:	0001                	nop
		digitalWrite(pin, target_pin_state - 1);
     144:	0000005b          	0x5b
     148:	0000                	unimp
     14a:	0000                	unimp
     14c:	0100                	addi	s0,sp,128
	else if (pin <= pin_C7) {
     14e:	5900                	lw	s0,48(a0)
	...
		PinOffset *= (pin - 2);
     158:	0004                	0x4
     15a:	9f5b01f3          	0x9f5b01f3
	...
	else if (pin <= pin_D7) {
     166:	0001                	nop
     168:	0059                	c.nop	22
		PinOffset *= (pin - 10);
     16a:	0000                	unimp
     16c:	0000                	unimp
     16e:	0000                	unimp
     170:	0100                	addi	s0,sp,128
		GPIOx = GPIOD;
     172:	5a00                	lw	s0,48(a2)
	...
     17c:	0001                	nop
}
     17e:	0059                	c.nop	22
	...
	RCC->CTLR  = RCC_HSION | RCC_PLLON | ((HSITRIM) << 3); // Use HSI, but enable PLL.
     18c:	0000                	unimp
	RCC->CFGR0 = RCC_HPRE_DIV1 | RCC_PLLSRC_HSI_Mul2;      // PLLCLK = HSI * 2 = 48 MHz; HCLK = SYSCLK = APB1
     18e:	0100                	addi	s0,sp,128
     190:	5c00                	lw	s0,56(s0)
	...
	FLASH->ACTLR = FLASH_ACTLR_LATENCY_1;                  // 1 Cycle Latency
     19a:	0004                	0x4
     19c:	9f5c01f3          	0x9f5c01f3
	...
	while((RCC->CTLR & RCC_PLLRDY) == 0);                                      // Wait till PLL is ready
     1a8:	0001                	nop
     1aa:	005c                	addi	a5,sp,4
     1ac:	0000                	unimp
     1ae:	0000                	unimp
     1b0:	0000                	unimp
     1b2:	0400                	addi	s0,sp,512
	RCC->CFGR0 = ( RCC->CFGR0 & ((uint32_t)~(RCC_SW))) | (uint32_t)RCC_SW_PLL; // Select PLL as system clock source
     1b4:	f300                	fsw	fs0,32(a4)
	while ((RCC->CFGR0 & (uint32_t)RCC_SWS) != (uint32_t)0x08);                // Wait till PLL is used as system clock source
     1b6:	5c01                	li	s8,-32
	RCC->CFGR0 = ( RCC->CFGR0 & ((uint32_t)~(RCC_SW))) | (uint32_t)RCC_SW_PLL; // Select PLL as system clock source
     1b8:	009f 0000 0000      	0x9f
	...
	while ((RCC->CFGR0 & (uint32_t)RCC_SWS) != (uint32_t)0x08);                // Wait till PLL is used as system clock source
     1c6:	0000                	unimp
     1c8:	0100                	addi	s0,sp,128
     1ca:	5d00                	lw	s0,56(a0)
	...
     1d4:	0001                	nop
     1d6:	005d                	c.nop	23
     1d8:	0000                	unimp
     1da:	0000                	unimp
     1dc:	0000                	unimp
	SysTick->CMP = (SYSTEM_CORE_CLOCK/SYSTICKHZ)-1;
     1de:	0400                	addi	s0,sp,512
     1e0:	f300                	fsw	fs0,32(a4)
     1e2:	5d01                	li	s10,-32
	SysTick->CNT = 0;
     1e4:	009f 0000 0000      	0x9f
	...
	pinMode(pin_A1, pinMode_I_floating);
     1f2:	0000                	unimp
     1f4:	0100                	addi	s0,sp,128
			RCC->APB2PCENR |= RCC_APB2Periph_GPIOA;
     1f6:	5e00                	lw	s0,56(a2)
	...
			RCC->APB2PCENR |= RCC_APB2Periph_GPIOC;
     200:	0004                	0x4
     202:	9f5e01f3          	0x9f5e01f3
	...
	pinMode(pin_C1, pinMode_I_floating);
     20e:	0001                	nop
     210:	005e                	c.slli	zero,0x17
	pinMode(pin_C2, pinMode_I_floating);
     212:	0000                	unimp
     214:	0000                	unimp
     216:	0000                	unimp
		int temp=LEDs[0].brightness;
     218:	0400                	addi	s0,sp,512
     21a:	f300                	fsw	fs0,32(a4)
     21c:	5e01                	li	t3,-32
     21e:	009f 0000 0000      	0x9f
	...
	while( ((int32_t)(systick_cnt - end )) < 0 );
     22c:	0000                	unimp
     22e:	0600                	addi	s0,sp,768
     230:	7d00                	flw	fs0,56(a0)
     232:	7900                	flw	fs0,48(a0)
     234:	1c00                	addi	s0,sp,560
		int temp=LEDs[0].brightness;
     236:	009f 0000 0000      	0x9f
     23c:	0000                	unimp
     23e:	0100                	addi	s0,sp,128
			LEDs[i-1].brightness=LEDs[i].brightness;
     240:	5800                	lw	s0,48(s0)
	...
     24a:	0006                	c.slli	zero,0x1
     24c:	007d                	c.nop	31
     24e:	0079                	c.nop	30
     250:	9f1c                	0x9f1c
	...
     25a:	0006                	c.slli	zero,0x1
     25c:	0079                	c.nop	30
     25e:	007c                	addi	a5,sp,12
		for(int i=1; i<12; i++){
     260:	9f1c                	0x9f1c
	...
	while(1){
     26a:	0001                	nop
	asm volatile( "\n\
     26c:	0000005b          	0x5b
     270:	0000                	unimp
     272:	0000                	unimp
     274:	0200                	addi	s0,sp,256
     276:	3000                	fld	fs0,32(s0)
     278:	009f 0000 0000      	0x9f
     27e:	0000                	unimp
     280:	0200                	addi	s0,sp,256
     282:	3100                	fld	fs0,32(a0)
     284:	009f 0000 0000      	0x9f
     28a:	0000                	unimp
     28c:	0200                	addi	s0,sp,256
     28e:	3200                	fld	fs0,32(a2)
     290:	009f 0000 0000      	0x9f
asm volatile(
     296:	0000                	unimp
     298:	0100                	addi	s0,sp,128
     29a:	5b00                	lw	s0,48(a4)
	...
     2a4:	0006                	c.slli	zero,0x1
     2a6:	0079                	c.nop	30
     2a8:	007c                	addi	a5,sp,12
     2aa:	9f1c                	0x9f1c
	...
     2b4:	0008                	0x8
     2b6:	0079                	c.nop	30
     2b8:	007c                	addi	a5,sp,12
     2ba:	231c                	fld	fa5,0(a4)
     2bc:	9f01                	0x9f01
	...
	SETUP_SYSTICK_HCLK
     2ce:	0002                	c.slli64	zero
     2d0:	9f30                	0x9f30
	...
asm volatile(
     2da:	0001                	nop
     2dc:	0056                	c.slli	zero,0x15
	asm volatile( "1: j 1b" );
     2de:	0000                	unimp
{
     2e0:	0000                	unimp
     2e2:	0000                	unimp
     2e4:	0200                	addi	s0,sp,256
     2e6:	7200                	flw	fs0,32(a2)
	...
	SysTick->CMP += (SYSTEM_CORE_CLOCK/SYSTICKHZ);
     2f0:	0200                	addi	s0,sp,256
     2f2:	7200                	flw	fs0,32(a2)
{
     2f4:	006c                	addi	a1,sp,12
     2f6:	0000                	unimp
     2f8:	0000                	unimp
     2fa:	0000                	unimp
     2fc:	0200                	addi	s0,sp,256
     2fe:	3000                	fld	fs0,32(s0)
     300:	009f 0000 0000      	0x9f
     306:	0000                	unimp
     308:	0200                	addi	s0,sp,256
     30a:	7200                	flw	fs0,32(a2)
	...
	SysTick->CMP += (SYSTEM_CORE_CLOCK/SYSTICKHZ);
     31c:	0100                	addi	s0,sp,128
     31e:	5e00                	lw	s0,56(a2)
	...
	systick_cnt++;
     328:	0004                	0x4
     32a:	9f5e01f3          	0x9f5e01f3
	...
     336:	0006                	c.slli	zero,0x1
	ramp=systick_cnt & 0x3F;		// 0 to 63
     338:	007d                	c.nop	31
     33a:	007c                	addi	a5,sp,12
     33c:	9f22                	add	t5,t5,s0
	...
	if (ramp == 0) {
     346:	0001                	nop
     348:	005c                	addi	a5,sp,4
     34a:	0000                	unimp
     34c:	0000                	unimp
     34e:	0000                	unimp
		pinMode(LEDs[group[currentgroup][0]].pinCathode, pinMode_I_floating); // switch off this group
     350:	0300                	addi	s0,sp,384
     352:	7c00                	flw	fs0,56(s0)
     354:	9f7f                	0x9f7f
	...
     35e:	0001                	nop
     360:	005d                	c.nop	23
     362:	0000                	unimp
     364:	0000                	unimp
     366:	0000                	unimp
     368:	0300                	addi	s0,sp,384
     36a:	7c00                	flw	fs0,56(s0)
     36c:	9f7e                	add	t5,t5,t6
	...
     376:	0001                	nop
     378:	005d                	c.nop	23
     37a:	0000                	unimp
     37c:	0000                	unimp
     37e:	0000                	unimp
     380:	0300                	addi	s0,sp,384
     382:	7d00                	flw	fs0,56(a0)
     384:	9f7f                	0x9f7f
	...
		currentgroup = (currentgroup + 1) & 0x3;	// move to next group
     38e:	0001                	nop
     390:	005e                	c.slli	zero,0x17
		pinMode(LEDs[group[currentgroup][0]].pinCathode, pinMode_O_pushPull); // switch on the group
     392:	0000                	unimp
     394:	0000                	unimp
		currentgroup = (currentgroup + 1) & 0x3;	// move to next group
     396:	0000                	unimp
     398:	0800                	addi	s0,sp,16
		pinMode(LEDs[group[currentgroup][0]].pinCathode, pinMode_O_pushPull); // switch on the group
     39a:	7d00                	flw	fs0,56(a0)
     39c:	7c00                	flw	fs0,56(s0)
     39e:	2200                	fld	fs0,0(a2)
     3a0:	009f0123          	sb	s1,2(t5) # 1002 <ch32v003fun.c.297fed70+0x120>
     3a4:	0000                	unimp
     3a6:	0000                	unimp
     3a8:	0000                	unimp
     3aa:	0600                	addi	s0,sp,768
     3ac:	7d00                	flw	fs0,56(a0)
     3ae:	7c00                	flw	fs0,56(s0)
     3b0:	2200                	fld	fs0,0(a2)
     3b2:	009f 0000 0000      	0x9f
	...
     3c0:	0000                	unimp
     3c2:	0100                	addi	s0,sp,128
     3c4:	5a00                	lw	s0,48(a2)
	...
		digitalWrite(LEDs[group[currentgroup][0]].pinCathode, low);
     3ce:	0001                	nop
     3d0:	0056                	c.slli	zero,0x15
     3d2:	0000                	unimp
     3d4:	0000                	unimp
     3d6:	0000                	unimp
     3d8:	0100                	addi	s0,sp,128
		pinMode(LEDs[group[currentgroup][0]].pinAnode, pinMode_O_pushPull); // switch on this LED
     3da:	5a00                	lw	s0,48(a2)
	...
     3e4:	0002                	c.slli64	zero
     3e6:	6491                	lui	s1,0x4
	...
		digitalWrite(LEDs[group[currentgroup][0]].pinAnode, high);
     3f0:	0001                	nop
     3f2:	0056                	c.slli	zero,0x15
     3f4:	0000                	unimp
     3f6:	0000                	unimp
     3f8:	0000                	unimp
     3fa:	0100                	addi	s0,sp,128
     3fc:	5600                	lw	s0,40(a2)
	...
		pinMode(LEDs[group[currentgroup][1]].pinAnode, pinMode_O_pushPull); // switch on this LED
     40e:	0001                	nop
     410:	0000005b          	0x5b
     414:	0000                	unimp
     416:	0000                	unimp
     418:	0200                	addi	s0,sp,256
     41a:	9100                	0x9100
     41c:	006c                	addi	a1,sp,12
     41e:	0000                	unimp
     420:	0000                	unimp
     422:	0000                	unimp
		digitalWrite(LEDs[group[currentgroup][1]].pinAnode, high);
     424:	0100                	addi	s0,sp,128
     426:	5b00                	lw	s0,48(a4)
	...
     430:	0002                	c.slli64	zero
     432:	6891                	lui	a7,0x4
	...
		pinMode(LEDs[group[currentgroup][2]].pinAnode, pinMode_O_pushPull); // switch on this LED
     43c:	0001                	nop
     43e:	0000005b          	0x5b
     442:	0000                	unimp
     444:	0000                	unimp
     446:	0200                	addi	s0,sp,256
     448:	9100                	0x9100
     44a:	0068                	addi	a0,sp,12
     44c:	0000                	unimp
     44e:	0000                	unimp
     450:	0000                	unimp
     452:	0200                	addi	s0,sp,256
     454:	7200                	flw	fs0,32(a2)
     456:	0068                	addi	a0,sp,12
     458:	0000                	unimp
     45a:	0000                	unimp
		digitalWrite(LEDs[group[currentgroup][2]].pinAnode, high);
     45c:	0000                	unimp
     45e:	0100                	addi	s0,sp,128
     460:	5b00                	lw	s0,48(a4)
	...
     46a:	0002                	c.slli64	zero
     46c:	6891                	lui	a7,0x4
	...
	if (LEDs[group[currentgroup][0]].brightness == ramp) { // if the target pulse width has been achieved
     47e:	0001                	nop
     480:	005c                	addi	a5,sp,4
     482:	0000                	unimp
     484:	0000                	unimp
     486:	0000                	unimp
     488:	0400                	addi	s0,sp,512
     48a:	f300                	fsw	fs0,32(a4)
     48c:	5c01                	li	s8,-32
     48e:	009f 0000 0000      	0x9f
	...
     49c:	0000                	unimp
		pinMode(LEDs[group[currentgroup][0]].pinAnode, pinMode_I_floating); // switch off this LED
     49e:	0100                	addi	s0,sp,128
     4a0:	5d00                	lw	s0,56(a0)
	...
     4aa:	0004                	0x4
     4ac:	9f5d01f3          	0x9f5d01f3
	...
     4c0:	0001                	nop
     4c2:	005e                	c.slli	zero,0x17
	if (LEDs[group[currentgroup][1]].brightness == ramp) {
     4c4:	0000                	unimp
     4c6:	0000                	unimp
     4c8:	0000                	unimp
     4ca:	0200                	addi	s0,sp,256
     4cc:	9100                	0x9100
     4ce:	0070                	addi	a2,sp,12
     4d0:	0000                	unimp
     4d2:	0000                	unimp
     4d4:	0000                	unimp
     4d6:	0100                	addi	s0,sp,128
     4d8:	5e00                	lw	s0,56(a2)
	...
     4e2:	0002                	c.slli64	zero
     4e4:	7091                	lui	ra,0xfffe4
	...
		pinMode(LEDs[group[currentgroup][1]].pinAnode, pinMode_I_floating); // switch off this LED
     4ee:	0001                	nop
     4f0:	005e                	c.slli	zero,0x17
	...
     4fe:	0000                	unimp
     500:	0100                	addi	s0,sp,128
     502:	5900                	lw	s0,48(a0)
	...
     50c:	0001                	nop
	if (LEDs[group[currentgroup][2]].brightness == ramp) {
     50e:	005f 0000 0000      	0x5f
     514:	0000                	unimp
     516:	0200                	addi	s0,sp,256
     518:	9100                	0x9100
     51a:	006c                	addi	a1,sp,12
     51c:	0000                	unimp
     51e:	0000                	unimp
     520:	0000                	unimp
     522:	0300                	addi	s0,sp,384
     524:	7900                	flw	fs0,48(a0)
     526:	9f02                	jalr	t5
	...
     530:	0001                	nop
		pinMode(LEDs[group[currentgroup][2]].pinAnode, pinMode_I_floating); // switch off this LED
     532:	005f 0000 0000      	0x5f
     538:	0000                	unimp
     53a:	0100                	addi	s0,sp,128
     53c:	5f00                	lw	s0,56(a4)
	...
}
     546:	0001                	nop
     548:	0059                	c.nop	22
	...
     556:	0000                	unimp
     558:	0200                	addi	s0,sp,256
     55a:	3100                	fld	fs0,32(a0)
     55c:	009f 0000 0000      	0x9f
     562:	0000                	unimp
     564:	0200                	addi	s0,sp,256
     566:	7200                	flw	fs0,32(a2)
	...
     570:	0200                	addi	s0,sp,256
     572:	7200                	flw	fs0,32(a2)
     574:	0060                	addi	s0,sp,12
     576:	0000                	unimp
     578:	0000                	unimp
     57a:	0000                	unimp
     57c:	0200                	addi	s0,sp,256
     57e:	7200                	flw	fs0,32(a2)
	...
     590:	0200                	addi	s0,sp,256
     592:	3000                	fld	fs0,32(s0)
     594:	009f 0000 0000      	0x9f
     59a:	0000                	unimp
     59c:	0100                	addi	s0,sp,128
     59e:	5c00                	lw	s0,56(s0)
	...
     5a8:	0001                	nop
     5aa:	005c                	addi	a5,sp,4
     5ac:	0000                	unimp
     5ae:	0000                	unimp
     5b0:	0000                	unimp
     5b2:	0300                	addi	s0,sp,384
     5b4:	7c00                	flw	fs0,56(s0)
     5b6:	9f7f                	0x9f7f
	...
     5c0:	0001                	nop
     5c2:	005c                	addi	a5,sp,4
	...
     5d0:	0000                	unimp
     5d2:	0100                	addi	s0,sp,128
     5d4:	5a00                	lw	s0,48(a2)
	...
     5de:	0001                	nop
     5e0:	005a                	c.slli	zero,0x16
	...
     5ee:	0000                	unimp
     5f0:	0100                	addi	s0,sp,128
     5f2:	5a00                	lw	s0,48(a2)
	...
     5fc:	0001                	nop
     5fe:	005a                	c.slli	zero,0x16
     600:	0000                	unimp
     602:	0000                	unimp
     604:	0000                	unimp
     606:	a000                	fsd	fs0,0(s0)
     608:	0000                	unimp
     60a:	a800                	fsd	fs0,16(s0)
     60c:	0000                	unimp
     60e:	0100                	addi	s0,sp,128
     610:	5a00                	lw	s0,48(a2)
     612:	00a8                	addi	a0,sp,72
     614:	0000                	unimp
     616:	00aa                	slli	ra,ra,0xa
     618:	0000                	unimp
     61a:	7f7a0003          	lb	zero,2039(s4)
     61e:	aa9f 0000 c400      	0xc4000000aa9f
     624:	0000                	unimp
     626:	0400                	addi	s0,sp,512
     628:	f300                	fsw	fs0,32(a4)
     62a:	5a01                	li	s4,-32
     62c:	c49f 0000 cc00      	0xcc000000c49f
     632:	0000                	unimp
     634:	0100                	addi	s0,sp,128
     636:	5a00                	lw	s0,48(a2)
     638:	00cc                	addi	a1,sp,68
     63a:	0000                	unimp
     63c:	00ce                	slli	ra,ra,0x13
     63e:	0000                	unimp
     640:	027a0003          	lb	zero,39(s4)
     644:	ce9f 0000 d600      	0xd6000000ce9f
     64a:	0000                	unimp
     64c:	0400                	addi	s0,sp,512
     64e:	f300                	fsw	fs0,32(a4)
     650:	5a01                	li	s4,-32
     652:	d69f 0000 de00      	0xde000000d69f
     658:	0000                	unimp
     65a:	0100                	addi	s0,sp,128
     65c:	5a00                	lw	s0,48(a2)
     65e:	00de                	slli	ra,ra,0x17
     660:	0000                	unimp
     662:	00e0                	addi	s0,sp,76
     664:	0000                	unimp
     666:	0a7a0003          	lb	zero,167(s4)
     66a:	e09f 0000 f000      	0xf0000000e09f
     670:	0000                	unimp
     672:	0400                	addi	s0,sp,512
     674:	f300                	fsw	fs0,32(a4)
     676:	5a01                	li	s4,-32
     678:	009f 0000 0000      	0x9f
     67e:	0000                	unimp
     680:	a600                	fsd	fs0,8(a2)
     682:	0000                	unimp
     684:	b400                	fsd	fs0,40(s0)
     686:	0000                	unimp
     688:	0600                	addi	s0,sp,768
     68a:	0c00                	addi	s0,sp,528
     68c:	0800                	addi	s0,sp,16
     68e:	4001                	c.li	zero,0
     690:	b49f 0000 c200      	0xc2000000b49f
     696:	0000                	unimp
     698:	0100                	addi	s0,sp,128
     69a:	5f00                	lw	s0,56(a4)
     69c:	00ca                	slli	ra,ra,0x12
     69e:	0000                	unimp
     6a0:	00d6                	slli	ra,ra,0x15
     6a2:	0000                	unimp
     6a4:	0006                	c.slli	zero,0x1
     6a6:	000c                	0xc
     6a8:	0110                	addi	a2,sp,128
     6aa:	9f40                	0x9f40
     6ac:	00dc                	addi	a5,sp,68
     6ae:	0000                	unimp
     6b0:	00ec                	addi	a1,sp,76
     6b2:	0000                	unimp
     6b4:	0006                	c.slli	zero,0x1
     6b6:	000c                	0xc
     6b8:	0114                	addi	a3,sp,128
     6ba:	9f40                	0x9f40
     6bc:	00ec                	addi	a1,sp,76
     6be:	0000                	unimp
     6c0:	00f0                	addi	a2,sp,76
     6c2:	0000                	unimp
     6c4:	0001                	nop
     6c6:	005f 0000 0000      	0x5f
     6cc:	0000                	unimp
     6ce:	a000                	fsd	fs0,0(s0)
     6d0:	0000                	unimp
     6d2:	b000                	fsd	fs0,32(s0)
     6d4:	0000                	unimp
     6d6:	0200                	addi	s0,sp,256
     6d8:	3000                	fld	fs0,32(s0)
     6da:	b09f 0000 b800      	0xb8000000b09f
     6e0:	0000                	unimp
     6e2:	0100                	addi	s0,sp,128
     6e4:	5a00                	lw	s0,48(a2)
     6e6:	00c4                	addi	s1,sp,68
     6e8:	0000                	unimp
     6ea:	00d0                	addi	a2,sp,68
     6ec:	0000                	unimp
     6ee:	0002                	c.slli64	zero
     6f0:	9f30                	0x9f30
     6f2:	00d0                	addi	a2,sp,68
     6f4:	0000                	unimp
     6f6:	00d6                	slli	ra,ra,0x15
     6f8:	0000                	unimp
     6fa:	0001                	nop
     6fc:	d65a                	sw	s6,44(sp)
     6fe:	0000                	unimp
     700:	e600                	fsw	fs0,8(a2)
     702:	0000                	unimp
     704:	0200                	addi	s0,sp,256
     706:	3000                	fld	fs0,32(s0)
     708:	e69f 0000 ee00      	0xee000000e69f
     70e:	0000                	unimp
     710:	0100                	addi	s0,sp,128
     712:	5a00                	lw	s0,48(a2)
	...
     71c:	00f0                	addi	a2,sp,76
     71e:	0000                	unimp
     720:	014d                	addi	sp,sp,19
     722:	0000                	unimp
     724:	0001                	nop
     726:	4d5a                	lw	s10,148(sp)
     728:	0001                	nop
     72a:	4e00                	lw	s0,24(a2)
     72c:	0001                	nop
     72e:	0400                	addi	s0,sp,512
     730:	f300                	fsw	fs0,32(a4)
     732:	5a01                	li	s4,-32
     734:	4e9f 0001 8000      	0x800000014e9f
     73a:	0001                	nop
     73c:	0100                	addi	s0,sp,128
     73e:	5a00                	lw	s0,48(a2)
	...
     748:	00f0                	addi	a2,sp,76
     74a:	0000                	unimp
     74c:	0130                	addi	a2,sp,136
     74e:	0000                	unimp
     750:	0001                	nop
     752:	0001305b          	0x1305b
     756:	4e00                	lw	s0,24(a2)
     758:	0001                	nop
     75a:	0400                	addi	s0,sp,512
     75c:	f300                	fsw	fs0,32(a4)
     75e:	5b01                	li	s6,-32
     760:	4e9f 0001 7e00      	0x7e0000014e9f
     766:	0001                	nop
     768:	0100                	addi	s0,sp,128
     76a:	5b00                	lw	s0,48(a4)
     76c:	017e                	slli	sp,sp,0x1f
     76e:	0000                	unimp
     770:	0180                	addi	s0,sp,192
     772:	0000                	unimp
     774:	0004                	0x4
     776:	9f5b01f3          	0x9f5b01f3
	...
     782:	00f6                	slli	ra,ra,0x1d
     784:	0000                	unimp
     786:	0108                	addi	a0,sp,128
     788:	0000                	unimp
     78a:	0006                	c.slli	zero,0x1
     78c:	000c                	0xc
     78e:	0108                	addi	a0,sp,128
     790:	9f40                	0x9f40
     792:	0108                	addi	a0,sp,128
     794:	0000                	unimp
     796:	014d                	addi	sp,sp,19
     798:	0000                	unimp
     79a:	0001                	nop
     79c:	545e                	lw	s0,244(sp)
     79e:	0001                	nop
     7a0:	6400                	flw	fs0,8(s0)
     7a2:	0001                	nop
     7a4:	0600                	addi	s0,sp,768
     7a6:	0c00                	addi	s0,sp,528
     7a8:	1000                	addi	s0,sp,32
     7aa:	4001                	c.li	zero,0
     7ac:	6a9f 0001 7e00      	0x7e0000016a9f
     7b2:	0001                	nop
     7b4:	0600                	addi	s0,sp,768
     7b6:	0c00                	addi	s0,sp,528
     7b8:	1400                	addi	s0,sp,544
     7ba:	4001                	c.li	zero,0
     7bc:	009f 0000 0000      	0x9f
     7c2:	0000                	unimp
     7c4:	f000                	fsw	fs0,32(s0)
     7c6:	0000                	unimp
     7c8:	0400                	addi	s0,sp,512
     7ca:	0001                	nop
     7cc:	0200                	addi	s0,sp,256
     7ce:	3400                	fld	fs0,40(s0)
     7d0:	049f 0001 3c00      	0x3c000001049f
     7d6:	0001                	nop
     7d8:	0100                	addi	s0,sp,128
     7da:	5f00                	lw	s0,56(a4)
     7dc:	014e                	slli	sp,sp,0x13
     7de:	0000                	unimp
     7e0:	015e                	slli	sp,sp,0x17
     7e2:	0000                	unimp
     7e4:	0002                	c.slli64	zero
     7e6:	9f34                	0x9f34
     7e8:	015e                	slli	sp,sp,0x17
     7ea:	0000                	unimp
     7ec:	0164                	addi	s1,sp,140
     7ee:	0000                	unimp
     7f0:	0001                	nop
     7f2:	645f 0001 7800      	0x78000001645f
     7f8:	0001                	nop
     7fa:	0200                	addi	s0,sp,256
     7fc:	3400                	fld	fs0,40(s0)
     7fe:	789f 0001 7e00      	0x7e000001789f
     804:	0001                	nop
     806:	0100                	addi	s0,sp,128
     808:	5f00                	lw	s0,56(a4)
	...
     812:	0118                	addi	a4,sp,128
     814:	0000                	unimp
     816:	0126                	slli	sp,sp,0x9
     818:	0000                	unimp
     81a:	0002                	c.slli64	zero
     81c:	9f30                	0x9f30
     81e:	0126                	slli	sp,sp,0x9
     820:	0000                	unimp
     822:	014d                	addi	sp,sp,19
     824:	0000                	unimp
     826:	0001                	nop
     828:	4d5c                	lw	a5,28(a0)
     82a:	0001                	nop
     82c:	4e00                	lw	s0,24(a2)
     82e:	0001                	nop
     830:	0900                	addi	s0,sp,144
     832:	f300                	fsw	fs0,32(a4)
     834:	5b01                	li	s6,-32
     836:	00009803          	lh	a6,0(ra) # fffe4000 <__global_pointer$+0xdffe3770>
     83a:	2220                	fld	fs0,64(a2)
	...
     844:	0118                	addi	a4,sp,128
     846:	0000                	unimp
     848:	0126                	slli	sp,sp,0x9
     84a:	0000                	unimp
     84c:	0002                	c.slli64	zero
     84e:	9f30                	0x9f30
     850:	0126                	slli	sp,sp,0x9
     852:	0000                	unimp
     854:	0130                	addi	a2,sp,136
     856:	0000                	unimp
     858:	0008                	0x8
     85a:	9003007b          	0x9003007b
     85e:	0000                	unimp
     860:	2220                	fld	fs0,64(a2)
     862:	0130                	addi	a2,sp,136
     864:	0000                	unimp
     866:	014e                	slli	sp,sp,0x13
     868:	0000                	unimp
     86a:	0009                	c.nop	2
     86c:	035b01f3          	0x35b01f3
     870:	0090                	addi	a2,sp,64
     872:	2000                	fld	fs0,0(s0)
     874:	0022                	c.slli	zero,0x8
	...
     882:	0000                	unimp
     884:	0100                	addi	s0,sp,128
     886:	5a00                	lw	s0,48(a2)
	...
     890:	0001                	nop
     892:	005e                	c.slli	zero,0x17
     894:	0000                	unimp
     896:	0000                	unimp
     898:	0000                	unimp
     89a:	0600                	addi	s0,sp,768
     89c:	7e00                	flw	fs0,56(a2)
     89e:	7f00                	flw	fs0,56(a4)
     8a0:	2200                	fld	fs0,0(a2)
     8a2:	009f 0000 0000      	0x9f
     8a8:	0000                	unimp
     8aa:	0800                	addi	s0,sp,16
     8ac:	7e00                	flw	fs0,56(a2)
     8ae:	7f00                	flw	fs0,56(a4)
     8b0:	2200                	fld	fs0,0(a2)
     8b2:	009f0123          	sb	s1,2(t5)
     8b6:	0000                	unimp
     8b8:	0000                	unimp
     8ba:	0000                	unimp
     8bc:	0600                	addi	s0,sp,768
     8be:	7e00                	flw	fs0,56(a2)
     8c0:	7f00                	flw	fs0,56(a4)
     8c2:	2200                	fld	fs0,0(a2)
     8c4:	009f 0000 0000      	0x9f
	...
     8d2:	0000                	unimp
     8d4:	0100                	addi	s0,sp,128
     8d6:	5a00                	lw	s0,48(a2)
	...
     8e0:	0004                	0x4
     8e2:	9f5a01f3          	0x9f5a01f3
	...
     8f6:	0001                	nop
     8f8:	0000005b          	0x5b
     8fc:	0000                	unimp
     8fe:	0000                	unimp
     900:	0100                	addi	s0,sp,128
     902:	5800                	lw	s0,48(s0)
	...
     90c:	0001                	nop
     90e:	005a                	c.slli	zero,0x16
	...
     91c:	0000                	unimp
     91e:	0100                	addi	s0,sp,128
     920:	5c00                	lw	s0,56(s0)
	...
     92a:	0004                	0x4
     92c:	9f5c01f3          	0x9f5c01f3
	...
     938:	01d4                	addi	a3,sp,196
     93a:	0000                	unimp
     93c:	01de                	slli	gp,gp,0x17
     93e:	0000                	unimp
     940:	0002                	c.slli64	zero
     942:	9f3c                	0x9f3c
	...
     94c:	01f0                	addi	a2,sp,204
     94e:	0000                	unimp
     950:	01fc                	addi	a5,sp,204
     952:	0000                	unimp
     954:	0002                	c.slli64	zero
     956:	9f30                	0x9f30
	...
     960:	01fc                	addi	a5,sp,204
     962:	0000                	unimp
     964:	0204                	addi	s1,sp,256
     966:	0000                	unimp
     968:	0002                	c.slli64	zero
     96a:	9f31                	0x9f31
	...
     974:	0224                	addi	s1,sp,264
     976:	0000                	unimp
     978:	0236                	slli	tp,tp,0xd
     97a:	0000                	unimp
     97c:	0002                	c.slli64	zero
     97e:	9f4e                	add	t5,t5,s3
	...
     988:	0224                	addi	s1,sp,264
     98a:	0000                	unimp
     98c:	0236                	slli	tp,tp,0xd
     98e:	0000                	unimp
     990:	0004                	0x4
     992:	c00a                	sw	sp,0(sp)
     994:	00009f03          	lh	t5,0(ra)
     998:	0000                	unimp
     99a:	0000                	unimp
     99c:	0000                	unimp
     99e:	022c                	addi	a1,sp,264
     9a0:	0000                	unimp
     9a2:	0236                	slli	tp,tp,0xd
     9a4:	0000                	unimp
     9a6:	0001                	nop
     9a8:	005c                	addi	a5,sp,4
	...
     9b6:	0000                	unimp
     9b8:	0100                	addi	s0,sp,128
     9ba:	5a00                	lw	s0,48(a2)
	...
     9c4:	0001                	nop
     9c6:	005f 0000 0000      	0x5f
	...
     9d4:	0000                	unimp
     9d6:	0100                	addi	s0,sp,128
     9d8:	5a00                	lw	s0,48(a2)
	...
     9e2:	0004                	0x4
     9e4:	9f5a01f3          	0x9f5a01f3
	...
     9f0:	0001                	nop
     9f2:	005a                	c.slli	zero,0x16
	...
     a00:	0000                	unimp
     a02:	0100                	addi	s0,sp,128
     a04:	5a00                	lw	s0,48(a2)
	...
     a0e:	0004                	0x4
     a10:	9f5a01f3          	0x9f5a01f3
	...
     a24:	0001                	nop
     a26:	005f 0000 0000      	0x5f
     a2c:	0000                	unimp
     a2e:	0200                	addi	s0,sp,256
     a30:	7200                	flw	fs0,32(a2)
	...
     a3a:	0100                	addi	s0,sp,128
     a3c:	5f00                	lw	s0,56(a4)
	...
     a46:	7c7e0003          	lb	zero,1991(t3) # 3f012e8f <__global_pointer$+0x1f0125ff>
     a4a:	009f 0000 0000      	0x9f
     a50:	0000                	unimp
     a52:	0100                	addi	s0,sp,128
     a54:	5e00                	lw	s0,56(a2)
	...
     a5e:	0002                	c.slli64	zero
     a60:	0072                	c.slli	zero,0x1c
	...
     a6a:	0001                	nop
     a6c:	005f 0000 0000      	0x5f
     a72:	0000                	unimp
     a74:	0100                	addi	s0,sp,128
     a76:	5e00                	lw	s0,56(a2)
	...
     a80:	0002                	c.slli64	zero
     a82:	0072                	c.slli	zero,0x1c
	...
     a8c:	0002                	c.slli64	zero
     a8e:	0072                	c.slli	zero,0x1c
	...
     a98:	0001                	nop
     a9a:	005f 0000 0000      	0x5f
     aa0:	0000                	unimp
     aa2:	0300                	addi	s0,sp,384
     aa4:	7f00                	flw	fs0,56(a4)
     aa6:	9f04                	0x9f04
	...
     ab0:	0001                	nop
     ab2:	005f 0000 0000      	0x5f
     ab8:	0000                	unimp
     aba:	0100                	addi	s0,sp,128
     abc:	5e00                	lw	s0,56(a2)
	...
     ac6:	0002                	c.slli64	zero
     ac8:	0072                	c.slli	zero,0x1c
	...
     ad2:	0001                	nop
     ad4:	005f 0000 0000      	0x5f
     ada:	0000                	unimp
     adc:	0300                	addi	s0,sp,384
     ade:	7e00                	flw	fs0,56(a2)
     ae0:	9f7c                	0x9f7c
	...
     aea:	0001                	nop
     aec:	005e                	c.slli	zero,0x17
     aee:	0000                	unimp
     af0:	0000                	unimp
     af2:	0000                	unimp
     af4:	0200                	addi	s0,sp,256
     af6:	7200                	flw	fs0,32(a2)
	...
     b08:	0100                	addi	s0,sp,128
     b0a:	5a00                	lw	s0,48(a2)
	...
     b14:	0001                	nop
     b16:	0059                	c.nop	22
     b18:	0000                	unimp
     b1a:	0000                	unimp
     b1c:	0000                	unimp
     b1e:	0100                	addi	s0,sp,128
     b20:	5800                	lw	s0,48(s0)
	...
     b2a:	0001                	nop
     b2c:	0058                	addi	a4,sp,4
     b2e:	0000                	unimp
     b30:	0000                	unimp
     b32:	0000                	unimp
     b34:	0100                	addi	s0,sp,128
     b36:	5900                	lw	s0,48(a0)
	...
     b40:	0001                	nop
     b42:	0058                	addi	a4,sp,4
     b44:	0000                	unimp
     b46:	0000                	unimp
     b48:	0000                	unimp
     b4a:	0100                	addi	s0,sp,128
     b4c:	5e00                	lw	s0,56(a2)
	...
     b56:	0001                	nop
     b58:	0059                	c.nop	22
     b5a:	0000                	unimp
     b5c:	0000                	unimp
     b5e:	0000                	unimp
     b60:	0300                	addi	s0,sp,384
     b62:	7900                	flw	fs0,48(a0)
     b64:	9f7f                	0x9f7f
	...
     b6e:	0001                	nop
     b70:	0059                	c.nop	22
     b72:	0000                	unimp
     b74:	0000                	unimp
     b76:	0000                	unimp
     b78:	0300                	addi	s0,sp,384
     b7a:	7900                	flw	fs0,48(a0)
     b7c:	9f01                	0x9f01
	...
     b86:	0001                	nop
     b88:	0059                	c.nop	22
     b8a:	0000                	unimp
     b8c:	0000                	unimp
     b8e:	0000                	unimp
     b90:	0100                	addi	s0,sp,128
     b92:	5e00                	lw	s0,56(a2)
	...
     b9c:	0001                	nop
     b9e:	0059                	c.nop	22
	...
     bac:	0000                	unimp
     bae:	0200                	addi	s0,sp,256
     bb0:	3000                	fld	fs0,32(s0)
     bb2:	009f 0000 0000      	0x9f
     bb8:	0000                	unimp
     bba:	0300                	addi	s0,sp,384
     bbc:	9100                	0x9100
     bbe:	7f9c                	flw	fa5,56(a5)
	...
     bc8:	9c720003          	lb	zero,-1593(tp) # fffff9c7 <__global_pointer$+0xdffff137>
     bcc:	007f                	0x7f
     bce:	0000                	unimp
     bd0:	0000                	unimp
     bd2:	0000                	unimp
     bd4:	0300                	addi	s0,sp,384
     bd6:	9100                	0x9100
     bd8:	7f9c                	flw	fa5,56(a5)
	...
     be2:	0001                	nop
     be4:	005f 0000 0000      	0x5f
     bea:	0000                	unimp
     bec:	0300                	addi	s0,sp,384
     bee:	9100                	0x9100
     bf0:	7f9c                	flw	fa5,56(a5)
	...
     c02:	0002                	c.slli64	zero
     c04:	9f31                	0x9f31
	...
     c0e:	0001                	nop
     c10:	005a                	c.slli	zero,0x16
     c12:	0000                	unimp
     c14:	0000                	unimp
     c16:	0000                	unimp
     c18:	0200                	addi	s0,sp,256
     c1a:	3100                	fld	fs0,32(a0)
     c1c:	009f 0000 0000      	0x9f
     c22:	0000                	unimp
     c24:	0100                	addi	s0,sp,128
     c26:	5a00                	lw	s0,48(a2)
	...
     c30:	0001                	nop
     c32:	0000005b          	0x5b
     c36:	0000                	unimp
     c38:	0000                	unimp
     c3a:	0100                	addi	s0,sp,128
     c3c:	5a00                	lw	s0,48(a2)
	...
     c46:	0001                	nop
     c48:	005a                	c.slli	zero,0x16
     c4a:	0000                	unimp
     c4c:	0000                	unimp
     c4e:	0000                	unimp
     c50:	0100                	addi	s0,sp,128
     c52:	5a00                	lw	s0,48(a2)
	...
     c5c:	0001                	nop
     c5e:	005a                	c.slli	zero,0x16
     c60:	0000                	unimp
     c62:	0000                	unimp
     c64:	0000                	unimp
     c66:	0100                	addi	s0,sp,128
     c68:	5a00                	lw	s0,48(a2)
	...
     c72:	0001                	nop
     c74:	0000005b          	0x5b
	...
     c84:	0300                	addi	s0,sp,384
     c86:	0800                	addi	s0,sp,16
     c88:	9f20                	0x9f20
	...
     c92:	0001                	nop
     c94:	0058                	addi	a4,sp,4
     c96:	0000                	unimp
     c98:	0000                	unimp
     c9a:	0000                	unimp
     c9c:	0300                	addi	s0,sp,384
     c9e:	0800                	addi	s0,sp,16
     ca0:	9f20                	0x9f20
	...
     caa:	0001                	nop
     cac:	0058                	addi	a4,sp,4
	...
     cba:	0000                	unimp
     cbc:	0200                	addi	s0,sp,256
     cbe:	3000                	fld	fs0,32(s0)
     cc0:	009f 0000 0000      	0x9f
     cc6:	0000                	unimp
     cc8:	0100                	addi	s0,sp,128
     cca:	5e00                	lw	s0,56(a2)
	...
     cd4:	0001                	nop
     cd6:	005e                	c.slli	zero,0x17
     cd8:	0000                	unimp
     cda:	0000                	unimp
     cdc:	0000                	unimp
     cde:	0300                	addi	s0,sp,384
     ce0:	9100                	0x9100
     ce2:	7f98                	flw	fa4,56(a5)
	...
     cec:	0002                	c.slli64	zero
     cee:	9f30                	0x9f30
	...
     cf8:	98910003          	lb	zero,-1655(sp) # 10010995 <wiring.c.7604182b+0x1000e506>
     cfc:	007f                	0x7f
	...
     d0a:	0000                	unimp
     d0c:	0200                	addi	s0,sp,256
     d0e:	3000                	fld	fs0,32(s0)
     d10:	009f 0000 0000      	0x9f
     d16:	0000                	unimp
     d18:	0200                	addi	s0,sp,256
     d1a:	3100                	fld	fs0,32(a0)
     d1c:	009f 0000 0000      	0x9f
     d22:	0000                	unimp
     d24:	0100                	addi	s0,sp,128
     d26:	5c00                	lw	s0,56(s0)
	...
     d30:	0002                	c.slli64	zero
     d32:	9f30                	0x9f30
	...
     d3c:	0001                	nop
     d3e:	005c                	addi	a5,sp,4
     d40:	0000                	unimp
     d42:	0000                	unimp
     d44:	0000                	unimp
     d46:	0100                	addi	s0,sp,128
     d48:	5c00                	lw	s0,56(s0)
	...
     d52:	0001                	nop
     d54:	005c                	addi	a5,sp,4
     d56:	0000                	unimp
     d58:	0000                	unimp
     d5a:	0000                	unimp
     d5c:	0100                	addi	s0,sp,128
     d5e:	5c00                	lw	s0,56(s0)
	...
     d70:	48910003          	lb	zero,1161(sp)
     d74:	009f 0000 0000      	0x9f
     d7a:	0000                	unimp
     d7c:	0100                	addi	s0,sp,128
     d7e:	5e00                	lw	s0,56(a2)
	...
     d90:	000c                	0xc
     d92:	007d                	c.nop	31
     d94:	ff08                	fsw	fa0,56(a4)
     d96:	081a                	slli	a6,a6,0x6
     d98:	2975                	jal	1254 <ch32v003fun.c.297fed70+0x372>
     d9a:	ff08                	fsw	fa0,56(a4)
     d9c:	9f1a                	add	t5,t5,t1
	...
     dae:	0002                	c.slli64	zero
     db0:	9f30                	0x9f30
	...
     dc2:	0002                	c.slli64	zero
     dc4:	9f3a                	add	t5,t5,a4
	...
     dd6:	0002                	c.slli64	zero
     dd8:	007f                	0x7f
	...
     dea:	48910003          	lb	zero,1161(sp)
     dee:	009f 0000 0000      	0x9f
     df4:	0000                	unimp
     df6:	0100                	addi	s0,sp,128
     df8:	5e00                	lw	s0,56(a2)
	...
     e0a:	0002                	c.slli64	zero
     e0c:	9f30                	0x9f30
	...
     e1e:	0002                	c.slli64	zero
     e20:	9f3a                	add	t5,t5,a4
	...
     e32:	48910003          	lb	zero,1161(sp)
     e36:	009f 0000 0000      	0x9f
     e3c:	0000                	unimp
     e3e:	0100                	addi	s0,sp,128
     e40:	5e00                	lw	s0,56(a2)
	...
     e52:	0002                	c.slli64	zero
     e54:	9f31                	0x9f31
	...
     e66:	0002                	c.slli64	zero
     e68:	9f30                	0x9f30
	...
     e7a:	0002                	c.slli64	zero
     e7c:	9f3a                	add	t5,t5,a4
	...
     e8e:	0002                	c.slli64	zero
     e90:	007f                	0x7f
	...
     ea2:	48910003          	lb	zero,1161(sp)
     ea6:	009f 0000 0000      	0x9f
     eac:	0000                	unimp
     eae:	0100                	addi	s0,sp,128
     eb0:	5e00                	lw	s0,56(a2)
	...
     eba:	48910003          	lb	zero,1161(sp)
     ebe:	009f 0000 0000      	0x9f
	...
     ecc:	0000                	unimp
     ece:	0200                	addi	s0,sp,256
     ed0:	3100                	fld	fs0,32(a0)
     ed2:	009f 0000 0000      	0x9f
	...
     ee0:	0000                	unimp
     ee2:	0c00                	addi	s0,sp,528
     ee4:	7d00                	flw	fs0,56(a0)
     ee6:	0800                	addi	s0,sp,16
     ee8:	1aff                	0x1aff
     eea:	5808                	lw	a0,48(s0)
     eec:	0829                	addi	a6,a6,10
     eee:	1aff                	0x1aff
     ef0:	009f 0000 0000      	0x9f
     ef6:	0000                	unimp
     ef8:	0c00                	addi	s0,sp,528
     efa:	9100                	0x9100
     efc:	01947fab          	0x1947fab
     f00:	5808                	lw	a0,48(s0)
     f02:	0829                	addi	a6,a6,10
     f04:	1aff                	0x1aff
     f06:	009f 0000 0000      	0x9f
	...
     f14:	0000                	unimp
     f16:	0200                	addi	s0,sp,256
     f18:	4000                	lw	s0,0(s0)
     f1a:	009f 0000 0000      	0x9f
	...
     f28:	0000                	unimp
     f2a:	0100                	addi	s0,sp,128
     f2c:	5a00                	lw	s0,48(a2)
	...
     f3e:	48910003          	lb	zero,1161(sp)
     f42:	009f 0000 0000      	0x9f
     f48:	0000                	unimp
     f4a:	0100                	addi	s0,sp,128
     f4c:	5e00                	lw	s0,56(a2)
	...
     f56:	48910003          	lb	zero,1161(sp)
     f5a:	009f 0000 0000      	0x9f
	...
     f68:	0000                	unimp
     f6a:	0200                	addi	s0,sp,256
     f6c:	3000                	fld	fs0,32(s0)
     f6e:	009f 0000 0000      	0x9f
	...
     f7c:	0000                	unimp
     f7e:	0100                	addi	s0,sp,128
     f80:	5c00                	lw	s0,56(s0)
	...
     f8a:	0004                	0x4
     f8c:	9f5c01f3          	0x9f5c01f3
	...
     f98:	000a                	c.slli	zero,0x2
     f9a:	007a                	c.slli	zero,0x1e
     f9c:	007f                	0x7f
     f9e:	f31c                	fsw	fa5,32(a4)
     fa0:	5c01                	li	s8,-32
     fa2:	9f22                	add	t5,t5,s0
	...
     fac:	007f000b          	0x7f000b
     fb0:	f320                	fsw	fs0,96(a4)
     fb2:	5c01                	li	s8,-32
     fb4:	7a22                	flw	fs4,40(sp)
     fb6:	2200                	fld	fs0,0(a2)
     fb8:	009f 0000 0000      	0x9f
     fbe:	0000                	unimp
     fc0:	0a00                	addi	s0,sp,272
     fc2:	7a00                	flw	fs0,48(a2)
     fc4:	7f00                	flw	fs0,56(a4)
     fc6:	1c00                	addi	s0,sp,560
     fc8:	225c01f3          	0x225c01f3
     fcc:	009f 0000 0000      	0x9f
	...
     fda:	0000                	unimp
     fdc:	0100                	addi	s0,sp,128
     fde:	5a00                	lw	s0,48(a2)
	...
     fe8:	0001                	nop
     fea:	005f 0000 0000      	0x5f
	...
     ff8:	0000                	unimp
     ffa:	0100                	addi	s0,sp,128
     ffc:	5a00                	lw	s0,48(a2)
	...
    1006:	0001                	nop
    1008:	005a                	c.slli	zero,0x16
	...
    1016:	0000                	unimp
    1018:	0100                	addi	s0,sp,128
    101a:	5b00                	lw	s0,48(a4)
	...
    1024:	0001                	nop
    1026:	0000005b          	0x5b
	...
    1036:	0100                	addi	s0,sp,128
    1038:	5a00                	lw	s0,48(a2)
	...
    1042:	0001                	nop
    1044:	005a                	c.slli	zero,0x16
	...
    1052:	0000                	unimp
    1054:	0100                	addi	s0,sp,128
    1056:	5b00                	lw	s0,48(a4)
	...
    1060:	0001                	nop
    1062:	0000005b          	0x5b
	...
    1072:	0100                	addi	s0,sp,128
    1074:	5c00                	lw	s0,56(s0)
	...
    107e:	0004                	0x4
    1080:	9f5c01f3          	0x9f5c01f3
	...
    108c:	0006                	c.slli	zero,0x1
    108e:	315c01f3          	0x315c01f3
    1092:	9f1c                	0x9f1c
	...
    10a4:	0001                	nop
    10a6:	005a                	c.slli	zero,0x16
    10a8:	0000                	unimp
    10aa:	0000                	unimp
    10ac:	0000                	unimp
    10ae:	0100                	addi	s0,sp,128
    10b0:	5a00                	lw	s0,48(a2)
	...
    10c2:	0001                	nop
    10c4:	0000005b          	0x5b
    10c8:	0000                	unimp
    10ca:	0000                	unimp
    10cc:	0100                	addi	s0,sp,128
    10ce:	5b00                	lw	s0,48(a4)
	...
    10e0:	0001                	nop
    10e2:	005a                	c.slli	zero,0x16
    10e4:	0000                	unimp
    10e6:	0000                	unimp
    10e8:	0000                	unimp
    10ea:	0400                	addi	s0,sp,512
    10ec:	f300                	fsw	fs0,32(a4)
    10ee:	5a01                	li	s4,-32
    10f0:	009f 0000 0000      	0x9f
    10f6:	0000                	unimp
    10f8:	0100                	addi	s0,sp,128
    10fa:	5a00                	lw	s0,48(a2)
	...
    1104:	0004                	0x4
    1106:	9f5a01f3          	0x9f5a01f3
	...
    111a:	0001                	nop
    111c:	005c                	addi	a5,sp,4
    111e:	0000                	unimp
    1120:	0000                	unimp
    1122:	0000                	unimp
    1124:	0300                	addi	s0,sp,384
    1126:	7c00                	flw	fs0,56(s0)
    1128:	9f7f                	0x9f7f
	...
    1132:	0001                	nop
    1134:	005c                	addi	a5,sp,4
    1136:	0000                	unimp
    1138:	0000                	unimp
    113a:	0000                	unimp
    113c:	0600                	addi	s0,sp,768
    113e:	7c00                	flw	fs0,56(s0)
    1140:	7e00                	flw	fs0,56(a2)
    1142:	1c00                	addi	s0,sp,560
    1144:	009f 0000 0000      	0x9f
    114a:	0000                	unimp
    114c:	0800                	addi	s0,sp,16
    114e:	7c00                	flw	fs0,56(s0)
    1150:	7e00                	flw	fs0,56(a2)
    1152:	1c00                	addi	s0,sp,560
    1154:	009f0123          	sb	s1,2(t5)
    1158:	0000                	unimp
    115a:	0000                	unimp
    115c:	0000                	unimp
    115e:	0300                	addi	s0,sp,384
    1160:	7c00                	flw	fs0,56(s0)
    1162:	9f7f                	0x9f7f
	...
    1174:	0001                	nop
    1176:	005a                	c.slli	zero,0x16
    1178:	0000                	unimp
    117a:	0000                	unimp
    117c:	0000                	unimp
    117e:	0600                	addi	s0,sp,768
    1180:	7a00                	flw	fs0,48(a2)
    1182:	7e00                	flw	fs0,56(a2)
    1184:	2200                	fld	fs0,0(a2)
    1186:	009f 0000 0000      	0x9f
    118c:	0000                	unimp
    118e:	0100                	addi	s0,sp,128
    1190:	5f00                	lw	s0,56(a4)
	...
    119a:	0006                	c.slli	zero,0x1
    119c:	007a                	c.slli	zero,0x1e
    119e:	007e                	c.slli	zero,0x1f
    11a0:	9f22                	add	t5,t5,s0
	...
    11aa:	0008                	0x8
    11ac:	007a                	c.slli	zero,0x1e
    11ae:	007e                	c.slli	zero,0x1f
    11b0:	3122                	fld	ft2,40(sp)
    11b2:	9f1c                	0x9f1c
	...
    11bc:	0001                	nop
    11be:	005a                	c.slli	zero,0x16
    11c0:	0000                	unimp
    11c2:	0000                	unimp
    11c4:	0000                	unimp
    11c6:	0400                	addi	s0,sp,512
    11c8:	f300                	fsw	fs0,32(a4)
    11ca:	5a01                	li	s4,-32
    11cc:	009f 0000 0000      	0x9f
	...
    11da:	0000                	unimp
    11dc:	0100                	addi	s0,sp,128
    11de:	5b00                	lw	s0,48(a4)
	...
    11e8:	0006                	c.slli	zero,0x1
    11ea:	007e007b          	0x7e007b
    11ee:	9f22                	add	t5,t5,s0
	...
    11f8:	0001                	nop
    11fa:	005d                	c.nop	23
    11fc:	0000                	unimp
    11fe:	0000                	unimp
    1200:	0000                	unimp
    1202:	0600                	addi	s0,sp,768
    1204:	7b00                	flw	fs0,48(a4)
    1206:	7e00                	flw	fs0,56(a2)
    1208:	2200                	fld	fs0,0(a2)
    120a:	009f 0000 0000      	0x9f
    1210:	0000                	unimp
    1212:	0800                	addi	s0,sp,16
    1214:	7b00                	flw	fs0,48(a4)
    1216:	7e00                	flw	fs0,56(a2)
    1218:	2200                	fld	fs0,0(a2)
    121a:	1c31                	addi	s8,s8,-20
    121c:	009f 0000 0000      	0x9f
    1222:	0000                	unimp
    1224:	0100                	addi	s0,sp,128
    1226:	5b00                	lw	s0,48(a4)
	...
    1238:	0001                	nop
    123a:	005a                	c.slli	zero,0x16
    123c:	0000                	unimp
    123e:	0000                	unimp
    1240:	0000                	unimp
    1242:	0100                	addi	s0,sp,128
    1244:	5800                	lw	s0,48(s0)
	...
    124e:	0001                	nop
    1250:	0058                	addi	a4,sp,4
	...
    125e:	0000                	unimp
    1260:	0100                	addi	s0,sp,128
    1262:	5b00                	lw	s0,48(a4)
	...
    126c:	0004                	0x4
    126e:	9f5b01f3          	0x9f5b01f3
	...
    127a:	0001                	nop
    127c:	0000005b          	0x5b
    1280:	0000                	unimp
    1282:	0000                	unimp
    1284:	0700                	addi	s0,sp,896
    1286:	f300                	fsw	fs0,32(a4)
    1288:	5b01                	li	s6,-32
    128a:	ff08                	fsw	fa0,56(a4)
    128c:	9f1a                	add	t5,t5,t1
	...
    1296:	0001                	nop
    1298:	0000005b          	0x5b
	...
    12a8:	0100                	addi	s0,sp,128
    12aa:	5a00                	lw	s0,48(a2)
	...
    12b4:	0001                	nop
    12b6:	0058                	addi	a4,sp,4
	...
    12c4:	0000                	unimp
    12c6:	0100                	addi	s0,sp,128
    12c8:	5a00                	lw	s0,48(a2)
	...
    12d2:	0001                	nop
    12d4:	0058                	addi	a4,sp,4
    12d6:	0000                	unimp
    12d8:	0000                	unimp
    12da:	0000                	unimp
    12dc:	0300                	addi	s0,sp,384
    12de:	7800                	flw	fs0,48(s0)
    12e0:	9f01                	0x9f01
	...
    12ea:	0004                	0x4
    12ec:	9f5a01f3          	0x9f5a01f3
	...
    1300:	0001                	nop
    1302:	0000005b          	0x5b
    1306:	0000                	unimp
    1308:	0000                	unimp
    130a:	0100                	addi	s0,sp,128
    130c:	5900                	lw	s0,48(a0)
	...
    1316:	0004                	0x4
    1318:	9f5b01f3          	0x9f5b01f3
	...
    132c:	017a0003          	lb	zero,23(s4)
    1330:	009f 0000 0000      	0x9f
    1336:	0000                	unimp
    1338:	0700                	addi	s0,sp,896
    133a:	7800                	flw	fs0,48(s0)
    133c:	2000                	fld	fs0,0(s0)
    133e:	007f                	0x7f
    1340:	9f22                	add	t5,t5,s0
	...
    134a:	00780007          	0x780007
    134e:	7f20                	flw	fs0,120(a4)
    1350:	2200                	fld	fs0,0(a2)
    1352:	009f 0000 0000      	0x9f
    1358:	0000                	unimp
    135a:	0700                	addi	s0,sp,896
    135c:	7800                	flw	fs0,48(s0)
    135e:	2000                	fld	fs0,0(s0)
    1360:	007a                	c.slli	zero,0x1e
    1362:	9f22                	add	t5,t5,s0
	...
    1374:	0001                	nop
    1376:	0059                	c.nop	22
    1378:	0000                	unimp
    137a:	0000                	unimp
    137c:	0000                	unimp
    137e:	0100                	addi	s0,sp,128
    1380:	5900                	lw	s0,48(a0)
	...
    1392:	0001                	nop
    1394:	0058                	addi	a4,sp,4
    1396:	0000                	unimp
    1398:	0000                	unimp
    139a:	0000                	unimp
    139c:	0300                	addi	s0,sp,384
    139e:	7800                	flw	fs0,48(s0)
    13a0:	9f01                	0x9f01
	...
    13aa:	01780003          	lb	zero,23(a6) # 590b5171 <__global_pointer$+0x390b48e1>
    13ae:	009f 0000 0000      	0x9f
	...
    13bc:	0000                	unimp
    13be:	0100                	addi	s0,sp,128
    13c0:	5800                	lw	s0,48(s0)
	...
    13ca:	01780003          	lb	zero,23(a6)
    13ce:	009f 0000 0000      	0x9f
    13d4:	0000                	unimp
    13d6:	0400                	addi	s0,sp,512
    13d8:	f300                	fsw	fs0,32(a4)
    13da:	5a01                	li	s4,-32
    13dc:	009f 0000 0000      	0x9f
	...
    13ea:	0000                	unimp
    13ec:	0100                	addi	s0,sp,128
    13ee:	5c00                	lw	s0,56(s0)
	...
    13f8:	0006                	c.slli	zero,0x1
    13fa:	007c                	addi	a5,sp,12
    13fc:	007f                	0x7f
    13fe:	9f1c                	0x9f1c
	...
    1408:	0008                	0x8
    140a:	007c                	addi	a5,sp,12
    140c:	007f                	0x7f
    140e:	231c                	fld	fa5,0(a4)
    1410:	9f01                	0x9f01
	...
    1422:	0001                	nop
    1424:	005a                	c.slli	zero,0x16
    1426:	0000                	unimp
    1428:	0000                	unimp
    142a:	0000                	unimp
    142c:	0600                	addi	s0,sp,768
    142e:	7a00                	flw	fs0,48(a2)
    1430:	7f00                	flw	fs0,56(a4)
    1432:	2200                	fld	fs0,0(a2)
    1434:	009f 0000 0000      	0x9f
    143a:	0000                	unimp
    143c:	0800                	addi	s0,sp,16
    143e:	7a00                	flw	fs0,48(a2)
    1440:	7f00                	flw	fs0,56(a4)
    1442:	2200                	fld	fs0,0(a2)
    1444:	009f0123          	sb	s1,2(t5)
    1448:	0000                	unimp
    144a:	0000                	unimp
    144c:	0000                	unimp
    144e:	0600                	addi	s0,sp,768
    1450:	7a00                	flw	fs0,48(a2)
    1452:	7f00                	flw	fs0,56(a4)
    1454:	2200                	fld	fs0,0(a2)
    1456:	009f 0000 0000      	0x9f
	...
    1464:	0000                	unimp
    1466:	0100                	addi	s0,sp,128
    1468:	5b00                	lw	s0,48(a4)
	...
    1472:	0006                	c.slli	zero,0x1
    1474:	007f007b          	0x7f007b
    1478:	9f22                	add	t5,t5,s0
	...
    1482:	0008                	0x8
    1484:	007f007b          	0x7f007b
    1488:	2322                	fld	ft6,8(sp)
    148a:	9f01                	0x9f01
	...
    1494:	0006                	c.slli	zero,0x1
    1496:	007f007b          	0x7f007b
    149a:	9f22                	add	t5,t5,s0
	...
    14ac:	0001                	nop
    14ae:	005a                	c.slli	zero,0x16
    14b0:	0000                	unimp
    14b2:	0000                	unimp
    14b4:	0000                	unimp
    14b6:	0400                	addi	s0,sp,512
    14b8:	f300                	fsw	fs0,32(a4)
    14ba:	5a01                	li	s4,-32
    14bc:	009f 0000 0000      	0x9f
    14c2:	0000                	unimp
    14c4:	0100                	addi	s0,sp,128
    14c6:	5a00                	lw	s0,48(a2)
	...
    14d0:	0004                	0x4
    14d2:	9f5a01f3          	0x9f5a01f3
	...
    14e6:	0001                	nop
    14e8:	005c                	addi	a5,sp,4
    14ea:	0000                	unimp
    14ec:	0000                	unimp
    14ee:	0000                	unimp
    14f0:	0600                	addi	s0,sp,768
    14f2:	7c00                	flw	fs0,56(s0)
    14f4:	7e00                	flw	fs0,56(a2)
    14f6:	1c00                	addi	s0,sp,560
    14f8:	009f 0000 0000      	0x9f
    14fe:	0000                	unimp
    1500:	0800                	addi	s0,sp,16
    1502:	7c00                	flw	fs0,56(s0)
    1504:	7e00                	flw	fs0,56(a2)
    1506:	1c00                	addi	s0,sp,560
    1508:	009f0123          	sb	s1,2(t5)
    150c:	0000                	unimp
    150e:	0000                	unimp
    1510:	0000                	unimp
    1512:	0600                	addi	s0,sp,768
    1514:	7c00                	flw	fs0,56(s0)
    1516:	7e00                	flw	fs0,56(a2)
    1518:	1c00                	addi	s0,sp,560
    151a:	009f 0000 0000      	0x9f
	...
    1528:	0000                	unimp
    152a:	0100                	addi	s0,sp,128
    152c:	5a00                	lw	s0,48(a2)
	...
    1536:	0006                	c.slli	zero,0x1
    1538:	007a                	c.slli	zero,0x1e
    153a:	007e                	c.slli	zero,0x1f
    153c:	9f22                	add	t5,t5,s0
	...
    1546:	0001                	nop
    1548:	005f 0000 0000      	0x5f
    154e:	0000                	unimp
    1550:	0800                	addi	s0,sp,16
    1552:	7a00                	flw	fs0,48(a2)
    1554:	7e00                	flw	fs0,56(a2)
    1556:	2200                	fld	fs0,0(a2)
    1558:	1c31                	addi	s8,s8,-20
    155a:	009f 0000 0000      	0x9f
    1560:	0000                	unimp
    1562:	0900                	addi	s0,sp,144
    1564:	7e00                	flw	fs0,56(a2)
    1566:	f300                	fsw	fs0,32(a4)
    1568:	5a01                	li	s4,-32
    156a:	3122                	fld	ft2,40(sp)
    156c:	9f1c                	0x9f1c
	...
    1576:	0006                	c.slli	zero,0x1
    1578:	007a                	c.slli	zero,0x1e
    157a:	007e                	c.slli	zero,0x1f
    157c:	9f22                	add	t5,t5,s0
	...
    1586:	01f30007          	0x1f30007
    158a:	7e5a                	flw	ft8,180(sp)
    158c:	2200                	fld	fs0,0(a2)
    158e:	009f 0000 0000      	0x9f
	...
    159c:	0000                	unimp
    159e:	0100                	addi	s0,sp,128
    15a0:	5b00                	lw	s0,48(a4)
	...
    15aa:	0006                	c.slli	zero,0x1
    15ac:	007e007b          	0x7e007b
    15b0:	9f22                	add	t5,t5,s0
	...
    15ba:	0008                	0x8
    15bc:	007e007b          	0x7e007b
    15c0:	3122                	fld	ft2,40(sp)
    15c2:	9f1c                	0x9f1c
	...
    15cc:	0006                	c.slli	zero,0x1
    15ce:	007e007b          	0x7e007b
    15d2:	9f22                	add	t5,t5,s0
	...
    15e4:	0001                	nop
    15e6:	005a                	c.slli	zero,0x16
    15e8:	0000                	unimp
    15ea:	0000                	unimp
    15ec:	0000                	unimp
    15ee:	0400                	addi	s0,sp,512
    15f0:	f300                	fsw	fs0,32(a4)
    15f2:	5a01                	li	s4,-32
    15f4:	009f 0000 0000      	0x9f
    15fa:	0000                	unimp
    15fc:	0100                	addi	s0,sp,128
    15fe:	5a00                	lw	s0,48(a2)
	...
    1608:	0001                	nop
    160a:	005d                	c.nop	23
    160c:	0000                	unimp
    160e:	0000                	unimp
    1610:	0000                	unimp
    1612:	0100                	addi	s0,sp,128
    1614:	5a00                	lw	s0,48(a2)
	...
    1626:	0001                	nop
    1628:	0000005b          	0x5b
    162c:	0000                	unimp
    162e:	0000                	unimp
    1630:	0400                	addi	s0,sp,512
    1632:	f300                	fsw	fs0,32(a4)
    1634:	5b01                	li	s6,-32
    1636:	009f 0000 0000      	0x9f
    163c:	0000                	unimp
    163e:	0100                	addi	s0,sp,128
    1640:	5b00                	lw	s0,48(a4)
	...
    164a:	0001                	nop
    164c:	005e                	c.slli	zero,0x17
    164e:	0000                	unimp
    1650:	0000                	unimp
    1652:	0000                	unimp
    1654:	0400                	addi	s0,sp,512
    1656:	f300                	fsw	fs0,32(a4)
    1658:	5b01                	li	s6,-32
    165a:	009f 0000 0000      	0x9f
    1660:	0000                	unimp
    1662:	0100                	addi	s0,sp,128
    1664:	5b00                	lw	s0,48(a4)
	...
    1676:	0001                	nop
    1678:	005c                	addi	a5,sp,4
    167a:	0000                	unimp
    167c:	0000                	unimp
    167e:	0000                	unimp
    1680:	0400                	addi	s0,sp,512
    1682:	f300                	fsw	fs0,32(a4)
    1684:	5c01                	li	s8,-32
    1686:	009f 0000 0000      	0x9f
    168c:	0000                	unimp
    168e:	0100                	addi	s0,sp,128
    1690:	5c00                	lw	s0,56(s0)
	...
    169a:	0004                	0x4
    169c:	9f5c01f3          	0x9f5c01f3
	...
    16a8:	0001                	nop
    16aa:	005f 0000 0000      	0x5f
    16b0:	0000                	unimp
    16b2:	0400                	addi	s0,sp,512
    16b4:	f300                	fsw	fs0,32(a4)
    16b6:	5c01                	li	s8,-32
    16b8:	009f 0000 0000      	0x9f
    16be:	0000                	unimp
    16c0:	0100                	addi	s0,sp,128
    16c2:	5c00                	lw	s0,56(s0)
	...
    16cc:	0001                	nop
    16ce:	005f 0000 0000      	0x5f
	...
    16dc:	0000                	unimp
    16de:	0100                	addi	s0,sp,128
    16e0:	5a00                	lw	s0,48(a2)
	...
    16ea:	0004                	0x4
    16ec:	9f5a01f3          	0x9f5a01f3
	...
    16f8:	0001                	nop
    16fa:	005a                	c.slli	zero,0x16
    16fc:	0000                	unimp
    16fe:	0000                	unimp
    1700:	0000                	unimp
    1702:	0100                	addi	s0,sp,128
    1704:	5d00                	lw	s0,56(a0)
	...
    170e:	0001                	nop
    1710:	005a                	c.slli	zero,0x16
	...
    171e:	0000                	unimp
    1720:	0100                	addi	s0,sp,128
    1722:	5b00                	lw	s0,48(a4)
	...
    172c:	0004                	0x4
    172e:	9f5b01f3          	0x9f5b01f3
	...
    173a:	0001                	nop
    173c:	0000005b          	0x5b
    1740:	0000                	unimp
    1742:	0000                	unimp
    1744:	0100                	addi	s0,sp,128
    1746:	5e00                	lw	s0,56(a2)
	...
    1750:	0004                	0x4
    1752:	9f5b01f3          	0x9f5b01f3
	...
    175e:	0001                	nop
    1760:	0000005b          	0x5b
	...
    1770:	0100                	addi	s0,sp,128
    1772:	5c00                	lw	s0,56(s0)
	...
    177c:	0001                	nop
    177e:	005f 0000 0000      	0x5f
    1784:	0000                	unimp
    1786:	0600                	addi	s0,sp,768
    1788:	7f00                	flw	fs0,56(a4)
    178a:	7c00                	flw	fs0,56(s0)
    178c:	1c00                	addi	s0,sp,560
    178e:	009f 0000 0000      	0x9f
    1794:	0000                	unimp
    1796:	0800                	addi	s0,sp,16
    1798:	7f00                	flw	fs0,56(a4)
    179a:	7c00                	flw	fs0,56(s0)
    179c:	1c00                	addi	s0,sp,560
    179e:	009f0123          	sb	s1,2(t5)
    17a2:	0000                	unimp
    17a4:	0000                	unimp
    17a6:	0000                	unimp
    17a8:	0600                	addi	s0,sp,768
    17aa:	7f00                	flw	fs0,56(a4)
    17ac:	7c00                	flw	fs0,56(s0)
    17ae:	1c00                	addi	s0,sp,560
    17b0:	009f 0000 0000      	0x9f
    17b6:	0000                	unimp
    17b8:	0100                	addi	s0,sp,128
    17ba:	5c00                	lw	s0,56(s0)
	...
    17c4:	0001                	nop
    17c6:	005f 0000 0000      	0x5f
	...
    17d4:	0000                	unimp
    17d6:	0100                	addi	s0,sp,128
    17d8:	5b00                	lw	s0,48(a4)
	...
    17e2:	0001                	nop
    17e4:	005e                	c.slli	zero,0x17
    17e6:	0000                	unimp
    17e8:	0000                	unimp
    17ea:	0000                	unimp
    17ec:	0100                	addi	s0,sp,128
    17ee:	5b00                	lw	s0,48(a4)
	...
    1800:	0001                	nop
    1802:	005a                	c.slli	zero,0x16
    1804:	0000                	unimp
    1806:	0000                	unimp
    1808:	0000                	unimp
    180a:	0100                	addi	s0,sp,128
    180c:	5d00                	lw	s0,56(a0)
	...
    1816:	0001                	nop
    1818:	005a                	c.slli	zero,0x16
	...
    1826:	0000                	unimp
    1828:	0800                	addi	s0,sp,16
    182a:	7d00                	flw	fs0,56(a0)
    182c:	7c00                	flw	fs0,56(s0)
    182e:	2200                	fld	fs0,0(a2)
    1830:	009f0123          	sb	s1,2(t5)
    1834:	0000                	unimp
    1836:	0000                	unimp
    1838:	0000                	unimp
    183a:	0600                	addi	s0,sp,768
    183c:	7d00                	flw	fs0,56(a0)
    183e:	7c00                	flw	fs0,56(s0)
    1840:	2200                	fld	fs0,0(a2)
    1842:	009f 0000 0000      	0x9f
	...
    1850:	0000                	unimp
    1852:	0800                	addi	s0,sp,16
    1854:	7e00                	flw	fs0,56(a2)
    1856:	7c00                	flw	fs0,56(s0)
    1858:	2200                	fld	fs0,0(a2)
    185a:	009f0123          	sb	s1,2(t5)
    185e:	0000                	unimp
    1860:	0000                	unimp
    1862:	0000                	unimp
    1864:	0600                	addi	s0,sp,768
    1866:	7e00                	flw	fs0,56(a2)
    1868:	7c00                	flw	fs0,56(s0)
    186a:	2200                	fld	fs0,0(a2)
    186c:	009f 0000 0000      	0x9f
	...
    187a:	0000                	unimp
    187c:	0100                	addi	s0,sp,128
    187e:	5a00                	lw	s0,48(a2)
	...
    1888:	0004                	0x4
    188a:	9f5a01f3          	0x9f5a01f3
	...
    189e:	0001                	nop
    18a0:	0000005b          	0x5b
    18a4:	0000                	unimp
    18a6:	0000                	unimp
    18a8:	0100                	addi	s0,sp,128
    18aa:	5b00                	lw	s0,48(a4)
	...
    18bc:	0001                	nop
    18be:	005c                	addi	a5,sp,4
    18c0:	0000                	unimp
    18c2:	0000                	unimp
    18c4:	0000                	unimp
    18c6:	0400                	addi	s0,sp,512
    18c8:	f300                	fsw	fs0,32(a4)
    18ca:	5c01                	li	s8,-32
    18cc:	009f 0000 0000      	0x9f
	...
    18da:	0000                	unimp
    18dc:	0100                	addi	s0,sp,128
    18de:	5a00                	lw	s0,48(a2)
	...
    18f0:	0001                	nop
    18f2:	005a                	c.slli	zero,0x16
    18f4:	0000                	unimp
    18f6:	0000                	unimp
    18f8:	0000                	unimp
    18fa:	0100                	addi	s0,sp,128
    18fc:	5900                	lw	s0,48(a0)
	...
    1906:	0004                	0x4
    1908:	9f5a01f3          	0x9f5a01f3
	...
    191c:	0001                	nop
    191e:	0000005b          	0x5b
    1922:	0000                	unimp
    1924:	0000                	unimp
    1926:	0100                	addi	s0,sp,128
    1928:	5800                	lw	s0,48(s0)
	...
    1932:	0004                	0x4
    1934:	9f5b01f3          	0x9f5b01f3
	...
    1948:	0001                	nop
    194a:	005a                	c.slli	zero,0x16
	...
    1958:	0000                	unimp
    195a:	0100                	addi	s0,sp,128
    195c:	5a00                	lw	s0,48(a2)
	...
    1966:	b8910003          	lb	zero,-1143(sp)
    196a:	00000077          	0x77
    196e:	0000                	unimp
    1970:	0000                	unimp
    1972:	0300                	addi	s0,sp,384
    1974:	9100                	0x9100
    1976:	77b8                	flw	fa4,104(a5)
	...
    1980:	0004                	0x4
    1982:	9f5a01f3          	0x9f5a01f3
	...
    198e:	0001                	nop
    1990:	0058                	addi	a4,sp,4
    1992:	0000                	unimp
    1994:	0000                	unimp
    1996:	0000                	unimp
    1998:	0300                	addi	s0,sp,384
    199a:	9100                	0x9100
    199c:	77b8                	flw	fa4,104(a5)
	...
    19a6:	0001                	nop
    19a8:	0058                	addi	a4,sp,4
    19aa:	0000                	unimp
    19ac:	0000                	unimp
    19ae:	0000                	unimp
    19b0:	0100                	addi	s0,sp,128
    19b2:	5700                	lw	s0,40(a4)
	...
    19bc:	0001                	nop
    19be:	0058                	addi	a4,sp,4
	...
    19cc:	0000                	unimp
    19ce:	0100                	addi	s0,sp,128
    19d0:	5b00                	lw	s0,48(a4)
	...
    19da:	0002                	c.slli64	zero
    19dc:	0072                	c.slli	zero,0x1c
	...
    19e6:	0004                	0x4
    19e8:	9f5b01f3          	0x9f5b01f3
	...
    19f4:	0002                	c.slli64	zero
    19f6:	0072                	c.slli	zero,0x1c
	...
    1a00:	0004                	0x4
    1a02:	9f5b01f3          	0x9f5b01f3
	...
    1a0e:	0002                	c.slli64	zero
    1a10:	0072                	c.slli	zero,0x1c
	...
    1a1a:	0004                	0x4
    1a1c:	9f5b01f3          	0x9f5b01f3
	...
    1a30:	0001                	nop
    1a32:	0056                	c.slli	zero,0x15
    1a34:	0000                	unimp
    1a36:	0000                	unimp
    1a38:	0000                	unimp
    1a3a:	0300                	addi	s0,sp,384
    1a3c:	9100                	0x9100
    1a3e:	77c0                	flw	fs0,44(a5)
	...
    1a48:	0001                	nop
    1a4a:	005a                	c.slli	zero,0x16
    1a4c:	0000                	unimp
    1a4e:	0000                	unimp
    1a50:	0000                	unimp
    1a52:	0100                	addi	s0,sp,128
    1a54:	5600                	lw	s0,40(a2)
	...
    1a5e:	0001                	nop
    1a60:	0056                	c.slli	zero,0x15
	...
    1a6e:	0000                	unimp
    1a70:	0200                	addi	s0,sp,256
    1a72:	3000                	fld	fs0,32(s0)
    1a74:	009f 0000 0000      	0x9f
    1a7a:	0000                	unimp
    1a7c:	0100                	addi	s0,sp,128
    1a7e:	5900                	lw	s0,48(a0)
	...
    1a88:	0001                	nop
    1a8a:	0059                	c.nop	22
    1a8c:	0000                	unimp
    1a8e:	0000                	unimp
    1a90:	0000                	unimp
    1a92:	0300                	addi	s0,sp,384
    1a94:	7900                	flw	fs0,48(a0)
    1a96:	9f7f                	0x9f7f
	...
    1aa0:	0001                	nop
    1aa2:	0059                	c.nop	22
	...
    1ab0:	0000                	unimp
    1ab2:	0100                	addi	s0,sp,128
    1ab4:	5b00                	lw	s0,48(a4)
	...
    1abe:	0001                	nop
    1ac0:	005d                	c.nop	23
    1ac2:	0000                	unimp
    1ac4:	0000                	unimp
    1ac6:	0000                	unimp
    1ac8:	0300                	addi	s0,sp,384
    1aca:	7c00                	flw	fs0,56(s0)
    1acc:	9f7f                	0x9f7f
	...
    1ad6:	0001                	nop
    1ad8:	0000005b          	0x5b
    1adc:	0000                	unimp
    1ade:	0000                	unimp
    1ae0:	0100                	addi	s0,sp,128
    1ae2:	5500                	lw	s0,40(a0)
	...
    1aec:	0001                	nop
    1aee:	005d                	c.nop	23
    1af0:	0000                	unimp
    1af2:	0000                	unimp
    1af4:	0000                	unimp
    1af6:	0100                	addi	s0,sp,128
    1af8:	5800                	lw	s0,48(s0)
	...
    1b0a:	0001                	nop
    1b0c:	0055                	c.nop	21
    1b0e:	0000                	unimp
    1b10:	0000                	unimp
    1b12:	0000                	unimp
    1b14:	0100                	addi	s0,sp,128
    1b16:	5500                	lw	s0,40(a0)
	...
    1b20:	0001                	nop
    1b22:	0055                	c.nop	21
    1b24:	0000                	unimp
    1b26:	0000                	unimp
    1b28:	0000                	unimp
    1b2a:	0100                	addi	s0,sp,128
    1b2c:	5800                	lw	s0,48(s0)
	...
    1b36:	0001                	nop
    1b38:	0055                	c.nop	21
    1b3a:	0000                	unimp
    1b3c:	0000                	unimp
    1b3e:	0000                	unimp
    1b40:	0100                	addi	s0,sp,128
    1b42:	5c00                	lw	s0,56(s0)
	...
    1b4c:	0001                	nop
    1b4e:	0058                	addi	a4,sp,4
    1b50:	0000                	unimp
    1b52:	0000                	unimp
    1b54:	0000                	unimp
    1b56:	0100                	addi	s0,sp,128
    1b58:	5800                	lw	s0,48(s0)
	...
    1b62:	0001                	nop
    1b64:	0058                	addi	a4,sp,4
    1b66:	0000                	unimp
    1b68:	0000                	unimp
    1b6a:	0000                	unimp
    1b6c:	0100                	addi	s0,sp,128
    1b6e:	5700                	lw	s0,40(a4)
	...
    1b80:	0001                	nop
    1b82:	005f 0000 0000      	0x5f
    1b88:	0000                	unimp
    1b8a:	0100                	addi	s0,sp,128
    1b8c:	5f00                	lw	s0,56(a4)
	...
    1b96:	0001                	nop
    1b98:	005f 0000 0000      	0x5f
    1b9e:	0000                	unimp
    1ba0:	0100                	addi	s0,sp,128
    1ba2:	5c00                	lw	s0,56(s0)
	...
    1bac:	0001                	nop
    1bae:	005c                	addi	a5,sp,4
    1bb0:	0000                	unimp
    1bb2:	0000                	unimp
    1bb4:	0000                	unimp
    1bb6:	1600                	addi	s0,sp,800
    1bb8:	7500                	flw	fs0,40(a0)
    1bba:	1200                	addi	s0,sp,288
    1bbc:	4b40                	lw	s0,20(a4)
    1bbe:	2224                	fld	fs1,64(a2)
    1bc0:	007c                	addi	a5,sp,12
    1bc2:	1416                	slli	s0,s0,0x25
    1bc4:	4b40                	lw	s0,20(a4)
    1bc6:	2224                	fld	fs1,64(a2)
    1bc8:	0001282b          	0x1282b
    1bcc:	1316                	slli	t1,t1,0x25
    1bce:	009f 0000 0000      	0x9f
    1bd4:	0000                	unimp
    1bd6:	0100                	addi	s0,sp,128
    1bd8:	5f00                	lw	s0,56(a4)
	...
    1be2:	0002                	c.slli64	zero
    1be4:	9f31                	0x9f31
	...
    1bee:	0001                	nop
    1bf0:	005c                	addi	a5,sp,4
    1bf2:	0000                	unimp
    1bf4:	0000                	unimp
    1bf6:	0000                	unimp
    1bf8:	0100                	addi	s0,sp,128
    1bfa:	5c00                	lw	s0,56(s0)
	...
    1c04:	0001                	nop
    1c06:	005c                	addi	a5,sp,4
    1c08:	0000                	unimp
    1c0a:	0000                	unimp
    1c0c:	0000                	unimp
    1c0e:	0200                	addi	s0,sp,256
    1c10:	3100                	fld	fs0,32(a0)
    1c12:	009f 0000 0000      	0x9f
    1c18:	0000                	unimp
    1c1a:	0100                	addi	s0,sp,128
    1c1c:	5c00                	lw	s0,56(s0)
	...
    1c26:	0001                	nop
    1c28:	0000005b          	0x5b
    1c2c:	0000                	unimp
    1c2e:	0000                	unimp
    1c30:	0100                	addi	s0,sp,128
    1c32:	5b00                	lw	s0,48(a4)
	...
    1c3c:	0001                	nop
    1c3e:	005c                	addi	a5,sp,4
    1c40:	0000                	unimp
    1c42:	0000                	unimp
    1c44:	0000                	unimp
    1c46:	0300                	addi	s0,sp,384
    1c48:	7c00                	flw	fs0,56(s0)
    1c4a:	9f01                	0x9f01
	...
    1c5c:	0001                	nop
    1c5e:	005a                	c.slli	zero,0x16
    1c60:	0000                	unimp
    1c62:	0000                	unimp
    1c64:	0000                	unimp
    1c66:	0100                	addi	s0,sp,128
    1c68:	5a00                	lw	s0,48(a2)
	...
    1c72:	0001                	nop
    1c74:	005a                	c.slli	zero,0x16
    1c76:	0000                	unimp
    1c78:	0000                	unimp
    1c7a:	0000                	unimp
    1c7c:	0100                	addi	s0,sp,128
    1c7e:	5f00                	lw	s0,56(a4)
	...
    1c88:	0001                	nop
    1c8a:	005f 0000 0000      	0x5f
    1c90:	0000                	unimp
    1c92:	0300                	addi	s0,sp,384
    1c94:	9100                	0x9100
    1c96:	77b8                	flw	fa4,104(a5)
	...
    1ca0:	0001                	nop
    1ca2:	005f 0000 0000      	0x5f
    1ca8:	0000                	unimp
    1caa:	0100                	addi	s0,sp,128
    1cac:	5f00                	lw	s0,56(a4)
	...
    1cb6:	c4910003          	lb	zero,-951(sp)
    1cba:	00000077          	0x77
    1cbe:	0000                	unimp
    1cc0:	0000                	unimp
    1cc2:	0100                	addi	s0,sp,128
    1cc4:	5f00                	lw	s0,56(a4)
	...
    1cce:	0001                	nop
    1cd0:	005a                	c.slli	zero,0x16
    1cd2:	0000                	unimp
    1cd4:	0000                	unimp
    1cd6:	0000                	unimp
    1cd8:	0200                	addi	s0,sp,256
    1cda:	3100                	fld	fs0,32(a0)
    1cdc:	009f 0000 0000      	0x9f
    1ce2:	0000                	unimp
    1ce4:	0100                	addi	s0,sp,128
    1ce6:	5f00                	lw	s0,56(a4)
	...
    1cf0:	0001                	nop
    1cf2:	005f 0000 0000      	0x5f
    1cf8:	0000                	unimp
    1cfa:	0100                	addi	s0,sp,128
    1cfc:	5f00                	lw	s0,56(a4)
	...
    1d06:	0002                	c.slli64	zero
    1d08:	9f31                	0x9f31
	...
    1d12:	0001                	nop
    1d14:	005f 0000 0000      	0x5f
	...
    1d22:	0000                	unimp
    1d24:	0100                	addi	s0,sp,128
    1d26:	5d00                	lw	s0,56(a0)
	...
    1d30:	c0910003          	lb	zero,-1015(sp)
    1d34:	00000077          	0x77
    1d38:	0000                	unimp
    1d3a:	0000                	unimp
    1d3c:	0100                	addi	s0,sp,128
    1d3e:	5d00                	lw	s0,56(a0)
	...
    1d48:	c8910003          	lb	zero,-887(sp)
    1d4c:	00000077          	0x77
    1d50:	0000                	unimp
    1d52:	0000                	unimp
    1d54:	0100                	addi	s0,sp,128
    1d56:	5d00                	lw	s0,56(a0)
	...
    1d60:	0001                	nop
    1d62:	005d                	c.nop	23
	...
    1d70:	0000                	unimp
    1d72:	0200                	addi	s0,sp,256
    1d74:	3000                	fld	fs0,32(s0)
    1d76:	009f 0000 0000      	0x9f
    1d7c:	0000                	unimp
    1d7e:	0100                	addi	s0,sp,128
    1d80:	5500                	lw	s0,40(a0)
	...
    1d8a:	cc910003          	lb	zero,-823(sp)
    1d8e:	00000077          	0x77
    1d92:	0000                	unimp
    1d94:	0000                	unimp
    1d96:	0100                	addi	s0,sp,128
    1d98:	5500                	lw	s0,40(a0)
	...
    1da2:	0002                	c.slli64	zero
    1da4:	9f30                	0x9f30
	...
    1dae:	0001                	nop
    1db0:	0055                	c.nop	21
    1db2:	0000                	unimp
    1db4:	0000                	unimp
    1db6:	0000                	unimp
    1db8:	0200                	addi	s0,sp,256
    1dba:	3000                	fld	fs0,32(s0)
    1dbc:	009f 0000 0000      	0x9f
    1dc2:	0000                	unimp
    1dc4:	0100                	addi	s0,sp,128
    1dc6:	5500                	lw	s0,40(a0)
	...
    1dd0:	0002                	c.slli64	zero
    1dd2:	9f30                	0x9f30
	...
    1ddc:	0001                	nop
    1dde:	0055                	c.nop	21
	...
    1dec:	0000                	unimp
    1dee:	0200                	addi	s0,sp,256
    1df0:	3000                	fld	fs0,32(s0)
    1df2:	009f 0000 0000      	0x9f
	...
    1e00:	0000                	unimp
    1e02:	0100                	addi	s0,sp,128
    1e04:	5c00                	lw	s0,56(s0)
	...
    1e0e:	bc910003          	lb	zero,-1079(sp)
    1e12:	00000077          	0x77
    1e16:	0000                	unimp
    1e18:	0000                	unimp
    1e1a:	0300                	addi	s0,sp,384
    1e1c:	9100                	0x9100
    1e1e:	77bc                	flw	fa5,104(a5)
	...
    1e30:	0001                	nop
    1e32:	005a                	c.slli	zero,0x16
    1e34:	0000                	unimp
    1e36:	0000                	unimp
    1e38:	0000                	unimp
    1e3a:	0100                	addi	s0,sp,128
    1e3c:	5a00                	lw	s0,48(a2)
	...
    1e4e:	0001                	nop
    1e50:	005a                	c.slli	zero,0x16
    1e52:	0000                	unimp
    1e54:	0000                	unimp
    1e56:	0000                	unimp
    1e58:	0400                	addi	s0,sp,512
    1e5a:	f300                	fsw	fs0,32(a4)
    1e5c:	5a01                	li	s4,-32
    1e5e:	009f 0000 0000      	0x9f
    1e64:	0000                	unimp
    1e66:	0100                	addi	s0,sp,128
    1e68:	5a00                	lw	s0,48(a2)
	...
    1e72:	0001                	nop
    1e74:	005a                	c.slli	zero,0x16
	...
    1e82:	0000                	unimp
    1e84:	0100                	addi	s0,sp,128
    1e86:	5b00                	lw	s0,48(a4)
	...
    1e90:	0001                	nop
    1e92:	0058                	addi	a4,sp,4
    1e94:	0000                	unimp
    1e96:	0000                	unimp
    1e98:	0000                	unimp
    1e9a:	0100                	addi	s0,sp,128
    1e9c:	5b00                	lw	s0,48(a4)
	...
    1ea6:	0004                	0x4
    1ea8:	9f5b01f3          	0x9f5b01f3
	...
    1eb4:	0001                	nop
    1eb6:	0058                	addi	a4,sp,4
    1eb8:	0000                	unimp
    1eba:	0000                	unimp
    1ebc:	0000                	unimp
    1ebe:	0400                	addi	s0,sp,512
    1ec0:	f300                	fsw	fs0,32(a4)
    1ec2:	5b01                	li	s6,-32
    1ec4:	009f 0000 0000      	0x9f
	...
    1ed2:	0000                	unimp
    1ed4:	0100                	addi	s0,sp,128
    1ed6:	5800                	lw	s0,48(s0)
	...
    1ee8:	0001                	nop
    1eea:	005a                	c.slli	zero,0x16
    1eec:	0000                	unimp
    1eee:	0000                	unimp
    1ef0:	0000                	unimp
    1ef2:	0100                	addi	s0,sp,128
    1ef4:	5f00                	lw	s0,56(a4)
	...
    1efe:	017f0003          	lb	zero,23(t5)
    1f02:	009f 0000 0000      	0x9f
    1f08:	0000                	unimp
    1f0a:	0100                	addi	s0,sp,128
    1f0c:	5f00                	lw	s0,56(a4)
	...
    1f1e:	0019                	c.nop	6
    1f20:	0078                	addi	a4,sp,12
    1f22:	0294                	addi	a3,sp,320
    1f24:	1438                	addi	a4,sp,552
    1f26:	1f14                	addi	a3,sp,944
    1f28:	0a241023          	sh	sp,160(s0) # 30035a6 <wiring.c.7604182b+0x3001117>
    1f2c:	ffff                	0xffff
    1f2e:	171a                	slli	a4,a4,0x26
    1f30:	0a16                	slli	s4,s4,0x5
    1f32:	ffff                	0xffff
    1f34:	161a                	slli	a2,a2,0x26
    1f36:	2125                	jal	235e <main.c.6f2e4722+0x5a5>
    1f38:	009f 0000 0000      	0x9f
	...
    1f46:	0000                	unimp
    1f48:	0100                	addi	s0,sp,128
    1f4a:	5e00                	lw	s0,56(a2)
	...
    1f54:	0001                	nop
    1f56:	005e                	c.slli	zero,0x17
	...
    1f64:	0000                	unimp
    1f66:	0100                	addi	s0,sp,128
    1f68:	5800                	lw	s0,48(s0)
	...
    1f7a:	0001                	nop
    1f7c:	005a                	c.slli	zero,0x16
    1f7e:	0000                	unimp
    1f80:	0000                	unimp
    1f82:	0000                	unimp
    1f84:	0100                	addi	s0,sp,128
    1f86:	5f00                	lw	s0,56(a4)
	...
    1f90:	027f0003          	lb	zero,39(t5)
    1f94:	009f 0000 0000      	0x9f
    1f9a:	0000                	unimp
    1f9c:	0100                	addi	s0,sp,128
    1f9e:	5f00                	lw	s0,56(a4)
	...
    1fb0:	0001                	nop
    1fb2:	005c                	addi	a5,sp,4
	...
    1fc0:	0000                	unimp
    1fc2:	0100                	addi	s0,sp,128
    1fc4:	5e00                	lw	s0,56(a2)
	...
    1fce:	0001                	nop
    1fd0:	005e                	c.slli	zero,0x17
	...
    1fde:	0000                	unimp
    1fe0:	0100                	addi	s0,sp,128
    1fe2:	5800                	lw	s0,48(s0)
	...
    1fec:	0001                	nop
    1fee:	0058                	addi	a4,sp,4
	...
    1ffc:	0000                	unimp
    1ffe:	0100                	addi	s0,sp,128
    2000:	5a00                	lw	s0,48(a2)
	...
    200a:	0001                	nop
    200c:	005f 0000 0000      	0x5f
    2012:	0000                	unimp
    2014:	0100                	addi	s0,sp,128
    2016:	5f00                	lw	s0,56(a4)
	...
    2028:	0001                	nop
    202a:	005d                	c.nop	23
    202c:	0000                	unimp
    202e:	0000                	unimp
    2030:	0000                	unimp
    2032:	0100                	addi	s0,sp,128
    2034:	5d00                	lw	s0,56(a0)
	...
    2046:	0001                	nop
    2048:	005e                	c.slli	zero,0x17
    204a:	0000                	unimp
    204c:	0000                	unimp
    204e:	0000                	unimp
    2050:	0100                	addi	s0,sp,128
    2052:	5e00                	lw	s0,56(a2)
	...
    205c:	0001                	nop
    205e:	005e                	c.slli	zero,0x17
	...
    206c:	0000                	unimp
    206e:	0100                	addi	s0,sp,128
    2070:	5a00                	lw	s0,48(a2)
	...
    207a:	0001                	nop
    207c:	0059                	c.nop	22
    207e:	0000                	unimp
    2080:	0000                	unimp
    2082:	0000                	unimp
    2084:	0400                	addi	s0,sp,512
    2086:	f300                	fsw	fs0,32(a4)
    2088:	5a01                	li	s4,-32
    208a:	009f 0000 0000      	0x9f
	...
    2098:	0000                	unimp
    209a:	0100                	addi	s0,sp,128
    209c:	5800                	lw	s0,48(s0)
	...
    20a6:	7f7a0003          	lb	zero,2039(s4)
    20aa:	009f 0000 0000      	0x9f
	...
    20b8:	0000                	unimp
    20ba:	0100                	addi	s0,sp,128
    20bc:	5a00                	lw	s0,48(a2)
	...
    20c6:	0004                	0x4
    20c8:	9f5a01f3          	0x9f5a01f3
	...

Disassembly of section .debug_aranges:

00000000 <.debug_aranges>:
	asm volatile( "\n\
   0:	0104                	addi	s1,sp,128
   2:	0000                	unimp
   4:	0002                	c.slli64	zero
   6:	0000                	unimp
   8:	0000                	unimp
   a:	0004                	0x4
	...
  28:	00a0                	addi	s0,sp,72
  2a:	0000                	unimp
  2c:	0050                	addi	a2,sp,4
  2e:	0000                	unimp
  30:	00f0                	addi	a2,sp,76
  32:	0000                	unimp
  34:	0090                	addi	a2,sp,64
	...
  46:	0000                	unimp
  48:	0180                	addi	s0,sp,192
  4a:	0000                	unimp
  4c:	00ec                	addi	a1,sp,76
  4e:	0000                	unimp
  50:	026c                	addi	a1,sp,268
  52:	0000                	unimp
  54:	0072                	c.slli	zero,0x1c
  56:	0000                	unimp
  58:	02de                	slli	t0,t0,0x17
  5a:	0000                	unimp
  5c:	0002                	c.slli64	zero
	...
		GPIOx = GPIOD;
  ea:	0000                	unimp
		GPIOx-> BSHR |= 1 << (16 + PinOffset);
  ec:	009c                	addi	a5,sp,64
	...
		PinOffset *= (pin + 1);
  f6:	0000                	unimp
  f8:	02e0                	addi	s0,sp,332
  fa:	0000                	unimp
  fc:	0298                	addi	a4,sp,320
	...

Disassembly of section .debug_ranges:

00000000 <.debug_ranges>:
   0:	0001                	nop
   2:	0000                	unimp
   4:	0001                	nop
   6:	0000                	unimp
   8:	0001                	nop
   a:	0000                	unimp
   c:	0001                	nop
   e:	0000                	unimp
  10:	0001                	nop
  12:	0000                	unimp
  14:	0001                	nop
  16:	0000                	unimp
  18:	0001                	nop
  1a:	0000                	unimp
  1c:	0001                	nop
	...
  26:	0000                	unimp
  28:	0001                	nop
  2a:	0000                	unimp
  2c:	0001                	nop
  2e:	0000                	unimp
  30:	0001                	nop
  32:	0000                	unimp
  34:	0001                	nop
	...
  3e:	0000                	unimp
  40:	0001                	nop
  42:	0000                	unimp
  44:	0001                	nop
  46:	0000                	unimp
  48:	0001                	nop
  4a:	0000                	unimp
  4c:	0001                	nop
	...
  56:	0000                	unimp
  58:	0180                	addi	s0,sp,192
  5a:	0000                	unimp
  5c:	0180                	addi	s0,sp,192
  5e:	0000                	unimp
  60:	0186                	slli	gp,gp,0x1
  62:	0000                	unimp
  64:	01cc                	addi	a1,sp,196
	...
  6e:	0000                	unimp
  70:	01f0                	addi	a2,sp,204
  72:	0000                	unimp
  74:	01f2                	slli	gp,gp,0x1c
  76:	0000                	unimp
  78:	01f6                	slli	gp,gp,0x1d
  7a:	0000                	unimp
  7c:	01fc                	addi	a5,sp,204
	...
  86:	0000                	unimp
  88:	0218                	addi	a4,sp,256
  8a:	0000                	unimp
  8c:	0224                	addi	s1,sp,264
  8e:	0000                	unimp
  90:	0224                	addi	s1,sp,264
  92:	0000                	unimp
  94:	0224                	addi	s1,sp,264
  96:	0000                	unimp
  98:	0224                	addi	s1,sp,264
  9a:	0000                	unimp
  9c:	023a                	slli	tp,tp,0xe
  9e:	0000                	unimp
	if (pin <= pin_A2) {
  a0:	023c                	addi	a5,sp,264
  a2:	0000                	unimp
  a4:	026a                	slli	tp,tp,0x1a
	...
		PinOffset = (pin + 1);
  ae:	0000                	unimp
		GPIOx = GPIOA;
  b0:	0222                	slli	tp,tp,0x8
  b2:	0000                	unimp
		GPIOx-> BSHR |= 1 << PinOffset;
  b4:	0224                	addi	s1,sp,264
	if (value) {
  b6:	0000                	unimp
		GPIOx-> BSHR |= 1 << (16 + PinOffset);
  b8:	0240                	addi	s0,sp,260
  ba:	0000                	unimp
  bc:	0266                	slli	tp,tp,0x19
	...
	else if (pin <= pin_C7) {
  c6:	0000                	unimp
  c8:	0001                	nop
		PinOffset = (pin - 2);
  ca:	0000                	unimp
  cc:	0001                	nop
  ce:	0000                	unimp
		GPIOx = GPIOC;
  d0:	0001                	nop
  d2:	0000                	unimp
  d4:	0001                	nop
	...
		PinOffset = (pin - 10);
  de:	0000                	unimp
		GPIOx = GPIOD;
  e0:	0001                	nop
  e2:	0000                	unimp
		PinOffset = (pin - 10);
  e4:	0001                	nop
		GPIOx = GPIOD;
  e6:	0000                	unimp
  e8:	0001                	nop
  ea:	0000                	unimp
		GPIOx-> BSHR |= 1 << (16 + PinOffset);
  ec:	0001                	nop
  ee:	0000                	unimp
	if (pin <= pin_A2) {
  f0:	0001                	nop
  f2:	0000                	unimp
  f4:	0001                	nop
		PinOffset *= (pin + 1);
  f6:	0000                	unimp
  f8:	0001                	nop
  fa:	0000                	unimp
  fc:	0001                	nop
		GPIOx = GPIOA;
  fe:	0000                	unimp
 100:	0001                	nop
		PinOffset *= (pin + 1);
 102:	0000                	unimp
		GPIOx = GPIOA;
 104:	0001                	nop
 106:	0000                	unimp
	GPIOx->CFGLR &= ~(0b1111<<PinOffset);							// zero the 4 configuration bits
 108:	0001                	nop
 10a:	0000                	unimp
 10c:	0001                	nop
 10e:	0000                	unimp
 110:	0001                	nop
 112:	0000                	unimp
 114:	0001                	nop
	...
	switch (mode) {
 11e:	0000                	unimp
 120:	0001                	nop
 122:	0000                	unimp
 124:	0001                	nop
	GPIOx->CFGLR |= modeMask<<PinOffset;
 126:	0000                	unimp
 128:	0001                	nop
 12a:	0000                	unimp
 12c:	0001                	nop
 12e:	0000                	unimp
 130:	0001                	nop
 132:	0000                	unimp
 134:	0001                	nop
 136:	0000                	unimp
 138:	0001                	nop
 13a:	0000                	unimp
 13c:	0001                	nop
 13e:	0000                	unimp
 140:	0001                	nop
	if (target_pin_state > pinState_nochange) {
 142:	0000                	unimp
		digitalWrite(pin, target_pin_state - 1);
 144:	0001                	nop
	...
	else if (pin <= pin_C7) {
 14e:	0000                	unimp
 150:	0001                	nop
 152:	0000                	unimp
		PinOffset *= (pin - 2);
 154:	0001                	nop
 156:	0000                	unimp
 158:	0001                	nop
 15a:	0000                	unimp
 15c:	0001                	nop
	...
	else if (pin <= pin_D7) {
 166:	0000                	unimp
 168:	0001                	nop
		PinOffset *= (pin - 10);
 16a:	0000                	unimp
 16c:	0001                	nop
 16e:	0000                	unimp
 170:	0001                	nop
		GPIOx = GPIOD;
 172:	0000                	unimp
 174:	0001                	nop
		PinOffset *= (pin - 10);
 176:	0000                	unimp
		GPIOx = GPIOD;
 178:	0001                	nop
 17a:	0000                	unimp
 17c:	0001                	nop
	...
	RCC->CFGR0 = RCC_HPRE_DIV1 | RCC_PLLSRC_HSI_Mul2;      // PLLCLK = HSI * 2 = 48 MHz; HCLK = SYSCLK = APB1
 186:	0000                	unimp
 188:	0001                	nop
	RCC->CTLR  = RCC_HSION | RCC_PLLON | ((HSITRIM) << 3); // Use HSI, but enable PLL.
 18a:	0000                	unimp
 18c:	0001                	nop
	RCC->CFGR0 = RCC_HPRE_DIV1 | RCC_PLLSRC_HSI_Mul2;      // PLLCLK = HSI * 2 = 48 MHz; HCLK = SYSCLK = APB1
 18e:	0000                	unimp
 190:	0001                	nop
	RCC->CTLR  = RCC_HSION | RCC_PLLON | ((HSITRIM) << 3); // Use HSI, but enable PLL.
 192:	0000                	unimp
 194:	0001                	nop
	...
	FLASH->ACTLR = FLASH_ACTLR_LATENCY_1;                  // 1 Cycle Latency
 19e:	0000                	unimp
	RCC->INTR  = 0x009F0000;                               // Clear PLL, CSSC, HSE, HSI and LSI ready flags.
 1a0:	0001                	nop
 1a2:	0000                	unimp
 1a4:	0001                	nop
	while((RCC->CTLR & RCC_PLLRDY) == 0);                                      // Wait till PLL is ready
 1a6:	0000                	unimp
 1a8:	0001                	nop
 1aa:	0000                	unimp
 1ac:	0001                	nop
	...
	while ((RCC->CFGR0 & (uint32_t)RCC_SWS) != (uint32_t)0x08);                // Wait till PLL is used as system clock source
 1b6:	0000                	unimp
	RCC->CFGR0 = ( RCC->CFGR0 & ((uint32_t)~(RCC_SW))) | (uint32_t)RCC_SW_PLL; // Select PLL as system clock source
 1b8:	0001                	nop
 1ba:	0000                	unimp
 1bc:	0001                	nop
 1be:	0000                	unimp
	while ((RCC->CFGR0 & (uint32_t)RCC_SWS) != (uint32_t)0x08);                // Wait till PLL is used as system clock source
 1c0:	0001                	nop
 1c2:	0000                	unimp
 1c4:	0001                	nop
 1c6:	0000                	unimp
 1c8:	0001                	nop
 1ca:	0000                	unimp
	SysTick->CTLR = 0;
 1cc:	0001                	nop
 1ce:	0000                	unimp
 1d0:	0001                	nop
 1d2:	0000                	unimp
 1d4:	0001                	nop
	...
	SysTick->CMP = (SYSTEM_CORE_CLOCK/SYSTICKHZ)-1;
 1de:	0000                	unimp
 1e0:	0001                	nop
 1e2:	0000                	unimp
	SysTick->CNT = 0;
 1e4:	0001                	nop
 1e6:	0000                	unimp
	systick_cnt = 0;
 1e8:	0001                	nop
 1ea:	0000                	unimp
	SysTick->CTLR = SYSTICK_CTLR_STE | SYSTICK_CTLR_STIE |
 1ec:	0001                	nop
	...
			RCC->APB2PCENR |= RCC_APB2Periph_GPIOA;
 1f6:	0000                	unimp
 1f8:	0001                	nop
 1fa:	0000                	unimp
			RCC->APB2PCENR |= RCC_APB2Periph_GPIOC;
 1fc:	0001                	nop
 1fe:	0000                	unimp
 200:	0001                	nop
 202:	0000                	unimp
	pinMode(pin_A1, pinMode_I_floating);
 204:	0001                	nop
	pinMode(pin_A2, pinMode_I_floating);
 206:	0000                	unimp
 208:	0001                	nop
 20a:	0000                	unimp
	pinMode(pin_C1, pinMode_I_floating);
 20c:	0001                	nop
 20e:	0000                	unimp
 210:	00a0                	addi	s0,sp,72
	pinMode(pin_C2, pinMode_I_floating);
 212:	0000                	unimp
 214:	00f0                	addi	a2,sp,76
 216:	0000                	unimp
		int temp=LEDs[0].brightness;
 218:	00f0                	addi	a2,sp,76
 21a:	0000                	unimp
 21c:	0180                	addi	s0,sp,192
 21e:	0000                	unimp
 220:	0001                	nop
		for(int i=1; i<12; i++){
 222:	0000                	unimp
	uint32_t end = systick_cnt + n; 
 224:	0001                	nop
 226:	0000                	unimp
 228:	0001                	nop
 22a:	0000                	unimp
	while( ((int32_t)(systick_cnt - end )) < 0 );
 22c:	0001                	nop
 22e:	0000                	unimp
 230:	0180                	addi	s0,sp,192
 232:	0000                	unimp
 234:	026c                	addi	a1,sp,268
		int temp=LEDs[0].brightness;
 236:	0000                	unimp
 238:	026c                	addi	a1,sp,268
		for(int i=1; i<12; i++){
 23a:	0000                	unimp
		int temp=LEDs[0].brightness;
 23c:	02de                	slli	t0,t0,0x17
 23e:	0000                	unimp
			LEDs[i-1].brightness=LEDs[i].brightness;
 240:	02de                	slli	t0,t0,0x17
 242:	0000                	unimp
 244:	02e0                	addi	s0,sp,332
 246:	0000                	unimp
 248:	0001                	nop
 24a:	0000                	unimp
 24c:	0001                	nop
 24e:	0000                	unimp
 250:	0001                	nop
 252:	0000                	unimp
 254:	0001                	nop
 256:	0000                	unimp
 258:	0001                	nop
 25a:	0000                	unimp
 25c:	0001                	nop
 25e:	0000                	unimp
		for(int i=1; i<12; i++){
 260:	0001                	nop
 262:	0000                	unimp
 264:	0001                	nop
		LEDs[11].brightness=temp;
 266:	0000                	unimp
 268:	0001                	nop
	while(1){
 26a:	0000                	unimp
	asm volatile( "\n\
 26c:	0001                	nop
 26e:	0000                	unimp
 270:	0001                	nop
 272:	0000                	unimp
 274:	0001                	nop
 276:	0000                	unimp
 278:	0001                	nop
 27a:	0000                	unimp
 27c:	0001                	nop
 27e:	0000                	unimp
 280:	0001                	nop
 282:	0000                	unimp
 284:	0001                	nop
 286:	0000                	unimp
 288:	0001                	nop
 28a:	0000                	unimp
 28c:	0001                	nop
 28e:	0000                	unimp
 290:	0001                	nop
 292:	0000                	unimp
asm volatile(
 294:	0001                	nop
 296:	0000                	unimp
 298:	0001                	nop
 29a:	0000                	unimp
 29c:	0001                	nop
 29e:	0000                	unimp
 2a0:	0001                	nop
 2a2:	0000                	unimp
 2a4:	0001                	nop
 2a6:	0000                	unimp
 2a8:	0001                	nop
 2aa:	0000                	unimp
 2ac:	0001                	nop
 2ae:	0000                	unimp
 2b0:	0001                	nop
 2b2:	0000                	unimp
 2b4:	0001                	nop
 2b6:	0000                	unimp
 2b8:	0001                	nop
 2ba:	0000                	unimp
 2bc:	0001                	nop
 2be:	0000                	unimp
 2c0:	0001                	nop
 2c2:	0000                	unimp
 2c4:	0001                	nop
 2c6:	0000                	unimp
 2c8:	0001                	nop
	SETUP_SYSTICK_HCLK
 2ca:	0000                	unimp
 2cc:	0001                	nop
 2ce:	0000                	unimp
 2d0:	0000                	unimp
asm volatile(
 2d2:	0000                	unimp
 2d4:	009c                	addi	a5,sp,64
 2d6:	0000                	unimp
 2d8:	0001                	nop
 2da:	0000                	unimp
 2dc:	0001                	nop
	asm volatile( "1: j 1b" );
 2de:	0000                	unimp
{
 2e0:	02e0                	addi	s0,sp,332
 2e2:	0000                	unimp
 2e4:	0578                	addi	a4,sp,652
	...

Disassembly of section .debug_line:

00000000 <.debug_line>:
	asm volatile( "\n\
       0:	2340                	fld	fs0,128(a4)
       2:	0000                	unimp
       4:	00650003          	lb	zero,6(a0) # 281b <wiring.c.7604182b+0x38c>
       8:	0000                	unimp
       a:	0101                	addi	sp,sp,0
       c:	000d0efb          	0xd0efb
      10:	0101                	addi	sp,sp,0
      12:	0101                	addi	sp,sp,0
      14:	0000                	unimp
      16:	0100                	addi	s0,sp,128
      18:	0000                	unimp
      1a:	6301                	0x6301
      1c:	3368                	fld	fa0,224(a4)
      1e:	7632                	flw	fa2,44(sp)
      20:	3030                	fld	fa2,96(s0)
      22:	6e756633          	0x6e756633
      26:	0000                	unimp
      28:	32336863          	bltu	t1,gp,358 <SysTick_Handler+0x78>
      2c:	3076                	fld	ft0,376(sp)
      2e:	3330                	fld	fa2,96(a4)
      30:	7566                	flw	fa0,120(sp)
      32:	2e6e                	fld	ft8,216(sp)
      34:	00010063          	beqz	sp,34 <InterruptVector+0x34>
      38:	7700                	flw	fs0,40(a4)
      3a:	7269                	lui	tp,0xffffa
      3c:	6e69                	lui	t3,0x1a
      3e:	00632e67          	0x632e67
      42:	0000                	unimp
      44:	6d00                	flw	fs0,24(a0)
      46:	6961                	lui	s2,0x18
      48:	2e6e                	fld	ft8,216(sp)
      4a:	00000063          	beqz	zero,4a <InterruptVector+0x4a>
      4e:	6300                	flw	fs0,0(a4)
      50:	3368                	fld	fa0,224(a4)
      52:	7632                	flw	fa2,44(sp)
      54:	3030                	fld	fa2,96(s0)
      56:	6e756633          	0x6e756633
      5a:	682e                	flw	fa6,200(sp)
      5c:	0100                	addi	s0,sp,128
      5e:	0000                	unimp
      60:	623c                	flw	fa5,64(a2)
      62:	6975                	lui	s2,0x1d
      64:	746c                	flw	fa1,108(s0)
      66:	692d                	lui	s2,0xb
      68:	3e6e                	fld	ft8,248(sp)
      6a:	0000                	unimp
      6c:	0000                	unimp
      6e:	0500                	addi	s0,sp,640
      70:	0001                	nop
      72:	0205                	addi	tp,tp,1
      74:	0000                	unimp
      76:	0000                	unimp
      78:	0103d703          	lhu	a4,16(t2) # 10 <InterruptVector+0x10>
      7c:	0205                	addi	tp,tp,1
      7e:	00090103          	lb	sp,0(s2) # b000 <wiring.c.7604182b+0x8b71>
      82:	0100                	addi	s0,sp,128
      84:	0105                	addi	sp,sp,1
      86:	0306                	slli	t1,t1,0x1
      88:	097f                	0x97f
      8a:	0000                	unimp
      8c:	0501                	addi	a0,a0,0
      8e:	0304                	addi	s1,sp,384
      90:	0901                	addi	s2,s2,0
      92:	0000                	unimp
      94:	0501                	addi	a0,a0,0
      96:	0602                	c.slli64	a2
      98:	00090103          	lb	sp,0(s2)
      9c:	0100                	addi	s0,sp,128
      9e:	00090103          	lb	sp,0(s2)
	if (pin <= pin_A2) {
      a2:	0100                	addi	s0,sp,128
      a4:	0905                	addi	s2,s2,1
		PinOffset = (pin + 1);
      a6:	0306                	slli	t1,t1,0x1
      a8:	0900                	addi	s0,sp,144
		GPIOx = GPIOA;
      aa:	0000                	unimp
      ac:	0501                	addi	a0,a0,0
		PinOffset = (pin + 1);
      ae:	0602                	c.slli64	a2
		GPIOx = GPIOA;
      b0:	00090103          	lb	sp,0(s2)
		GPIOx-> BSHR |= 1 << PinOffset;
      b4:	0100                	addi	s0,sp,128
	if (value) {
      b6:	00090203          	lb	tp,0(s2)
		GPIOx-> BSHR |= 1 << (16 + PinOffset);
      ba:	0100                	addi	s0,sp,128
      bc:	0905                	addi	s2,s2,1
      be:	0306                	slli	t1,t1,0x1
      c0:	0900                	addi	s0,sp,144
}
      c2:	0000                	unimp
	else if (pin <= pin_C7) {
      c4:	0501                	addi	a0,a0,0
      c6:	000e                	c.slli	zero,0x3
      c8:	0402                	c.slli64	s0
		PinOffset = (pin - 2);
      ca:	0601                	addi	a2,a2,0
      cc:	00090003          	lb	zero,0(s2)
		GPIOx = GPIOC;
      d0:	0100                	addi	s0,sp,128
      d2:	0705                	addi	a4,a4,1
      d4:	0200                	addi	s0,sp,256
	else if (pin <= pin_D7) {
      d6:	0104                	addi	s1,sp,128
      d8:	0306                	slli	t1,t1,0x1
      da:	0901                	addi	s2,s2,0
		PinOffset = (pin - 10);
      dc:	0000                	unimp
      de:	0501                	addi	a0,a0,0
		GPIOx = GPIOD;
      e0:	0002                	c.slli64	zero
      e2:	0402                	c.slli64	s0
		PinOffset = (pin - 10);
      e4:	0301                	addi	t1,t1,0
		GPIOx = GPIOD;
      e6:	097f                	0x97f
      e8:	0000                	unimp
      ea:	0601                	addi	a2,a2,0
		GPIOx-> BSHR |= 1 << (16 + PinOffset);
      ec:	00090603          	lb	a2,0(s2)
	if (pin <= pin_A2) {
      f0:	0100                	addi	s0,sp,128
      f2:	1005                	c.nop	-31
      f4:	0306                	slli	t1,t1,0x1
		PinOffset *= (pin + 1);
      f6:	0900                	addi	s0,sp,144
      f8:	0000                	unimp
      fa:	0501                	addi	a0,a0,0
      fc:	0602                	c.slli64	a2
		GPIOx = GPIOA;
      fe:	00090103          	lb	sp,0(s2)
		PinOffset *= (pin + 1);
     102:	0100                	addi	s0,sp,128
		GPIOx = GPIOA;
     104:	1405                	addi	s0,s0,-31
     106:	0306                	slli	t1,t1,0x1
	GPIOx->CFGLR &= ~(0b1111<<PinOffset);							// zero the 4 configuration bits
     108:	0900                	addi	s0,sp,144
     10a:	0000                	unimp
     10c:	0501                	addi	a0,a0,0
     10e:	0301                	addi	t1,t1,0
     110:	0901                	addi	s2,s2,0
     112:	0000                	unimp
     114:	0501                	addi	a0,a0,0
     116:	79030603          	lb	a2,1936(t1)
	switch (mode) {
     11a:	0009                	c.nop	2
     11c:	0100                	addi	s0,sp,128
     11e:	2e05                	jal	44e <SysTick_Handler+0x16e>
     120:	0306                	slli	t1,t1,0x1
     122:	0900                	addi	s0,sp,144
     124:	0000                	unimp
	GPIOx->CFGLR |= modeMask<<PinOffset;
     126:	0501                	addi	a0,a0,0
     128:	0305                	addi	t1,t1,1
     12a:	0900                	addi	s0,sp,144
     12c:	0000                	unimp
     12e:	0501                	addi	a0,a0,0
     130:	04020003          	lb	zero,64(tp) # ffffa040 <__global_pointer$+0xdfff97b0>
     134:	0602                	c.slli64	a2
     136:	00090303          	lb	t1,0(s2)
     13a:	0100                	addi	s0,sp,128
     13c:	1005                	c.nop	-31
     13e:	0200                	addi	s0,sp,256
     140:	0204                	addi	s1,sp,256
	if (target_pin_state > pinState_nochange) {
     142:	0306                	slli	t1,t1,0x1
		digitalWrite(pin, target_pin_state - 1);
     144:	0900                	addi	s0,sp,144
     146:	0000                	unimp
     148:	0501                	addi	a0,a0,0
     14a:	04020017          	auipc	zero,0x4020
	else if (pin <= pin_C7) {
     14e:	0302                	c.slli64	t1
     150:	0900                	addi	s0,sp,144
     152:	0000                	unimp
		PinOffset *= (pin - 2);
     154:	0501                	addi	a0,a0,0
     156:	0018                	0x18
     158:	0402                	c.slli64	s0
     15a:	0302                	c.slli64	t1
     15c:	097c                	addi	a5,sp,156
		GPIOx = GPIOC;
     15e:	0000                	unimp
     160:	0501                	addi	a0,a0,0
     162:	0014                	0x14
	else if (pin <= pin_D7) {
     164:	0402                	c.slli64	s0
     166:	0302                	c.slli64	t1
     168:	0904                	addi	s1,sp,144
		PinOffset *= (pin - 10);
     16a:	0000                	unimp
     16c:	0501                	addi	a0,a0,0
     16e:	04020017          	auipc	zero,0x4020
		GPIOx = GPIOD;
     172:	0602                	c.slli64	a2
     174:	00097c03          	0x97c03
     178:	0100                	addi	s0,sp,128
     17a:	0009                	c.nop	2
     17c:	0000                	unimp
}
     17e:	0101                	addi	sp,sp,0
int main() {
     180:	0105                	addi	sp,sp,1
     182:	0500                	addi	s0,sp,640
     184:	0002                	c.slli64	zero
	RCC->CFGR0 = RCC_HPRE_DIV1 | RCC_PLLSRC_HSI_Mul2;      // PLLCLK = HSI * 2 = 48 MHz; HCLK = SYSCLK = APB1
     186:	0000                	unimp
     188:	0300                	addi	s0,sp,384
	RCC->CTLR  = RCC_HSION | RCC_PLLON | ((HSITRIM) << 3); // Use HSI, but enable PLL.
     18a:	03b8                	addi	a4,sp,456
     18c:	0501                	addi	a0,a0,0
	RCC->CFGR0 = RCC_HPRE_DIV1 | RCC_PLLSRC_HSI_Mul2;      // PLLCLK = HSI * 2 = 48 MHz; HCLK = SYSCLK = APB1
     18e:	0302                	c.slli64	t1
     190:	0901                	addi	s2,s2,0
	RCC->CTLR  = RCC_HSION | RCC_PLLON | ((HSITRIM) << 3); // Use HSI, but enable PLL.
     192:	0000                	unimp
     194:	0301                	addi	t1,t1,0
     196:	0901                	addi	s2,s2,0
	FLASH->ACTLR = FLASH_ACTLR_LATENCY_1;                  // 1 Cycle Latency
     198:	0000                	unimp
     19a:	0301                	addi	t1,t1,0
     19c:	0901                	addi	s2,s2,0
     19e:	0000                	unimp
	RCC->INTR  = 0x009F0000;                               // Clear PLL, CSSC, HSE, HSI and LSI ready flags.
     1a0:	0301                	addi	t1,t1,0
     1a2:	0901                	addi	s2,s2,0
     1a4:	0000                	unimp
	while((RCC->CTLR & RCC_PLLRDY) == 0);                                      // Wait till PLL is ready
     1a6:	0501                	addi	a0,a0,0
     1a8:	0601                	addi	a2,a2,0
     1aa:	00097c03          	0x97c03
     1ae:	0100                	addi	s0,sp,128
     1b0:	00090003          	lb	zero,0(s2)
	RCC->CFGR0 = ( RCC->CFGR0 & ((uint32_t)~(RCC_SW))) | (uint32_t)RCC_SW_PLL; // Select PLL as system clock source
     1b4:	0100                	addi	s0,sp,128
	while ((RCC->CFGR0 & (uint32_t)RCC_SWS) != (uint32_t)0x08);                // Wait till PLL is used as system clock source
     1b6:	0605                	addi	a2,a2,1
	RCC->CFGR0 = ( RCC->CFGR0 & ((uint32_t)~(RCC_SW))) | (uint32_t)RCC_SW_PLL; // Select PLL as system clock source
     1b8:	00090203          	lb	tp,0(s2)
     1bc:	0100                	addi	s0,sp,128
     1be:	0405                	addi	s0,s0,1
	while ((RCC->CFGR0 & (uint32_t)RCC_SWS) != (uint32_t)0x08);                // Wait till PLL is used as system clock source
     1c0:	00090203          	lb	tp,0(s2)
     1c4:	0100                	addi	s0,sp,128
     1c6:	0205                	addi	tp,tp,1
     1c8:	0306                	slli	t1,t1,0x1
     1ca:	0901                	addi	s2,s2,0
	SysTick->CTLR = 0;
     1cc:	0000                	unimp
     1ce:	0501                	addi	a0,a0,0
     1d0:	0604                	addi	s1,sp,768
     1d2:	00090003          	lb	zero,0(s2)
     1d6:	0100                	addi	s0,sp,128
     1d8:	0c05                	addi	s8,s8,1
     1da:	00090203          	lb	tp,0(s2)
	SysTick->CMP = (SYSTEM_CORE_CLOCK/SYSTICKHZ)-1;
     1de:	0100                	addi	s0,sp,128
     1e0:	0205                	addi	tp,tp,1
     1e2:	0306                	slli	t1,t1,0x1
	SysTick->CNT = 0;
     1e4:	0902                	c.slli64	s2
     1e6:	0000                	unimp
	systick_cnt = 0;
     1e8:	0501                	addi	a0,a0,0
     1ea:	0608                	addi	a0,sp,768
	SysTick->CTLR = SYSTICK_CTLR_STE | SYSTICK_CTLR_STIE |
     1ec:	00090003          	lb	zero,0(s2)
			RCC->APB2PCENR |= RCC_APB2Periph_GPIOA;
     1f0:	0100                	addi	s0,sp,128
	pinMode(pin_A1, pinMode_I_floating);
     1f2:	1005                	c.nop	-31
     1f4:	00090103          	lb	sp,0(s2)
     1f8:	0100                	addi	s0,sp,128
     1fa:	0f05                	addi	t5,t5,1
			RCC->APB2PCENR |= RCC_APB2Periph_GPIOC;
     1fc:	0200                	addi	s0,sp,256
     1fe:	0104                	addi	s1,sp,128
     200:	0306                	slli	t1,t1,0x1
     202:	0902                	c.slli64	s2
     204:	0000                	unimp
	pinMode(pin_A2, pinMode_I_floating);
     206:	0501                	addi	a0,a0,0
     208:	0002                	c.slli64	zero
     20a:	0402                	c.slli64	s0
	pinMode(pin_C1, pinMode_I_floating);
     20c:	0601                	addi	a2,a2,0
     20e:	00090003          	lb	zero,0(s2)
	pinMode(pin_C2, pinMode_I_floating);
     212:	0100                	addi	s0,sp,128
     214:	0306                	slli	t1,t1,0x1
     216:	00000903          	lb	s2,0(zero) # 0 <InterruptVector>
		int temp=LEDs[0].brightness;
     21a:	0501                	addi	a0,a0,0
     21c:	0606                	slli	a2,a2,0x1
     21e:	00090003          	lb	zero,0(s2)
		for(int i=1; i<12; i++){
     222:	0100                	addi	s0,sp,128
	uint32_t end = systick_cnt + n; 
     224:	0205                	addi	tp,tp,1
     226:	0306                	slli	t1,t1,0x1
     228:	0901                	addi	s2,s2,0
     22a:	0000                	unimp
	while( ((int32_t)(systick_cnt - end )) < 0 );
     22c:	0501                	addi	a0,a0,0
     22e:	0604                	addi	s1,sp,768
     230:	00090003          	lb	zero,0(s2)
     234:	0100                	addi	s0,sp,128
		int temp=LEDs[0].brightness;
     236:	1505                	addi	a0,a0,-31
     238:	00090103          	lb	sp,0(s2)
     23c:	0100                	addi	s0,sp,128
     23e:	0405                	addi	s0,s0,1
			LEDs[i-1].brightness=LEDs[i].brightness;
     240:	0306                	slli	t1,t1,0x1
     242:	0901                	addi	s2,s2,0
     244:	0000                	unimp
     246:	0501                	addi	a0,a0,0
     248:	0615                	addi	a2,a2,5
     24a:	00090003          	lb	zero,0(s2)
     24e:	0100                	addi	s0,sp,128
     250:	2a05                	jal	380 <SysTick_Handler+0xa0>
     252:	0306                	slli	t1,t1,0x1
     254:	097f                	0x97f
     256:	0000                	unimp
     258:	0501                	addi	a0,a0,0
     25a:	0900030f          	0x900030f
     25e:	0000                	unimp
		for(int i=1; i<12; i++){
     260:	0501                	addi	a0,a0,0
     262:	060d                	addi	a2,a2,3
     264:	00090103          	lb	sp,0(s2)
		LEDs[11].brightness=temp;
     268:	0100                	addi	s0,sp,128
	while(1){
     26a:	1505                	addi	a0,a0,-31
	asm volatile( "\n\
     26c:	00097f03          	0x97f03
     270:	0100                	addi	s0,sp,128
     272:	0405                	addi	s0,s0,1
     274:	0306                	slli	t1,t1,0x1
     276:	0901                	addi	s2,s2,0
     278:	0000                	unimp
     27a:	0501                	addi	a0,a0,0
     27c:	0615                	addi	a2,a2,5
     27e:	00090003          	lb	zero,0(s2)
     282:	0100                	addi	s0,sp,128
     284:	2a05                	jal	3b4 <SysTick_Handler+0xd4>
     286:	0306                	slli	t1,t1,0x1
     288:	097f                	0x97f
     28a:	0000                	unimp
     28c:	0501                	addi	a0,a0,0
     28e:	0900030f          	0x900030f
     292:	0000                	unimp
asm volatile(
     294:	0501                	addi	a0,a0,0
     296:	060d                	addi	a2,a2,3
     298:	00090103          	lb	sp,0(s2)
     29c:	0100                	addi	s0,sp,128
     29e:	1505                	addi	a0,a0,-31
     2a0:	00097f03          	0x97f03
     2a4:	0100                	addi	s0,sp,128
     2a6:	0405                	addi	s0,s0,1
     2a8:	0200                	addi	s0,sp,256
     2aa:	0404                	addi	s1,sp,512
     2ac:	0306                	slli	t1,t1,0x1
     2ae:	0901                	addi	s2,s2,0
     2b0:	0000                	unimp
     2b2:	0501                	addi	a0,a0,0
     2b4:	0015                	c.nop	5
     2b6:	0402                	c.slli64	s0
     2b8:	0604                	addi	s1,sp,768
     2ba:	00090003          	lb	zero,0(s2)
     2be:	0100                	addi	s0,sp,128
     2c0:	2a05                	jal	3f0 <SysTick_Handler+0x110>
     2c2:	0200                	addi	s0,sp,256
     2c4:	0404                	addi	s1,sp,512
     2c6:	0306                	slli	t1,t1,0x1
     2c8:	097f                	0x97f
	SETUP_SYSTICK_HCLK
     2ca:	0000                	unimp
     2cc:	0501                	addi	a0,a0,0
     2ce:	0402000f          	0x402000f
asm volatile(
     2d2:	0304                	addi	s1,sp,384
     2d4:	0900                	addi	s0,sp,144
     2d6:	0000                	unimp
     2d8:	0501                	addi	a0,a0,0
     2da:	0601                	addi	a2,a2,0
     2dc:	00090503          	lb	a0,0(s2)
{
     2e0:	0100                	addi	s0,sp,128
     2e2:	0405                	addi	s0,s0,1
     2e4:	00096e03          	0x96e03
	SysTick->CMP += (SYSTEM_CORE_CLOCK/SYSTICKHZ);
     2e8:	0100                	addi	s0,sp,128
     2ea:	0305                	addi	t1,t1,1
{
     2ec:	0200                	addi	s0,sp,256
     2ee:	0304                	addi	s1,sp,384
	SysTick->CMP += (SYSTEM_CORE_CLOCK/SYSTICKHZ);
     2f0:	0306                	slli	t1,t1,0x1
     2f2:	0909                	addi	s2,s2,2
{
     2f4:	0000                	unimp
     2f6:	0501                	addi	a0,a0,0
     2f8:	0012                	c.slli	zero,0x4
     2fa:	0402                	c.slli64	s0
     2fc:	00030603          	lb	a2,0(t1)
     300:	0009                	c.nop	2
     302:	0100                	addi	s0,sp,128
     304:	1005                	c.nop	-31
     306:	0200                	addi	s0,sp,256
     308:	0304                	addi	s1,sp,384
     30a:	00090003          	lb	zero,0(s2)
     30e:	0100                	addi	s0,sp,128
     310:	1605                	addi	a2,a2,-31
     312:	0200                	addi	s0,sp,256
     314:	0304                	addi	s1,sp,384
     316:	0306                	slli	t1,t1,0x1
     318:	097f                	0x97f
     31a:	0000                	unimp
	SysTick->CMP += (SYSTEM_CORE_CLOCK/SYSTICKHZ);
     31c:	0901                	addi	s2,s2,0
     31e:	0000                	unimp
     320:	0100                	addi	s0,sp,128
     322:	0501                	addi	a0,a0,0
	SysTick->SR = 0;
     324:	0001                	nop
     326:	0205                	addi	tp,tp,1
	systick_cnt++;
     328:	0000                	unimp
     32a:	0000                	unimp
     32c:	01038e03          	lb	t3,16(t2)
     330:	0205                	addi	tp,tp,1
     332:	00090b03          	lb	s6,0(s2)
     336:	0100                	addi	s0,sp,128
	ramp=systick_cnt & 0x3F;		// 0 to 63
     338:	0105                	addi	sp,sp,1
     33a:	0306                	slli	t1,t1,0x1
     33c:	0975                	addi	s2,s2,29
     33e:	0000                	unimp
     340:	0501                	addi	a0,a0,0
     342:	0306                	slli	t1,t1,0x1
	if (ramp == 0) {
     344:	0904                	addi	s1,sp,144
     346:	0000                	unimp
     348:	0501                	addi	a0,a0,0
     34a:	0301                	addi	t1,t1,0
     34c:	097c                	addi	a5,sp,156
     34e:	0000                	unimp
		pinMode(LEDs[group[currentgroup][0]].pinCathode, pinMode_I_floating); // switch off this group
     350:	0501                	addi	a0,a0,0
     352:	0305                	addi	t1,t1,1
     354:	0000090b          	0x90b
     358:	0501                	addi	a0,a0,0
     35a:	0310                	addi	a2,sp,384
     35c:	0900                	addi	s0,sp,144
     35e:	0000                	unimp
     360:	0501                	addi	a0,a0,0
     362:	01030603          	lb	a2,16(t1)
     366:	0009                	c.nop	2
     368:	0100                	addi	s0,sp,128
     36a:	00090103          	lb	sp,0(s2)
     36e:	0100                	addi	s0,sp,128
     370:	0c05                	addi	s8,s8,1
     372:	0306                	slli	t1,t1,0x1
     374:	097f                	0x97f
     376:	0000                	unimp
     378:	0501                	addi	a0,a0,0
     37a:	0309                	addi	t1,t1,2
     37c:	0901                	addi	s2,s2,0
     37e:	0000                	unimp
     380:	0501                	addi	a0,a0,0
     382:	030c                	addi	a1,sp,384
     384:	097f                	0x97f
		currentgroup = (currentgroup + 1) & 0x3;	// move to next group
     386:	0000                	unimp
     388:	0501                	addi	a0,a0,0
     38a:	0306                	slli	t1,t1,0x1
     38c:	0978                	addi	a4,sp,156
     38e:	0000                	unimp
     390:	0501                	addi	a0,a0,0
		pinMode(LEDs[group[currentgroup][0]].pinCathode, pinMode_O_pushPull); // switch on the group
     392:	0310                	addi	a2,sp,384
     394:	0000090f          	0x90f
		currentgroup = (currentgroup + 1) & 0x3;	// move to next group
     398:	0501                	addi	a0,a0,0
		pinMode(LEDs[group[currentgroup][0]].pinCathode, pinMode_O_pushPull); // switch on the group
     39a:	0315                	addi	t1,t1,5
     39c:	097f                	0x97f
     39e:	0000                	unimp
     3a0:	0501                	addi	a0,a0,0
     3a2:	0602                	c.slli64	a2
     3a4:	00097f03          	0x97f03
     3a8:	0100                	addi	s0,sp,128
     3aa:	0305                	addi	t1,t1,1
     3ac:	00090103          	lb	sp,0(s2)
     3b0:	0100                	addi	s0,sp,128
     3b2:	1505                	addi	a0,a0,-31
     3b4:	0306                	slli	t1,t1,0x1
     3b6:	0900                	addi	s0,sp,144
     3b8:	0000                	unimp
     3ba:	0501                	addi	a0,a0,0
     3bc:	01030603          	lb	a2,16(t1)
     3c0:	0009                	c.nop	2
     3c2:	0100                	addi	s0,sp,128
     3c4:	1005                	c.nop	-31
     3c6:	0306                	slli	t1,t1,0x1
		digitalWrite(LEDs[group[currentgroup][0]].pinCathode, low);
     3c8:	0900                	addi	s0,sp,144
     3ca:	0000                	unimp
     3cc:	0501                	addi	a0,a0,0
     3ce:	0324                	addi	s1,sp,392
     3d0:	0900                	addi	s0,sp,144
     3d2:	0000                	unimp
     3d4:	0501                	addi	a0,a0,0
     3d6:	0310                	addi	a2,sp,384
     3d8:	0900                	addi	s0,sp,144
		pinMode(LEDs[group[currentgroup][0]].pinAnode, pinMode_O_pushPull); // switch on this LED
     3da:	0000                	unimp
     3dc:	0501                	addi	a0,a0,0
     3de:	030c                	addi	a1,sp,384
     3e0:	0900                	addi	s0,sp,144
     3e2:	0000                	unimp
     3e4:	0501                	addi	a0,a0,0
     3e6:	0310                	addi	a2,sp,384
     3e8:	0900                	addi	s0,sp,144
     3ea:	0000                	unimp
		digitalWrite(LEDs[group[currentgroup][0]].pinAnode, high);
     3ec:	0501                	addi	a0,a0,0
     3ee:	0309                	addi	t1,t1,2
     3f0:	0901                	addi	s2,s2,0
     3f2:	0000                	unimp
     3f4:	0501                	addi	a0,a0,0
     3f6:	0310                	addi	a2,sp,384
     3f8:	097f                	0x97f
     3fa:	0000                	unimp
     3fc:	0501                	addi	a0,a0,0
		pinMode(LEDs[group[currentgroup][1]].pinAnode, pinMode_O_pushPull); // switch on this LED
     3fe:	01030603          	lb	a2,16(t1)
     402:	0009                	c.nop	2
     404:	0100                	addi	s0,sp,128
     406:	0905                	addi	s2,s2,1
     408:	0306                	slli	t1,t1,0x1
     40a:	0900                	addi	s0,sp,144
     40c:	0000                	unimp
     40e:	0501                	addi	a0,a0,0
     410:	0302                	c.slli64	t1
     412:	0901                	addi	s2,s2,0
     414:	0000                	unimp
     416:	0501                	addi	a0,a0,0
     418:	0309                	addi	t1,t1,2
     41a:	097f                	0x97f
     41c:	0000                	unimp
     41e:	0501                	addi	a0,a0,0
     420:	060a                	slli	a2,a2,0x2
     422:	00090103          	lb	sp,0(s2)
		digitalWrite(LEDs[group[currentgroup][1]].pinAnode, high);
     426:	0100                	addi	s0,sp,128
     428:	0205                	addi	tp,tp,1
     42a:	0306                	slli	t1,t1,0x1
     42c:	0900                	addi	s0,sp,144
     42e:	0000                	unimp
     430:	0601                	addi	a2,a2,0
     432:	00090203          	lb	tp,0(s2)
		pinMode(LEDs[group[currentgroup][2]].pinAnode, pinMode_O_pushPull); // switch on this LED
     436:	0100                	addi	s0,sp,128
     438:	0505                	addi	a0,a0,1
     43a:	0306                	slli	t1,t1,0x1
     43c:	0900                	addi	s0,sp,144
     43e:	0000                	unimp
     440:	0501                	addi	a0,a0,0
     442:	01030603          	lb	a2,16(t1)
     446:	0009                	c.nop	2
     448:	0100                	addi	s0,sp,128
     44a:	1005                	c.nop	-31
     44c:	0306                	slli	t1,t1,0x1
     44e:	0900                	addi	s0,sp,144
     450:	0000                	unimp
     452:	0501                	addi	a0,a0,0
     454:	030c                	addi	a1,sp,384
     456:	0900                	addi	s0,sp,144
     458:	0000                	unimp
     45a:	0501                	addi	a0,a0,0
		digitalWrite(LEDs[group[currentgroup][2]].pinAnode, high);
     45c:	0602                	c.slli64	a2
     45e:	00090203          	lb	tp,0(s2)
     462:	0100                	addi	s0,sp,128
     464:	0605                	addi	a2,a2,1
     466:	0306                	slli	t1,t1,0x1
     468:	0904                	addi	s1,sp,144
     46a:	0000                	unimp
     46c:	0501                	addi	a0,a0,0
     46e:	0316                	slli	t1,t1,0x5
     470:	0901                	addi	s2,s2,0
	if (LEDs[group[currentgroup][0]].brightness == ramp) { // if the target pulse width has been achieved
     472:	0000                	unimp
     474:	0501                	addi	a0,a0,0
     476:	030d                	addi	t1,t1,3
     478:	0000097b          	0x97b
     47c:	0501                	addi	a0,a0,0
     47e:	0602                	c.slli64	a2
     480:	00090403          	lb	s0,0(s2)
     484:	0100                	addi	s0,sp,128
     486:	00090103          	lb	sp,0(s2)
     48a:	0100                	addi	s0,sp,128
     48c:	1605                	addi	a2,a2,-31
     48e:	0306                	slli	t1,t1,0x1
     490:	0900                	addi	s0,sp,144
     492:	0000                	unimp
     494:	0501                	addi	a0,a0,0
     496:	0309                	addi	t1,t1,2
     498:	0900                	addi	s0,sp,144
     49a:	0000                	unimp
     49c:	0501                	addi	a0,a0,0
		pinMode(LEDs[group[currentgroup][0]].pinAnode, pinMode_I_floating); // switch off this LED
     49e:	060e                	slli	a2,a2,0x3
     4a0:	00090003          	lb	zero,0(s2)
     4a4:	0100                	addi	s0,sp,128
     4a6:	0205                	addi	tp,tp,1
     4a8:	0306                	slli	t1,t1,0x1
     4aa:	0900                	addi	s0,sp,144
     4ac:	0000                	unimp
     4ae:	0501                	addi	a0,a0,0
     4b0:	0301                	addi	t1,t1,0
     4b2:	00000907          	0x907
     4b6:	0501                	addi	a0,a0,0
     4b8:	0302                	c.slli64	t1
     4ba:	0000096f          	jal	s2,4ba <SysTick_Handler+0x1da>
     4be:	0501                	addi	a0,a0,0
     4c0:	0310                	addi	a2,sp,384
     4c2:	097e                	slli	s2,s2,0x1f
	if (LEDs[group[currentgroup][1]].brightness == ramp) {
     4c4:	0000                	unimp
     4c6:	0501                	addi	a0,a0,0
     4c8:	0d030603          	lb	a2,208(t1)
     4cc:	0009                	c.nop	2
     4ce:	0100                	addi	s0,sp,128
     4d0:	1505                	addi	a0,a0,-31
     4d2:	0306                	slli	t1,t1,0x1
     4d4:	0901                	addi	s2,s2,0
     4d6:	0000                	unimp
     4d8:	0501                	addi	a0,a0,0
     4da:	0308                	addi	a0,sp,384
     4dc:	097f                	0x97f
     4de:	0000                	unimp
     4e0:	0501                	addi	a0,a0,0
     4e2:	01030603          	lb	a2,16(t1)
     4e6:	0009                	c.nop	2
		pinMode(LEDs[group[currentgroup][1]].pinAnode, pinMode_I_floating); // switch off this LED
     4e8:	0100                	addi	s0,sp,128
     4ea:	1c05                	addi	s8,s8,-31
     4ec:	0306                	slli	t1,t1,0x1
     4ee:	097e                	slli	s2,s2,0x1f
     4f0:	0000                	unimp
     4f2:	0501                	addi	a0,a0,0
     4f4:	030d                	addi	t1,t1,3
     4f6:	0902                	c.slli64	s2
     4f8:	0000                	unimp
     4fa:	0501                	addi	a0,a0,0
     4fc:	01030603          	lb	a2,16(t1)
     500:	0009                	c.nop	2
     502:	0100                	addi	s0,sp,128
     504:	1305                	addi	t1,t1,-31
     506:	0306                	slli	t1,t1,0x1
     508:	0900                	addi	s0,sp,144
     50a:	0000                	unimp
     50c:	0501                	addi	a0,a0,0
	if (LEDs[group[currentgroup][2]].brightness == ramp) {
     50e:	7d03061b          	0x7d03061b
     512:	0009                	c.nop	2
     514:	0100                	addi	s0,sp,128
     516:	0009                	c.nop	2
     518:	0000                	unimp
     51a:	0101                	addi	sp,sp,0
     51c:	0204                	addi	s1,sp,256
     51e:	3505                	jal	33e <SysTick_Handler+0x5e>
     520:	0500                	addi	s0,sp,640
     522:	a002                	fsd	ft0,0(sp)
     524:	0000                	unimp
     526:	0300                	addi	s0,sp,384
     528:	050100eb          	0x50100eb
     52c:	0302                	c.slli64	t1
     52e:	0902                	c.slli64	s2
     530:	0000                	unimp
		pinMode(LEDs[group[currentgroup][2]].pinAnode, pinMode_I_floating); // switch off this LED
     532:	0301                	addi	t1,t1,0
     534:	0901                	addi	s2,s2,0
     536:	0000                	unimp
     538:	0301                	addi	t1,t1,0
     53a:	0902                	c.slli64	s2
     53c:	0000                	unimp
     53e:	0501                	addi	a0,a0,0
}
     540:	0605                	addi	a2,a2,1
     542:	00090003          	lb	zero,0(s2)
     546:	0100                	addi	s0,sp,128
     548:	0305                	addi	t1,t1,1
     54a:	0306                	slli	t1,t1,0x1
     54c:	0901                	addi	s2,s2,0
     54e:	0006                	c.slli	zero,0x1
     550:	0301                	addi	t1,t1,0
     552:	0901                	addi	s2,s2,0
     554:	0000                	unimp
     556:	0501                	addi	a0,a0,0
     558:	060d                	addi	a2,a2,3
     55a:	00090003          	lb	zero,0(s2)
     55e:	0100                	addi	s0,sp,128
     560:	0905                	addi	s2,s2,1
     562:	04097f03          	0x4097f03
     566:	0100                	addi	s0,sp,128
     568:	0d05                	addi	s10,s10,1
     56a:	04090103          	lb	sp,64(s2)
     56e:	0100                	addi	s0,sp,128
     570:	0905                	addi	s2,s2,1
     572:	02097f03          	0x2097f03
     576:	0100                	addi	s0,sp,128
     578:	0205                	addi	tp,tp,1
     57a:	0306                	slli	t1,t1,0x1
     57c:	0004090f          	0x4090f
     580:	0501                	addi	a0,a0,0
     582:	0610                	addi	a2,sp,768
     584:	00090103          	lb	sp,0(s2)
     588:	0100                	addi	s0,sp,128
     58a:	0505                	addi	a0,a0,1
     58c:	02097f03          	0x2097f03
     590:	0100                	addi	s0,sp,128
     592:	1505                	addi	a0,a0,-31
     594:	02090403          	lb	s0,32(s2)
     598:	0100                	addi	s0,sp,128
     59a:	1005                	c.nop	-31
     59c:	06090003          	lb	zero,96(s2)
     5a0:	0100                	addi	s0,sp,128
     5a2:	0105                	addi	sp,sp,1
     5a4:	04090203          	lb	tp,64(s2)
     5a8:	0100                	addi	s0,sp,128
     5aa:	0705                	addi	a4,a4,1
     5ac:	0306                	slli	t1,t1,0x1
     5ae:	096e                	slli	s2,s2,0x1b
     5b0:	0002                	c.slli64	zero
     5b2:	0501                	addi	a0,a0,0
     5b4:	060a                	slli	a2,a2,0x2
     5b6:	00090003          	lb	zero,0(s2)
     5ba:	0100                	addi	s0,sp,128
     5bc:	0305                	addi	t1,t1,1
     5be:	0306                	slli	t1,t1,0x1
     5c0:	0901                	addi	s2,s2,0
     5c2:	0006                	c.slli	zero,0x1
     5c4:	0301                	addi	t1,t1,0
     5c6:	0901                	addi	s2,s2,0
     5c8:	0000                	unimp
     5ca:	0501                	addi	a0,a0,0
     5cc:	060d                	addi	a2,a2,3
     5ce:	00090003          	lb	zero,0(s2)
     5d2:	0100                	addi	s0,sp,128
     5d4:	0905                	addi	s2,s2,1
     5d6:	06097f03          	0x6097f03
     5da:	0100                	addi	s0,sp,128
     5dc:	0705                	addi	a4,a4,1
     5de:	0306                	slli	t1,t1,0x1
     5e0:	00060903          	lb	s2,0(a2) # 733d9 <wiring.c.7604182b+0x70f4a>
     5e4:	0501                	addi	a0,a0,0
     5e6:	060a                	slli	a2,a2,0x2
     5e8:	00090003          	lb	zero,0(s2)
     5ec:	0100                	addi	s0,sp,128
     5ee:	0305                	addi	t1,t1,1
     5f0:	0306                	slli	t1,t1,0x1
     5f2:	0901                	addi	s2,s2,0
     5f4:	0006                	c.slli	zero,0x1
     5f6:	0301                	addi	t1,t1,0
     5f8:	0901                	addi	s2,s2,0
     5fa:	0000                	unimp
     5fc:	0501                	addi	a0,a0,0
     5fe:	060d                	addi	a2,a2,3
     600:	00090003          	lb	zero,0(s2)
     604:	0100                	addi	s0,sp,128
     606:	0905                	addi	s2,s2,1
     608:	04097f03          	0x4097f03
     60c:	0100                	addi	s0,sp,128
     60e:	0d05                	addi	s10,s10,1
     610:	04090103          	lb	sp,64(s2)
     614:	0100                	addi	s0,sp,128
     616:	0905                	addi	s2,s2,1
     618:	02097f03          	0x2097f03
     61c:	0100                	addi	s0,sp,128
     61e:	0305                	addi	t1,t1,1
     620:	0306                	slli	t1,t1,0x1
     622:	0006090b          	0x6090b
     626:	0501                	addi	a0,a0,0
     628:	061c                	addi	a5,sp,768
     62a:	00090003          	lb	zero,0(s2)
     62e:	0100                	addi	s0,sp,128
     630:	0409                	addi	s0,s0,2
     632:	0000                	unimp
     634:	0101                	addi	sp,sp,0
     636:	0204                	addi	s1,sp,256
     638:	3805                	jal	fffffe68 <__global_pointer$+0xdffff5d8>
     63a:	0500                	addi	s0,sp,640
     63c:	f002                	fsw	ft0,32(sp)
     63e:	0000                	unimp
     640:	0300                	addi	s0,sp,384
     642:	0129                	addi	sp,sp,10
     644:	0205                	addi	tp,tp,1
     646:	00090103          	lb	sp,0(s2)
     64a:	0100                	addi	s0,sp,128
     64c:	00090103          	lb	sp,0(s2)
     650:	0100                	addi	s0,sp,128
     652:	00090203          	lb	tp,0(s2)
     656:	0100                	addi	s0,sp,128
     658:	0505                	addi	a0,a0,1
     65a:	0306                	slli	t1,t1,0x1
     65c:	0900                	addi	s0,sp,144
     65e:	0000                	unimp
     660:	0501                	addi	a0,a0,0
     662:	01030603          	lb	a2,16(t1)
     666:	0609                	addi	a2,a2,2
     668:	0100                	addi	s0,sp,128
     66a:	00090103          	lb	sp,0(s2)
     66e:	0100                	addi	s0,sp,128
     670:	1505                	addi	a0,a0,-31
     672:	0306                	slli	t1,t1,0x1
     674:	0900                	addi	s0,sp,144
     676:	0000                	unimp
     678:	0501                	addi	a0,a0,0
     67a:	030d                	addi	t1,t1,3
     67c:	0900                	addi	s0,sp,144
     67e:	0004                	0x4
     680:	0501                	addi	a0,a0,0
     682:	0309                	addi	t1,t1,2
     684:	097f                	0x97f
     686:	0004                	0x4
     688:	0501                	addi	a0,a0,0
     68a:	030d                	addi	t1,t1,3
     68c:	0901                	addi	s2,s2,0
     68e:	0004                	0x4
     690:	0501                	addi	a0,a0,0
     692:	0309                	addi	t1,t1,2
     694:	097f                	0x97f
     696:	0002                	c.slli64	zero
     698:	0501                	addi	a0,a0,0
     69a:	0602                	c.slli64	a2
     69c:	04090f03          	lb	t5,64(s2)
     6a0:	0100                	addi	s0,sp,128
     6a2:	0f05                	addi	t5,t5,1
     6a4:	0306                	slli	t1,t1,0x1
     6a6:	0900                	addi	s0,sp,144
     6a8:	0000                	unimp
     6aa:	0501                	addi	a0,a0,0
     6ac:	031a                	slli	t1,t1,0x6
     6ae:	0900                	addi	s0,sp,144
     6b0:	0002                	c.slli64	zero
     6b2:	0501                	addi	a0,a0,0
     6b4:	0312                	slli	t1,t1,0x4
     6b6:	0900                	addi	s0,sp,144
     6b8:	0006                	c.slli	zero,0x1
     6ba:	0501                	addi	a0,a0,0
     6bc:	0900030f          	0x900030f
     6c0:	0004                	0x4
     6c2:	0501                	addi	a0,a0,0
     6c4:	0602                	c.slli64	a2
     6c6:	04090203          	lb	tp,64(s2)
     6ca:	0100                	addi	s0,sp,128
     6cc:	00090203          	lb	tp,0(s2)
     6d0:	0100                	addi	s0,sp,128
     6d2:	00090203          	lb	tp,0(s2)
     6d6:	0100                	addi	s0,sp,128
     6d8:	0e091e03          	lh	t3,224(s2)
     6dc:	0100                	addi	s0,sp,128
     6de:	1a05                	addi	s4,s4,-31
     6e0:	0306                	slli	t1,t1,0x1
     6e2:	0900                	addi	s0,sp,144
     6e4:	0000                	unimp
     6e6:	0501                	addi	a0,a0,0
     6e8:	0900030f          	0x900030f
     6ec:	000e                	c.slli	zero,0x3
     6ee:	0501                	addi	a0,a0,0
     6f0:	031a                	slli	t1,t1,0x6
     6f2:	0900                	addi	s0,sp,144
     6f4:	0004                	0x4
     6f6:	0501                	addi	a0,a0,0
     6f8:	0900030f          	0x900030f
     6fc:	0004                	0x4
     6fe:	0501                	addi	a0,a0,0
     700:	0602                	c.slli64	a2
     702:	06090303          	lb	t1,96(s2)
     706:	0100                	addi	s0,sp,128
     708:	0505                	addi	a0,a0,1
     70a:	0306                	slli	t1,t1,0x1
     70c:	0900                	addi	s0,sp,144
     70e:	0000                	unimp
     710:	0501                	addi	a0,a0,0
     712:	01030603          	lb	a2,16(t1)
     716:	0209                	addi	tp,tp,2
     718:	0100                	addi	s0,sp,128
     71a:	0705                	addi	a4,a4,1
     71c:	0a094c03          	lbu	s8,160(s2)
     720:	0100                	addi	s0,sp,128
     722:	0a05                	addi	s4,s4,1
     724:	0306                	slli	t1,t1,0x1
     726:	0900                	addi	s0,sp,144
     728:	0000                	unimp
     72a:	0501                	addi	a0,a0,0
     72c:	01030603          	lb	a2,16(t1)
     730:	0609                	addi	a2,a2,2
     732:	0100                	addi	s0,sp,128
     734:	00090103          	lb	sp,0(s2)
     738:	0100                	addi	s0,sp,128
     73a:	1505                	addi	a0,a0,-31
     73c:	0306                	slli	t1,t1,0x1
     73e:	0900                	addi	s0,sp,144
     740:	0000                	unimp
     742:	0501                	addi	a0,a0,0
     744:	030d                	addi	t1,t1,3
     746:	0900                	addi	s0,sp,144
     748:	0004                	0x4
     74a:	0501                	addi	a0,a0,0
     74c:	0309                	addi	t1,t1,2
     74e:	097f                	0x97f
     750:	0006                	c.slli	zero,0x1
     752:	0501                	addi	a0,a0,0
     754:	03030607          	0x3030607
     758:	0609                	addi	a2,a2,2
     75a:	0100                	addi	s0,sp,128
     75c:	0a05                	addi	s4,s4,1
     75e:	0306                	slli	t1,t1,0x1
     760:	0900                	addi	s0,sp,144
     762:	0000                	unimp
     764:	0501                	addi	a0,a0,0
     766:	01030603          	lb	a2,16(t1)
     76a:	0609                	addi	a2,a2,2
     76c:	0100                	addi	s0,sp,128
     76e:	00090103          	lb	sp,0(s2)
     772:	0100                	addi	s0,sp,128
     774:	1505                	addi	a0,a0,-31
     776:	0306                	slli	t1,t1,0x1
     778:	0900                	addi	s0,sp,144
     77a:	0000                	unimp
     77c:	0501                	addi	a0,a0,0
     77e:	030d                	addi	t1,t1,3
     780:	0900                	addi	s0,sp,144
     782:	0004                	0x4
     784:	0501                	addi	a0,a0,0
     786:	0309                	addi	t1,t1,2
     788:	097f                	0x97f
     78a:	0004                	0x4
     78c:	0501                	addi	a0,a0,0
     78e:	030d                	addi	t1,t1,3
     790:	0901                	addi	s2,s2,0
     792:	0004                	0x4
     794:	0501                	addi	a0,a0,0
     796:	0309                	addi	t1,t1,2
     798:	097f                	0x97f
     79a:	0002                	c.slli64	zero
     79c:	0501                	addi	a0,a0,0
     79e:	0301                	addi	t1,t1,0
     7a0:	0931                	addi	s2,s2,12
     7a2:	0006                	c.slli	zero,0x1
     7a4:	0901                	addi	s2,s2,0
     7a6:	0002                	c.slli64	zero
     7a8:	0100                	addi	s0,sp,128
     7aa:	0501                	addi	a0,a0,0
     7ac:	0005                	c.nop	1
     7ae:	0205                	addi	tp,tp,1
     7b0:	0000                	unimp
     7b2:	0000                	unimp
     7b4:	01078003          	lb	zero,16(a5)
     7b8:	00090003          	lb	zero,0(s2)
     7bc:	0100                	addi	s0,sp,128
     7be:	0a05                	addi	s4,s4,1
     7c0:	00090203          	lb	tp,0(s2)
     7c4:	0100                	addi	s0,sp,128
     7c6:	0505                	addi	a0,a0,1
     7c8:	00097e03          	0x97e03
     7cc:	0100                	addi	s0,sp,128
     7ce:	1505                	addi	a0,a0,-31
     7d0:	00090303          	lb	t1,0(s2)
     7d4:	0100                	addi	s0,sp,128
     7d6:	0205                	addi	tp,tp,1
     7d8:	00097f03          	0x97f03
     7dc:	0100                	addi	s0,sp,128
     7de:	0105                	addi	sp,sp,1
     7e0:	00090503          	lb	a0,0(s2)
     7e4:	0100                	addi	s0,sp,128
     7e6:	1505                	addi	a0,a0,-31
     7e8:	00097c03          	0x97c03
     7ec:	0100                	addi	s0,sp,128
     7ee:	0b05                	addi	s6,s6,1
     7f0:	00090003          	lb	zero,0(s2)
     7f4:	0100                	addi	s0,sp,128
     7f6:	1605                	addi	a2,a2,-31
     7f8:	00090103          	lb	sp,0(s2)
     7fc:	0100                	addi	s0,sp,128
     7fe:	1c05                	addi	s8,s8,-31
     800:	00097e03          	0x97e03
     804:	0100                	addi	s0,sp,128
     806:	1405                	addi	s0,s0,-31
     808:	00090203          	lb	tp,0(s2)
     80c:	0100                	addi	s0,sp,128
     80e:	0009                	c.nop	2
     810:	0000                	unimp
     812:	0101                	addi	sp,sp,0
     814:	0105                	addi	sp,sp,1
     816:	0500                	addi	s0,sp,640
     818:	0002                	c.slli64	zero
     81a:	0000                	unimp
     81c:	0300                	addi	s0,sp,384
     81e:	0114                	addi	a3,sp,128
     820:	0205                	addi	tp,tp,1
     822:	00090103          	lb	sp,0(s2)
     826:	0100                	addi	s0,sp,128
     828:	0105                	addi	sp,sp,1
     82a:	0306                	slli	t1,t1,0x1
     82c:	097f                	0x97f
     82e:	0000                	unimp
     830:	0301                	addi	t1,t1,0
     832:	0900                	addi	s0,sp,144
     834:	0000                	unimp
     836:	0501                	addi	a0,a0,0
     838:	0302                	c.slli64	t1
     83a:	0901                	addi	s2,s2,0
     83c:	0000                	unimp
     83e:	0601                	addi	a2,a2,0
     840:	00090103          	lb	sp,0(s2)
     844:	0100                	addi	s0,sp,128
     846:	0105                	addi	sp,sp,1
     848:	0306                	slli	t1,t1,0x1
     84a:	0901                	addi	s2,s2,0
     84c:	0000                	unimp
     84e:	0901                	addi	s2,s2,0
     850:	0000                	unimp
     852:	0100                	addi	s0,sp,128
     854:	0401                	addi	s0,s0,0
     856:	000c0503          	lb	a0,0(s8)
     85a:	0205                	addi	tp,tp,1
     85c:	0180                	addi	s0,sp,192
     85e:	0000                	unimp
     860:	0101d103          	lhu	sp,16(gp) # 200008a0 <__global_pointer$+0x10>
     864:	0205                	addi	tp,tp,1
     866:	00090103          	lb	sp,0(s2)
     86a:	0100                	addi	s0,sp,128
     86c:	0104                	addi	s1,sp,128
     86e:	0904e703          	0x904e703
     872:	0000                	unimp
     874:	0401                	addi	s0,s0,0
     876:	060c0503          	lb	a0,96(s8)
     87a:	097b9803          	lh	a6,151(s7) # 2ac0 <wiring.c.7604182b+0x631>
     87e:	0000                	unimp
     880:	0401                	addi	s0,s0,0
     882:	0501                	addi	a0,a0,0
     884:	030d                	addi	t1,t1,3
     886:	04e8                	addi	a0,sp,588
     888:	0609                	addi	a2,a2,2
     88a:	0100                	addi	s0,sp,128
     88c:	04090103          	lb	sp,64(s2)
     890:	0100                	addi	s0,sp,128
     892:	04097f03          	0x4097f03
     896:	0100                	addi	s0,sp,128
     898:	0205                	addi	tp,tp,1
     89a:	0306                	slli	t1,t1,0x1
     89c:	0901                	addi	s2,s2,0
     89e:	0004                	0x4
     8a0:	0501                	addi	a0,a0,0
     8a2:	060d                	addi	a2,a2,3
     8a4:	00090003          	lb	zero,0(s2)
     8a8:	0100                	addi	s0,sp,128
     8aa:	0205                	addi	tp,tp,1
     8ac:	0306                	slli	t1,t1,0x1
     8ae:	0901                	addi	s2,s2,0
     8b0:	0006                	c.slli	zero,0x1
     8b2:	0501                	addi	a0,a0,0
     8b4:	0003060f          	0x3060f
     8b8:	0009                	c.nop	2
     8ba:	0100                	addi	s0,sp,128
     8bc:	0205                	addi	tp,tp,1
     8be:	0306                	slli	t1,t1,0x1
     8c0:	0901                	addi	s2,s2,0
     8c2:	0008                	0x8
     8c4:	0501                	addi	a0,a0,0
     8c6:	060d                	addi	a2,a2,3
     8c8:	00090003          	lb	zero,0(s2)
     8cc:	0100                	addi	s0,sp,128
     8ce:	0205                	addi	tp,tp,1
     8d0:	0306                	slli	t1,t1,0x1
     8d2:	00060903          	lb	s2,0(a2)
     8d6:	0501                	addi	a0,a0,0
     8d8:	00030613          	mv	a2,t1
     8dc:	0009                	c.nop	2
     8de:	0100                	addi	s0,sp,128
     8e0:	0c05                	addi	s8,s8,1
     8e2:	04090003          	lb	zero,64(s2)
     8e6:	0100                	addi	s0,sp,128
     8e8:	2605                	jal	c08 <_data_lma+0x684>
     8ea:	0306                	slli	t1,t1,0x1
     8ec:	0900                	addi	s0,sp,144
     8ee:	0004                	0x4
     8f0:	0501                	addi	a0,a0,0
     8f2:	09000307          	0x9000307
     8f6:	0000                	unimp
     8f8:	0501                	addi	a0,a0,0
     8fa:	060c                	addi	a1,sp,768
     8fc:	00090003          	lb	zero,0(s2)
     900:	0100                	addi	s0,sp,128
     902:	1305                	addi	t1,t1,-31
     904:	02090003          	lb	zero,32(s2)
     908:	0100                	addi	s0,sp,128
     90a:	0705                	addi	a4,a4,1
     90c:	02090003          	lb	zero,32(s2)
     910:	0100                	addi	s0,sp,128
     912:	0205                	addi	tp,tp,1
     914:	0306                	slli	t1,t1,0x1
     916:	0901                	addi	s2,s2,0
     918:	0002                	c.slli64	zero
     91a:	0501                	addi	a0,a0,0
     91c:	0614                	addi	a3,sp,768
     91e:	00090003          	lb	zero,0(s2)
     922:	0100                	addi	s0,sp,128
     924:	0805                	addi	a6,a6,1
     926:	02090103          	lb	sp,32(s2)
     92a:	0100                	addi	s0,sp,128
     92c:	1c05                	addi	s8,s8,-31
     92e:	02097f03          	0x2097f03
     932:	0100                	addi	s0,sp,128
     934:	3505                	jal	754 <_data_lma+0x1d0>
     936:	02090003          	lb	zero,32(s2)
     93a:	0100                	addi	s0,sp,128
     93c:	0d05                	addi	s10,s10,1
     93e:	04090003          	lb	zero,64(s2)
     942:	0100                	addi	s0,sp,128
     944:	0205                	addi	tp,tp,1
     946:	0306                	slli	t1,t1,0x1
     948:	0901                	addi	s2,s2,0
     94a:	0002                	c.slli64	zero
     94c:	0501                	addi	a0,a0,0
     94e:	060d                	addi	a2,a2,3
     950:	00090003          	lb	zero,0(s2)
     954:	0100                	addi	s0,sp,128
     956:	3c05                	jal	386 <SysTick_Handler+0xa6>
     958:	0306                	slli	t1,t1,0x1
     95a:	0900                	addi	s0,sp,144
     95c:	0004                	0x4
     95e:	0501                	addi	a0,a0,0
     960:	0308                	addi	a0,sp,384
     962:	0900                	addi	s0,sp,144
     964:	0000                	unimp
     966:	0501                	addi	a0,a0,0
     968:	060d                	addi	a2,a2,3
     96a:	00090003          	lb	zero,0(s2)
     96e:	0100                	addi	s0,sp,128
     970:	1505                	addi	a0,a0,-31
     972:	02090003          	lb	zero,32(s2)
     976:	0100                	addi	s0,sp,128
     978:	0805                	addi	a6,a6,1
     97a:	02090003          	lb	zero,32(s2)
     97e:	0100                	addi	s0,sp,128
     980:	0304                	addi	s1,sp,384
     982:	0205                	addi	tp,tp,1
     984:	0306                	slli	t1,t1,0x1
     986:	7b92                	flw	fs7,36(sp)
     988:	0409                	addi	s0,s0,2
     98a:	0100                	addi	s0,sp,128
     98c:	097f9803          	lh	a6,151(t6)
     990:	0000                	unimp
     992:	0501                	addi	a0,a0,0
     994:	0610                	addi	a2,sp,768
     996:	00090003          	lb	zero,0(s2)
     99a:	0100                	addi	s0,sp,128
     99c:	0205                	addi	tp,tp,1
     99e:	0306                	slli	t1,t1,0x1
     9a0:	00080903          	lb	s2,0(a6)
     9a4:	0401                	addi	s0,s0,0
     9a6:	0504                	addi	s1,sp,640
     9a8:	22ba0303          	lb	t1,555(s4)
     9ac:	0009                	c.nop	2
     9ae:	0100                	addi	s0,sp,128
     9b0:	2705                	jal	10d0 <ch32v003fun.c.297fed70+0x1ee>
     9b2:	0306                	slli	t1,t1,0x1
     9b4:	0900                	addi	s0,sp,144
     9b6:	0000                	unimp
     9b8:	0401                	addi	s0,s0,0
     9ba:	06020503          	lb	a0,96(tp) # 60 <InterruptVector+0x60>
     9be:	095dcc03          	lbu	s8,149(s11)
     9c2:	000a                	c.slli	zero,0x2
     9c4:	0501                	addi	a0,a0,0
     9c6:	0003060f          	0x3060f
     9ca:	0009                	c.nop	2
     9cc:	0100                	addi	s0,sp,128
     9ce:	0205                	addi	tp,tp,1
     9d0:	0306                	slli	t1,t1,0x1
     9d2:	00060903          	lb	s2,0(a2)
     9d6:	0501                	addi	a0,a0,0
     9d8:	0003060f          	0x3060f
     9dc:	0009                	c.nop	2
     9de:	0100                	addi	s0,sp,128
     9e0:	0205                	addi	tp,tp,1
     9e2:	0306                	slli	t1,t1,0x1
     9e4:	0901                	addi	s2,s2,0
     9e6:	0004                	0x4
     9e8:	0501                	addi	a0,a0,0
     9ea:	060e                	slli	a2,a2,0x3
     9ec:	00090003          	lb	zero,0(s2)
     9f0:	0100                	addi	s0,sp,128
     9f2:	0205                	addi	tp,tp,1
     9f4:	0306                	slli	t1,t1,0x1
     9f6:	00040903          	lb	s2,0(s0)
     9fa:	0501                	addi	a0,a0,0
     9fc:	0610                	addi	a2,sp,768
     9fe:	00090003          	lb	zero,0(s2)
     a02:	0100                	addi	s0,sp,128
     a04:	0205                	addi	tp,tp,1
     a06:	0306                	slli	t1,t1,0x1
     a08:	040900db          	0x40900db
     a0c:	0100                	addi	s0,sp,128
     a0e:	0204                	addi	s1,sp,256
     a10:	097ec203          	lbu	tp,151(t4)
     a14:	0000                	unimp
     a16:	0501                	addi	a0,a0,0
     a18:	0304                	addi	s1,sp,384
     a1a:	0902                	c.slli64	s2
     a1c:	0000                	unimp
     a1e:	0501                	addi	a0,a0,0
     a20:	00030613          	mv	a2,t1
     a24:	0009                	c.nop	2
     a26:	0100                	addi	s0,sp,128
     a28:	0304                	addi	s1,sp,384
     a2a:	0205                	addi	tp,tp,1
     a2c:	0901c003          	lbu	zero,144(gp) # 20000920 <__global_pointer$+0x90>
     a30:	0002                	c.slli64	zero
     a32:	0401                	addi	s0,s0,0
     a34:	0502                	c.slli64	a0
     a36:	7ec00313          	li	t1,2028
     a3a:	0409                	addi	s0,s0,2
     a3c:	0100                	addi	s0,sp,128
     a3e:	0405                	addi	s0,s0,1
     a40:	0306                	slli	t1,t1,0x1
     a42:	0901                	addi	s2,s2,0
     a44:	0006                	c.slli	zero,0x1
     a46:	0401                	addi	s0,s0,0
     a48:	03020503          	lb	a0,48(tp) # 30 <InterruptVector+0x30>
     a4c:	01bc                	addi	a5,sp,200
     a4e:	0009                	c.nop	2
     a50:	0100                	addi	s0,sp,128
     a52:	0204                	addi	s1,sp,256
     a54:	097ec103          	lbu	sp,151(t4)
     a58:	0000                	unimp
     a5a:	0501                	addi	a0,a0,0
     a5c:	0304                	addi	s1,sp,384
     a5e:	0905                	addi	s2,s2,1
     a60:	0000                	unimp
     a62:	0501                	addi	a0,a0,0
     a64:	00030613          	mv	a2,t1
     a68:	0009                	c.nop	2
     a6a:	0100                	addi	s0,sp,128
     a6c:	0405                	addi	s0,s0,1
     a6e:	0306                	slli	t1,t1,0x1
     a70:	0901                	addi	s2,s2,0
     a72:	0008                	0x8
     a74:	0401                	addi	s0,s0,0
     a76:	03020503          	lb	a0,48(tp) # 30 <InterruptVector+0x30>
     a7a:	01bc                	addi	a5,sp,200
     a7c:	0009                	c.nop	2
     a7e:	0100                	addi	s0,sp,128
     a80:	02090103          	lb	sp,32(s2)
     a84:	0100                	addi	s0,sp,128
     a86:	06090103          	lb	sp,96(s2)
     a8a:	0100                	addi	s0,sp,128
     a8c:	06090103          	lb	sp,96(s2)
     a90:	0100                	addi	s0,sp,128
     a92:	1305                	addi	t1,t1,-31
     a94:	0306                	slli	t1,t1,0x1
     a96:	0905                	addi	s2,s2,1
     a98:	0006                	c.slli	zero,0x1
     a9a:	0501                	addi	a0,a0,0
     a9c:	09010303          	lb	t1,144(sp)
     aa0:	000a                	c.slli	zero,0x2
     aa2:	0501                	addi	a0,a0,0
     aa4:	0602                	c.slli64	a2
     aa6:	02097c03          	0x2097c03
     aaa:	0100                	addi	s0,sp,128
     aac:	0305                	addi	t1,t1,1
     aae:	00090203          	lb	tp,0(s2)
     ab2:	0100                	addi	s0,sp,128
     ab4:	0205                	addi	tp,tp,1
     ab6:	00096a03          	0x96a03
     aba:	0100                	addi	s0,sp,128
     abc:	1d05                	addi	s10,s10,-31
     abe:	0306                	slli	t1,t1,0x1
     ac0:	0000097b          	0x97b
     ac4:	0501                	addi	a0,a0,0
     ac6:	0900030b          	0x900030b
     aca:	0004                	0x4
     acc:	0501                	addi	a0,a0,0
     ace:	0320                	addi	s0,sp,392
     ad0:	0901                	addi	s2,s2,0
     ad2:	0004                	0x4
     ad4:	0501                	addi	a0,a0,0
     ad6:	09000307          	0x9000307
     ada:	0006                	c.slli	zero,0x1
     adc:	0501                	addi	a0,a0,0
     ade:	1b030603          	lb	a2,432(t1)
     ae2:	0409                	addi	s0,s0,2
     ae4:	0100                	addi	s0,sp,128
     ae6:	1305                	addi	t1,t1,-31
     ae8:	0306                	slli	t1,t1,0x1
     aea:	0900                	addi	s0,sp,144
     aec:	0000                	unimp
     aee:	0501                	addi	a0,a0,0
     af0:	0901030b          	0x901030b
     af4:	0004                	0x4
     af6:	0501                	addi	a0,a0,0
     af8:	097f0313          	addi	t1,t5,151
     afc:	0002                	c.slli64	zero
     afe:	0501                	addi	a0,a0,0
     b00:	01030603          	lb	a2,16(t1)
     b04:	0409                	addi	s0,s0,2
     b06:	0100                	addi	s0,sp,128
     b08:	0705                	addi	a4,a4,1
     b0a:	00090003          	lb	zero,0(s2)
     b0e:	0100                	addi	s0,sp,128
     b10:	1005                	c.nop	-31
     b12:	00090003          	lb	zero,0(s2)
     b16:	0100                	addi	s0,sp,128
     b18:	0405                	addi	s0,s0,1
     b1a:	0200                	addi	s0,sp,256
     b1c:	0304                	addi	s1,sp,384
     b1e:	00090103          	lb	sp,0(s2)
     b22:	0100                	addi	s0,sp,128
     b24:	2005                	jal	b44 <_data_lma+0x5c0>
     b26:	0200                	addi	s0,sp,256
     b28:	0304                	addi	s1,sp,384
     b2a:	0306                	slli	t1,t1,0x1
     b2c:	0900                	addi	s0,sp,144
     b2e:	0000                	unimp
     b30:	0501                	addi	a0,a0,0
     b32:	0018                	0x18
     b34:	0402                	c.slli64	s0
     b36:	09000303          	lb	t1,144(zero) # 90 <InterruptVector+0x90>
     b3a:	0010                	0x10
     b3c:	0501                	addi	a0,a0,0
     b3e:	0020                	addi	s0,sp,8
     b40:	0402                	c.slli64	s0
     b42:	09000303          	lb	t1,144(zero) # 90 <InterruptVector+0x90>
     b46:	0006                	c.slli	zero,0x1
     b48:	0501                	addi	a0,a0,0
     b4a:	0018                	0x18
     b4c:	0402                	c.slli64	s0
     b4e:	09000303          	lb	t1,144(zero) # 90 <InterruptVector+0x90>
     b52:	0004                	0x4
     b54:	0501                	addi	a0,a0,0
     b56:	0016                	c.slli	zero,0x5
     b58:	0402                	c.slli64	s0
     b5a:	7f030603          	lb	a2,2032(t1)
     b5e:	0609                	addi	a2,a2,2
     b60:	0100                	addi	s0,sp,128
     b62:	1705                	addi	a4,a4,-31
     b64:	0200                	addi	s0,sp,256
     b66:	0304                	addi	s1,sp,384
     b68:	0306                	slli	t1,t1,0x1
     b6a:	0900                	addi	s0,sp,144
     b6c:	0000                	unimp
     b6e:	0501                	addi	a0,a0,0
     b70:	0010                	0x10
     b72:	0402                	c.slli64	s0
     b74:	00030603          	lb	a2,0(t1)
     b78:	0209                	addi	tp,tp,2
     b7a:	0100                	addi	s0,sp,128
     b7c:	0305                	addi	t1,t1,1
     b7e:	0200                	addi	s0,sp,256
     b80:	0304                	addi	s1,sp,384
     b82:	0306                	slli	t1,t1,0x1
     b84:	0900                	addi	s0,sp,144
     b86:	0000                	unimp
     b88:	0601                	addi	a2,a2,0
     b8a:	04090303          	lb	t1,64(s2)
     b8e:	0100                	addi	s0,sp,128
     b90:	1605                	addi	a2,a2,-31
     b92:	0306                	slli	t1,t1,0x1
     b94:	0900                	addi	s0,sp,144
     b96:	0000                	unimp
     b98:	0501                	addi	a0,a0,0
     b9a:	79030607          	0x79030607
     b9e:	0409                	addi	s0,s0,2
     ba0:	0100                	addi	s0,sp,128
     ba2:	0209                	addi	tp,tp,2
     ba4:	0000                	unimp
     ba6:	0101                	addi	sp,sp,0
     ba8:	0105                	addi	sp,sp,1
     baa:	0500                	addi	s0,sp,640
     bac:	6c02                	flw	fs8,0(sp)
     bae:	0002                	c.slli64	zero
     bb0:	0300                	addi	s0,sp,384
     bb2:	05fe                	slli	a1,a1,0x1f
     bb4:	0501                	addi	a0,a0,0
     bb6:	0302                	c.slli64	t1
     bb8:	0901                	addi	s2,s2,0
     bba:	0000                	unimp
     bbc:	0501                	addi	a0,a0,0
     bbe:	0301                	addi	t1,t1,0
     bc0:	0914                	addi	a3,sp,144
     bc2:	0028                	addi	a0,sp,8
     bc4:	0501                	addi	a0,a0,0
     bc6:	0302                	c.slli64	t1
     bc8:	0036091b          	0x36091b
     bcc:	0501                	addi	a0,a0,0
     bce:	0301                	addi	t1,t1,0
     bd0:	00080903          	lb	s2,0(a6)
     bd4:	0901                	addi	s2,s2,0
     bd6:	000c                	0xc
     bd8:	0100                	addi	s0,sp,128
     bda:	0501                	addi	a0,a0,0
     bdc:	0601                	addi	a2,a2,0
     bde:	0500                	addi	s0,sp,640
     be0:	de02                	sw	zero,60(sp)
     be2:	0002                	c.slli64	zero
     be4:	0300                	addi	s0,sp,384
     be6:	06b4                	addi	a3,sp,840
     be8:	0601                	addi	a2,a2,0
     bea:	097ef303          	0x97ef303
     bee:	0000                	unimp
     bf0:	0501                	addi	a0,a0,0
     bf2:	0302                	c.slli64	t1
     bf4:	0902                	c.slli64	s2
     bf6:	0000                	unimp
     bf8:	0901                	addi	s2,s2,0
     bfa:	0002                	c.slli64	zero
     bfc:	0100                	addi	s0,sp,128
     bfe:	0501                	addi	a0,a0,0
     c00:	0601                	addi	a2,a2,0
     c02:	0500                	addi	s0,sp,640
     c04:	0002                	c.slli64	zero
     c06:	0000                	unimp
     c08:	0300                	addi	s0,sp,384
     c0a:	05aa                	slli	a1,a1,0xa
     c0c:	0501                	addi	a0,a0,0
     c0e:	061e                	slli	a2,a2,0x7
     c10:	097bc603          	lbu	a2,151(s7)
     c14:	0000                	unimp
     c16:	0501                	addi	a0,a0,0
     c18:	0320                	addi	s0,sp,392
     c1a:	0900                	addi	s0,sp,144
     c1c:	0000                	unimp
     c1e:	0501                	addi	a0,a0,0
     c20:	0332                	slli	t1,t1,0xc
     c22:	0900                	addi	s0,sp,144
     c24:	0000                	unimp
     c26:	0501                	addi	a0,a0,0
     c28:	061e                	slli	a2,a2,0x7
     c2a:	00090003          	lb	zero,0(s2)
     c2e:	0100                	addi	s0,sp,128
     c30:	3905                	jal	860 <_data_lma+0x2dc>
     c32:	0200                	addi	s0,sp,256
     c34:	0104                	addi	s1,sp,128
     c36:	0306                	slli	t1,t1,0x1
     c38:	0900                	addi	s0,sp,144
     c3a:	0000                	unimp
     c3c:	0501                	addi	a0,a0,0
     c3e:	0032                	c.slli	zero,0xc
     c40:	0402                	c.slli64	s0
     c42:	0601                	addi	a2,a2,0
     c44:	00090003          	lb	zero,0(s2)
     c48:	0100                	addi	s0,sp,128
     c4a:	4205                	li	tp,1
     c4c:	0200                	addi	s0,sp,256
     c4e:	0404                	addi	s1,sp,512
     c50:	0306                	slli	t1,t1,0x1
     c52:	0900                	addi	s0,sp,144
     c54:	0000                	unimp
     c56:	0501                	addi	a0,a0,0
     c58:	004e                	c.slli	zero,0x13
     c5a:	0402                	c.slli64	s0
     c5c:	0604                	addi	s1,sp,768
     c5e:	00090003          	lb	zero,0(s2)
     c62:	0100                	addi	s0,sp,128
     c64:	4105                	li	sp,1
     c66:	0200                	addi	s0,sp,256
     c68:	0304                	addi	s1,sp,384
     c6a:	0306                	slli	t1,t1,0x1
     c6c:	0900                	addi	s0,sp,144
     c6e:	0000                	unimp
     c70:	0501                	addi	a0,a0,0
     c72:	003d                	c.nop	15
     c74:	0402                	c.slli64	s0
     c76:	09000303          	lb	t1,144(zero) # 90 <InterruptVector+0x90>
     c7a:	0000                	unimp
     c7c:	0501                	addi	a0,a0,0
     c7e:	003e                	c.slli	zero,0xf
     c80:	0402                	c.slli64	s0
     c82:	00030603          	lb	a2,0(t1)
     c86:	0009                	c.nop	2
     c88:	0100                	addi	s0,sp,128
     c8a:	0009                	c.nop	2
     c8c:	0000                	unimp
     c8e:	0101                	addi	sp,sp,0
     c90:	0105                	addi	sp,sp,1
     c92:	0500                	addi	s0,sp,640
     c94:	0002                	c.slli64	zero
     c96:	0000                	unimp
     c98:	0300                	addi	s0,sp,384
     c9a:	011a                	slli	sp,sp,0x6
     c9c:	0205                	addi	tp,tp,1
     c9e:	00090103          	lb	sp,0(s2)
     ca2:	0100                	addi	s0,sp,128
     ca4:	00090103          	lb	sp,0(s2)
     ca8:	0100                	addi	s0,sp,128
     caa:	0105                	addi	sp,sp,1
     cac:	0306                	slli	t1,t1,0x1
     cae:	097e                	slli	s2,s2,0x1f
     cb0:	0000                	unimp
     cb2:	0501                	addi	a0,a0,0
     cb4:	0302                	c.slli64	t1
     cb6:	0902                	c.slli64	s2
     cb8:	0000                	unimp
     cba:	0501                	addi	a0,a0,0
     cbc:	0301                	addi	t1,t1,0
     cbe:	097e                	slli	s2,s2,0x1f
     cc0:	0000                	unimp
     cc2:	0301                	addi	t1,t1,0
     cc4:	0900                	addi	s0,sp,144
     cc6:	0000                	unimp
     cc8:	0501                	addi	a0,a0,0
     cca:	0302                	c.slli64	t1
     ccc:	0902                	c.slli64	s2
     cce:	0000                	unimp
     cd0:	0601                	addi	a2,a2,0
     cd2:	00090103          	lb	sp,0(s2)
     cd6:	0100                	addi	s0,sp,128
     cd8:	0605                	addi	a2,a2,1
     cda:	0306                	slli	t1,t1,0x1
     cdc:	03f6                	slli	t2,t2,0x1d
     cde:	0009                	c.nop	2
     ce0:	0100                	addi	s0,sp,128
     ce2:	0d05                	addi	s10,s10,1
     ce4:	00090103          	lb	sp,0(s2)
     ce8:	0100                	addi	s0,sp,128
     cea:	1205                	addi	tp,tp,-31
     cec:	00090003          	lb	zero,0(s2)
     cf0:	0100                	addi	s0,sp,128
     cf2:	0c05                	addi	s8,s8,1
     cf4:	00090003          	lb	zero,0(s2)
     cf8:	0100                	addi	s0,sp,128
     cfa:	0805                	addi	a6,a6,1
     cfc:	00090003          	lb	zero,0(s2)
     d00:	0100                	addi	s0,sp,128
     d02:	0105                	addi	sp,sp,1
     d04:	097c8c03          	lb	s8,151(s9)
     d08:	0000                	unimp
     d0a:	0501                	addi	a0,a0,0
     d0c:	0306                	slli	t1,t1,0x1
     d0e:	03f6                	slli	t2,t2,0x1d
     d10:	0009                	c.nop	2
     d12:	0100                	addi	s0,sp,128
     d14:	0a05                	addi	s4,s4,1
     d16:	00090203          	lb	tp,0(s2)
     d1a:	0100                	addi	s0,sp,128
     d1c:	1205                	addi	tp,tp,-31
     d1e:	00097c03          	0x97c03
     d22:	0100                	addi	s0,sp,128
     d24:	0a05                	addi	s4,s4,1
     d26:	00090403          	lb	s0,0(s2)
     d2a:	0100                	addi	s0,sp,128
     d2c:	0505                	addi	a0,a0,1
     d2e:	0900d803          	lhu	a6,144(ra)
     d32:	0000                	unimp
     d34:	0501                	addi	a0,a0,0
     d36:	7faf0307          	0x7faf0307
     d3a:	0009                	c.nop	2
     d3c:	0100                	addi	s0,sp,128
     d3e:	00090303          	lb	t1,0(s2)
     d42:	0100                	addi	s0,sp,128
     d44:	0c05                	addi	s8,s8,1
     d46:	00097d03          	0x97d03
     d4a:	0100                	addi	s0,sp,128
     d4c:	0605                	addi	a2,a2,1
     d4e:	00090003          	lb	zero,0(s2)
     d52:	0100                	addi	s0,sp,128
     d54:	1c05                	addi	s8,s8,-31
     d56:	00090303          	lb	t1,0(s2)
     d5a:	0100                	addi	s0,sp,128
     d5c:	0705                	addi	a4,a4,1
     d5e:	00090003          	lb	zero,0(s2)
     d62:	0100                	addi	s0,sp,128
     d64:	0805                	addi	a6,a6,1
     d66:	00090303          	lb	t1,0(s2)
     d6a:	0100                	addi	s0,sp,128
     d6c:	0a05                	addi	s4,s4,1
     d6e:	00097e03          	0x97e03
     d72:	0100                	addi	s0,sp,128
     d74:	1505                	addi	a0,a0,-31
     d76:	00090103          	lb	sp,0(s2)
     d7a:	0100                	addi	s0,sp,128
     d7c:	0d05                	addi	s10,s10,1
     d7e:	00090103          	lb	sp,0(s2)
     d82:	0100                	addi	s0,sp,128
     d84:	1505                	addi	a0,a0,-31
     d86:	00097f03          	0x97f03
     d8a:	0100                	addi	s0,sp,128
     d8c:	0805                	addi	a6,a6,1
     d8e:	00090103          	lb	sp,0(s2)
     d92:	0100                	addi	s0,sp,128
     d94:	1505                	addi	a0,a0,-31
     d96:	00097f03          	0x97f03
     d9a:	0100                	addi	s0,sp,128
     d9c:	0c05                	addi	s8,s8,1
     d9e:	00090003          	lb	zero,0(s2)
     da2:	0100                	addi	s0,sp,128
     da4:	0805                	addi	a6,a6,1
     da6:	00090103          	lb	sp,0(s2)
     daa:	0100                	addi	s0,sp,128
     dac:	1505                	addi	a0,a0,-31
     dae:	00097e03          	0x97e03
     db2:	0100                	addi	s0,sp,128
     db4:	0a05                	addi	s4,s4,1
     db6:	00090003          	lb	zero,0(s2)
     dba:	0100                	addi	s0,sp,128
     dbc:	0705                	addi	a4,a4,1
     dbe:	00090703          	lb	a4,0(s2)
     dc2:	0100                	addi	s0,sp,128
     dc4:	0905                	addi	s2,s2,1
     dc6:	00097203          	0x97203
     dca:	0100                	addi	s0,sp,128
     dcc:	0705                	addi	a4,a4,1
     dce:	00090e03          	lb	t3,0(s2)
     dd2:	0100                	addi	s0,sp,128
     dd4:	00090203          	lb	tp,0(s2)
     dd8:	0100                	addi	s0,sp,128
     dda:	00097f03          	0x97f03
     dde:	0100                	addi	s0,sp,128
     de0:	0d05                	addi	s10,s10,1
     de2:	00090103          	lb	sp,0(s2)
     de6:	0100                	addi	s0,sp,128
     de8:	0705                	addi	a4,a4,1
     dea:	00090003          	lb	zero,0(s2)
     dee:	0100                	addi	s0,sp,128
     df0:	0405                	addi	s0,s0,1
     df2:	00090303          	lb	t1,0(s2)
     df6:	0100                	addi	s0,sp,128
     df8:	0c05                	addi	s8,s8,1
     dfa:	00093d03          	0x93d03
     dfe:	0100                	addi	s0,sp,128
     e00:	0905                	addi	s2,s2,1
     e02:	097fae03          	lw	t3,151(t6)
     e06:	0000                	unimp
     e08:	0501                	addi	a0,a0,0
     e0a:	0304                	addi	s1,sp,384
     e0c:	0915                	addi	s2,s2,5
     e0e:	0000                	unimp
     e10:	0501                	addi	a0,a0,0
     e12:	030a                	slli	t1,t1,0x2
     e14:	0924                	addi	s1,sp,152
     e16:	0000                	unimp
     e18:	0501                	addi	a0,a0,0
     e1a:	030c                	addi	a1,sp,384
     e1c:	0901                	addi	s2,s2,0
     e1e:	0000                	unimp
     e20:	0501                	addi	a0,a0,0
     e22:	0309                	addi	t1,t1,2
     e24:	0901                	addi	s2,s2,0
     e26:	0000                	unimp
     e28:	0501                	addi	a0,a0,0
     e2a:	030c                	addi	a1,sp,384
     e2c:	097f                	0x97f
     e2e:	0000                	unimp
     e30:	0501                	addi	a0,a0,0
     e32:	0309                	addi	t1,t1,2
     e34:	0901                	addi	s2,s2,0
     e36:	0000                	unimp
     e38:	0501                	addi	a0,a0,0
     e3a:	030d                	addi	t1,t1,3
     e3c:	0901                	addi	s2,s2,0
     e3e:	0000                	unimp
     e40:	0501                	addi	a0,a0,0
     e42:	095f0317          	auipc	t1,0x95f0
     e46:	0000                	unimp
     e48:	0501                	addi	a0,a0,0
     e4a:	0308                	addi	a0,sp,384
     e4c:	097f                	0x97f
     e4e:	0000                	unimp
     e50:	0501                	addi	a0,a0,0
     e52:	030d                	addi	t1,t1,3
     e54:	0901                	addi	s2,s2,0
     e56:	0000                	unimp
     e58:	0501                	addi	a0,a0,0
     e5a:	030c                	addi	a1,sp,384
     e5c:	0908                	addi	a0,sp,144
     e5e:	0000                	unimp
     e60:	0301                	addi	t1,t1,0
     e62:	0000090b          	0x90b
     e66:	0301                	addi	t1,t1,0
     e68:	0901                	addi	s2,s2,0
     e6a:	0000                	unimp
     e6c:	0301                	addi	t1,t1,0
     e6e:	00000923          	sb	zero,18(zero) # 12 <InterruptVector+0x12>
     e72:	0501                	addi	a0,a0,0
     e74:	0309                	addi	t1,t1,2
     e76:	0000094b          	fnmsub.s	fs2,ft0,ft0,ft0,rne
     e7a:	0501                	addi	a0,a0,0
     e7c:	097e0317          	auipc	t1,0x97e0
     e80:	0000                	unimp
     e82:	0501                	addi	a0,a0,0
     e84:	030d                	addi	t1,t1,3
     e86:	0000090f          	0x90f
     e8a:	0501                	addi	a0,a0,0
     e8c:	09710317          	auipc	t1,0x9710
     e90:	0000                	unimp
     e92:	0501                	addi	a0,a0,0
     e94:	030c                	addi	a1,sp,384
     e96:	00000913          	li	s2,0
     e9a:	0501                	addi	a0,a0,0
     e9c:	0312                	slli	t1,t1,0x4
     e9e:	0905                	addi	s2,s2,1
     ea0:	0000                	unimp
     ea2:	0501                	addi	a0,a0,0
     ea4:	0900030b          	0x900030b
     ea8:	0000                	unimp
     eaa:	0501                	addi	a0,a0,0
     eac:	0312                	slli	t1,t1,0x4
     eae:	0900                	addi	s0,sp,144
     eb0:	0000                	unimp
     eb2:	0501                	addi	a0,a0,0
     eb4:	030c                	addi	a1,sp,384
     eb6:	0901                	addi	s2,s2,0
     eb8:	0000                	unimp
     eba:	0501                	addi	a0,a0,0
     ebc:	097f030b          	0x97f030b
     ec0:	0000                	unimp
     ec2:	0501                	addi	a0,a0,0
     ec4:	030c                	addi	a1,sp,384
     ec6:	0901                	addi	s2,s2,0
     ec8:	0000                	unimp
     eca:	0501                	addi	a0,a0,0
     ecc:	030d                	addi	t1,t1,3
     ece:	0000090b          	0x90b
     ed2:	0901                	addi	s2,s2,0
     ed4:	0000                	unimp
     ed6:	0100                	addi	s0,sp,128
     ed8:	0501                	addi	a0,a0,0
     eda:	0205002b          	0x205002b
     ede:	0000                	unimp
     ee0:	0000                	unimp
     ee2:	0100f203          	0x100f203
     ee6:	2d05                	jal	1516 <ch32v003fun.c.297fed70+0x634>
     ee8:	00090003          	lb	zero,0(s2)
     eec:	0100                	addi	s0,sp,128
     eee:	4605                	li	a2,1
     ef0:	00090003          	lb	zero,0(s2)
     ef4:	0100                	addi	s0,sp,128
     ef6:	3c05                	jal	926 <_data_lma+0x3a2>
     ef8:	0306                	slli	t1,t1,0x1
     efa:	0900                	addi	s0,sp,144
     efc:	0000                	unimp
     efe:	0501                	addi	a0,a0,0
     f00:	004d                	c.nop	19
     f02:	0402                	c.slli64	s0
     f04:	0601                	addi	a2,a2,0
     f06:	00090003          	lb	zero,0(s2)
     f0a:	0100                	addi	s0,sp,128
     f0c:	4605                	li	a2,1
     f0e:	0200                	addi	s0,sp,256
     f10:	0104                	addi	s1,sp,128
     f12:	0306                	slli	t1,t1,0x1
     f14:	0900                	addi	s0,sp,144
     f16:	0000                	unimp
     f18:	0501                	addi	a0,a0,0
     f1a:	0062                	c.slli	zero,0x18
     f1c:	0402                	c.slli64	s0
     f1e:	0604                	addi	s1,sp,768
     f20:	00090003          	lb	zero,0(s2)
     f24:	0100                	addi	s0,sp,128
     f26:	6f05                	lui	t5,0x1
     f28:	0200                	addi	s0,sp,256
     f2a:	0404                	addi	s1,sp,512
     f2c:	0306                	slli	t1,t1,0x1
     f2e:	0900                	addi	s0,sp,144
     f30:	0000                	unimp
     f32:	0501                	addi	a0,a0,0
     f34:	005a                	c.slli	zero,0x16
     f36:	0402                	c.slli64	s0
     f38:	00030603          	lb	a2,0(t1) # 9710e8c <wiring.c.7604182b+0x970e9fd>
     f3c:	0009                	c.nop	2
     f3e:	0100                	addi	s0,sp,128
     f40:	5d05                	li	s10,-31
     f42:	0200                	addi	s0,sp,256
     f44:	0304                	addi	s1,sp,384
     f46:	0306                	slli	t1,t1,0x1
     f48:	0900                	addi	s0,sp,144
     f4a:	0000                	unimp
     f4c:	0501                	addi	a0,a0,0
     f4e:	0050                	addi	a2,sp,4
     f50:	0402                	c.slli64	s0
     f52:	00030603          	lb	a2,0(t1)
     f56:	0009                	c.nop	2
     f58:	0100                	addi	s0,sp,128
     f5a:	5605                	li	a2,-31
     f5c:	0200                	addi	s0,sp,256
     f5e:	0304                	addi	s1,sp,384
     f60:	0306                	slli	t1,t1,0x1
     f62:	0900                	addi	s0,sp,144
     f64:	0000                	unimp
     f66:	0901                	addi	s2,s2,0
     f68:	0000                	unimp
     f6a:	0100                	addi	s0,sp,128
     f6c:	0501                	addi	a0,a0,0
     f6e:	0026                	c.slli	zero,0x9
     f70:	0205                	addi	tp,tp,1
     f72:	0000                	unimp
     f74:	0000                	unimp
     f76:	0100f303          	0x100f303
     f7a:	2805                	jal	faa <ch32v003fun.c.297fed70+0xc8>
     f7c:	00090003          	lb	zero,0(s2)
     f80:	0100                	addi	s0,sp,128
     f82:	2f05                	jal	16b2 <ch32v003fun.c.297fed70+0x7d0>
     f84:	0200                	addi	s0,sp,256
     f86:	0104                	addi	s1,sp,128
     f88:	00090003          	lb	zero,0(s2)
     f8c:	0100                	addi	s0,sp,128
     f8e:	3305                	jal	cae <_data_lma+0x72a>
     f90:	0200                	addi	s0,sp,256
     f92:	0104                	addi	s1,sp,128
     f94:	0306                	slli	t1,t1,0x1
     f96:	0900                	addi	s0,sp,144
     f98:	0000                	unimp
     f9a:	0501                	addi	a0,a0,0
     f9c:	0032                	c.slli	zero,0xc
     f9e:	0402                	c.slli64	s0
     fa0:	0301                	addi	t1,t1,0
     fa2:	0900                	addi	s0,sp,144
     fa4:	0000                	unimp
     fa6:	0501                	addi	a0,a0,0
     fa8:	0028                	addi	a0,sp,8
     faa:	0402                	c.slli64	s0
     fac:	0301                	addi	t1,t1,0
     fae:	0900                	addi	s0,sp,144
     fb0:	0000                	unimp
     fb2:	0501                	addi	a0,a0,0
     fb4:	04020043          	0x4020043
     fb8:	00030603          	lb	a2,0(t1)
     fbc:	0009                	c.nop	2
     fbe:	0100                	addi	s0,sp,128
     fc0:	4d05                	li	s10,1
     fc2:	0200                	addi	s0,sp,256
     fc4:	0304                	addi	s1,sp,384
     fc6:	0306                	slli	t1,t1,0x1
     fc8:	0900                	addi	s0,sp,144
     fca:	0000                	unimp
     fcc:	0501                	addi	a0,a0,0
     fce:	0041                	c.nop	16
     fd0:	0402                	c.slli64	s0
     fd2:	0602                	c.slli64	a2
     fd4:	00090003          	lb	zero,0(s2)
     fd8:	0100                	addi	s0,sp,128
     fda:	3805                	jal	80a <_data_lma+0x286>
     fdc:	0200                	addi	s0,sp,256
     fde:	0204                	addi	s1,sp,256
     fe0:	00090003          	lb	zero,0(s2)
     fe4:	0100                	addi	s0,sp,128
     fe6:	3905                	jal	c16 <_data_lma+0x692>
     fe8:	0200                	addi	s0,sp,256
     fea:	0204                	addi	s1,sp,256
     fec:	0306                	slli	t1,t1,0x1
     fee:	0900                	addi	s0,sp,144
     ff0:	0000                	unimp
     ff2:	0501                	addi	a0,a0,0
     ff4:	003e                	c.slli	zero,0xf
     ff6:	0402                	c.slli64	s0
     ff8:	0302                	c.slli64	t1
     ffa:	0900                	addi	s0,sp,144
     ffc:	0000                	unimp
     ffe:	0901                	addi	s2,s2,0
    1000:	0000                	unimp
    1002:	0100                	addi	s0,sp,128
    1004:	0501                	addi	a0,a0,0
    1006:	0031                	c.nop	12
    1008:	0205                	addi	tp,tp,1
    100a:	0000                	unimp
    100c:	0000                	unimp
    100e:	0100f403          	0x100f403
    1012:	3305                	jal	d32 <_data_lma+0x7ae>
    1014:	00090003          	lb	zero,0(s2)
    1018:	0100                	addi	s0,sp,128
    101a:	3a05                	jal	94a <_data_lma+0x3c6>
    101c:	0200                	addi	s0,sp,256
    101e:	0104                	addi	s1,sp,128
    1020:	00090003          	lb	zero,0(s2)
    1024:	0100                	addi	s0,sp,128
    1026:	3305                	jal	d46 <_data_lma+0x7c2>
    1028:	0200                	addi	s0,sp,256
    102a:	0104                	addi	s1,sp,128
    102c:	0306                	slli	t1,t1,0x1
    102e:	0900                	addi	s0,sp,144
    1030:	0000                	unimp
    1032:	0501                	addi	a0,a0,0
    1034:	04020043          	0x4020043
    1038:	0302                	c.slli64	t1
    103a:	0900                	addi	s0,sp,144
    103c:	0000                	unimp
    103e:	0501                	addi	a0,a0,0
    1040:	0042                	c.slli	zero,0x10
    1042:	0402                	c.slli64	s0
    1044:	0302                	c.slli64	t1
    1046:	0900                	addi	s0,sp,144
    1048:	0000                	unimp
    104a:	0501                	addi	a0,a0,0
    104c:	003c                	addi	a5,sp,8
    104e:	0402                	c.slli64	s0
    1050:	0302                	c.slli64	t1
    1052:	0900                	addi	s0,sp,144
    1054:	0000                	unimp
    1056:	0501                	addi	a0,a0,0
    1058:	0362                	slli	t1,t1,0x18
    105a:	0900                	addi	s0,sp,144
    105c:	0000                	unimp
    105e:	0501                	addi	a0,a0,0
    1060:	0056                	c.slli	zero,0x15
    1062:	0402                	c.slli64	s0
    1064:	0604                	addi	s1,sp,768
    1066:	00090003          	lb	zero,0(s2)
    106a:	0100                	addi	s0,sp,128
    106c:	4805                	li	a6,1
    106e:	0200                	addi	s0,sp,256
    1070:	0404                	addi	s1,sp,512
    1072:	00090003          	lb	zero,0(s2)
    1076:	0100                	addi	s0,sp,128
    1078:	4e05                	li	t3,1
    107a:	0200                	addi	s0,sp,256
    107c:	0404                	addi	s1,sp,512
    107e:	0306                	slli	t1,t1,0x1
    1080:	0900                	addi	s0,sp,144
    1082:	0000                	unimp
    1084:	0501                	addi	a0,a0,0
    1086:	04020053          	0x4020053
    108a:	0304                	addi	s1,sp,384
    108c:	0900                	addi	s0,sp,144
    108e:	0000                	unimp
    1090:	0901                	addi	s2,s2,0
    1092:	0000                	unimp
    1094:	0100                	addi	s0,sp,128
    1096:	0501                	addi	a0,a0,0
    1098:	0001                	nop
    109a:	0205                	addi	tp,tp,1
    109c:	0000                	unimp
    109e:	0000                	unimp
    10a0:	0100f603          	0x100f603
    10a4:	0205                	addi	tp,tp,1
    10a6:	00090103          	lb	sp,0(s2)
    10aa:	0100                	addi	s0,sp,128
    10ac:	0905                	addi	s2,s2,1
    10ae:	0200                	addi	s0,sp,256
    10b0:	0104                	addi	s1,sp,128
    10b2:	00090003          	lb	zero,0(s2)
    10b6:	0100                	addi	s0,sp,128
    10b8:	0d05                	addi	s10,s10,1
    10ba:	0200                	addi	s0,sp,256
    10bc:	0104                	addi	s1,sp,128
    10be:	0306                	slli	t1,t1,0x1
    10c0:	0900                	addi	s0,sp,144
    10c2:	0000                	unimp
    10c4:	0501                	addi	a0,a0,0
    10c6:	0002                	c.slli64	zero
    10c8:	0402                	c.slli64	s0
    10ca:	0301                	addi	t1,t1,0
    10cc:	0900                	addi	s0,sp,144
    10ce:	0000                	unimp
    10d0:	0501                	addi	a0,a0,0
    10d2:	0010                	0x10
    10d4:	0402                	c.slli64	s0
    10d6:	0302                	c.slli64	t1
    10d8:	0900                	addi	s0,sp,144
    10da:	0000                	unimp
    10dc:	0501                	addi	a0,a0,0
    10de:	0602                	c.slli64	a2
    10e0:	00090103          	lb	sp,0(s2)
    10e4:	0100                	addi	s0,sp,128
    10e6:	0105                	addi	sp,sp,1
    10e8:	0306                	slli	t1,t1,0x1
    10ea:	0901                	addi	s2,s2,0
    10ec:	0000                	unimp
    10ee:	0501                	addi	a0,a0,0
    10f0:	0020                	addi	s0,sp,8
    10f2:	0402                	c.slli64	s0
    10f4:	7e030603          	lb	a2,2016(t1)
    10f8:	0009                	c.nop	2
    10fa:	0100                	addi	s0,sp,128
    10fc:	1705                	addi	a4,a4,-31
    10fe:	0200                	addi	s0,sp,256
    1100:	0304                	addi	s1,sp,384
    1102:	00090003          	lb	zero,0(s2)
    1106:	0100                	addi	s0,sp,128
    1108:	1805                	addi	a6,a6,-31
    110a:	0200                	addi	s0,sp,256
    110c:	0304                	addi	s1,sp,384
    110e:	0306                	slli	t1,t1,0x1
    1110:	0900                	addi	s0,sp,144
    1112:	0000                	unimp
    1114:	0501                	addi	a0,a0,0
    1116:	001d                	c.nop	7
    1118:	0402                	c.slli64	s0
    111a:	09000303          	lb	t1,144(zero) # 90 <InterruptVector+0x90>
    111e:	0000                	unimp
    1120:	0901                	addi	s2,s2,0
    1122:	0000                	unimp
    1124:	0100                	addi	s0,sp,128
    1126:	0501                	addi	a0,a0,0
    1128:	0001                	nop
    112a:	0205                	addi	tp,tp,1
    112c:	0000                	unimp
    112e:	0000                	unimp
    1130:	0100fb03          	0x100fb03
    1134:	0205                	addi	tp,tp,1
    1136:	00090103          	lb	sp,0(s2)
    113a:	0100                	addi	s0,sp,128
    113c:	00090103          	lb	sp,0(s2)
    1140:	0100                	addi	s0,sp,128
    1142:	0505                	addi	a0,a0,1
    1144:	0306                	slli	t1,t1,0x1
    1146:	0900                	addi	s0,sp,144
    1148:	0000                	unimp
    114a:	0501                	addi	a0,a0,0
    114c:	0308                	addi	a0,sp,384
    114e:	0900                	addi	s0,sp,144
    1150:	0000                	unimp
    1152:	0501                	addi	a0,a0,0
    1154:	0009                	c.nop	2
    1156:	0402                	c.slli64	s0
    1158:	0601                	addi	a2,a2,0
    115a:	00090103          	lb	sp,0(s2)
    115e:	0100                	addi	s0,sp,128
    1160:	0f05                	addi	t5,t5,1
    1162:	0200                	addi	s0,sp,256
    1164:	0104                	addi	s1,sp,128
    1166:	0306                	slli	t1,t1,0x1
    1168:	0900                	addi	s0,sp,144
    116a:	0000                	unimp
    116c:	0501                	addi	a0,a0,0
    116e:	0002                	c.slli64	zero
    1170:	0402                	c.slli64	s0
    1172:	0301                	addi	t1,t1,0
    1174:	0900                	addi	s0,sp,144
    1176:	0000                	unimp
    1178:	0501                	addi	a0,a0,0
    117a:	000c                	0xc
    117c:	0402                	c.slli64	s0
    117e:	0302                	c.slli64	t1
    1180:	0900                	addi	s0,sp,144
    1182:	0000                	unimp
    1184:	0501                	addi	a0,a0,0
    1186:	0012                	c.slli	zero,0x4
    1188:	0402                	c.slli64	s0
    118a:	09000303          	lb	t1,144(zero) # 90 <InterruptVector+0x90>
    118e:	0000                	unimp
    1190:	0501                	addi	a0,a0,0
    1192:	04020017          	auipc	zero,0x4020
    1196:	0304                	addi	s1,sp,384
    1198:	0900                	addi	s0,sp,144
    119a:	0000                	unimp
    119c:	0501                	addi	a0,a0,0
    119e:	0602                	c.slli64	a2
    11a0:	00090103          	lb	sp,0(s2)
    11a4:	0100                	addi	s0,sp,128
    11a6:	0c05                	addi	s8,s8,1
    11a8:	0306                	slli	t1,t1,0x1
    11aa:	0900                	addi	s0,sp,144
    11ac:	0000                	unimp
    11ae:	0501                	addi	a0,a0,0
    11b0:	097e0313          	addi	t1,t3,151 # 1a097 <wiring.c.7604182b+0x17c08>
    11b4:	0000                	unimp
    11b6:	0501                	addi	a0,a0,0
    11b8:	0301                	addi	t1,t1,0
    11ba:	00000903          	lb	s2,0(zero) # 0 <InterruptVector>
    11be:	0901                	addi	s2,s2,0
    11c0:	0000                	unimp
    11c2:	0100                	addi	s0,sp,128
    11c4:	0501                	addi	a0,a0,0
    11c6:	0001                	nop
    11c8:	0205                	addi	tp,tp,1
    11ca:	0000                	unimp
    11cc:	0000                	unimp
    11ce:	01029b03          	lh	s6,16(t0) # 119402e <wiring.c.7604182b+0x1191b9f>
    11d2:	0306                	slli	t1,t1,0x1
    11d4:	0900                	addi	s0,sp,144
    11d6:	0000                	unimp
    11d8:	0501                	addi	a0,a0,0
    11da:	0602                	c.slli64	a2
    11dc:	00090103          	lb	sp,0(s2)
    11e0:	0100                	addi	s0,sp,128
    11e2:	00090103          	lb	sp,0(s2)
    11e6:	0100                	addi	s0,sp,128
    11e8:	0505                	addi	a0,a0,1
    11ea:	0306                	slli	t1,t1,0x1
    11ec:	0900                	addi	s0,sp,144
    11ee:	0000                	unimp
    11f0:	0501                	addi	a0,a0,0
    11f2:	060a                	slli	a2,a2,0x2
    11f4:	00090003          	lb	zero,0(s2)
    11f8:	0100                	addi	s0,sp,128
    11fa:	1d05                	addi	s10,s10,-31
    11fc:	0306                	slli	t1,t1,0x1
    11fe:	0900                	addi	s0,sp,144
    1200:	0000                	unimp
    1202:	0501                	addi	a0,a0,0
    1204:	0900031b          	0x900031b
    1208:	0000                	unimp
    120a:	0501                	addi	a0,a0,0
    120c:	0301                	addi	t1,t1,0
    120e:	00000903          	lb	s2,0(zero) # 0 <InterruptVector>
    1212:	0501                	addi	a0,a0,0
    1214:	002d                	c.nop	11
    1216:	0402                	c.slli64	s0
    1218:	7e030603          	lb	a2,2016(t1)
    121c:	0009                	c.nop	2
    121e:	0100                	addi	s0,sp,128
    1220:	2905                	jal	1650 <ch32v003fun.c.297fed70+0x76e>
    1222:	0200                	addi	s0,sp,256
    1224:	0304                	addi	s1,sp,384
    1226:	00090003          	lb	zero,0(s2)
    122a:	0100                	addi	s0,sp,128
    122c:	2a05                	jal	135c <ch32v003fun.c.297fed70+0x47a>
    122e:	0200                	addi	s0,sp,256
    1230:	0304                	addi	s1,sp,384
    1232:	0306                	slli	t1,t1,0x1
    1234:	0900                	addi	s0,sp,144
    1236:	0000                	unimp
    1238:	0501                	addi	a0,a0,0
    123a:	0009                	c.nop	2
    123c:	0402                	c.slli64	s0
    123e:	0601                	addi	a2,a2,0
    1240:	00090003          	lb	zero,0(s2)
    1244:	0100                	addi	s0,sp,128
    1246:	0205                	addi	tp,tp,1
    1248:	0200                	addi	s0,sp,256
    124a:	0104                	addi	s1,sp,128
    124c:	0306                	slli	t1,t1,0x1
    124e:	0900                	addi	s0,sp,144
    1250:	0000                	unimp
    1252:	0501                	addi	a0,a0,0
    1254:	000c                	0xc
    1256:	0402                	c.slli64	s0
    1258:	0302                	c.slli64	t1
    125a:	0900                	addi	s0,sp,144
    125c:	0000                	unimp
    125e:	0901                	addi	s2,s2,0
    1260:	0000                	unimp
    1262:	0100                	addi	s0,sp,128
    1264:	0501                	addi	a0,a0,0
    1266:	0001                	nop
    1268:	0205                	addi	tp,tp,1
    126a:	0000                	unimp
    126c:	0000                	unimp
    126e:	0102ac03          	lw	s8,16(t0)
    1272:	0205                	addi	tp,tp,1
    1274:	00090103          	lb	sp,0(s2)
    1278:	0100                	addi	s0,sp,128
    127a:	0105                	addi	sp,sp,1
    127c:	0306                	slli	t1,t1,0x1
    127e:	097f                	0x97f
    1280:	0000                	unimp
    1282:	0501                	addi	a0,a0,0
    1284:	0319                	addi	t1,t1,6
    1286:	0901                	addi	s2,s2,0
    1288:	0000                	unimp
    128a:	0501                	addi	a0,a0,0
    128c:	0602                	c.slli64	a2
    128e:	00097803          	0x97803
    1292:	0100                	addi	s0,sp,128
    1294:	00090103          	lb	sp,0(s2)
    1298:	0100                	addi	s0,sp,128
    129a:	00090103          	lb	sp,0(s2)
    129e:	0100                	addi	s0,sp,128
    12a0:	0805                	addi	a6,a6,1
    12a2:	00090003          	lb	zero,0(s2)
    12a6:	0100                	addi	s0,sp,128
    12a8:	0905                	addi	s2,s2,1
    12aa:	0306                	slli	t1,t1,0x1
    12ac:	0901                	addi	s2,s2,0
    12ae:	0000                	unimp
    12b0:	0501                	addi	a0,a0,0
    12b2:	060e                	slli	a2,a2,0x3
    12b4:	00097f03          	0x97f03
    12b8:	0100                	addi	s0,sp,128
    12ba:	1305                	addi	t1,t1,-31
    12bc:	0306                	slli	t1,t1,0x1
    12be:	0900                	addi	s0,sp,144
    12c0:	0000                	unimp
    12c2:	0501                	addi	a0,a0,0
    12c4:	0311                	addi	t1,t1,4
    12c6:	0900                	addi	s0,sp,144
    12c8:	0000                	unimp
    12ca:	0501                	addi	a0,a0,0
    12cc:	0301                	addi	t1,t1,0
    12ce:	00000907          	0x907
    12d2:	0901                	addi	s2,s2,0
    12d4:	0000                	unimp
    12d6:	0100                	addi	s0,sp,128
    12d8:	0501                	addi	a0,a0,0
    12da:	0001                	nop
    12dc:	0205                	addi	tp,tp,1
    12de:	0000                	unimp
    12e0:	0000                	unimp
    12e2:	0102b103          	0x102b103
    12e6:	0205                	addi	tp,tp,1
    12e8:	00090103          	lb	sp,0(s2)
    12ec:	0100                	addi	s0,sp,128
    12ee:	00090103          	lb	sp,0(s2)
    12f2:	0100                	addi	s0,sp,128
    12f4:	00090103          	lb	sp,0(s2)
    12f8:	0100                	addi	s0,sp,128
    12fa:	0105                	addi	sp,sp,1
    12fc:	0306                	slli	t1,t1,0x1
    12fe:	097d                	addi	s2,s2,31
    1300:	0000                	unimp
    1302:	0501                	addi	a0,a0,0
    1304:	0009                	c.nop	2
    1306:	0402                	c.slli64	s0
    1308:	0601                	addi	a2,a2,0
    130a:	00090303          	lb	t1,0(s2)
    130e:	0100                	addi	s0,sp,128
    1310:	0205                	addi	tp,tp,1
    1312:	0200                	addi	s0,sp,256
    1314:	0104                	addi	s1,sp,128
    1316:	0306                	slli	t1,t1,0x1
    1318:	0900                	addi	s0,sp,144
    131a:	0000                	unimp
    131c:	0601                	addi	a2,a2,0
    131e:	00090103          	lb	sp,0(s2)
    1322:	0100                	addi	s0,sp,128
    1324:	0105                	addi	sp,sp,1
    1326:	0306                	slli	t1,t1,0x1
    1328:	0901                	addi	s2,s2,0
    132a:	0000                	unimp
    132c:	0501                	addi	a0,a0,0
    132e:	0011                	c.nop	4
    1330:	0402                	c.slli64	s0
    1332:	0602                	c.slli64	a2
    1334:	00097e03          	0x97e03
    1338:	0100                	addi	s0,sp,128
    133a:	1805                	addi	a6,a6,-31
    133c:	0200                	addi	s0,sp,256
    133e:	0204                	addi	s1,sp,256
    1340:	0306                	slli	t1,t1,0x1
    1342:	0900                	addi	s0,sp,144
    1344:	0000                	unimp
    1346:	0501                	addi	a0,a0,0
    1348:	0016                	c.slli	zero,0x5
    134a:	0402                	c.slli64	s0
    134c:	0302                	c.slli64	t1
    134e:	0900                	addi	s0,sp,144
    1350:	0000                	unimp
    1352:	0501                	addi	a0,a0,0
    1354:	000c                	0xc
    1356:	0402                	c.slli64	s0
    1358:	0602                	c.slli64	a2
    135a:	00090003          	lb	zero,0(s2)
    135e:	0100                	addi	s0,sp,128
    1360:	0009                	c.nop	2
    1362:	0000                	unimp
    1364:	0101                	addi	sp,sp,0
    1366:	0105                	addi	sp,sp,1
    1368:	0500                	addi	s0,sp,640
    136a:	0002                	c.slli64	zero
    136c:	0000                	unimp
    136e:	0300                	addi	s0,sp,384
    1370:	02b9                	addi	t0,t0,14
    1372:	0501                	addi	a0,a0,0
    1374:	0302                	c.slli64	t1
    1376:	0901                	addi	s2,s2,0
    1378:	0000                	unimp
    137a:	0301                	addi	t1,t1,0
    137c:	0901                	addi	s2,s2,0
    137e:	0000                	unimp
    1380:	0501                	addi	a0,a0,0
    1382:	0601                	addi	a2,a2,0
    1384:	00097e03          	0x97e03
    1388:	0100                	addi	s0,sp,128
    138a:	0905                	addi	s2,s2,1
    138c:	0200                	addi	s0,sp,256
    138e:	0104                	addi	s1,sp,128
    1390:	0306                	slli	t1,t1,0x1
    1392:	0902                	c.slli64	s2
    1394:	0000                	unimp
    1396:	0501                	addi	a0,a0,0
    1398:	0002                	c.slli64	zero
    139a:	0402                	c.slli64	s0
    139c:	0601                	addi	a2,a2,0
    139e:	00090003          	lb	zero,0(s2)
    13a2:	0100                	addi	s0,sp,128
    13a4:	0e05                	addi	t3,t3,1
    13a6:	0200                	addi	s0,sp,256
    13a8:	0204                	addi	s1,sp,256
    13aa:	00090003          	lb	zero,0(s2)
    13ae:	0100                	addi	s0,sp,128
    13b0:	0b05                	addi	s6,s6,1
    13b2:	0200                	addi	s0,sp,256
    13b4:	0204                	addi	s1,sp,256
    13b6:	00090003          	lb	zero,0(s2)
    13ba:	0100                	addi	s0,sp,128
    13bc:	1405                	addi	s0,s0,-31
    13be:	0200                	addi	s0,sp,256
    13c0:	0204                	addi	s1,sp,256
    13c2:	00090003          	lb	zero,0(s2)
    13c6:	0100                	addi	s0,sp,128
    13c8:	0e05                	addi	t3,t3,1
    13ca:	0200                	addi	s0,sp,256
    13cc:	0204                	addi	s1,sp,256
    13ce:	00090003          	lb	zero,0(s2)
    13d2:	0100                	addi	s0,sp,128
    13d4:	1405                	addi	s0,s0,-31
    13d6:	0200                	addi	s0,sp,256
    13d8:	0204                	addi	s1,sp,256
    13da:	00090003          	lb	zero,0(s2)
    13de:	0100                	addi	s0,sp,128
    13e0:	0b05                	addi	s6,s6,1
    13e2:	0200                	addi	s0,sp,256
    13e4:	0204                	addi	s1,sp,256
    13e6:	00090003          	lb	zero,0(s2)
    13ea:	0100                	addi	s0,sp,128
    13ec:	0205                	addi	tp,tp,1
    13ee:	0306                	slli	t1,t1,0x1
    13f0:	0901                	addi	s2,s2,0
    13f2:	0000                	unimp
    13f4:	0501                	addi	a0,a0,0
    13f6:	00030613          	mv	a2,t1
    13fa:	0009                	c.nop	2
    13fc:	0100                	addi	s0,sp,128
    13fe:	0105                	addi	sp,sp,1
    1400:	00090103          	lb	sp,0(s2)
    1404:	0100                	addi	s0,sp,128
    1406:	1305                	addi	t1,t1,-31
    1408:	00097f03          	0x97f03
    140c:	0100                	addi	s0,sp,128
    140e:	0009                	c.nop	2
    1410:	0000                	unimp
    1412:	0101                	addi	sp,sp,0
    1414:	0105                	addi	sp,sp,1
    1416:	0500                	addi	s0,sp,640
    1418:	0002                	c.slli64	zero
    141a:	0000                	unimp
    141c:	0300                	addi	s0,sp,384
    141e:	02c1                	addi	t0,t0,16
    1420:	0501                	addi	a0,a0,0
    1422:	0302                	c.slli64	t1
    1424:	0901                	addi	s2,s2,0
    1426:	0000                	unimp
    1428:	0301                	addi	t1,t1,0
    142a:	0901                	addi	s2,s2,0
    142c:	0000                	unimp
    142e:	0301                	addi	t1,t1,0
    1430:	0902                	c.slli64	s2
    1432:	0000                	unimp
    1434:	0501                	addi	a0,a0,0
    1436:	0601                	addi	a2,a2,0
    1438:	00097c03          	0x97c03
    143c:	0100                	addi	s0,sp,128
    143e:	0505                	addi	a0,a0,1
    1440:	00090403          	lb	s0,0(s2)
    1444:	0100                	addi	s0,sp,128
    1446:	0205                	addi	tp,tp,1
    1448:	0306                	slli	t1,t1,0x1
    144a:	0901                	addi	s2,s2,0
    144c:	0000                	unimp
    144e:	0501                	addi	a0,a0,0
    1450:	061f 0003 0009      	0x90003061f
    1456:	0100                	addi	s0,sp,128
    1458:	2705                	jal	1b78 <ch32v003fun.c.297fed70+0xc96>
    145a:	00090003          	lb	zero,0(s2)
    145e:	0100                	addi	s0,sp,128
    1460:	1f05                	addi	t5,t5,-31
    1462:	00090003          	lb	zero,0(s2)
    1466:	0100                	addi	s0,sp,128
    1468:	2705                	jal	1b88 <ch32v003fun.c.297fed70+0xca6>
    146a:	00090003          	lb	zero,0(s2)
    146e:	0100                	addi	s0,sp,128
    1470:	0505                	addi	a0,a0,1
    1472:	00090003          	lb	zero,0(s2)
    1476:	0100                	addi	s0,sp,128
    1478:	2b05                	jal	19a8 <ch32v003fun.c.297fed70+0xac6>
    147a:	0200                	addi	s0,sp,256
    147c:	0104                	addi	s1,sp,128
    147e:	0306                	slli	t1,t1,0x1
    1480:	0900                	addi	s0,sp,144
    1482:	0000                	unimp
    1484:	0501                	addi	a0,a0,0
    1486:	0032                	c.slli	zero,0xc
    1488:	0402                	c.slli64	s0
    148a:	0601                	addi	a2,a2,0
    148c:	00090003          	lb	zero,0(s2)
    1490:	0100                	addi	s0,sp,128
    1492:	0205                	addi	tp,tp,1
    1494:	0306                	slli	t1,t1,0x1
    1496:	0902                	c.slli64	s2
    1498:	0000                	unimp
    149a:	0501                	addi	a0,a0,0
    149c:	0605                	addi	a2,a2,1
    149e:	00090003          	lb	zero,0(s2)
    14a2:	0100                	addi	s0,sp,128
    14a4:	0905                	addi	s2,s2,1
    14a6:	0306                	slli	t1,t1,0x1
    14a8:	00000903          	lb	s2,0(zero) # 0 <InterruptVector>
    14ac:	0501                	addi	a0,a0,0
    14ae:	030d                	addi	t1,t1,3
    14b0:	0900                	addi	s0,sp,144
    14b2:	0000                	unimp
    14b4:	0501                	addi	a0,a0,0
    14b6:	060e                	slli	a2,a2,0x3
    14b8:	00090003          	lb	zero,0(s2)
    14bc:	0100                	addi	s0,sp,128
    14be:	1a05                	addi	s4,s4,-31
    14c0:	00090003          	lb	zero,0(s2)
    14c4:	0100                	addi	s0,sp,128
    14c6:	1705                	addi	a4,a4,-31
    14c8:	00090003          	lb	zero,0(s2)
    14cc:	0100                	addi	s0,sp,128
    14ce:	1205                	addi	tp,tp,-31
    14d0:	0306                	slli	t1,t1,0x1
    14d2:	097e                	slli	s2,s2,0x1f
    14d4:	0000                	unimp
    14d6:	0501                	addi	a0,a0,0
    14d8:	0619                	addi	a2,a2,6
    14da:	00090003          	lb	zero,0(s2)
    14de:	0100                	addi	s0,sp,128
    14e0:	1705                	addi	a4,a4,-31
    14e2:	00090003          	lb	zero,0(s2)
    14e6:	0100                	addi	s0,sp,128
    14e8:	0d05                	addi	s10,s10,1
    14ea:	0306                	slli	t1,t1,0x1
    14ec:	0900                	addi	s0,sp,144
    14ee:	0000                	unimp
    14f0:	0501                	addi	a0,a0,0
    14f2:	030a                	slli	t1,t1,0x2
    14f4:	0900                	addi	s0,sp,144
    14f6:	0000                	unimp
    14f8:	0501                	addi	a0,a0,0
    14fa:	00030603          	lb	a2,0(t1)
    14fe:	0009                	c.nop	2
    1500:	0100                	addi	s0,sp,128
    1502:	0505                	addi	a0,a0,1
    1504:	00097f03          	0x97f03
    1508:	0100                	addi	s0,sp,128
    150a:	0105                	addi	sp,sp,1
    150c:	00090703          	lb	a4,0(s2)
    1510:	0100                	addi	s0,sp,128
    1512:	0505                	addi	a0,a0,1
    1514:	00097903          	0x97903
    1518:	0100                	addi	s0,sp,128
    151a:	0009                	c.nop	2
    151c:	0000                	unimp
    151e:	0101                	addi	sp,sp,0
    1520:	0105                	addi	sp,sp,1
    1522:	0500                	addi	s0,sp,640
    1524:	0002                	c.slli64	zero
    1526:	0000                	unimp
    1528:	0300                	addi	s0,sp,384
    152a:	02d1                	addi	t0,t0,20
    152c:	0501                	addi	a0,a0,0
    152e:	0302                	c.slli64	t1
    1530:	0901                	addi	s2,s2,0
    1532:	0000                	unimp
    1534:	0301                	addi	t1,t1,0
    1536:	0901                	addi	s2,s2,0
    1538:	0000                	unimp
    153a:	0301                	addi	t1,t1,0
    153c:	0901                	addi	s2,s2,0
    153e:	0000                	unimp
    1540:	0501                	addi	a0,a0,0
    1542:	0009                	c.nop	2
    1544:	0402                	c.slli64	s0
    1546:	0301                	addi	t1,t1,0
    1548:	0900                	addi	s0,sp,144
    154a:	0000                	unimp
    154c:	0501                	addi	a0,a0,0
    154e:	0002                	c.slli64	zero
    1550:	0402                	c.slli64	s0
    1552:	0601                	addi	a2,a2,0
    1554:	00090003          	lb	zero,0(s2)
    1558:	0100                	addi	s0,sp,128
    155a:	0e05                	addi	t3,t3,1
    155c:	0200                	addi	s0,sp,256
    155e:	0204                	addi	s1,sp,256
    1560:	00090003          	lb	zero,0(s2)
    1564:	0100                	addi	s0,sp,128
    1566:	0b05                	addi	s6,s6,1
    1568:	0200                	addi	s0,sp,256
    156a:	0204                	addi	s1,sp,256
    156c:	00090003          	lb	zero,0(s2)
    1570:	0100                	addi	s0,sp,128
    1572:	2005                	jal	1592 <ch32v003fun.c.297fed70+0x6b0>
    1574:	0200                	addi	s0,sp,256
    1576:	0304                	addi	s1,sp,384
    1578:	0306                	slli	t1,t1,0x1
    157a:	0900                	addi	s0,sp,144
    157c:	0000                	unimp
    157e:	0501                	addi	a0,a0,0
    1580:	04020017          	auipc	zero,0x4020
    1584:	09000303          	lb	t1,144(zero) # 90 <InterruptVector+0x90>
    1588:	0000                	unimp
    158a:	0501                	addi	a0,a0,0
    158c:	0018                	0x18
    158e:	0402                	c.slli64	s0
    1590:	00030603          	lb	a2,0(t1)
    1594:	0009                	c.nop	2
    1596:	0100                	addi	s0,sp,128
    1598:	1705                	addi	a4,a4,-31
    159a:	00090103          	lb	sp,0(s2)
    159e:	0100                	addi	s0,sp,128
    15a0:	0105                	addi	sp,sp,1
    15a2:	00090103          	lb	sp,0(s2)
    15a6:	0100                	addi	s0,sp,128
    15a8:	0009                	c.nop	2
    15aa:	0000                	unimp
    15ac:	0101                	addi	sp,sp,0
    15ae:	2905                	jal	19de <ch32v003fun.c.297fed70+0xafc>
    15b0:	0500                	addi	s0,sp,640
    15b2:	0002                	c.slli64	zero
    15b4:	0000                	unimp
    15b6:	0300                	addi	s0,sp,384
    15b8:	00f1                	addi	ra,ra,28
    15ba:	0501                	addi	a0,a0,0
    15bc:	0900032b          	0x900032b
    15c0:	0000                	unimp
    15c2:	0501                	addi	a0,a0,0
    15c4:	0629                	addi	a2,a2,10
    15c6:	00090003          	lb	zero,0(s2)
    15ca:	0100                	addi	s0,sp,128
    15cc:	3b05                	jal	12fc <ch32v003fun.c.297fed70+0x41a>
    15ce:	00090003          	lb	zero,0(s2)
    15d2:	0100                	addi	s0,sp,128
    15d4:	2905                	jal	1a04 <ch32v003fun.c.297fed70+0xb22>
    15d6:	00090003          	lb	zero,0(s2)
    15da:	0100                	addi	s0,sp,128
    15dc:	3b05                	jal	130c <ch32v003fun.c.297fed70+0x42a>
    15de:	00090003          	lb	zero,0(s2)
    15e2:	0100                	addi	s0,sp,128
    15e4:	2905                	jal	1a14 <ch32v003fun.c.297fed70+0xb32>
    15e6:	00090003          	lb	zero,0(s2)
    15ea:	0100                	addi	s0,sp,128
    15ec:	00090003          	lb	zero,0(s2)
    15f0:	0100                	addi	s0,sp,128
    15f2:	3b05                	jal	1322 <ch32v003fun.c.297fed70+0x440>
    15f4:	00090003          	lb	zero,0(s2)
    15f8:	0100                	addi	s0,sp,128
    15fa:	4c05                	li	s8,1
    15fc:	0306                	slli	t1,t1,0x1
    15fe:	0900                	addi	s0,sp,144
    1600:	0000                	unimp
    1602:	0501                	addi	a0,a0,0
    1604:	0003065b          	0x3065b
    1608:	0009                	c.nop	2
    160a:	0100                	addi	s0,sp,128
    160c:	5805                	li	a6,-31
    160e:	0200                	addi	s0,sp,256
    1610:	0104                	addi	s1,sp,128
    1612:	00090003          	lb	zero,0(s2)
    1616:	0100                	addi	s0,sp,128
    1618:	5f05                	li	t5,-31
    161a:	0200                	addi	s0,sp,256
    161c:	0404                	addi	s1,sp,512
    161e:	00090003          	lb	zero,0(s2)
    1622:	0100                	addi	s0,sp,128
    1624:	0009                	c.nop	2
    1626:	0000                	unimp
    1628:	0101                	addi	sp,sp,0
    162a:	0105                	addi	sp,sp,1
    162c:	0500                	addi	s0,sp,640
    162e:	0002                	c.slli64	zero
    1630:	0000                	unimp
    1632:	0300                	addi	s0,sp,384
    1634:	01a0                	addi	s0,sp,200
    1636:	0501                	addi	a0,a0,0
    1638:	0302                	c.slli64	t1
    163a:	0901                	addi	s2,s2,0
    163c:	0000                	unimp
    163e:	0301                	addi	t1,t1,0
    1640:	0901                	addi	s2,s2,0
    1642:	0000                	unimp
    1644:	0301                	addi	t1,t1,0
    1646:	0901                	addi	s2,s2,0
    1648:	0000                	unimp
    164a:	0501                	addi	a0,a0,0
    164c:	0601                	addi	a2,a2,0
    164e:	00097d03          	0x97d03
    1652:	0100                	addi	s0,sp,128
    1654:	0905                	addi	s2,s2,1
    1656:	00090303          	lb	t1,0(s2)
    165a:	0100                	addi	s0,sp,128
    165c:	0105                	addi	sp,sp,1
    165e:	00097d03          	0x97d03
    1662:	0100                	addi	s0,sp,128
    1664:	0905                	addi	s2,s2,1
    1666:	00090303          	lb	t1,0(s2)
    166a:	0100                	addi	s0,sp,128
    166c:	0205                	addi	tp,tp,1
    166e:	0306                	slli	t1,t1,0x1
    1670:	0901                	addi	s2,s2,0
    1672:	0000                	unimp
    1674:	0301                	addi	t1,t1,0
    1676:	00000903          	lb	s2,0(zero) # 0 <InterruptVector>
    167a:	0501                	addi	a0,a0,0
    167c:	0608                	addi	a0,sp,768
    167e:	00090003          	lb	zero,0(s2)
    1682:	0100                	addi	s0,sp,128
    1684:	0305                	addi	t1,t1,1
    1686:	00090103          	lb	sp,0(s2)
    168a:	0100                	addi	s0,sp,128
    168c:	0c05                	addi	s8,s8,1
    168e:	0200                	addi	s0,sp,256
    1690:	0104                	addi	s1,sp,128
    1692:	0306                	slli	t1,t1,0x1
    1694:	097f                	0x97f
    1696:	0000                	unimp
    1698:	0501                	addi	a0,a0,0
    169a:	000d                	c.nop	3
    169c:	0402                	c.slli64	s0
    169e:	0601                	addi	a2,a2,0
    16a0:	00090003          	lb	zero,0(s2)
    16a4:	0100                	addi	s0,sp,128
    16a6:	0205                	addi	tp,tp,1
    16a8:	0200                	addi	s0,sp,256
    16aa:	0104                	addi	s1,sp,128
    16ac:	00090003          	lb	zero,0(s2)
    16b0:	0100                	addi	s0,sp,128
    16b2:	1505                	addi	a0,a0,-31
    16b4:	0200                	addi	s0,sp,256
    16b6:	0304                	addi	s1,sp,384
    16b8:	00090003          	lb	zero,0(s2)
    16bc:	0100                	addi	s0,sp,128
    16be:	1105                	addi	sp,sp,-31
    16c0:	0200                	addi	s0,sp,256
    16c2:	0304                	addi	s1,sp,384
    16c4:	00090003          	lb	zero,0(s2)
    16c8:	0100                	addi	s0,sp,128
    16ca:	1305                	addi	t1,t1,-31
    16cc:	00090203          	lb	tp,0(s2)
    16d0:	0100                	addi	s0,sp,128
    16d2:	0105                	addi	sp,sp,1
    16d4:	0900dd03          	lhu	s10,144(ra)
    16d8:	0000                	unimp
    16da:	0501                	addi	a0,a0,0
    16dc:	04020003          	lb	zero,64(tp) # 40 <InterruptVector+0x40>
    16e0:	0604                	addi	s1,sp,768
    16e2:	097fa203          	lw	tp,151(t6)
    16e6:	0000                	unimp
    16e8:	0501                	addi	a0,a0,0
    16ea:	0029                	c.nop	10
    16ec:	0402                	c.slli64	s0
    16ee:	0604                	addi	s1,sp,768
    16f0:	00090003          	lb	zero,0(s2)
    16f4:	0100                	addi	s0,sp,128
    16f6:	0305                	addi	t1,t1,1
    16f8:	0200                	addi	s0,sp,256
    16fa:	0404                	addi	s1,sp,512
    16fc:	00090003          	lb	zero,0(s2)
    1700:	0100                	addi	s0,sp,128
    1702:	2905                	jal	1b32 <ch32v003fun.c.297fed70+0xc50>
    1704:	0200                	addi	s0,sp,256
    1706:	0404                	addi	s1,sp,512
    1708:	00090003          	lb	zero,0(s2)
    170c:	0100                	addi	s0,sp,128
    170e:	2c05                	jal	193e <ch32v003fun.c.297fed70+0xa5c>
    1710:	0200                	addi	s0,sp,256
    1712:	0404                	addi	s1,sp,512
    1714:	00090003          	lb	zero,0(s2)
    1718:	0100                	addi	s0,sp,128
    171a:	2905                	jal	1b4a <ch32v003fun.c.297fed70+0xc68>
    171c:	0200                	addi	s0,sp,256
    171e:	0404                	addi	s1,sp,512
    1720:	00090003          	lb	zero,0(s2)
    1724:	0100                	addi	s0,sp,128
    1726:	1a05                	addi	s4,s4,-31
    1728:	0200                	addi	s0,sp,256
    172a:	0404                	addi	s1,sp,512
    172c:	0306                	slli	t1,t1,0x1
    172e:	097f                	0x97f
    1730:	0000                	unimp
    1732:	0501                	addi	a0,a0,0
    1734:	09070303          	lb	t1,144(a4) # fffe6090 <__global_pointer$+0xdffe5800>
    1738:	0000                	unimp
    173a:	0501                	addi	a0,a0,0
    173c:	0608                	addi	a0,sp,768
    173e:	00090003          	lb	zero,0(s2)
    1742:	0100                	addi	s0,sp,128
    1744:	1305                	addi	t1,t1,-31
    1746:	00090003          	lb	zero,0(s2)
    174a:	0100                	addi	s0,sp,128
    174c:	0605                	addi	a2,a2,1
    174e:	00090003          	lb	zero,0(s2)
    1752:	0100                	addi	s0,sp,128
    1754:	0405                	addi	s0,s0,1
    1756:	0306                	slli	t1,t1,0x1
    1758:	0901                	addi	s2,s2,0
    175a:	0000                	unimp
    175c:	0501                	addi	a0,a0,0
    175e:	00030607          	0x30607
    1762:	0009                	c.nop	2
    1764:	0100                	addi	s0,sp,128
    1766:	0605                	addi	a2,a2,1
    1768:	00090a03          	lb	s4,0(s2)
    176c:	0100                	addi	s0,sp,128
    176e:	0b05                	addi	s6,s6,1
    1770:	0306                	slli	t1,t1,0x1
    1772:	0979                	addi	s2,s2,30
    1774:	0000                	unimp
    1776:	0501                	addi	a0,a0,0
    1778:	060c                	addi	a1,sp,768
    177a:	00090003          	lb	zero,0(s2)
    177e:	0100                	addi	s0,sp,128
    1780:	0605                	addi	a2,a2,1
    1782:	00090703          	lb	a4,0(s2)
    1786:	0100                	addi	s0,sp,128
    1788:	0805                	addi	a6,a6,1
    178a:	0306                	slli	t1,t1,0x1
    178c:	0974                	addi	a3,sp,156
    178e:	0000                	unimp
    1790:	0501                	addi	a0,a0,0
    1792:	0003060b          	0x3060b
    1796:	0009                	c.nop	2
    1798:	0100                	addi	s0,sp,128
    179a:	0805                	addi	a6,a6,1
    179c:	00090003          	lb	zero,0(s2)
    17a0:	0100                	addi	s0,sp,128
    17a2:	1905                	addi	s2,s2,-31
    17a4:	00091303          	lh	t1,0(s2)
    17a8:	0100                	addi	s0,sp,128
    17aa:	1505                	addi	a0,a0,-31
    17ac:	00090003          	lb	zero,0(s2)
    17b0:	0100                	addi	s0,sp,128
    17b2:	0e05                	addi	t3,t3,1
    17b4:	00090003          	lb	zero,0(s2)
    17b8:	0100                	addi	s0,sp,128
    17ba:	0505                	addi	a0,a0,1
    17bc:	00090003          	lb	zero,0(s2)
    17c0:	0100                	addi	s0,sp,128
    17c2:	0805                	addi	a6,a6,1
    17c4:	0306                	slli	t1,t1,0x1
    17c6:	0901                	addi	s2,s2,0
    17c8:	0000                	unimp
    17ca:	0501                	addi	a0,a0,0
    17cc:	0003060b          	0x3060b
    17d0:	0009                	c.nop	2
    17d2:	0100                	addi	s0,sp,128
    17d4:	0805                	addi	a6,a6,1
    17d6:	00090003          	lb	zero,0(s2)
    17da:	0100                	addi	s0,sp,128
    17dc:	0205                	addi	tp,tp,1
    17de:	0306                	slli	t1,t1,0x1
    17e0:	0000090f          	0x90f
    17e4:	0501                	addi	a0,a0,0
    17e6:	0608                	addi	a0,sp,768
    17e8:	00090003          	lb	zero,0(s2)
    17ec:	0100                	addi	s0,sp,128
    17ee:	0f05                	addi	t5,t5,1
    17f0:	00090003          	lb	zero,0(s2)
    17f4:	0100                	addi	s0,sp,128
    17f6:	0505                	addi	a0,a0,1
    17f8:	00090003          	lb	zero,0(s2)
    17fc:	0100                	addi	s0,sp,128
    17fe:	0605                	addi	a2,a2,1
    1800:	00090403          	lb	s0,0(s2)
    1804:	0100                	addi	s0,sp,128
    1806:	0205                	addi	tp,tp,1
    1808:	0306                	slli	t1,t1,0x1
    180a:	0900                	addi	s0,sp,144
    180c:	0000                	unimp
    180e:	0501                	addi	a0,a0,0
    1810:	0606                	slli	a2,a2,0x1
    1812:	00090003          	lb	zero,0(s2)
    1816:	0100                	addi	s0,sp,128
    1818:	0e05                	addi	t3,t3,1
    181a:	00090303          	lb	t1,0(s2)
    181e:	0100                	addi	s0,sp,128
    1820:	0505                	addi	a0,a0,1
    1822:	00097d03          	0x97d03
    1826:	0100                	addi	s0,sp,128
    1828:	0e05                	addi	t3,t3,1
    182a:	00090303          	lb	t1,0(s2)
    182e:	0100                	addi	s0,sp,128
    1830:	0505                	addi	a0,a0,1
    1832:	00097d03          	0x97d03
    1836:	0100                	addi	s0,sp,128
    1838:	0305                	addi	t1,t1,1
    183a:	0306                	slli	t1,t1,0x1
    183c:	0901                	addi	s2,s2,0
    183e:	0000                	unimp
    1840:	0301                	addi	t1,t1,0
    1842:	0901                	addi	s2,s2,0
    1844:	0000                	unimp
    1846:	0501                	addi	a0,a0,0
    1848:	00030607          	0x30607
    184c:	0009                	c.nop	2
    184e:	0100                	addi	s0,sp,128
    1850:	0505                	addi	a0,a0,1
    1852:	00090003          	lb	zero,0(s2)
    1856:	0100                	addi	s0,sp,128
    1858:	0805                	addi	a6,a6,1
    185a:	00097f03          	0x97f03
    185e:	0100                	addi	s0,sp,128
    1860:	0205                	addi	tp,tp,1
    1862:	0306                	slli	t1,t1,0x1
    1864:	00000903          	lb	s2,0(zero) # 0 <InterruptVector>
    1868:	0301                	addi	t1,t1,0
    186a:	00000903          	lb	s2,0(zero) # 0 <InterruptVector>
    186e:	0501                	addi	a0,a0,0
    1870:	0703060b          	0x703060b
    1874:	0009                	c.nop	2
    1876:	0100                	addi	s0,sp,128
    1878:	0705                	addi	a4,a4,1
    187a:	00092203          	lw	tp,0(s2)
    187e:	0100                	addi	s0,sp,128
    1880:	0605                	addi	a2,a2,1
    1882:	00095403          	lhu	s0,0(s2)
    1886:	0100                	addi	s0,sp,128
    1888:	0b05                	addi	s6,s6,1
    188a:	00090a03          	lb	s4,0(s2)
    188e:	0100                	addi	s0,sp,128
    1890:	0205                	addi	tp,tp,1
    1892:	0306                	slli	t1,t1,0x1
    1894:	097c                	addi	a5,sp,156
    1896:	0000                	unimp
    1898:	0501                	addi	a0,a0,0
    189a:	09020303          	lb	t1,144(tp) # 90 <InterruptVector+0x90>
    189e:	0000                	unimp
    18a0:	0501                	addi	a0,a0,0
    18a2:	0608                	addi	a0,sp,768
    18a4:	00090003          	lb	zero,0(s2)
    18a8:	0100                	addi	s0,sp,128
    18aa:	0605                	addi	a2,a2,1
    18ac:	00090003          	lb	zero,0(s2)
    18b0:	0100                	addi	s0,sp,128
    18b2:	1e05                	addi	t3,t3,-31
    18b4:	00090303          	lb	t1,0(s2)
    18b8:	0100                	addi	s0,sp,128
    18ba:	0405                	addi	s0,s0,1
    18bc:	0306                	slli	t1,t1,0x1
    18be:	097f                	0x97f
    18c0:	0000                	unimp
    18c2:	0301                	addi	t1,t1,0
    18c4:	0901                	addi	s2,s2,0
    18c6:	0000                	unimp
    18c8:	0501                	addi	a0,a0,0
    18ca:	061e                	slli	a2,a2,0x7
    18cc:	00090003          	lb	zero,0(s2)
    18d0:	0100                	addi	s0,sp,128
    18d2:	0405                	addi	s0,s0,1
    18d4:	0306                	slli	t1,t1,0x1
    18d6:	0901                	addi	s2,s2,0
    18d8:	0000                	unimp
    18da:	0501                	addi	a0,a0,0
    18dc:	00030607          	0x30607
    18e0:	0009                	c.nop	2
    18e2:	0100                	addi	s0,sp,128
    18e4:	0505                	addi	a0,a0,1
    18e6:	0306                	slli	t1,t1,0x1
    18e8:	0901                	addi	s2,s2,0
    18ea:	0000                	unimp
    18ec:	0301                	addi	t1,t1,0
    18ee:	0901                	addi	s2,s2,0
    18f0:	0000                	unimp
    18f2:	0501                	addi	a0,a0,0
    18f4:	060a                	slli	a2,a2,0x2
    18f6:	00090003          	lb	zero,0(s2)
    18fa:	0100                	addi	s0,sp,128
    18fc:	0805                	addi	a6,a6,1
    18fe:	00090003          	lb	zero,0(s2)
    1902:	0100                	addi	s0,sp,128
    1904:	0305                	addi	t1,t1,1
    1906:	0306                	slli	t1,t1,0x1
    1908:	0905                	addi	s2,s2,1
    190a:	0000                	unimp
    190c:	0501                	addi	a0,a0,0
    190e:	00030607          	0x30607
    1912:	0009                	c.nop	2
    1914:	0100                	addi	s0,sp,128
    1916:	0605                	addi	a2,a2,1
    1918:	00090003          	lb	zero,0(s2)
    191c:	0100                	addi	s0,sp,128
    191e:	0405                	addi	s0,s0,1
    1920:	0306                	slli	t1,t1,0x1
    1922:	0901                	addi	s2,s2,0
    1924:	0000                	unimp
    1926:	0501                	addi	a0,a0,0
    1928:	0003060f          	0x3060f
    192c:	0009                	c.nop	2
    192e:	0100                	addi	s0,sp,128
    1930:	0605                	addi	a2,a2,1
    1932:	00090003          	lb	zero,0(s2)
    1936:	0100                	addi	s0,sp,128
    1938:	0405                	addi	s0,s0,1
    193a:	0306                	slli	t1,t1,0x1
    193c:	0901                	addi	s2,s2,0
    193e:	0000                	unimp
    1940:	0501                	addi	a0,a0,0
    1942:	00030607          	0x30607
    1946:	0009                	c.nop	2
    1948:	0100                	addi	s0,sp,128
    194a:	0505                	addi	a0,a0,1
    194c:	0306                	slli	t1,t1,0x1
    194e:	0901                	addi	s2,s2,0
    1950:	0000                	unimp
    1952:	0301                	addi	t1,t1,0
    1954:	0901                	addi	s2,s2,0
    1956:	0000                	unimp
    1958:	0501                	addi	a0,a0,0
    195a:	00030607          	0x30607
    195e:	0009                	c.nop	2
    1960:	0100                	addi	s0,sp,128
    1962:	0505                	addi	a0,a0,1
    1964:	0306                	slli	t1,t1,0x1
    1966:	0901                	addi	s2,s2,0
    1968:	0000                	unimp
    196a:	0301                	addi	t1,t1,0
    196c:	0901                	addi	s2,s2,0
    196e:	0000                	unimp
    1970:	0501                	addi	a0,a0,0
    1972:	0609                	addi	a2,a2,2
    1974:	00097f03          	0x97f03
    1978:	0100                	addi	s0,sp,128
    197a:	0705                	addi	a4,a4,1
    197c:	00091403          	lh	s0,0(s2)
    1980:	0100                	addi	s0,sp,128
    1982:	0a05                	addi	s4,s4,1
    1984:	0306                	slli	t1,t1,0x1
    1986:	00097faf          	0x97faf
    198a:	0100                	addi	s0,sp,128
    198c:	0605                	addi	a2,a2,1
    198e:	0306                	slli	t1,t1,0x1
    1990:	00000903          	lb	s2,0(zero) # 0 <InterruptVector>
    1994:	0501                	addi	a0,a0,0
    1996:	030d                	addi	t1,t1,3
    1998:	097d                	addi	s2,s2,31
    199a:	0000                	unimp
    199c:	0501                	addi	a0,a0,0
    199e:	0604                	addi	s1,sp,768
    19a0:	00090503          	lb	a0,0(s2)
    19a4:	0100                	addi	s0,sp,128
    19a6:	0b05                	addi	s6,s6,1
    19a8:	0306                	slli	t1,t1,0x1
    19aa:	0900                	addi	s0,sp,144
    19ac:	0000                	unimp
    19ae:	0501                	addi	a0,a0,0
    19b0:	0604                	addi	s1,sp,768
    19b2:	00090103          	lb	sp,0(s2)
    19b6:	0100                	addi	s0,sp,128
    19b8:	0705                	addi	a4,a4,1
    19ba:	0306                	slli	t1,t1,0x1
    19bc:	097f                	0x97f
    19be:	0000                	unimp
    19c0:	0501                	addi	a0,a0,0
    19c2:	030a                	slli	t1,t1,0x2
    19c4:	0901                	addi	s2,s2,0
    19c6:	0000                	unimp
    19c8:	0501                	addi	a0,a0,0
    19ca:	0302                	c.slli64	t1
    19cc:	096e                	slli	s2,s2,0x1b
    19ce:	0000                	unimp
    19d0:	0501                	addi	a0,a0,0
    19d2:	1b030603          	lb	a2,432(t1)
    19d6:	0009                	c.nop	2
    19d8:	0100                	addi	s0,sp,128
    19da:	0805                	addi	a6,a6,1
    19dc:	0306                	slli	t1,t1,0x1
    19de:	0900                	addi	s0,sp,144
    19e0:	0000                	unimp
    19e2:	0501                	addi	a0,a0,0
    19e4:	09000313          	li	t1,144
    19e8:	0000                	unimp
    19ea:	0501                	addi	a0,a0,0
    19ec:	0306                	slli	t1,t1,0x1
    19ee:	0900                	addi	s0,sp,144
    19f0:	0000                	unimp
    19f2:	0501                	addi	a0,a0,0
    19f4:	0604                	addi	s1,sp,768
    19f6:	00090103          	lb	sp,0(s2)
    19fa:	0100                	addi	s0,sp,128
    19fc:	0705                	addi	a4,a4,1
    19fe:	0306                	slli	t1,t1,0x1
    1a00:	0900                	addi	s0,sp,144
    1a02:	0000                	unimp
    1a04:	0501                	addi	a0,a0,0
    1a06:	0306                	slli	t1,t1,0x1
    1a08:	090a                	slli	s2,s2,0x2
    1a0a:	0000                	unimp
    1a0c:	0501                	addi	a0,a0,0
    1a0e:	7903060b          	0x7903060b
    1a12:	0009                	c.nop	2
    1a14:	0100                	addi	s0,sp,128
    1a16:	0c05                	addi	s8,s8,1
    1a18:	0306                	slli	t1,t1,0x1
    1a1a:	0900                	addi	s0,sp,144
    1a1c:	0000                	unimp
    1a1e:	0501                	addi	a0,a0,0
    1a20:	0306                	slli	t1,t1,0x1
    1a22:	00000907          	0x907
    1a26:	0501                	addi	a0,a0,0
    1a28:	060a                	slli	a2,a2,0x2
    1a2a:	00097a03          	0x97a03
    1a2e:	0100                	addi	s0,sp,128
    1a30:	0605                	addi	a2,a2,1
    1a32:	0306                	slli	t1,t1,0x1
    1a34:	00000903          	lb	s2,0(zero) # 0 <InterruptVector>
    1a38:	0501                	addi	a0,a0,0
    1a3a:	030d                	addi	t1,t1,3
    1a3c:	097d                	addi	s2,s2,31
    1a3e:	0000                	unimp
    1a40:	0501                	addi	a0,a0,0
    1a42:	0604                	addi	s1,sp,768
    1a44:	00090503          	lb	a0,0(s2)
    1a48:	0100                	addi	s0,sp,128
    1a4a:	0b05                	addi	s6,s6,1
    1a4c:	0306                	slli	t1,t1,0x1
    1a4e:	0900                	addi	s0,sp,144
    1a50:	0000                	unimp
    1a52:	0501                	addi	a0,a0,0
    1a54:	0604                	addi	s1,sp,768
    1a56:	00090103          	lb	sp,0(s2)
    1a5a:	0100                	addi	s0,sp,128
    1a5c:	0705                	addi	a4,a4,1
    1a5e:	0306                	slli	t1,t1,0x1
    1a60:	097f                	0x97f
    1a62:	0000                	unimp
    1a64:	0501                	addi	a0,a0,0
    1a66:	030a                	slli	t1,t1,0x2
    1a68:	0901                	addi	s2,s2,0
    1a6a:	0000                	unimp
    1a6c:	0501                	addi	a0,a0,0
    1a6e:	1a03060b          	0x1a03060b
    1a72:	0009                	c.nop	2
    1a74:	0100                	addi	s0,sp,128
    1a76:	0d05                	addi	s10,s10,1
    1a78:	0306                	slli	t1,t1,0x1
    1a7a:	0900                	addi	s0,sp,144
    1a7c:	0000                	unimp
    1a7e:	0501                	addi	a0,a0,0
    1a80:	0604                	addi	s1,sp,768
    1a82:	00090d03          	lb	s10,0(s2)
    1a86:	0100                	addi	s0,sp,128
    1a88:	0605                	addi	a2,a2,1
    1a8a:	0306                	slli	t1,t1,0x1
    1a8c:	0900                	addi	s0,sp,144
    1a8e:	0000                	unimp
    1a90:	0501                	addi	a0,a0,0
    1a92:	0604                	addi	s1,sp,768
    1a94:	00090103          	lb	sp,0(s2)
    1a98:	0100                	addi	s0,sp,128
    1a9a:	00090103          	lb	sp,0(s2)
    1a9e:	0100                	addi	s0,sp,128
    1aa0:	0305                	addi	t1,t1,1
    1aa2:	00090403          	lb	s0,0(s2)
    1aa6:	0100                	addi	s0,sp,128
    1aa8:	0905                	addi	s2,s2,1
    1aaa:	0306                	slli	t1,t1,0x1
    1aac:	0900                	addi	s0,sp,144
    1aae:	0000                	unimp
    1ab0:	0501                	addi	a0,a0,0
    1ab2:	0019                	c.nop	6
    1ab4:	0402                	c.slli64	s0
    1ab6:	0601                	addi	a2,a2,0
    1ab8:	00090003          	lb	zero,0(s2)
    1abc:	0100                	addi	s0,sp,128
    1abe:	1a05                	addi	s4,s4,-31
    1ac0:	0200                	addi	s0,sp,256
    1ac2:	0104                	addi	s1,sp,128
    1ac4:	0306                	slli	t1,t1,0x1
    1ac6:	0900                	addi	s0,sp,144
    1ac8:	0000                	unimp
    1aca:	0501                	addi	a0,a0,0
    1acc:	04020003          	lb	zero,64(tp) # 40 <InterruptVector+0x40>
    1ad0:	0301                	addi	t1,t1,0
    1ad2:	0900                	addi	s0,sp,144
    1ad4:	0000                	unimp
    1ad6:	0501                	addi	a0,a0,0
    1ad8:	002a                	c.slli	zero,0xa
    1ada:	0402                	c.slli64	s0
    1adc:	09000303          	lb	t1,144(zero) # 90 <InterruptVector+0x90>
    1ae0:	0000                	unimp
    1ae2:	0501                	addi	a0,a0,0
    1ae4:	001e                	c.slli	zero,0x7
    1ae6:	0402                	c.slli64	s0
    1ae8:	09000303          	lb	t1,144(zero) # 90 <InterruptVector+0x90>
    1aec:	0000                	unimp
    1aee:	0501                	addi	a0,a0,0
    1af0:	01030603          	lb	a2,16(t1)
    1af4:	0009                	c.nop	2
    1af6:	0100                	addi	s0,sp,128
    1af8:	0405                	addi	s0,s0,1
    1afa:	00090103          	lb	sp,0(s2)
    1afe:	0100                	addi	s0,sp,128
    1b00:	0a05                	addi	s4,s4,1
    1b02:	0306                	slli	t1,t1,0x1
    1b04:	0900                	addi	s0,sp,144
    1b06:	0000                	unimp
    1b08:	0501                	addi	a0,a0,0
    1b0a:	0306                	slli	t1,t1,0x1
    1b0c:	0900                	addi	s0,sp,144
    1b0e:	0000                	unimp
    1b10:	0501                	addi	a0,a0,0
    1b12:	0604                	addi	s1,sp,768
    1b14:	00090103          	lb	sp,0(s2)
    1b18:	0100                	addi	s0,sp,128
    1b1a:	00090103          	lb	sp,0(s2)
    1b1e:	0100                	addi	s0,sp,128
    1b20:	3305                	jal	1840 <ch32v003fun.c.297fed70+0x95e>
    1b22:	0200                	addi	s0,sp,256
    1b24:	0404                	addi	s1,sp,512
    1b26:	00097c03          	0x97c03
    1b2a:	0100                	addi	s0,sp,128
    1b2c:	2f05                	jal	225c <main.c.6f2e4722+0x4a3>
    1b2e:	0200                	addi	s0,sp,256
    1b30:	0404                	addi	s1,sp,512
    1b32:	00090003          	lb	zero,0(s2)
    1b36:	0100                	addi	s0,sp,128
    1b38:	3005                	jal	1358 <ch32v003fun.c.297fed70+0x476>
    1b3a:	0200                	addi	s0,sp,256
    1b3c:	0404                	addi	s1,sp,512
    1b3e:	0306                	slli	t1,t1,0x1
    1b40:	0900                	addi	s0,sp,144
    1b42:	0000                	unimp
    1b44:	0501                	addi	a0,a0,0
    1b46:	09000303          	lb	t1,144(zero) # 90 <InterruptVector+0x90>
    1b4a:	0000                	unimp
    1b4c:	0501                	addi	a0,a0,0
    1b4e:	0010                	0x10
    1b50:	0402                	c.slli64	s0
    1b52:	0601                	addi	a2,a2,0
    1b54:	00090703          	lb	a4,0(s2)
    1b58:	0100                	addi	s0,sp,128
    1b5a:	0305                	addi	t1,t1,1
    1b5c:	0200                	addi	s0,sp,256
    1b5e:	0104                	addi	s1,sp,128
    1b60:	0306                	slli	t1,t1,0x1
    1b62:	0900                	addi	s0,sp,144
    1b64:	0000                	unimp
    1b66:	0501                	addi	a0,a0,0
    1b68:	001a                	c.slli	zero,0x6
    1b6a:	0402                	c.slli64	s0
    1b6c:	09000303          	lb	t1,144(zero) # 90 <InterruptVector+0x90>
    1b70:	0000                	unimp
    1b72:	0501                	addi	a0,a0,0
    1b74:	0024                	addi	s1,sp,8
    1b76:	0402                	c.slli64	s0
    1b78:	09000303          	lb	t1,144(zero) # 90 <InterruptVector+0x90>
    1b7c:	0000                	unimp
    1b7e:	0501                	addi	a0,a0,0
    1b80:	0016                	c.slli	zero,0x5
    1b82:	0402                	c.slli64	s0
    1b84:	09000303          	lb	t1,144(zero) # 90 <InterruptVector+0x90>
    1b88:	0000                	unimp
    1b8a:	0501                	addi	a0,a0,0
    1b8c:	01030603          	lb	a2,16(t1)
    1b90:	0009                	c.nop	2
    1b92:	0100                	addi	s0,sp,128
    1b94:	00090103          	lb	sp,0(s2)
    1b98:	0100                	addi	s0,sp,128
    1b9a:	0705                	addi	a4,a4,1
    1b9c:	0306                	slli	t1,t1,0x1
    1b9e:	0901                	addi	s2,s2,0
    1ba0:	0000                	unimp
    1ba2:	0501                	addi	a0,a0,0
    1ba4:	0305                	addi	t1,t1,1
    1ba6:	097f                	0x97f
    1ba8:	0000                	unimp
    1baa:	0501                	addi	a0,a0,0
    1bac:	01030603          	lb	a2,16(t1)
    1bb0:	0009                	c.nop	2
    1bb2:	0100                	addi	s0,sp,128
    1bb4:	0009                	c.nop	2
    1bb6:	0000                	unimp
    1bb8:	0101                	addi	sp,sp,0
    1bba:	0105                	addi	sp,sp,1
    1bbc:	0500                	addi	s0,sp,640
    1bbe:	0002                	c.slli64	zero
    1bc0:	0000                	unimp
    1bc2:	0300                	addi	s0,sp,384
    1bc4:	0289                	addi	t0,t0,2
    1bc6:	0501                	addi	a0,a0,0
    1bc8:	0608                	addi	a0,sp,768
    1bca:	00090203          	lb	tp,0(s2)
    1bce:	0100                	addi	s0,sp,128
    1bd0:	0105                	addi	sp,sp,1
    1bd2:	00097e03          	0x97e03
    1bd6:	0100                	addi	s0,sp,128
    1bd8:	0205                	addi	tp,tp,1
    1bda:	0306                	slli	t1,t1,0x1
    1bdc:	0902                	c.slli64	s2
    1bde:	0000                	unimp
    1be0:	0501                	addi	a0,a0,0
    1be2:	0605                	addi	a2,a2,1
    1be4:	00090003          	lb	zero,0(s2)
    1be8:	0100                	addi	s0,sp,128
    1bea:	0205                	addi	tp,tp,1
    1bec:	0306                	slli	t1,t1,0x1
    1bee:	00000903          	lb	s2,0(zero) # 0 <InterruptVector>
    1bf2:	0501                	addi	a0,a0,0
    1bf4:	0606                	slli	a2,a2,0x1
    1bf6:	00090003          	lb	zero,0(s2)
    1bfa:	0100                	addi	s0,sp,128
    1bfc:	0205                	addi	tp,tp,1
    1bfe:	0306                	slli	t1,t1,0x1
    1c00:	0901                	addi	s2,s2,0
    1c02:	0000                	unimp
    1c04:	0501                	addi	a0,a0,0
    1c06:	0605                	addi	a2,a2,1
    1c08:	00090003          	lb	zero,0(s2)
    1c0c:	0100                	addi	s0,sp,128
    1c0e:	0e05                	addi	t3,t3,1
    1c10:	0200                	addi	s0,sp,256
    1c12:	0204                	addi	s1,sp,256
    1c14:	00090003          	lb	zero,0(s2)
    1c18:	0100                	addi	s0,sp,128
    1c1a:	0905                	addi	s2,s2,1
    1c1c:	0200                	addi	s0,sp,256
    1c1e:	0204                	addi	s1,sp,256
    1c20:	00090003          	lb	zero,0(s2)
    1c24:	0100                	addi	s0,sp,128
    1c26:	0205                	addi	tp,tp,1
    1c28:	0306                	slli	t1,t1,0x1
    1c2a:	0901                	addi	s2,s2,0
    1c2c:	0000                	unimp
    1c2e:	0501                	addi	a0,a0,0
    1c30:	0608                	addi	a0,sp,768
    1c32:	00090003          	lb	zero,0(s2)
    1c36:	0100                	addi	s0,sp,128
    1c38:	0505                	addi	a0,a0,1
    1c3a:	00090003          	lb	zero,0(s2)
    1c3e:	0100                	addi	s0,sp,128
    1c40:	0205                	addi	tp,tp,1
    1c42:	0306                	slli	t1,t1,0x1
    1c44:	0901                	addi	s2,s2,0
    1c46:	0000                	unimp
    1c48:	0501                	addi	a0,a0,0
    1c4a:	0608                	addi	a0,sp,768
    1c4c:	00090003          	lb	zero,0(s2)
    1c50:	0100                	addi	s0,sp,128
    1c52:	0505                	addi	a0,a0,1
    1c54:	00090003          	lb	zero,0(s2)
    1c58:	0100                	addi	s0,sp,128
    1c5a:	0d05                	addi	s10,s10,1
    1c5c:	0306                	slli	t1,t1,0x1
    1c5e:	0900                	addi	s0,sp,144
    1c60:	0000                	unimp
    1c62:	0501                	addi	a0,a0,0
    1c64:	0302                	c.slli64	t1
    1c66:	00097ef3          	csrrci	t4,ustatus,18
    1c6a:	0100                	addi	s0,sp,128
    1c6c:	00090103          	lb	sp,0(s2)
    1c70:	0100                	addi	s0,sp,128
    1c72:	0805                	addi	a6,a6,1
    1c74:	0306                	slli	t1,t1,0x1
    1c76:	0900                	addi	s0,sp,144
    1c78:	0000                	unimp
    1c7a:	0501                	addi	a0,a0,0
    1c7c:	060c                	addi	a1,sp,768
    1c7e:	00090003          	lb	zero,0(s2)
    1c82:	0100                	addi	s0,sp,128
    1c84:	0205                	addi	tp,tp,1
    1c86:	0306                	slli	t1,t1,0x1
    1c88:	0900                	addi	s0,sp,144
    1c8a:	0000                	unimp
    1c8c:	0501                	addi	a0,a0,0
    1c8e:	0900030f          	0x900030f
    1c92:	0000                	unimp
    1c94:	0501                	addi	a0,a0,0
    1c96:	0602                	c.slli64	a2
    1c98:	00090103          	lb	sp,0(s2)
    1c9c:	0100                	addi	s0,sp,128
    1c9e:	1a05                	addi	s4,s4,-31
    1ca0:	0306                	slli	t1,t1,0x1
    1ca2:	0900                	addi	s0,sp,144
    1ca4:	0000                	unimp
    1ca6:	0501                	addi	a0,a0,0
    1ca8:	062e                	slli	a2,a2,0xb
    1caa:	00097f03          	0x97f03
    1cae:	0100                	addi	s0,sp,128
    1cb0:	1c05                	addi	s8,s8,-31
    1cb2:	00090003          	lb	zero,0(s2)
    1cb6:	0100                	addi	s0,sp,128
    1cb8:	2905                	jal	20e8 <main.c.6f2e4722+0x32f>
    1cba:	0306                	slli	t1,t1,0x1
    1cbc:	0900                	addi	s0,sp,144
    1cbe:	0000                	unimp
    1cc0:	0501                	addi	a0,a0,0
    1cc2:	09000323          	sb	a6,134(zero) # 86 <InterruptVector+0x86>
    1cc6:	0000                	unimp
    1cc8:	0501                	addi	a0,a0,0
    1cca:	031f 0900 0000      	0x900031f
    1cd0:	0501                	addi	a0,a0,0
    1cd2:	09000327          	0x9000327
    1cd6:	0000                	unimp
    1cd8:	0501                	addi	a0,a0,0
    1cda:	031f 0900 0000      	0x900031f
    1ce0:	0501                	addi	a0,a0,0
    1ce2:	0602                	c.slli64	a2
    1ce4:	09018d03          	lb	s10,144(gp) # 20000920 <__global_pointer$+0x90>
    1ce8:	0000                	unimp
    1cea:	0501                	addi	a0,a0,0
    1cec:	0608                	addi	a0,sp,768
    1cee:	00090003          	lb	zero,0(s2)
    1cf2:	0100                	addi	s0,sp,128
    1cf4:	0505                	addi	a0,a0,1
    1cf6:	00090003          	lb	zero,0(s2)
    1cfa:	0100                	addi	s0,sp,128
    1cfc:	0205                	addi	tp,tp,1
    1cfe:	0306                	slli	t1,t1,0x1
    1d00:	0901                	addi	s2,s2,0
    1d02:	0000                	unimp
    1d04:	0501                	addi	a0,a0,0
    1d06:	0608                	addi	a0,sp,768
    1d08:	00090003          	lb	zero,0(s2)
    1d0c:	0100                	addi	s0,sp,128
    1d0e:	0505                	addi	a0,a0,1
    1d10:	00090003          	lb	zero,0(s2)
    1d14:	0100                	addi	s0,sp,128
    1d16:	0d05                	addi	s10,s10,1
    1d18:	0306                	slli	t1,t1,0x1
    1d1a:	0900                	addi	s0,sp,144
    1d1c:	0000                	unimp
    1d1e:	0501                	addi	a0,a0,0
    1d20:	0302                	c.slli64	t1
    1d22:	7ef8                	flw	fa4,124(a3)
    1d24:	0009                	c.nop	2
    1d26:	0100                	addi	s0,sp,128
    1d28:	3405                	jal	1748 <ch32v003fun.c.297fed70+0x866>
    1d2a:	0306                	slli	t1,t1,0x1
    1d2c:	0901                	addi	s2,s2,0
    1d2e:	0000                	unimp
    1d30:	0501                	addi	a0,a0,0
    1d32:	0329                	addi	t1,t1,10
    1d34:	0900                	addi	s0,sp,144
    1d36:	0000                	unimp
    1d38:	0501                	addi	a0,a0,0
    1d3a:	0900030b          	0x900030b
    1d3e:	0000                	unimp
    1d40:	0501                	addi	a0,a0,0
    1d42:	0310                	addi	a2,sp,384
    1d44:	0900                	addi	s0,sp,144
    1d46:	0000                	unimp
    1d48:	0501                	addi	a0,a0,0
    1d4a:	0329                	addi	t1,t1,10
    1d4c:	097f                	0x97f
    1d4e:	0000                	unimp
    1d50:	0501                	addi	a0,a0,0
    1d52:	0334                	addi	a3,sp,392
    1d54:	0900                	addi	s0,sp,144
    1d56:	0000                	unimp
    1d58:	0501                	addi	a0,a0,0
    1d5a:	0900030b          	0x900030b
    1d5e:	0000                	unimp
    1d60:	0501                	addi	a0,a0,0
    1d62:	031e                	slli	t1,t1,0x7
    1d64:	0900                	addi	s0,sp,144
    1d66:	0000                	unimp
    1d68:	0301                	addi	t1,t1,0
    1d6a:	0901                	addi	s2,s2,0
    1d6c:	0000                	unimp
    1d6e:	0501                	addi	a0,a0,0
    1d70:	097f030b          	0x97f030b
    1d74:	0000                	unimp
    1d76:	0501                	addi	a0,a0,0
    1d78:	0602                	c.slli64	a2
    1d7a:	00090103          	lb	sp,0(s2)
    1d7e:	0100                	addi	s0,sp,128
    1d80:	0b05                	addi	s6,s6,1
    1d82:	0306                	slli	t1,t1,0x1
    1d84:	0900                	addi	s0,sp,144
    1d86:	0000                	unimp
    1d88:	0501                	addi	a0,a0,0
    1d8a:	0602                	c.slli64	a2
    1d8c:	00090103          	lb	sp,0(s2)
    1d90:	0100                	addi	s0,sp,128
    1d92:	0805                	addi	a6,a6,1
    1d94:	0306                	slli	t1,t1,0x1
    1d96:	0900                	addi	s0,sp,144
    1d98:	0000                	unimp
    1d9a:	0501                	addi	a0,a0,0
    1d9c:	060d                	addi	a2,a2,3
    1d9e:	00090003          	lb	zero,0(s2)
    1da2:	0100                	addi	s0,sp,128
    1da4:	0205                	addi	tp,tp,1
    1da6:	0306                	slli	t1,t1,0x1
    1da8:	0900                	addi	s0,sp,144
    1daa:	0000                	unimp
    1dac:	0501                	addi	a0,a0,0
    1dae:	0310                	addi	a2,sp,384
    1db0:	0900                	addi	s0,sp,144
    1db2:	0000                	unimp
    1db4:	0501                	addi	a0,a0,0
    1db6:	0602                	c.slli64	a2
    1db8:	00090103          	lb	sp,0(s2)
    1dbc:	0100                	addi	s0,sp,128
    1dbe:	1a05                	addi	s4,s4,-31
    1dc0:	0306                	slli	t1,t1,0x1
    1dc2:	0900                	addi	s0,sp,144
    1dc4:	0000                	unimp
    1dc6:	0501                	addi	a0,a0,0
    1dc8:	7f03062f          	0x7f03062f
    1dcc:	0009                	c.nop	2
    1dce:	0100                	addi	s0,sp,128
    1dd0:	1d05                	addi	s10,s10,-31
    1dd2:	00090003          	lb	zero,0(s2)
    1dd6:	0100                	addi	s0,sp,128
    1dd8:	2605                	jal	20f8 <main.c.6f2e4722+0x33f>
    1dda:	0306                	slli	t1,t1,0x1
    1ddc:	0900                	addi	s0,sp,144
    1dde:	0000                	unimp
    1de0:	0501                	addi	a0,a0,0
    1de2:	0320                	addi	s0,sp,392
    1de4:	0900                	addi	s0,sp,144
    1de6:	0000                	unimp
    1de8:	0501                	addi	a0,a0,0
    1dea:	0325                	addi	t1,t1,9
    1dec:	0900                	addi	s0,sp,144
    1dee:	0000                	unimp
    1df0:	0501                	addi	a0,a0,0
    1df2:	0320                	addi	s0,sp,392
    1df4:	0900                	addi	s0,sp,144
    1df6:	0000                	unimp
    1df8:	0501                	addi	a0,a0,0
    1dfa:	0602                	c.slli64	a2
    1dfc:	09018703          	lb	a4,144(gp) # 20000920 <__global_pointer$+0x90>
    1e00:	0000                	unimp
    1e02:	0501                	addi	a0,a0,0
    1e04:	0608                	addi	a0,sp,768
    1e06:	00090003          	lb	zero,0(s2)
    1e0a:	0100                	addi	s0,sp,128
    1e0c:	0505                	addi	a0,a0,1
    1e0e:	00090003          	lb	zero,0(s2)
    1e12:	0100                	addi	s0,sp,128
    1e14:	0205                	addi	tp,tp,1
    1e16:	0306                	slli	t1,t1,0x1
    1e18:	0901                	addi	s2,s2,0
    1e1a:	0000                	unimp
    1e1c:	0501                	addi	a0,a0,0
    1e1e:	0605                	addi	a2,a2,1
    1e20:	00090003          	lb	zero,0(s2)
    1e24:	0100                	addi	s0,sp,128
    1e26:	0d05                	addi	s10,s10,1
    1e28:	0306                	slli	t1,t1,0x1
    1e2a:	0900                	addi	s0,sp,144
    1e2c:	0000                	unimp
    1e2e:	0501                	addi	a0,a0,0
    1e30:	0302                	c.slli64	t1
    1e32:	7efe                	flw	ft9,252(sp)
    1e34:	0009                	c.nop	2
    1e36:	0100                	addi	s0,sp,128
    1e38:	1e05                	addi	t3,t3,-31
    1e3a:	0306                	slli	t1,t1,0x1
    1e3c:	0900                	addi	s0,sp,144
    1e3e:	0000                	unimp
    1e40:	0501                	addi	a0,a0,0
    1e42:	0900030b          	0x900030b
    1e46:	0000                	unimp
    1e48:	0501                	addi	a0,a0,0
    1e4a:	0329                	addi	t1,t1,10
    1e4c:	0900                	addi	s0,sp,144
    1e4e:	0000                	unimp
    1e50:	0501                	addi	a0,a0,0
    1e52:	0334                	addi	a3,sp,392
    1e54:	0900                	addi	s0,sp,144
    1e56:	0000                	unimp
    1e58:	0501                	addi	a0,a0,0
    1e5a:	0900030b          	0x900030b
    1e5e:	0000                	unimp
    1e60:	0501                	addi	a0,a0,0
    1e62:	0602                	c.slli64	a2
    1e64:	00090103          	lb	sp,0(s2)
    1e68:	0100                	addi	s0,sp,128
    1e6a:	1005                	c.nop	-31
    1e6c:	0306                	slli	t1,t1,0x1
    1e6e:	0900                	addi	s0,sp,144
    1e70:	0000                	unimp
    1e72:	0501                	addi	a0,a0,0
    1e74:	0329                	addi	t1,t1,10
    1e76:	0900                	addi	s0,sp,144
    1e78:	0000                	unimp
    1e7a:	0501                	addi	a0,a0,0
    1e7c:	0334                	addi	a3,sp,392
    1e7e:	0900                	addi	s0,sp,144
    1e80:	0000                	unimp
    1e82:	0501                	addi	a0,a0,0
    1e84:	031e                	slli	t1,t1,0x7
    1e86:	0900                	addi	s0,sp,144
    1e88:	0000                	unimp
    1e8a:	0501                	addi	a0,a0,0
    1e8c:	0900030b          	0x900030b
    1e90:	0000                	unimp
    1e92:	0501                	addi	a0,a0,0
    1e94:	0602                	c.slli64	a2
    1e96:	00090103          	lb	sp,0(s2)
    1e9a:	0100                	addi	s0,sp,128
    1e9c:	0805                	addi	a6,a6,1
    1e9e:	0306                	slli	t1,t1,0x1
    1ea0:	0900                	addi	s0,sp,144
    1ea2:	0000                	unimp
    1ea4:	0501                	addi	a0,a0,0
    1ea6:	060d                	addi	a2,a2,3
    1ea8:	00090003          	lb	zero,0(s2)
    1eac:	0100                	addi	s0,sp,128
    1eae:	0205                	addi	tp,tp,1
    1eb0:	0306                	slli	t1,t1,0x1
    1eb2:	0900                	addi	s0,sp,144
    1eb4:	0000                	unimp
    1eb6:	0501                	addi	a0,a0,0
    1eb8:	0310                	addi	a2,sp,384
    1eba:	0900                	addi	s0,sp,144
    1ebc:	0000                	unimp
    1ebe:	0501                	addi	a0,a0,0
    1ec0:	0602                	c.slli64	a2
    1ec2:	00090103          	lb	sp,0(s2)
    1ec6:	0100                	addi	s0,sp,128
    1ec8:	1a05                	addi	s4,s4,-31
    1eca:	0306                	slli	t1,t1,0x1
    1ecc:	0900                	addi	s0,sp,144
    1ece:	0000                	unimp
    1ed0:	0501                	addi	a0,a0,0
    1ed2:	7f03062f          	0x7f03062f
    1ed6:	0009                	c.nop	2
    1ed8:	0100                	addi	s0,sp,128
    1eda:	1d05                	addi	s10,s10,-31
    1edc:	00090003          	lb	zero,0(s2)
    1ee0:	0100                	addi	s0,sp,128
    1ee2:	2a05                	jal	2012 <main.c.6f2e4722+0x259>
    1ee4:	0306                	slli	t1,t1,0x1
    1ee6:	0900                	addi	s0,sp,144
    1ee8:	0000                	unimp
    1eea:	0501                	addi	a0,a0,0
    1eec:	0324                	addi	s1,sp,392
    1eee:	0900                	addi	s0,sp,144
    1ef0:	0000                	unimp
    1ef2:	0501                	addi	a0,a0,0
    1ef4:	0320                	addi	s0,sp,392
    1ef6:	0900                	addi	s0,sp,144
    1ef8:	0000                	unimp
    1efa:	0501                	addi	a0,a0,0
    1efc:	0602                	c.slli64	a2
    1efe:	09018203          	lb	tp,144(gp) # 20000920 <__global_pointer$+0x90>
    1f02:	0000                	unimp
    1f04:	0501                	addi	a0,a0,0
    1f06:	0609                	addi	a2,a2,2
    1f08:	00090003          	lb	zero,0(s2)
    1f0c:	0100                	addi	s0,sp,128
    1f0e:	0105                	addi	sp,sp,1
    1f10:	00090103          	lb	sp,0(s2)
    1f14:	0100                	addi	s0,sp,128
    1f16:	0905                	addi	s2,s2,1
    1f18:	00097f03          	0x97f03
    1f1c:	0100                	addi	s0,sp,128
    1f1e:	0205                	addi	tp,tp,1
    1f20:	097efe03          	0x97efe03
    1f24:	0000                	unimp
    1f26:	0501                	addi	a0,a0,0
    1f28:	0301                	addi	t1,t1,0
    1f2a:	00090183          	lb	gp,0(s2)
    1f2e:	0100                	addi	s0,sp,128
    1f30:	0009                	c.nop	2
    1f32:	0000                	unimp
    1f34:	0101                	addi	sp,sp,0
    1f36:	0105                	addi	sp,sp,1
    1f38:	0500                	addi	s0,sp,640
    1f3a:	0002                	c.slli64	zero
    1f3c:	0000                	unimp
    1f3e:	0300                	addi	s0,sp,384
    1f40:	02d9                	addi	t0,t0,22
    1f42:	0501                	addi	a0,a0,0
    1f44:	0302                	c.slli64	t1
    1f46:	0901                	addi	s2,s2,0
    1f48:	0000                	unimp
    1f4a:	0501                	addi	a0,a0,0
    1f4c:	0601                	addi	a2,a2,0
    1f4e:	00097f03          	0x97f03
    1f52:	0100                	addi	s0,sp,128
    1f54:	00090003          	lb	zero,0(s2)
    1f58:	0100                	addi	s0,sp,128
    1f5a:	0b05                	addi	s6,s6,1
    1f5c:	00090103          	lb	sp,0(s2)
    1f60:	0100                	addi	s0,sp,128
    1f62:	0205                	addi	tp,tp,1
    1f64:	0306                	slli	t1,t1,0x1
    1f66:	0901                	addi	s2,s2,0
    1f68:	0000                	unimp
    1f6a:	0301                	addi	t1,t1,0
    1f6c:	0901                	addi	s2,s2,0
    1f6e:	0000                	unimp
    1f70:	0301                	addi	t1,t1,0
    1f72:	0901                	addi	s2,s2,0
    1f74:	0000                	unimp
    1f76:	0501                	addi	a0,a0,0
    1f78:	0601                	addi	a2,a2,0
    1f7a:	00090103          	lb	sp,0(s2)
    1f7e:	0100                	addi	s0,sp,128
    1f80:	0009                	c.nop	2
    1f82:	0000                	unimp
    1f84:	0101                	addi	sp,sp,0
    1f86:	0105                	addi	sp,sp,1
    1f88:	0500                	addi	s0,sp,640
    1f8a:	0002                	c.slli64	zero
    1f8c:	0000                	unimp
    1f8e:	0300                	addi	s0,sp,384
    1f90:	050105cf          	0x50105cf
    1f94:	0302                	c.slli64	t1
    1f96:	0901                	addi	s2,s2,0
    1f98:	0000                	unimp
    1f9a:	0901                	addi	s2,s2,0
    1f9c:	009c                	addi	a5,sp,64
    1f9e:	0100                	addi	s0,sp,128
    1fa0:	0501                	addi	a0,a0,0
    1fa2:	0601                	addi	a2,a2,0
    1fa4:	0500                	addi	s0,sp,640
    1fa6:	0002                	c.slli64	zero
    1fa8:	0000                	unimp
    1faa:	0300                	addi	s0,sp,384
    1fac:	060105fb          	0x60105fb
    1fb0:	09019003          	lh	zero,144(gp) # 20000920 <__global_pointer$+0x90>
    1fb4:	0000                	unimp
    1fb6:	0501                	addi	a0,a0,0
    1fb8:	0302                	c.slli64	t1
    1fba:	0901                	addi	s2,s2,0
    1fbc:	0000                	unimp
    1fbe:	0501                	addi	a0,a0,0
    1fc0:	0611                	addi	a2,a2,4
    1fc2:	00090003          	lb	zero,0(s2)
    1fc6:	0100                	addi	s0,sp,128
    1fc8:	2a05                	jal	20f8 <main.c.6f2e4722+0x33f>
    1fca:	0200                	addi	s0,sp,256
    1fcc:	0104                	addi	s1,sp,128
    1fce:	0306                	slli	t1,t1,0x1
    1fd0:	0900                	addi	s0,sp,144
    1fd2:	0000                	unimp
    1fd4:	0501                	addi	a0,a0,0
    1fd6:	04020007          	0x4020007
    1fda:	0301                	addi	t1,t1,0
    1fdc:	0900                	addi	s0,sp,144
    1fde:	0000                	unimp
    1fe0:	0501                	addi	a0,a0,0
    1fe2:	0011                	c.nop	4
    1fe4:	0402                	c.slli64	s0
    1fe6:	0601                	addi	a2,a2,0
    1fe8:	00090003          	lb	zero,0(s2)
    1fec:	0100                	addi	s0,sp,128
    1fee:	0705                	addi	a4,a4,1
    1ff0:	0200                	addi	s0,sp,256
    1ff2:	0104                	addi	s1,sp,128
    1ff4:	00090003          	lb	zero,0(s2)
    1ff8:	0100                	addi	s0,sp,128
    1ffa:	0205                	addi	tp,tp,1
    1ffc:	0306                	slli	t1,t1,0x1
    1ffe:	0901                	addi	s2,s2,0
    2000:	0000                	unimp
    2002:	0501                	addi	a0,a0,0
    2004:	0612                	slli	a2,a2,0x4
    2006:	00090003          	lb	zero,0(s2)
    200a:	0100                	addi	s0,sp,128
    200c:	1005                	c.nop	-31
    200e:	00090003          	lb	zero,0(s2)
    2012:	0100                	addi	s0,sp,128
    2014:	0205                	addi	tp,tp,1
    2016:	0306                	slli	t1,t1,0x1
    2018:	0901                	addi	s2,s2,0
    201a:	0000                	unimp
    201c:	0501                	addi	a0,a0,0
    201e:	0601                	addi	a2,a2,0
    2020:	00090103          	lb	sp,0(s2)
    2024:	0100                	addi	s0,sp,128
    2026:	0009                	c.nop	2
    2028:	0000                	unimp
    202a:	0101                	addi	sp,sp,0
    202c:	0304                	addi	s1,sp,384
    202e:	0105                	addi	sp,sp,1
    2030:	0500                	addi	s0,sp,640
    2032:	e002                	fsw	ft0,0(sp)
    2034:	0002                	c.slli64	zero
    2036:	0300                	addi	s0,sp,384
    2038:	0196                	slli	gp,gp,0x5
    203a:	0501                	addi	a0,a0,0
    203c:	0302                	c.slli64	t1
    203e:	0906                	slli	s2,s2,0x1
    2040:	0000                	unimp
    2042:	0501                	addi	a0,a0,0
    2044:	0601                	addi	a2,a2,0
    2046:	00097a03          	0x97a03
    204a:	0100                	addi	s0,sp,128
    204c:	0f05                	addi	t5,t5,1
    204e:	08090603          	lb	a2,128(s2)
    2052:	0100                	addi	s0,sp,128
    2054:	0105                	addi	sp,sp,1
    2056:	04097a03          	0x4097a03
    205a:	0100                	addi	s0,sp,128
    205c:	0f05                	addi	t5,t5,1
    205e:	04090603          	lb	a2,64(s2)
    2062:	0100                	addi	s0,sp,128
    2064:	0105                	addi	sp,sp,1
    2066:	04097a03          	0x4097a03
    206a:	0100                	addi	s0,sp,128
    206c:	0f05                	addi	t5,t5,1
    206e:	28090603          	lb	a2,640(s2)
    2072:	0100                	addi	s0,sp,128
    2074:	0205                	addi	tp,tp,1
    2076:	0306                	slli	t1,t1,0x1
    2078:	00080903          	lb	s2,0(a6)
    207c:	0501                	addi	a0,a0,0
    207e:	060e                	slli	a2,a2,0x3
    2080:	00090003          	lb	zero,0(s2)
    2084:	0100                	addi	s0,sp,128
    2086:	0205                	addi	tp,tp,1
    2088:	0306                	slli	t1,t1,0x1
    208a:	00040903          	lb	s2,0(s0)
    208e:	0501                	addi	a0,a0,0
    2090:	060d                	addi	a2,a2,3
    2092:	00090003          	lb	zero,0(s2)
    2096:	0100                	addi	s0,sp,128
    2098:	0205                	addi	tp,tp,1
    209a:	0306                	slli	t1,t1,0x1
    209c:	0902                	c.slli64	s2
    209e:	0010                	0x10
    20a0:	0301                	addi	t1,t1,0
    20a2:	00000903          	lb	s2,0(zero) # 0 <InterruptVector>
    20a6:	0501                	addi	a0,a0,0
    20a8:	00030613          	mv	a2,t1
    20ac:	0009                	c.nop	2
    20ae:	0100                	addi	s0,sp,128
    20b0:	0605                	addi	a2,a2,1
    20b2:	04090003          	lb	zero,64(s2)
    20b6:	0100                	addi	s0,sp,128
    20b8:	1305                	addi	t1,t1,-31
    20ba:	00090003          	lb	zero,0(s2)
    20be:	0100                	addi	s0,sp,128
    20c0:	0605                	addi	a2,a2,1
    20c2:	04090003          	lb	zero,64(s2)
    20c6:	0100                	addi	s0,sp,128
    20c8:	0205                	addi	tp,tp,1
    20ca:	0306                	slli	t1,t1,0x1
    20cc:	0902                	c.slli64	s2
    20ce:	0004                	0x4
    20d0:	0501                	addi	a0,a0,0
    20d2:	0605                	addi	a2,a2,1
    20d4:	08090003          	lb	zero,128(s2)
    20d8:	0100                	addi	s0,sp,128
    20da:	0305                	addi	t1,t1,1
    20dc:	0306                	slli	t1,t1,0x1
    20de:	0901                	addi	s2,s2,0
    20e0:	0004                	0x4
    20e2:	0501                	addi	a0,a0,0
    20e4:	00030623          	sb	zero,12(t1)
    20e8:	0009                	c.nop	2
    20ea:	0100                	addi	s0,sp,128
    20ec:	2705                	jal	280c <wiring.c.7604182b+0x37d>
    20ee:	1c090003          	lb	zero,448(s2)
    20f2:	0100                	addi	s0,sp,128
    20f4:	0305                	addi	t1,t1,1
    20f6:	10090003          	lb	zero,256(s2)
    20fa:	0100                	addi	s0,sp,128
    20fc:	0306                	slli	t1,t1,0x1
    20fe:	0902                	c.slli64	s2
    2100:	000a                	c.slli	zero,0x2
    2102:	0301                	addi	t1,t1,0
    2104:	0902                	c.slli64	s2
    2106:	0000                	unimp
    2108:	0501                	addi	a0,a0,0
    210a:	0620                	addi	s0,sp,776
    210c:	00097e03          	0x97e03
    2110:	0100                	addi	s0,sp,128
    2112:	1005                	c.nop	-31
    2114:	04090003          	lb	zero,64(s2)
    2118:	0100                	addi	s0,sp,128
    211a:	2005                	jal	213a <main.c.6f2e4722+0x381>
    211c:	00090003          	lb	zero,0(s2)
    2120:	0100                	addi	s0,sp,128
    2122:	2505                	jal	2742 <wiring.c.7604182b+0x2b3>
    2124:	04090003          	lb	zero,64(s2)
    2128:	0100                	addi	s0,sp,128
    212a:	2305                	jal	264a <wiring.c.7604182b+0x1bb>
    212c:	04090203          	lb	tp,64(s2)
    2130:	0100                	addi	s0,sp,128
    2132:	1005                	c.nop	-31
    2134:	04097e03          	0x4097e03
    2138:	0100                	addi	s0,sp,128
    213a:	2305                	jal	265a <wiring.c.7604182b+0x1cb>
    213c:	04090203          	lb	tp,64(s2)
    2140:	0100                	addi	s0,sp,128
    2142:	2705                	jal	2862 <wiring.c.7604182b+0x3d3>
    2144:	10090003          	lb	zero,256(s2)
    2148:	0100                	addi	s0,sp,128
    214a:	0305                	addi	t1,t1,1
    214c:	10090003          	lb	zero,256(s2)
    2150:	0100                	addi	s0,sp,128
    2152:	2705                	jal	2872 <wiring.c.7604182b+0x3e3>
    2154:	04090003          	lb	zero,64(s2)
    2158:	0100                	addi	s0,sp,128
    215a:	0305                	addi	t1,t1,1
    215c:	04090003          	lb	zero,64(s2)
    2160:	0100                	addi	s0,sp,128
    2162:	0306                	slli	t1,t1,0x1
    2164:	0901                	addi	s2,s2,0
    2166:	0006                	c.slli	zero,0x1
    2168:	0501                	addi	a0,a0,0
    216a:	062c                	addi	a1,sp,776
    216c:	00090003          	lb	zero,0(s2)
    2170:	0100                	addi	s0,sp,128
    2172:	0305                	addi	t1,t1,1
    2174:	04090003          	lb	zero,64(s2)
    2178:	0100                	addi	s0,sp,128
    217a:	2c05                	jal	23aa <main.c.6f2e4722+0x5f1>
    217c:	04090003          	lb	zero,64(s2)
    2180:	0100                	addi	s0,sp,128
    2182:	0305                	addi	t1,t1,1
    2184:	04090003          	lb	zero,64(s2)
    2188:	0100                	addi	s0,sp,128
    218a:	0306                	slli	t1,t1,0x1
    218c:	0902                	c.slli64	s2
    218e:	0006                	c.slli	zero,0x1
    2190:	0501                	addi	a0,a0,0
    2192:	00030627          	0x30627
    2196:	0009                	c.nop	2
    2198:	0100                	addi	s0,sp,128
    219a:	0305                	addi	t1,t1,1
    219c:	04090003          	lb	zero,64(s2)
    21a0:	0100                	addi	s0,sp,128
    21a2:	2705                	jal	28c2 <wiring.c.7604182b+0x433>
    21a4:	04090003          	lb	zero,64(s2)
    21a8:	0100                	addi	s0,sp,128
    21aa:	0305                	addi	t1,t1,1
    21ac:	04090003          	lb	zero,64(s2)
    21b0:	0100                	addi	s0,sp,128
    21b2:	0306                	slli	t1,t1,0x1
    21b4:	0901                	addi	s2,s2,0
    21b6:	0006                	c.slli	zero,0x1
    21b8:	0501                	addi	a0,a0,0
    21ba:	062c                	addi	a1,sp,776
    21bc:	00090003          	lb	zero,0(s2)
    21c0:	0100                	addi	s0,sp,128
    21c2:	0305                	addi	t1,t1,1
    21c4:	04090003          	lb	zero,64(s2)
    21c8:	0100                	addi	s0,sp,128
    21ca:	2c05                	jal	23fa <main.c.6f2e4722+0x641>
    21cc:	04090003          	lb	zero,64(s2)
    21d0:	0100                	addi	s0,sp,128
    21d2:	0305                	addi	t1,t1,1
    21d4:	04090003          	lb	zero,64(s2)
    21d8:	0100                	addi	s0,sp,128
    21da:	0306                	slli	t1,t1,0x1
    21dc:	0902                	c.slli64	s2
    21de:	0006                	c.slli	zero,0x1
    21e0:	0501                	addi	a0,a0,0
    21e2:	00030623          	sb	zero,12(t1)
    21e6:	0009                	c.nop	2
    21e8:	0100                	addi	s0,sp,128
    21ea:	2705                	jal	290a <wiring.c.7604182b+0x47b>
    21ec:	08090003          	lb	zero,128(s2)
    21f0:	0100                	addi	s0,sp,128
    21f2:	0305                	addi	t1,t1,1
    21f4:	10090003          	lb	zero,256(s2)
    21f8:	0100                	addi	s0,sp,128
    21fa:	2705                	jal	291a <wiring.c.7604182b+0x48b>
    21fc:	04090003          	lb	zero,64(s2)
    2200:	0100                	addi	s0,sp,128
    2202:	0305                	addi	t1,t1,1
    2204:	04090003          	lb	zero,64(s2)
    2208:	0100                	addi	s0,sp,128
    220a:	0306                	slli	t1,t1,0x1
    220c:	0901                	addi	s2,s2,0
    220e:	0006                	c.slli	zero,0x1
    2210:	0501                	addi	a0,a0,0
    2212:	062c                	addi	a1,sp,776
    2214:	00090003          	lb	zero,0(s2)
    2218:	0100                	addi	s0,sp,128
    221a:	0305                	addi	t1,t1,1
    221c:	04090003          	lb	zero,64(s2)
    2220:	0100                	addi	s0,sp,128
    2222:	2c05                	jal	2452 <main.c.6f2e4722+0x699>
    2224:	04090003          	lb	zero,64(s2)
    2228:	0100                	addi	s0,sp,128
    222a:	0305                	addi	t1,t1,1
    222c:	04090003          	lb	zero,64(s2)
    2230:	0100                	addi	s0,sp,128
    2232:	0306                	slli	t1,t1,0x1
    2234:	0902                	c.slli64	s2
    2236:	0006                	c.slli	zero,0x1
    2238:	0501                	addi	a0,a0,0
    223a:	00030623          	sb	zero,12(t1)
    223e:	0009                	c.nop	2
    2240:	0100                	addi	s0,sp,128
    2242:	0305                	addi	t1,t1,1
    2244:	04090003          	lb	zero,64(s2)
    2248:	0100                	addi	s0,sp,128
    224a:	2305                	jal	276a <wiring.c.7604182b+0x2db>
    224c:	04090003          	lb	zero,64(s2)
    2250:	0100                	addi	s0,sp,128
    2252:	2705                	jal	2972 <wiring.c.7604182b+0x4e3>
    2254:	04090003          	lb	zero,64(s2)
    2258:	0100                	addi	s0,sp,128
    225a:	0305                	addi	t1,t1,1
    225c:	14090003          	lb	zero,320(s2)
    2260:	0100                	addi	s0,sp,128
    2262:	0306                	slli	t1,t1,0x1
    2264:	0901                	addi	s2,s2,0
    2266:	0006                	c.slli	zero,0x1
    2268:	0501                	addi	a0,a0,0
    226a:	062c                	addi	a1,sp,776
    226c:	00090003          	lb	zero,0(s2)
    2270:	0100                	addi	s0,sp,128
    2272:	0305                	addi	t1,t1,1
    2274:	04090003          	lb	zero,64(s2)
    2278:	0100                	addi	s0,sp,128
    227a:	2c05                	jal	24aa <wiring.c.7604182b+0x1b>
    227c:	04090003          	lb	zero,64(s2)
    2280:	0100                	addi	s0,sp,128
    2282:	0305                	addi	t1,t1,1
    2284:	04090003          	lb	zero,64(s2)
    2288:	0100                	addi	s0,sp,128
    228a:	0205                	addi	tp,tp,1
    228c:	0306                	slli	t1,t1,0x1
    228e:	0902                	c.slli64	s2
    2290:	000a                	c.slli	zero,0x2
    2292:	0501                	addi	a0,a0,0
    2294:	061e                	slli	a2,a2,0x7
    2296:	00090003          	lb	zero,0(s2)
    229a:	0100                	addi	s0,sp,128
    229c:	2205                	jal	23bc <main.c.6f2e4722+0x603>
    229e:	14090003          	lb	zero,320(s2)
    22a2:	0100                	addi	s0,sp,128
    22a4:	0505                	addi	a0,a0,1
    22a6:	14090003          	lb	zero,320(s2)
    22aa:	0100                	addi	s0,sp,128
    22ac:	2705                	jal	29cc <wiring.c.7604182b+0x53d>
    22ae:	04090103          	lb	sp,64(s2)
    22b2:	0100                	addi	s0,sp,128
    22b4:	0305                	addi	t1,t1,1
    22b6:	04090003          	lb	zero,64(s2)
    22ba:	0100                	addi	s0,sp,128
    22bc:	0306                	slli	t1,t1,0x1
    22be:	0900                	addi	s0,sp,144
    22c0:	0014                	0x14
    22c2:	0501                	addi	a0,a0,0
    22c4:	0302                	c.slli64	t1
    22c6:	0902                	c.slli64	s2
    22c8:	000e                	c.slli	zero,0x3
    22ca:	0501                	addi	a0,a0,0
    22cc:	061e                	slli	a2,a2,0x7
    22ce:	00090003          	lb	zero,0(s2)
    22d2:	0100                	addi	s0,sp,128
    22d4:	2205                	jal	23f4 <main.c.6f2e4722+0x63b>
    22d6:	0c090003          	lb	zero,192(s2)
    22da:	0100                	addi	s0,sp,128
    22dc:	0505                	addi	a0,a0,1
    22de:	14090003          	lb	zero,320(s2)
    22e2:	0100                	addi	s0,sp,128
    22e4:	2705                	jal	2a04 <wiring.c.7604182b+0x575>
    22e6:	04090103          	lb	sp,64(s2)
    22ea:	0100                	addi	s0,sp,128
    22ec:	0305                	addi	t1,t1,1
    22ee:	04090003          	lb	zero,64(s2)
    22f2:	0100                	addi	s0,sp,128
    22f4:	0306                	slli	t1,t1,0x1
    22f6:	0900                	addi	s0,sp,144
    22f8:	0014                	0x14
    22fa:	0501                	addi	a0,a0,0
    22fc:	0302                	c.slli64	t1
    22fe:	0902                	c.slli64	s2
    2300:	000e                	c.slli	zero,0x3
    2302:	0501                	addi	a0,a0,0
    2304:	061e                	slli	a2,a2,0x7
    2306:	00090003          	lb	zero,0(s2)
    230a:	0100                	addi	s0,sp,128
    230c:	2205                	jal	242c <main.c.6f2e4722+0x673>
    230e:	0c090003          	lb	zero,192(s2)
    2312:	0100                	addi	s0,sp,128
    2314:	0505                	addi	a0,a0,1
    2316:	14090003          	lb	zero,320(s2)
    231a:	0100                	addi	s0,sp,128
    231c:	0305                	addi	t1,t1,1
    231e:	0306                	slli	t1,t1,0x1
    2320:	0901                	addi	s2,s2,0
    2322:	0004                	0x4
    2324:	0501                	addi	a0,a0,0
    2326:	00030627          	0x30627
    232a:	0009                	c.nop	2
    232c:	0100                	addi	s0,sp,128
    232e:	0305                	addi	t1,t1,1
    2330:	04090003          	lb	zero,64(s2)
    2334:	0100                	addi	s0,sp,128
    2336:	0105                	addi	sp,sp,1
    2338:	0a090203          	lb	tp,160(s2)
    233c:	0100                	addi	s0,sp,128
    233e:	3809                	jal	1b50 <ch32v003fun.c.297fed70+0xc6e>
    2340:	0000                	unimp
    2342:	0101                	addi	sp,sp,0
    2344:	0104                	addi	s1,sp,128
    2346:	0000                	unimp
    2348:	0004                	0x4
    234a:	00fe                	slli	ra,ra,0x1f
    234c:	0000                	unimp
    234e:	0101                	addi	sp,sp,0
    2350:	f601                	bnez	a2,2258 <main.c.6f2e4722+0x49f>
    2352:	0df2                	slli	s11,s11,0x1c
    2354:	0100                	addi	s0,sp,128
    2356:	0101                	addi	sp,sp,0
    2358:	0001                	nop
    235a:	0000                	unimp
    235c:	0001                	nop
    235e:	0100                	addi	s0,sp,128
    2360:	32336863          	bltu	t1,gp,2690 <wiring.c.7604182b+0x201>
    2364:	3076                	fld	ft0,376(sp)
    2366:	3330                	fld	fa2,96(a4)
    2368:	7566                	flw	fa0,120(sp)
    236a:	006e                	c.slli	zero,0x1b
    236c:	7273752f          	0x7273752f
    2370:	636e692f          	0x636e692f
    2374:	756c                	flw	fa1,108(a0)
    2376:	6564                	flw	fs1,76(a0)
    2378:	77656e2f          	0x77656e2f
    237c:	696c                	flw	fa1,84(a0)
    237e:	2f62                	fld	ft10,24(sp)
    2380:	616d                	addi	sp,sp,240
    2382:	6e696863          	bltu	s2,t1,2a72 <wiring.c.7604182b+0x5e3>
    2386:	0065                	c.nop	25
    2388:	7273752f          	0x7273752f
    238c:	636e692f          	0x636e692f
    2390:	756c                	flw	fa1,108(a0)
    2392:	6564                	flw	fs1,76(a0)
    2394:	77656e2f          	0x77656e2f
    2398:	696c                	flw	fa1,84(a0)
    239a:	2f62                	fld	ft10,24(sp)
    239c:	00737973          	csrrci	s2,0x7,6
    23a0:	7273752f          	0x7273752f
    23a4:	636e692f          	0x636e692f
    23a8:	756c                	flw	fa1,108(a0)
    23aa:	6564                	flw	fs1,76(a0)
    23ac:	77656e2f          	0x77656e2f
    23b0:	696c                	flw	fa1,84(a0)
    23b2:	0062                	c.slli	zero,0x18
    23b4:	7273752f          	0x7273752f
    23b8:	62696c2f          	0x62696c2f
    23bc:	6363672f          	0x6363672f
    23c0:	7369722f          	0x7369722f
    23c4:	34367663          	bgeu	a2,gp,2710 <wiring.c.7604182b+0x281>
    23c8:	752d                	lui	a0,0xfffeb
    23ca:	6b6e                	flw	fs6,216(sp)
    23cc:	6f6e                	flw	ft10,216(sp)
    23ce:	652d6e77          	0x652d6e77
    23d2:	666c                	flw	fa1,76(a2)
    23d4:	2e30312f          	0x2e30312f
    23d8:	2e32                	fld	ft8,264(sp)
    23da:	2f30                	fld	fa2,88(a4)
    23dc:	6e69                	lui	t3,0x1a
    23de:	64756c63          	bltu	a0,t2,2a36 <wiring.c.7604182b+0x5a7>
    23e2:	0065                	c.nop	25
    23e4:	5f00                	lw	s0,56(a4)
    23e6:	6564                	flw	fs1,76(a0)
    23e8:	6166                	flw	ft2,88(sp)
    23ea:	6c75                	lui	s8,0x1d
    23ec:	5f74                	lw	a3,124(a4)
    23ee:	7974                	flw	fa3,116(a0)
    23f0:	6570                	flw	fa2,76(a0)
    23f2:	00682e73          	csrrs	t3,0x6,a6
    23f6:	0002                	c.slli64	zero
    23f8:	7300                	flw	fs0,32(a4)
    23fa:	6474                	flw	fa3,76(s0)
    23fc:	6564                	flw	fs1,76(a0)
    23fe:	2e66                	fld	ft8,88(sp)
    2400:	0068                	addi	a0,sp,12
    2402:	0005                	c.nop	1
    2404:	7300                	flw	fs0,32(a4)
    2406:	6474                	flw	fa3,76(s0)
    2408:	7261                	lui	tp,0xffff8
    240a:	00682e67          	0x682e67
    240e:	0005                	c.nop	1
    2410:	7300                	flw	fs0,32(a4)
    2412:	6474                	flw	fa3,76(s0)
    2414:	6f69                	lui	t5,0x1a
    2416:	682e                	flw	fa6,200(sp)
    2418:	0400                	addi	s0,sp,512
    241a:	0000                	unimp
    241c:	735f 6474 6e69      	0x6e696474735f
    2422:	2e74                	fld	fa3,216(a2)
    2424:	0068                	addi	a0,sp,12
    2426:	63000003          	lb	zero,1584(zero) # 630 <_data_lma+0xac>
    242a:	3368                	fld	fa0,224(a4)
    242c:	7632                	flw	fa2,44(sp)
    242e:	3030                	fld	fa2,96(s0)
    2430:	6e756633          	0x6e756633
    2434:	682e                	flw	fa6,200(sp)
    2436:	0100                	addi	s0,sp,128
    2438:	0000                	unimp
    243a:	32336863          	bltu	t1,gp,276a <wiring.c.7604182b+0x2db>
    243e:	3076                	fld	ft0,376(sp)
    2440:	3330                	fld	fa2,96(a4)
    2442:	7566                	flw	fa0,120(sp)
    2444:	2e6e                	fld	ft8,216(sp)
    2446:	00010063          	beqz	sp,2446 <main.c.6f2e4722+0x68d>
    244a:	0000                	unimp
    244c:	00a2                	slli	ra,ra,0x8
    244e:	0000                	unimp
    2450:	0004                	0x4
    2452:	009c                	addi	a5,sp,64
    2454:	0000                	unimp
    2456:	0101                	addi	sp,sp,0
    2458:	f601                	bnez	a2,2360 <main.c.6f2e4722+0x5a7>
    245a:	0df2                	slli	s11,s11,0x1c
    245c:	0100                	addi	s0,sp,128
    245e:	0101                	addi	sp,sp,0
    2460:	0001                	nop
    2462:	0000                	unimp
    2464:	0001                	nop
    2466:	0100                	addi	s0,sp,128
    2468:	32336863          	bltu	t1,gp,2798 <wiring.c.7604182b+0x309>
    246c:	3076                	fld	ft0,376(sp)
    246e:	3330                	fld	fa2,96(a4)
    2470:	7566                	flw	fa0,120(sp)
    2472:	006e                	c.slli	zero,0x1b
    2474:	7273752f          	0x7273752f
    2478:	636e692f          	0x636e692f
    247c:	756c                	flw	fa1,108(a0)
    247e:	6564                	flw	fs1,76(a0)
    2480:	77656e2f          	0x77656e2f
    2484:	696c                	flw	fa1,84(a0)
    2486:	2f62                	fld	ft10,24(sp)
    2488:	616d                	addi	sp,sp,240
    248a:	6e696863          	bltu	s2,t1,2b7a <wiring.c.7604182b+0x6eb>
    248e:	0065                	c.nop	25
    2490:	7273752f          	0x7273752f
    2494:	636e692f          	0x636e692f
    2498:	756c                	flw	fa1,108(a0)
    249a:	6564                	flw	fs1,76(a0)
    249c:	77656e2f          	0x77656e2f
    24a0:	696c                	flw	fa1,84(a0)
    24a2:	2f62                	fld	ft10,24(sp)
    24a4:	00737973          	csrrci	s2,0x7,6
    24a8:	6300                	flw	fs0,0(a4)
    24aa:	3368                	fld	fa0,224(a4)
    24ac:	7632                	flw	fa2,44(sp)
    24ae:	3030                	fld	fa2,96(s0)
    24b0:	6e756633          	0x6e756633
    24b4:	682e                	flw	fa6,200(sp)
    24b6:	0100                	addi	s0,sp,128
    24b8:	0000                	unimp
    24ba:	645f 6665 7561      	0x75616665645f
    24c0:	746c                	flw	fa1,108(s0)
    24c2:	745f 7079 7365      	0x73657079745f
    24c8:	682e                	flw	fa6,200(sp)
    24ca:	0200                	addi	s0,sp,256
    24cc:	0000                	unimp
    24ce:	735f 6474 6e69      	0x6e696474735f
    24d4:	2e74                	fld	fa3,216(a2)
    24d6:	0068                	addi	a0,sp,12
    24d8:	77000003          	lb	zero,1904(zero) # 770 <_data_lma+0x1ec>
    24dc:	7269                	lui	tp,0xffffa
    24de:	6e69                	lui	t3,0x1a
    24e0:	00682e67          	0x682e67
    24e4:	0000                	unimp
    24e6:	6d00                	flw	fs0,24(a0)
    24e8:	6961                	lui	s2,0x18
    24ea:	2e6e                	fld	ft8,216(sp)
    24ec:	00000063          	beqz	zero,24ec <wiring.c.7604182b+0x5d>
    24f0:	0000                	unimp
    24f2:	00a4                	addi	s1,sp,72
    24f4:	0000                	unimp
    24f6:	0004                	0x4
    24f8:	009e                	slli	ra,ra,0x7
    24fa:	0000                	unimp
    24fc:	0101                	addi	sp,sp,0
    24fe:	f601                	bnez	a2,2406 <main.c.6f2e4722+0x64d>
    2500:	0df2                	slli	s11,s11,0x1c
    2502:	0100                	addi	s0,sp,128
    2504:	0101                	addi	sp,sp,0
    2506:	0001                	nop
    2508:	0000                	unimp
    250a:	0001                	nop
    250c:	0100                	addi	s0,sp,128
    250e:	32336863          	bltu	t1,gp,283e <wiring.c.7604182b+0x3af>
    2512:	3076                	fld	ft0,376(sp)
    2514:	3330                	fld	fa2,96(a4)
    2516:	7566                	flw	fa0,120(sp)
    2518:	006e                	c.slli	zero,0x1b
    251a:	7273752f          	0x7273752f
    251e:	636e692f          	0x636e692f
    2522:	756c                	flw	fa1,108(a0)
    2524:	6564                	flw	fs1,76(a0)
    2526:	77656e2f          	0x77656e2f
    252a:	696c                	flw	fa1,84(a0)
    252c:	2f62                	fld	ft10,24(sp)
    252e:	616d                	addi	sp,sp,240
    2530:	6e696863          	bltu	s2,t1,2c20 <wiring.c.7604182b+0x791>
    2534:	0065                	c.nop	25
    2536:	7273752f          	0x7273752f
    253a:	636e692f          	0x636e692f
    253e:	756c                	flw	fa1,108(a0)
    2540:	6564                	flw	fs1,76(a0)
    2542:	77656e2f          	0x77656e2f
    2546:	696c                	flw	fa1,84(a0)
    2548:	2f62                	fld	ft10,24(sp)
    254a:	00737973          	csrrci	s2,0x7,6
    254e:	5f00                	lw	s0,56(a4)
    2550:	6564                	flw	fs1,76(a0)
    2552:	6166                	flw	ft2,88(sp)
    2554:	6c75                	lui	s8,0x1d
    2556:	5f74                	lw	a3,124(a4)
    2558:	7974                	flw	fa3,116(a0)
    255a:	6570                	flw	fa2,76(a0)
    255c:	00682e73          	csrrs	t3,0x6,a6
    2560:	0002                	c.slli64	zero
    2562:	5f00                	lw	s0,56(a4)
    2564:	69647473          	csrrci	s0,0x696,8
    2568:	746e                	flw	fs0,248(sp)
    256a:	682e                	flw	fa6,200(sp)
    256c:	0300                	addi	s0,sp,384
    256e:	0000                	unimp
    2570:	32336863          	bltu	t1,gp,28a0 <wiring.c.7604182b+0x411>
    2574:	3076                	fld	ft0,376(sp)
    2576:	3330                	fld	fa2,96(a4)
    2578:	7566                	flw	fa0,120(sp)
    257a:	2e6e                	fld	ft8,216(sp)
    257c:	0068                	addi	a0,sp,12
    257e:	0001                	nop
    2580:	7700                	flw	fs0,40(a4)
    2582:	7269                	lui	tp,0xffffa
    2584:	6e69                	lui	t3,0x1a
    2586:	00682e67          	0x682e67
    258a:	0000                	unimp
    258c:	7700                	flw	fs0,40(a4)
    258e:	7269                	lui	tp,0xffffa
    2590:	6e69                	lui	t3,0x1a
    2592:	00632e67          	0x632e67
    2596:	0000                	unimp
	...

Disassembly of section .debug_str:

00000000 <.debug_str>:
	asm volatile( "\n\
   0:	5f5f 7562 6c69      	0x6c6975625f5f
   6:	6974                	flw	fa3,84(a0)
   8:	5f6e                	lw	t5,248(sp)
   a:	656d                	lui	a0,0x1b
   c:	636d                	lui	t1,0x1b
   e:	7970                	flw	fa2,116(a0)
  10:	3c00                	fld	fs0,56(s0)
  12:	7261                	lui	tp,0xffff8
  14:	6974                	flw	fa3,84(a0)
  16:	6966                	flw	fs2,88(sp)
  18:	6c616963          	bltu	sp,t1,6ea <_data_lma+0x166>
  1c:	003e                	c.slli	zero,0xf
  1e:	20554e47          	fmsub.s	ft8,fa0,ft5,ft4,rmm
  22:	504d4947          	fmsub.s	fs2,fs10,ft4,fa0,rmm
  26:	454c                	lw	a1,12(a0)
  28:	3120                	fld	fs0,96(a0)
  2a:	2e30                	fld	fa2,88(a2)
  2c:	2e32                	fld	ft8,264(sp)
  2e:	2030                	fld	fa2,64(s0)
  30:	6d2d                	lui	s10,0xb
  32:	7261                	lui	tp,0xffff8
  34:	723d6863          	bltu	s10,gp,764 <_data_lma+0x1e0>
  38:	3376                	fld	ft6,376(sp)
  3a:	6532                	flw	fa0,12(sp)
  3c:	6d2d2063          	0x6d2d2063
  40:	6261                	lui	tp,0x18
  42:	3d69                	jal	fffffedc <__global_pointer$+0xdffff64c>
  44:	6c69                	lui	s8,0x1a
  46:	3370                	fld	fa2,224(a4)
  48:	6532                	flw	fa0,12(sp)
  4a:	2d20                	fld	fs0,88(a0)
  4c:	616d                	addi	sp,sp,240
  4e:	6372                	flw	ft6,28(sp)
  50:	3d68                	fld	fa0,248(a0)
  52:	7672                	flw	fa2,60(sp)
  54:	63653233          	0x63653233
  58:	2d20                	fld	fs0,88(a0)
  5a:	616d                	addi	sp,sp,240
  5c:	6962                	flw	fs2,24(sp)
  5e:	693d                	lui	s2,0xf
  60:	706c                	flw	fa1,100(s0)
  62:	20653233          	0x20653233
  66:	672d                	lui	a4,0xb
  68:	2d20                	fld	fs0,88(a0)
  6a:	4f2d2067          	0x4f2d2067
  6e:	4f2d2073          	csrs	0x4f2,s10
  72:	662d2073          	csrs	0x662,s10
  76:	6f6e                	flw	ft10,216(sp)
  78:	6f2d                	lui	t5,0xb
  7a:	6570                	flw	fa2,76(a0)
  7c:	6d6e                	flw	fs10,216(sp)
  7e:	2070                	fld	fa2,192(s0)
  80:	662d                	lui	a2,0xb
  82:	6f6e                	flw	ft10,216(sp)
  84:	6f2d                	lui	t5,0xb
  86:	6570                	flw	fa2,76(a0)
  88:	616e                	flw	ft2,216(sp)
  8a:	2d206363          	bltu	zero,s2,350 <SysTick_Handler+0x70>
  8e:	6e66                	flw	ft8,88(sp)
  90:	69702d6f          	jal	s10,2f26 <wiring.c.7604182b+0xa97>
  94:	2065                	jal	13c <pinMode+0x4c>
  96:	662d                	lui	a2,0xb
  98:	7566                	flw	fa0,120(sp)
  9a:	636e                	flw	ft6,216(sp)
  9c:	6974                	flw	fa3,84(a0)
  9e:	732d6e6f          	jal	t3,d67d0 <wiring.c.7604182b+0xd4341>
	if (pin <= pin_A2) {
  a2:	6365                	lui	t1,0x19
  a4:	6974                	flw	fa3,84(a0)
		PinOffset = (pin + 1);
  a6:	20736e6f          	jal	t3,36aac <wiring.c.7604182b+0x3461d>
		GPIOx = GPIOA;
  aa:	662d                	lui	a2,0xb
  ac:	746c                	flw	fa1,108(s0)
		PinOffset = (pin + 1);
  ae:	6172                	flw	ft2,28(sp)
		GPIOx = GPIOA;
  b0:	736e                	flw	ft6,248(sp)
  b2:	5f00                	lw	s0,56(a4)
		GPIOx-> BSHR |= 1 << PinOffset;
  b4:	625f 6975 746c      	0x746c6975625f
		GPIOx-> BSHR |= 1 << (16 + PinOffset);
  ba:	6e69                	lui	t3,0x1a
  bc:	6d5f 6d65 6573      	0x65736d656d5f
}
  c2:	0074                	addi	a3,sp,12
	else if (pin <= pin_C7) {
  c4:	5f5f 6d75 646f      	0x646f6d755f5f
		PinOffset = (pin - 2);
  ca:	00336973          	csrrsi	s2,fcsr,6
  ce:	6d6f682f          	0x6d6f682f
		GPIOx = GPIOC;
  d2:	2f65                	jal	88a <_data_lma+0x306>
  d4:	6462                	flw	fs0,24(sp)
	else if (pin <= pin_D7) {
  d6:	6f72                	flw	ft10,28(sp)
  d8:	2f79                	jal	876 <_data_lma+0x2f2>
  da:	32336863          	bltu	t1,gp,40a <SysTick_Handler+0x12a>
		PinOffset = (pin - 10);
  de:	2d76                	fld	fs10,344(sp)
		GPIOx = GPIOD;
  e0:	6162                	flw	ft2,24(sp)
  e2:	502f6573          	csrrsi	a0,0x502,30
  e6:	6f72                	flw	ft10,28(sp)
  e8:	656a                	flw	fa0,152(sp)
  ea:	2f737463          	bgeu	t1,s7,3d2 <SysTick_Handler+0xf2>
		GPIOx-> BSHR |= 1 << (16 + PinOffset);
  ee:	72616863          	bltu	sp,t1,81e <_data_lma+0x29a>
	if (pin <= pin_A2) {
  f2:	696c                	flw	fa1,84(a0)
  f4:	7065                	c.lui	zero,0xffff9
		PinOffset *= (pin + 1);
  f6:	656c                	flw	fa1,76(a0)
  f8:	0078                	addi	a4,sp,12
  fa:	5f5f 6475 7669      	0x766964755f5f
		GPIOx = GPIOA;
 100:	00336973          	csrrsi	s2,fcsr,6
 104:	4552                	lw	a0,20(sp)
 106:	56524553          	0x56524553
	GPIOx->CFGLR &= ~(0b1111<<PinOffset);							// zero the 4 configuration bits
 10a:	4445                	li	s0,17
 10c:	4200                	lw	s0,0(a2)
 10e:	5f544f4f          	fnmadd.q	ft10,fs0,fs5,fa1,rmm
 112:	4f4d                	li	t5,19
 114:	4544                	lw	s1,12(a0)
 116:	5259454b          	fnmsub.d	fa0,fs2,ft5,fa0,rmm
	switch (mode) {
 11a:	7300                	flw	fs0,32(a4)
 11c:	7274                	flw	fa3,100(a2)
 11e:	6372                	flw	ft6,28(sp)
 120:	7268                	flw	fa0,100(a2)
 122:	6f00                	flw	fs0,24(a4)
 124:	6576                	flw	fa0,92(sp)
	GPIOx->CFGLR |= modeMask<<PinOffset;
 126:	6672                	flw	fa2,28(sp)
 128:	6f6c                	flw	fa1,92(a4)
 12a:	74730077          	0x74730077
 12e:	6c72                	flw	fs8,28(sp)
 130:	6e65                	lui	t3,0x19
 132:	6600                	flw	fs0,8(a2)
 134:	616d726f          	jal	tp,d774a <wiring.c.7604182b+0xd52bb>
 138:	0074                	addi	a3,sp,12
 13a:	32336863          	bltu	t1,gp,46a <SysTick_Handler+0x18a>
 13e:	3076                	fld	ft0,376(sp)
 140:	3330                	fld	fa2,96(a4)
	if (target_pin_state > pinState_nochange) {
 142:	7566                	flw	fa0,120(sp)
		digitalWrite(pin, target_pin_state - 1);
 144:	2f6e                	fld	ft10,216(sp)
 146:	32336863          	bltu	t1,gp,476 <SysTick_Handler+0x196>
 14a:	3076                	fld	ft0,376(sp)
 14c:	3330                	fld	fa2,96(a4)
	else if (pin <= pin_C7) {
 14e:	7566                	flw	fa0,120(sp)
 150:	2e6e                	fld	ft8,216(sp)
 152:	74730063          	beq	t1,t2,892 <_data_lma+0x30e>
		PinOffset *= (pin - 2);
 156:	6e72                	flw	ft8,28(sp)
 158:	00706d63          	bltu	zero,t2,172 <pinMode+0x82>
 15c:	4441                	li	s0,16
		GPIOx = GPIOC;
 15e:	65725043          	0x65725043
 162:	61546373          	csrrsi	t1,0x615,8
	else if (pin <= pin_D7) {
 166:	6c62                	flw	fs8,24(sp)
 168:	0065                	c.nop	25
		PinOffset *= (pin - 10);
 16a:	7265                	lui	tp,0xffff9
 16c:	6e72                	flw	ft8,28(sp)
 16e:	7473006f          	j	310b4 <wiring.c.7604182b+0x2ec25>
		GPIOx = GPIOD;
 172:	6e72                	flw	ft8,28(sp)
 174:	656c                	flw	fa1,76(a0)
		PinOffset *= (pin - 10);
 176:	006e                	c.slli	zero,0x1b
		GPIOx = GPIOD;
 178:	5f5f 6e69 3374      	0x33746e695f5f
}
 17e:	5f32                	lw	t5,44(sp)
int main() {
 180:	0074                	addi	a3,sp,12
 182:	6174                	flw	fa3,68(a0)
 184:	6772                	flw	fa4,28(sp)
	RCC->CFGR0 = RCC_HPRE_DIV1 | RCC_PLLSRC_HSI_Mul2;      // PLLCLK = HSI * 2 = 48 MHz; HCLK = SYSCLK = APB1
 186:	6e65                	lui	t3,0x19
 188:	0064                	addi	s1,sp,12
	RCC->CTLR  = RCC_HSION | RCC_PLLON | ((HSITRIM) << 3); // Use HSI, but enable PLL.
 18a:	74737953          	0x74737953
	RCC->CFGR0 = RCC_HPRE_DIV1 | RCC_PLLSRC_HSI_Mul2;      // PLLCLK = HSI * 2 = 48 MHz; HCLK = SYSCLK = APB1
 18e:	6d65                	lui	s10,0x19
 190:	6e49                	lui	t3,0x12
	RCC->CTLR  = RCC_HSION | RCC_PLLON | ((HSITRIM) << 3); // Use HSI, but enable PLL.
 192:	7469                	lui	s0,0xffffa
 194:	3432                	fld	fs0,296(sp)
 196:	5348                	lw	a0,36(a4)
	FLASH->ACTLR = FLASH_ACTLR_LATENCY_1;                  // 1 Cycle Latency
 198:	0049                	c.nop	18
 19a:	6e75                	lui	t3,0x1d
 19c:	00676973          	csrrsi	s2,0x6,14
	RCC->INTR  = 0x009F0000;                               // Clear PLL, CSSC, HSE, HSI and LSI ready flags.
 1a0:	7570                	flw	fa2,108(a0)
 1a2:	6374                	flw	fa3,68(a4)
 1a4:	6168                	flw	fa0,68(a0)
	while((RCC->CTLR & RCC_PLLRDY) == 0);                                      // Wait till PLL is ready
 1a6:	0072                	c.slli	zero,0x1c
 1a8:	5041                	c.li	zero,-16
 1aa:	3242                	fld	ft4,48(sp)
 1ac:	4350                	lw	a2,4(a4)
 1ae:	4e45                	li	t3,17
 1b0:	0052                	c.slli	zero,0x14
 1b2:	4e49                	li	t3,18
	RCC->CFGR0 = ( RCC->CFGR0 & ((uint32_t)~(RCC_SW))) | (uint32_t)RCC_SW_PLL; // Select PLL as system clock source
 1b4:	5244                	lw	s1,36(a2)
	while ((RCC->CFGR0 & (uint32_t)RCC_SWS) != (uint32_t)0x08);                // Wait till PLL is used as system clock source
 1b6:	6d00                	flw	fs0,24(a0)
	RCC->CFGR0 = ( RCC->CFGR0 & ((uint32_t)~(RCC_SW))) | (uint32_t)RCC_SW_PLL; // Select PLL as system clock source
 1b8:	6e69                	lui	t3,0x1a
 1ba:	5f69                	li	t5,-6
 1bc:	7376                	flw	ft6,124(sp)
 1be:	706e                	flw	ft0,248(sp)
	while ((RCC->CFGR0 & (uint32_t)RCC_SWS) != (uint32_t)0x08);                // Wait till PLL is used as system clock source
 1c0:	6972                	flw	fs2,28(sp)
 1c2:	746e                	flw	fs0,248(sp)
 1c4:	0066                	c.slli	zero,0x19
 1c6:	4f495047          	fmsub.q	ft0,fs2,fs4,fs1,unknown
 1ca:	535f 6570 6465      	0x64656570535f
	SysTick->CTLR = 0;
 1d0:	325f 484d 007a      	0x7a484d325f
 1d6:	696d                	lui	s2,0x1b
 1d8:	696e                	flw	fs2,216(sp)
 1da:	695f 6f74 0061      	0x616f74695f
	SysTick->CMP = (SYSTEM_CORE_CLOCK/SYSTICKHZ)-1;
 1e0:	63727473          	csrrci	s0,0x637,4
	SysTick->CNT = 0;
 1e4:	7970                	flw	fa2,116(a0)
 1e6:	4900                	lw	s0,16(a0)
	systick_cnt = 0;
 1e8:	746e                	flw	fs0,248(sp)
 1ea:	7265                	lui	tp,0xffff9
	SysTick->CTLR = SYSTICK_CTLR_STE | SYSTICK_CTLR_STIE |
 1ec:	7572                	flw	fa0,60(sp)
 1ee:	7470                	flw	fa2,108(s0)
			RCC->APB2PCENR |= RCC_APB2Periph_GPIOA;
 1f0:	6556                	flw	fa0,84(sp)
	pinMode(pin_A1, pinMode_I_floating);
 1f2:	726f7463          	bgeu	t5,t1,91a <_data_lma+0x396>
 1f6:	6544                	flw	fs1,12(a0)
 1f8:	6166                	flw	ft2,88(sp)
 1fa:	6c75                	lui	s8,0x1d
			RCC->APB2PCENR |= RCC_APB2Periph_GPIOC;
 1fc:	0074                	addi	a3,sp,12
 1fe:	5041                	c.li	zero,-16
 200:	3142                	fld	ft2,48(sp)
 202:	5250                	lw	a2,36(a2)
 204:	00525453          	fadd.s	fs0,ft4,ft5,unknown
	pinMode(pin_A2, pinMode_I_floating);
 208:	4e49                	li	t3,18
 20a:	5254                	lw	a3,36(a2)
	pinMode(pin_C1, pinMode_I_floating);
 20c:	7300                	flw	fs0,32(a4)
 20e:	6968                	flw	fa0,84(a0)
 210:	7466                	flw	fs0,120(sp)
	pinMode(pin_C2, pinMode_I_floating);
 212:	6d00                	flw	fs0,24(a0)
 214:	6d65                	lui	s10,0x19
 216:	6f6d                	lui	t5,0x1b
		int temp=LEDs[0].brightness;
 218:	6576                	flw	fa0,92(sp)
 21a:	4300                	lw	s0,0(a4)
 21c:	4746                	lw	a4,80(sp)
 21e:	524c                	lw	a1,36(a2)
 220:	6d00                	flw	fs0,24(a0)
		for(int i=1; i<12; i++){
 222:	6e69                	lui	t3,0x1a
	uint32_t end = systick_cnt + n; 
 224:	5f69                	li	t5,-6
 226:	6170                	flw	fa2,68(a0)
 228:	0064                	addi	s1,sp,12
 22a:	75746553          	0x75746553
	while( ((int32_t)(systick_cnt - end )) < 0 );
 22e:	5570                	lw	a2,108(a0)
 230:	5241                	li	tp,-16
 232:	0054                	addi	a3,sp,4
 234:	4f495047          	fmsub.q	ft0,fs2,fs4,fs1,unknown
		int temp=LEDs[0].brightness;
 238:	535f 6570 6465      	0x64656570535f
 23e:	315f 4d30 7a48      	0x7a484d30315f
			LEDs[i-1].brightness=LEDs[i].brightness;
 244:	7500                	flw	fs0,40(a0)
 246:	7261                	lui	tp,0xffff8
 248:	4274                	lw	a3,68(a2)
 24a:	5252                	lw	tp,52(sp)
 24c:	6c00                	flw	fs0,24(s0)
 24e:	20676e6f          	jal	t3,76454 <wiring.c.7604182b+0x73fc5>
 252:	6f6c                	flw	fa1,92(a4)
 254:	676e                	flw	fa4,216(sp)
 256:	7520                	flw	fs0,104(a0)
 258:	736e                	flw	ft6,248(sp)
 25a:	6769                	lui	a4,0x1a
 25c:	656e                	flw	fa0,216(sp)
 25e:	2064                	fld	fs1,192(s0)
		for(int i=1; i<12; i++){
 260:	6e69                	lui	t3,0x1a
 262:	0074                	addi	a3,sp,12
 264:	696d                	lui	s2,0x1b
		LEDs[11].brightness=temp;
 266:	696e                	flw	fs2,216(sp)
 268:	735f 706e 6972      	0x6972706e735f
	asm volatile( "\n\
 26e:	746e                	flw	fs0,248(sp)
 270:	0066                	c.slli	zero,0x19
 272:	6e727473          	csrrci	s0,0x6e7,4
 276:	00797063          	bgeu	s2,t2,276 <handle_reset+0xa>
 27a:	6544                	flw	fs1,12(a0)
 27c:	616c                	flw	fa1,68(a0)
 27e:	5379                	li	t1,-2
 280:	7379                	lui	t1,0xffffe
 282:	6954                	flw	fa3,20(a0)
 284:	5f006b63          	bltu	zero,a6,87a <_data_lma+0x2f6>
 288:	705f 7475 5f73      	0x5f737475705f
 28e:	6175                	addi	sp,sp,368
 290:	7472                	flw	fs0,60(sp)
 292:	5f00                	lw	s0,56(a4)
asm volatile(
 294:	755f 6e69 3174      	0x31746e69755f
 29a:	5f36                	lw	t5,108(sp)
 29c:	0074                	addi	a3,sp,12
 29e:	6176                	flw	ft2,92(sp)
 2a0:	756c                	flw	fa1,108(a0)
 2a2:	0065                	c.nop	25
 2a4:	5f5f 6e67 6375      	0x63756e675f5f
 2aa:	765f 5f61 696c      	0x696c5f61765f
 2b0:	72007473          	csrrci	s0,0x720,0
 2b4:	7465                	lui	s0,0xffff9
 2b6:	735f 6174 7574      	0x75746174735f
 2bc:	70750073          	0x70750073
 2c0:	6570                	flw	fa2,76(a0)
 2c2:	6372                	flw	ft6,28(sp)
 2c4:	7361                	lui	t1,0xffff8
 2c6:	0065                	c.nop	25
 2c8:	657a6973          	csrrsi	s2,0x657,20
	SETUP_SYSTICK_HCLK
 2cc:	745f 4f00 5455      	0x54554f00745f
asm volatile(
 2d2:	5244                	lw	s1,36(a2)
 2d4:	4800                	lw	s0,16(s0)
 2d6:	59424553          	0x59424553
 2da:	0050                	addi	a2,sp,4
 2dc:	4c46                	lw	s8,80(sp)
	asm volatile( "1: j 1b" );
 2de:	5341                	li	t1,-16
{
 2e0:	5f48                	lw	a0,60(a4)
 2e2:	7954                	flw	fa3,52(a0)
 2e4:	6570                	flw	fa2,76(a0)
 2e6:	6544                	flw	fs1,12(a0)
	SysTick->CMP += (SYSTEM_CORE_CLOCK/SYSTICKHZ);
 2e8:	0066                	c.slli	zero,0x19
 2ea:	696d                	lui	s2,0x1b
{
 2ec:	696e                	flw	fs2,216(sp)
 2ee:	705f 7270 6e69      	0x6e697270705f
 2f4:	6674                	flw	fa3,76(a2)
 2f6:	5200                	lw	s0,32(a2)
 2f8:	545f4343          	0x545f4343
 2fc:	7079                	c.lui	zero,0xffffe
 2fe:	4465                	li	s0,25
 300:	6665                	lui	a2,0x19
 302:	4100                	lw	s0,0(a0)
 304:	524c5443          	fmadd.d	fs0,fs8,ft4,fa0,unknown
 308:	7400                	flw	fs0,40(s0)
 30a:	61776f77          	0x61776f77
 30e:	5f79                	li	t5,-2
 310:	73727473          	csrrci	s0,0x737,4
 314:	7274                	flw	fa3,100(a2)
 316:	4200                	lw	s0,0(a2)
 318:	00524853          	fadd.s	fa6,ft4,ft5,rmm
	SysTick->CMP += (SYSTEM_CORE_CLOCK/SYSTICKHZ);
 31c:	5355                	li	t1,-11
 31e:	5241                	li	tp,-16
 320:	5f54                	lw	a3,60(a4)
 322:	7954                	flw	fa3,52(a0)
	SysTick->SR = 0;
 324:	6570                	flw	fa2,76(a0)
 326:	6544                	flw	fs1,12(a0)
	systick_cnt++;
 328:	0066                	c.slli	zero,0x19
 32a:	656d                	lui	a0,0x1b
 32c:	636d                	lui	t1,0x1b
 32e:	7268                	flw	fa0,100(a2)
 330:	6d00                	flw	fs0,24(a0)
 332:	6e69                	lui	t3,0x1a
 334:	5f69                	li	t5,-6
 336:	7076                	flw	ft0,124(sp)
	ramp=systick_cnt & 0x3F;		// 0 to 63
 338:	7270                	flw	fa2,100(a2)
 33a:	6e69                	lui	t3,0x1a
 33c:	6674                	flw	fa3,76(a2)
 33e:	5300                	lw	s0,32(a4)
 340:	7379                	lui	t1,0xffffe
 342:	6574                	flw	fa3,76(a0)
	if (ramp == 0) {
 344:	496d                	li	s2,27
 346:	696e                	flw	fs2,216(sp)
 348:	4874                	lw	a3,84(s0)
 34a:	4c504553          	0x4c504553
 34e:	004c                	addi	a1,sp,4
		pinMode(LEDs[group[currentgroup][0]].pinCathode, pinMode_I_floating); // switch off this group
 350:	6f6c                	flw	fa1,92(a4)
 352:	676e                	flw	fa4,216(sp)
 354:	6c20                	flw	fs0,88(s0)
 356:	20676e6f          	jal	t3,7655c <wiring.c.7604182b+0x740cd>
 35a:	6e69                	lui	t3,0x1a
 35c:	0074                	addi	a3,sp,12
 35e:	6270                	flw	fa2,68(a2)
 360:	6675                	lui	a2,0x1d
 362:	6566                	flw	fa0,88(sp)
 364:	0072                	c.slli	zero,0x1c
 366:	6170                	flw	fa2,68(a0)
 368:	5f64                	lw	s1,124(a4)
 36a:	72616863          	bltu	sp,t1,a9a <_data_lma+0x516>
 36e:	6400                	flw	fs0,8(s0)
 370:	6769                	lui	a4,0x1a
 372:	7469                	lui	s0,0xffffa
 374:	6800                	flw	fs0,16(s0)
 376:	6e61                	lui	t3,0x18
 378:	6c64                	flw	fs1,92(s0)
 37a:	5f65                	li	t5,-7
 37c:	6572                	flw	fa0,28(sp)
 37e:	00746573          	csrrsi	a0,0x7,8
 382:	657a6973          	csrrsi	s2,0x657,20
		currentgroup = (currentgroup + 1) & 0x3;	// move to next group
 386:	4100                	lw	s0,0(a0)
 388:	4248                	lw	a0,4(a2)
 38a:	4350                	lw	a2,4(a4)
 38c:	4e45                	li	t3,17
 38e:	0052                	c.slli	zero,0x14
 390:	52474643          	fmadd.d	fa2,fa4,ft4,fa0,rmm
		pinMode(LEDs[group[currentgroup][0]].pinCathode, pinMode_O_pushPull); // switch on the group
 394:	0030                	addi	a2,sp,8
		currentgroup = (currentgroup + 1) & 0x3;	// move to next group
 396:	705f 7475 0073      	0x737475705f
		pinMode(LEDs[group[currentgroup][0]].pinCathode, pinMode_O_pushPull); // switch on the group
 39c:	6170                	flw	fa2,68(a0)
 39e:	5f64                	lw	s1,124(a4)
 3a0:	6f74                	flw	fa3,92(a4)
 3a2:	6700                	flw	fs0,8(a4)
 3a4:	6f72                	flw	ft10,28(sp)
 3a6:	50410077          	0x50410077
 3aa:	3142                	fld	ft2,48(sp)
 3ac:	4350                	lw	a2,4(a4)
 3ae:	4e45                	li	t3,17
 3b0:	0052                	c.slli	zero,0x14
 3b2:	7261                	lui	tp,0xffff8
 3b4:	53007367          	0x53007367
 3b8:	7379                	lui	t1,0xffffe
 3ba:	6954                	flw	fa3,20(a0)
 3bc:	545f6b63          	bltu	t5,t0,912 <_data_lma+0x38e>
 3c0:	7079                	c.lui	zero,0xffffe
 3c2:	0065                	c.nop	25
 3c4:	6f6c                	flw	fa1,92(a4)
 3c6:	676e                	flw	fa4,216(sp)
		digitalWrite(LEDs[group[currentgroup][0]].pinCathode, low);
 3c8:	6420                	flw	fs0,72(s0)
 3ca:	6c62756f          	jal	a0,27a90 <wiring.c.7604182b+0x25601>
 3ce:	0065                	c.nop	25
 3d0:	775f 6972 6574      	0x65746972775f
 3d6:	4300                	lw	s0,0(a4)
 3d8:	4c54                	lw	a3,28(s0)
		pinMode(LEDs[group[currentgroup][0]].pinAnode, pinMode_O_pushPull); // switch on this LED
 3da:	3152                	fld	ft2,304(sp)
 3dc:	4300                	lw	s0,0(a4)
 3de:	4c54                	lw	a3,28(s0)
 3e0:	3252                	fld	ft4,304(sp)
 3e2:	4300                	lw	s0,0(a4)
 3e4:	4c54                	lw	a3,28(s0)
 3e6:	3352                	fld	ft6,304(sp)
 3e8:	5f00                	lw	s0,56(a4)
 3ea:	755f 6e69 7074      	0x70746e69755f
		digitalWrite(LEDs[group[currentgroup][0]].pinAnode, high);
 3f0:	7274                	flw	fa3,100(a2)
 3f2:	745f 5300 7379      	0x73795300745f
 3f8:	6574                	flw	fa3,76(a0)
 3fa:	496d                	li	s2,27
 3fc:	696e                	flw	fs2,216(sp)
		pinMode(LEDs[group[currentgroup][1]].pinAnode, pinMode_O_pushPull); // switch on this LED
 3fe:	4874                	lw	a3,84(s0)
 400:	52004553          	0x52004553
 404:	43535453          	0x43535453
 408:	7300524b          	fnmsub.d	ft4,ft0,fa6,fa4,unknown
 40c:	7274                	flw	fa3,100(a2)
 40e:	00726863          	bltu	tp,t2,41e <SysTick_Handler+0x13e>
 412:	4552                	lw	a0,20(sp)
 414:	56524553          	0x56524553
 418:	4445                	li	s0,17
 41a:	0030                	addi	a2,sp,8
 41c:	4552                	lw	a0,20(sp)
 41e:	56524553          	0x56524553
 422:	4445                	li	s0,17
		digitalWrite(LEDs[group[currentgroup][1]].pinAnode, high);
 424:	0031                	c.nop	12
 426:	4552                	lw	a0,20(sp)
 428:	56524553          	0x56524553
 42c:	4445                	li	s0,17
 42e:	0032                	c.slli	zero,0xc
 430:	4552                	lw	a0,20(sp)
 432:	56524553          	0x56524553
		pinMode(LEDs[group[currentgroup][2]].pinAnode, pinMode_O_pushPull); // switch on this LED
 436:	4445                	li	s0,17
 438:	45520033          	0x45520033
 43c:	56524553          	0x56524553
 440:	4445                	li	s0,17
 442:	0034                	addi	a3,sp,8
 444:	4552                	lw	a0,20(sp)
 446:	56524553          	0x56524553
 44a:	4445                	li	s0,17
 44c:	0035                	c.nop	13
 44e:	4552                	lw	a0,20(sp)
 450:	56524553          	0x56524553
 454:	4445                	li	s0,17
 456:	0036                	c.slli	zero,0xd
 458:	726f6873          	csrrsi	a6,0x726,30
		digitalWrite(LEDs[group[currentgroup][2]].pinAnode, high);
 45c:	2074                	fld	fa3,192(s0)
 45e:	6e69                	lui	t3,0x1a
 460:	0074                	addi	a3,sp,12
 462:	5041                	c.li	zero,-16
 464:	4142                	lw	sp,16(sp)
 466:	4248                	lw	a0,4(a2)
 468:	7250                	flw	fa2,36(a2)
 46a:	7365                	lui	t1,0xffff9
 46c:	62615463          	bge	sp,t1,a94 <_data_lma+0x510>
 470:	656c                	flw	fa1,76(a0)
	if (LEDs[group[currentgroup][0]].brightness == ramp) { // if the target pulse width has been achieved
 472:	6e00                	flw	fs0,24(a2)
 474:	6765                	lui	a4,0x19
 476:	7461                	lui	s0,0xffff8
 478:	7669                	lui	a2,0xffffa
 47a:	0065                	c.nop	25
 47c:	656d                	lui	a0,0x1b
 47e:	306d                	jal	fffffd28 <__global_pointer$+0xdffff498>
 480:	6d00                	flw	fs0,24(a0)
 482:	6d65                	lui	s10,0x19
 484:	00706d63          	bltu	zero,t2,49e <SysTick_Handler+0x1be>
 488:	6544                	flw	fs1,12(a0)
 48a:	6166                	flw	ft2,88(sp)
 48c:	6c75                	lui	s8,0x1d
 48e:	4974                	lw	a3,84(a0)
 490:	5152                	lw	sp,52(sp)
 492:	6148                	flw	fa0,4(a0)
 494:	646e                	flw	fs0,216(sp)
 496:	656c                	flw	fa1,76(a0)
 498:	0072                	c.slli	zero,0x1c
 49a:	5f5f 656d 726d      	0x726d656d5f5f
		pinMode(LEDs[group[currentgroup][0]].pinAnode, pinMode_I_floating); // switch off this LED
 4a0:	00726863          	bltu	tp,t2,4b0 <SysTick_Handler+0x1d0>
 4a4:	74737953          	0x74737953
 4a8:	6d65                	lui	s10,0x19
 4aa:	6e49                	lui	t3,0x12
 4ac:	7469                	lui	s0,0xffffa
 4ae:	3834                	fld	fa3,112(s0)
 4b0:	5348                	lw	a0,36(a4)
 4b2:	0049                	c.nop	18
 4b4:	5041                	c.li	zero,-16
 4b6:	3242                	fld	ft4,48(sp)
 4b8:	5250                	lw	a2,36(a2)
 4ba:	00525453          	fadd.s	fs0,ft4,ft5,unknown
 4be:	6172                	flw	ft2,28(sp)
 4c0:	6964                	flw	fs1,84(a0)
 4c2:	0078                	addi	a4,sp,12
	if (LEDs[group[currentgroup][1]].brightness == ramp) {
 4c4:	5f5f 6975 746e      	0x746e69755f5f
 4ca:	5f38                	lw	a4,120(a4)
 4cc:	0074                	addi	a3,sp,12
 4ce:	4f495047          	fmsub.q	ft0,fs2,fs4,fs1,unknown
 4d2:	545f 7079 4465      	0x44657079545f
 4d8:	6665                	lui	a2,0x19
 4da:	6600                	flw	fs0,8(a2)
 4dc:	6272756f          	jal	a0,28302 <wiring.c.7604182b+0x25e73>
 4e0:	7479                	lui	s0,0xffffe
 4e2:	5f65                	li	t5,-7
 4e4:	73727473          	csrrci	s0,0x737,4
		pinMode(LEDs[group[currentgroup][1]].pinAnode, pinMode_I_floating); // switch off this LED
 4e8:	7274                	flw	fa3,100(a2)
 4ea:	6200                	flw	fs0,0(a2)
 4ec:	6675                	lui	a2,0x1d
 4ee:	6566                	flw	fa0,88(sp)
 4f0:	5f72                	lw	t5,60(sp)
 4f2:	656c                	flw	fa1,76(a0)
 4f4:	006e                	c.slli	zero,0x1b
 4f6:	7962                	flw	fs2,56(sp)
 4f8:	6574                	flw	fa3,76(a0)
 4fa:	00746573          	csrrsi	a0,0x7,8
 4fe:	6e75                	lui	t3,0x1d
 500:	6e676973          	csrrsi	s2,0x6e6,14
 504:	6465                	lui	s0,0x19
 506:	6320                	flw	fs0,64(a4)
 508:	6168                	flw	fa0,68(a0)
 50a:	0072                	c.slli	zero,0x1c
 50c:	5f5f 6975 746e      	0x746e69755f5f
	if (LEDs[group[currentgroup][2]].brightness == ramp) {
 512:	745f3233          	0x745f3233
 516:	4700                	lw	s0,8(a4)
 518:	4950                	lw	a2,20(a0)
 51a:	70535f4f          	fnmadd.s	ft10,ft6,ft5,fa4,unknown
 51e:	6565                	lui	a0,0x19
 520:	5f64                	lw	s1,124(a4)
 522:	3035                	jal	fffffd4e <__global_pointer$+0xdffff4be>
 524:	484d                	li	a6,19
 526:	007a                	c.slli	zero,0x1e
 528:	6874                	flw	fa3,84(s0)
 52a:	6572                	flw	fa0,28(sp)
 52c:	6265                	lui	tp,0x19
 52e:	7479                	lui	s0,0xffffe
 530:	5f65                	li	t5,-7
		pinMode(LEDs[group[currentgroup][2]].pinAnode, pinMode_I_floating); // switch off this LED
 532:	73727473          	csrrci	s0,0x737,4
 536:	7274                	flw	fa3,100(a2)
 538:	4f00                	lw	s0,24(a4)
 53a:	4b42                	lw	s6,16(sp)
 53c:	5945                	li	s2,-15
 53e:	0052                	c.slli	zero,0x14
}
 540:	54415453          	0x54415453
 544:	0052                	c.slli	zero,0x14
 546:	20554e47          	fmsub.s	ft8,fa0,ft5,ft4,rmm
 54a:	20373143          	fmadd.s	ft2,fa4,ft3,ft4,rup
 54e:	3031                	jal	fffffd5a <__global_pointer$+0xdffff4ca>
 550:	322e                	fld	ft4,232(sp)
 552:	302e                	fld	ft0,232(sp)
 554:	2d20                	fld	fs0,88(a0)
 556:	616d                	addi	sp,sp,240
 558:	6372                	flw	ft6,28(sp)
 55a:	3d68                	fld	fa0,248(a0)
 55c:	7672                	flw	fa2,60(sp)
 55e:	63653233          	0x63653233
 562:	2d20                	fld	fs0,88(a0)
 564:	616d                	addi	sp,sp,240
 566:	6962                	flw	fs2,24(sp)
 568:	693d                	lui	s2,0xf
 56a:	706c                	flw	fa1,100(s0)
 56c:	20653233          	0x20653233
 570:	672d                	lui	a4,0xb
 572:	2d20                	fld	fs0,88(a0)
 574:	2d20734f          	0x2d20734f
 578:	6c66                	flw	fs8,88(sp)
 57a:	6f74                	flw	fa3,92(a4)
 57c:	2d20                	fld	fs0,88(a0)
 57e:	6666                	flw	fa2,88(sp)
 580:	6e75                	lui	t3,0x1d
 582:	6f697463          	bgeu	s2,s6,c6a <_data_lma+0x6e6>
 586:	2d6e                	fld	fs10,216(sp)
 588:	74636573          	csrrsi	a0,0x746,6
 58c:	6f69                	lui	t5,0x1a
 58e:	736e                	flw	ft6,248(sp)
 590:	7300                	flw	fs0,32(a4)
 592:	6f68                	flw	fa0,92(a4)
 594:	7472                	flw	fs0,60(sp)
 596:	7520                	flw	fs0,104(a0)
 598:	736e                	flw	ft6,248(sp)
 59a:	6769                	lui	a4,0x1a
 59c:	656e                	flw	fa0,216(sp)
 59e:	2064                	fld	fs1,192(s0)
 5a0:	6e69                	lui	t3,0x1a
 5a2:	0074                	addi	a3,sp,12
 5a4:	5f5f 7562 6c69      	0x6c6975625f5f
 5aa:	6974                	flw	fa3,84(a0)
 5ac:	5f6e                	lw	t5,248(sp)
 5ae:	6176                	flw	ft2,92(sp)
 5b0:	6c5f 7369 0074      	0x7473696c5f
 5b6:	696d                	lui	s2,0x1b
 5b8:	696e                	flw	fs2,216(sp)
 5ba:	625f 6675 0066      	0x666675625f
 5c0:	48474643          	fmadd.s	fa2,fa4,ft4,fs1,rmm
 5c4:	0052                	c.slli	zero,0x14
 5c6:	6564                	flw	fs1,76(a0)
 5c8:	74007473          	csrrci	s0,0x740,0
 5cc:	79626f77          	0x79626f77
 5d0:	6574                	flw	fa3,76(a0)
 5d2:	735f 7274 7473      	0x74737274735f
 5d8:	0072                	c.slli	zero,0x1c
 5da:	434c                	lw	a1,4(a4)
 5dc:	7300524b          	fnmsub.d	ft4,ft0,fa6,fa4,unknown
 5e0:	7274                	flw	fa3,100(a2)
 5e2:	00706d63          	bltu	zero,t2,5fc <_data_lma+0x78>
 5e6:	5845                	li	a6,-15
 5e8:	4954                	lw	a3,20(a0)
 5ea:	5f305f37          	lui	t5,0x5f305
 5ee:	5249                	li	tp,-14
 5f0:	6e51                	lui	t3,0x14
 5f2:	4700                	lw	s0,8(a4)
 5f4:	5349                	li	t1,-14
 5f6:	0052                	c.slli	zero,0x14
 5f8:	616d                	addi	sp,sp,240
 5fa:	6e69                	lui	t3,0x1a
 5fc:	632e                	flw	ft6,200(sp)
 5fe:	7000                	flw	fs0,32(s0)
 600:	6e69                	lui	t3,0x1a
 602:	6f4d                	lui	t5,0x13
 604:	6564                	flw	fs1,76(a0)
 606:	4f5f 6f5f 6570      	0x65706f5f4f5f
 60c:	446e                	lw	s0,216(sp)
 60e:	6172                	flw	ft2,28(sp)
 610:	6e69                	lui	t3,0x1a
 612:	4100                	lw	s0,0(a0)
 614:	495f5557          	0x495f5557
 618:	5152                	lw	sp,52(sp)
 61a:	006e                	c.slli	zero,0x1b
 61c:	4d44                	lw	s1,28(a0)
 61e:	3141                	jal	29e <handle_reset+0x32>
 620:	435f 6168 6e6e      	0x6e6e6168435f
 626:	6c65                	lui	s8,0x19
 628:	52495f37          	lui	t5,0x52495
 62c:	6e51                	lui	t3,0x14
 62e:	5300                	lw	s0,32(a4)
 630:	524c5443          	fmadd.d	fs0,fs8,ft4,fa0,unknown
 634:	4400                	lw	s0,8(s0)
 636:	414d                	li	sp,19
 638:	5f31                	li	t5,-20
 63a:	6e616843          	fmadd.q	fa6,ft2,ft6,fa3,unknown
 63e:	656e                	flw	fa0,216(sp)
 640:	326c                	fld	fa1,224(a2)
 642:	495f 5152 006e      	0x6e5152495f
 648:	4c46                	lw	s8,80(sp)
 64a:	5341                	li	t1,-16
 64c:	5f48                	lw	a0,60(a4)
 64e:	5249                	li	tp,-14
 650:	6e51                	lui	t3,0x14
 652:	4900                	lw	s0,16(a0)
 654:	4332                	lw	t1,12(sp)
 656:	5f31                	li	t5,-20
 658:	5645                	li	a2,-15
 65a:	495f 5152 006e      	0x6e5152495f
 660:	4f495047          	fmsub.q	ft0,fs2,fs4,fs1,unknown
 664:	6970                	flw	fa2,84(a0)
 666:	736e                	flw	ft6,248(sp)
 668:	4900                	lw	s0,16(a0)
 66a:	4854                	lw	a3,20(s0)
 66c:	4552                	lw	a0,20(sp)
 66e:	00524453          	fadd.s	fs0,ft4,ft5,rmm
 672:	5845                	li	a6,-15
 674:	52495f43          	fmadd.d	ft10,fs2,ft4,fa0,unknown
 678:	6e51                	lui	t3,0x14
 67a:	5600                	lw	s0,40(a2)
 67c:	4654                	lw	a3,12(a2)
 67e:	4449                	li	s0,18
 680:	0052                	c.slli	zero,0x14
 682:	4352                	lw	t1,20(sp)
 684:	52495f43          	fmadd.d	ft10,fs2,ft4,fa0,unknown
 688:	6e51                	lui	t3,0x14
 68a:	7000                	flw	fs0,32(s0)
 68c:	6e69                	lui	t3,0x1a
 68e:	415f 0032 4954      	0x49540032415f
 694:	314d                	jal	336 <SysTick_Handler+0x56>
 696:	425f 4b52 495f      	0x495f4b52425f
 69c:	5152                	lw	sp,52(sp)
 69e:	006e                	c.slli	zero,0x1b
 6a0:	4149                	li	sp,18
 6a2:	00525443          	fmadd.s	fs0,ft4,ft5,ft0,unknown
 6a6:	74666f53          	0x74666f53
 6aa:	65726177          	0x65726177
 6ae:	495f 5152 006e      	0x6e5152495f
 6b4:	6e756f63          	bltu	a0,t2,db2 <_data_lma+0x82e>
 6b8:	0074                	addi	a3,sp,12
 6ba:	31495053          	0x31495053
 6be:	495f 5152 006e      	0x6e5152495f
 6c4:	6970                	flw	fa2,84(a0)
 6c6:	436e                	lw	t1,216(sp)
 6c8:	7461                	lui	s0,0xffff8
 6ca:	6f68                	flw	fa0,92(a4)
 6cc:	6564                	flw	fs1,76(a0)
 6ce:	4400                	lw	s0,8(s0)
 6d0:	414d                	li	sp,19
 6d2:	5f31                	li	t5,-20
 6d4:	6e616843          	fmadd.q	fa6,ft2,ft6,fa3,unknown
 6d8:	656e                	flw	fa0,216(sp)
 6da:	346c                	fld	fa1,232(s0)
 6dc:	495f 5152 006e      	0x6e5152495f
 6e2:	564e                	lw	a2,240(sp)
 6e4:	4349                	li	t1,18
 6e6:	455f 616e 6c62      	0x6c62616e455f
 6ec:	4965                	li	s2,25
 6ee:	5152                	lw	sp,52(sp)
 6f0:	4900                	lw	s0,16(a0)
 6f2:	4e45                	li	t3,17
 6f4:	0052                	c.slli	zero,0x14
 6f6:	74737973          	csrrci	s2,0x747,6
 6fa:	6369                	lui	t1,0x1a
 6fc:	6e635f6b          	0x6e635f6b
 700:	0074                	addi	a3,sp,12
 702:	74737973          	csrrci	s2,0x747,6
 706:	6369                	lui	t1,0x1a
 708:	6e695f6b          	0x6e695f6b
 70c:	7469                	lui	s0,0xffffa
 70e:	6300                	flw	fs0,0(a4)
 710:	7275                	lui	tp,0xffffd
 712:	6572                	flw	fa0,28(sp)
 714:	746e                	flw	fs0,248(sp)
 716:	756f7267          	0x756f7267
 71a:	0070                	addi	a2,sp,12
 71c:	6970                	flw	fa2,84(a0)
 71e:	5f6e                	lw	t5,248(sp)
 720:	70003043          	fmadd.s	ft0,ft0,ft0,fa4,rup
 724:	6e69                	lui	t3,0x1a
 726:	435f 0031 6970      	0x69700031435f
 72c:	5f6e                	lw	t5,248(sp)
 72e:	49003243          	fmadd.s	ft4,ft0,fa6,fs1,rup
 732:	5152                	lw	sp,52(sp)
 734:	5f6e                	lw	t5,248(sp)
 736:	7954                	flw	fa3,52(a0)
 738:	6570                	flw	fa2,76(a0)
 73a:	7000                	flw	fs0,32(s0)
 73c:	6e69                	lui	t3,0x1a
 73e:	435f 0034 6970      	0x69700034435f
 744:	5f6e                	lw	t5,248(sp)
 746:	70003543          	fmadd.s	fa0,ft0,ft0,fa4,rup
 74a:	6e69                	lui	t3,0x1a
 74c:	435f 0036 6970      	0x69700036435f
 752:	5f6e                	lw	t5,248(sp)
 754:	49003743          	fmadd.s	fa4,ft0,fa6,fs1,rup
 758:	5250                	lw	a2,36(a2)
 75a:	4f49                	li	t5,18
 75c:	0052                	c.slli	zero,0x14
 75e:	6544                	flw	fs1,12(a0)
 760:	616c                	flw	fa1,68(a0)
 762:	5f79                	li	t5,-2
 764:	736d                	lui	t1,0xffffb
 766:	745f 6369 736b      	0x736b6369745f
 76c:	7000                	flw	fs0,32(s0)
 76e:	6e69                	lui	t3,0x1a
 770:	6f4d                	lui	t5,0x13
 772:	6564                	flw	fs1,76(a0)
 774:	4f5f 705f 7375      	0x7375705f4f5f
 77a:	5068                	lw	a0,100(s0)
 77c:	6c75                	lui	s8,0x1d
 77e:	006c                	addi	a1,sp,12
 780:	454c                	lw	a1,12(a0)
 782:	7344                	flw	fs1,36(a4)
 784:	7000                	flw	fs0,32(s0)
 786:	6e69                	lui	t3,0x1a
 788:	445f 0030 6970      	0x69700030445f
 78e:	5f6e                	lw	t5,248(sp)
 790:	3144                	fld	fs1,160(a0)
 792:	7000                	flw	fs0,32(s0)
 794:	6e69                	lui	t3,0x1a
 796:	445f 0032 6970      	0x69700032445f
 79c:	5f6e                	lw	t5,248(sp)
 79e:	3344                	fld	fs1,160(a4)
 7a0:	7000                	flw	fs0,32(s0)
 7a2:	6e69                	lui	t3,0x1a
 7a4:	445f 0034 6970      	0x69700034445f
 7aa:	5f6e                	lw	t5,248(sp)
 7ac:	3544                	fld	fs1,168(a0)
 7ae:	7000                	flw	fs0,32(s0)
 7b0:	6e69                	lui	t3,0x1a
 7b2:	445f 0036 6970      	0x69700036445f
 7b8:	5f6e                	lw	t5,248(sp)
 7ba:	3744                	fld	fs1,168(a4)
 7bc:	7400                	flw	fs0,40(s0)
 7be:	6d65                	lui	s10,0x19
 7c0:	0070                	addi	a2,sp,12
 7c2:	6970                	flw	fa2,84(a0)
 7c4:	4d6e                	lw	s10,216(sp)
 7c6:	5f65646f          	jal	s0,56dbc <wiring.c.7604182b+0x5492d>
 7ca:	5f49                	li	t5,-14
 7cc:	6c66                	flw	fs8,88(sp)
 7ce:	6974616f          	jal	sp,47664 <wiring.c.7604182b+0x451d5>
 7d2:	676e                	flw	fa4,216(sp)
 7d4:	5300                	lw	s0,32(a4)
 7d6:	7379                	lui	t1,0xffffe
 7d8:	6954                	flw	fa3,20(a0)
 7da:	495f4b63          	blt	t5,s5,c70 <_data_lma+0x6ec>
 7de:	5152                	lw	sp,52(sp)
 7e0:	006e                	c.slli	zero,0x1b
 7e2:	4d44                	lw	s1,28(a0)
 7e4:	3141                	jal	464 <SysTick_Handler+0x184>
 7e6:	435f 6168 6e6e      	0x6e6e6168435f
 7ec:	6c65                	lui	s8,0x19
 7ee:	5f36                	lw	t5,108(sp)
 7f0:	5249                	li	tp,-14
 7f2:	6e51                	lui	t3,0x14
 7f4:	4400                	lw	s0,8(s0)
 7f6:	414d                	li	sp,19
 7f8:	5f31                	li	t5,-20
 7fa:	6e616843          	fmadd.q	fa6,ft2,ft6,fa3,unknown
 7fe:	656e                	flw	fa0,216(sp)
 800:	316c                	fld	fa1,224(a0)
 802:	495f 5152 006e      	0x6e5152495f
 808:	47445757          	0x47445757
 80c:	495f 5152 006e      	0x6e5152495f
 812:	7262                	flw	ft4,56(sp)
 814:	6769                	lui	a4,0x1a
 816:	7468                	flw	fa0,108(s0)
 818:	656e                	flw	fa0,216(sp)
 81a:	53007373          	csrrci	t1,0x530,0
 81e:	7379                	lui	t1,0xffffe
 820:	6954                	flw	fa3,20(a0)
 822:	485f6b63          	bltu	t5,t0,cb8 <_data_lma+0x734>
 826:	6e61                	lui	t3,0x18
 828:	6c64                	flw	fs1,92(s0)
 82a:	7265                	lui	tp,0xffff9
 82c:	5000                	lw	s0,32(s0)
 82e:	4946                	lw	s2,80(sp)
 830:	79545f43          	fmadd.s	ft10,fs0,fs5,fa5,unknown
 834:	6570                	flw	fa2,76(a0)
 836:	7000                	flw	fs0,32(s0)
 838:	6e69                	lui	t3,0x1a
 83a:	415f 0031 5650      	0x56500031415f
 840:	5f44                	lw	s1,60(a4)
 842:	5249                	li	tp,-14
 844:	6e51                	lui	t3,0x14
 846:	4100                	lw	s0,0(a0)
 848:	4344                	lw	s1,4(a4)
 84a:	495f 5152 006e      	0x6e5152495f
 850:	4d44                	lw	s1,28(a0)
 852:	3141                	jal	4d2 <SysTick_Handler+0x1f2>
 854:	435f 6168 6e6e      	0x6e6e6168435f
 85a:	6c65                	lui	s8,0x19
 85c:	52495f33          	0x52495f33
 860:	6e51                	lui	t3,0x14
 862:	7000                	flw	fs0,32(s0)
 864:	6e69                	lui	t3,0x1a
 866:	6f4d                	lui	t5,0x13
 868:	6564                	flw	fs1,76(a0)
 86a:	495f 615f 616e      	0x616e615f495f
 870:	6f6c                	flw	fa1,92(a4)
 872:	49540067          	jr	1173(s0) # ffffa495 <__global_pointer$+0xdfff9c05>
 876:	314d                	jal	518 <SysTick_Handler+0x238>
 878:	555f 5f50 5249      	0x52495f50555f
 87e:	6e51                	lui	t3,0x14
 880:	7000                	flw	fs0,32(s0)
 882:	6e69                	lui	t3,0x1a
 884:	6f4d                	lui	t5,0x13
 886:	6564                	flw	fs1,76(a0)
 888:	4f5f 705f 7375      	0x7375705f4f5f
 88e:	5068                	lw	a0,100(s0)
 890:	6c75                	lui	s8,0x1d
 892:	4d6c                	lw	a1,92(a0)
 894:	7875                	lui	a6,0xffffd
 896:	5500                	lw	s0,40(a0)
 898:	54524153          	0x54524153
 89c:	5f31                	li	t5,-20
 89e:	5249                	li	tp,-14
 8a0:	6e51                	lui	t3,0x14
 8a2:	4e00                	lw	s0,24(a2)
 8a4:	614d6e6f          	jal	t3,d6eb8 <wiring.c.7604182b+0xd4a29>
 8a8:	62616b73          	csrrsi	s6,0x626,2
 8ac:	656c                	flw	fa1,76(a0)
 8ae:	6e49                	lui	t3,0x12
 8b0:	5f74                	lw	a3,124(a4)
 8b2:	5249                	li	tp,-14
 8b4:	6e51                	lui	t3,0x14
 8b6:	7000                	flw	fs0,32(s0)
 8b8:	5f74726f          	jal	tp,486ae <wiring.c.7604182b+0x4621f>
 8bc:	0041                	c.nop	16
 8be:	6f70                	flw	fa2,92(a4)
 8c0:	7472                	flw	fs0,60(sp)
 8c2:	435f 7000 726f      	0x726f7000435f
 8c8:	5f74                	lw	a3,124(a4)
 8ca:	0044                	addi	s1,sp,4
 8cc:	4954                	lw	a3,20(a0)
 8ce:	314d                	jal	570 <SysTick_Handler+0x290>
 8d0:	435f 5f43 5249      	0x52495f43435f
 8d6:	6e51                	lui	t3,0x14
 8d8:	4300                	lw	s0,0(a4)
 8da:	4746                	lw	a4,80(sp)
 8dc:	0052                	c.slli	zero,0x14
 8de:	6970                	flw	fa2,84(a0)
 8e0:	4d6e                	lw	s10,216(sp)
 8e2:	5f65646f          	jal	s0,56ed8 <wiring.c.7604182b+0x54a49>
 8e6:	706f5f4f          	fnmadd.s	ft10,ft10,ft6,fa4,unknown
 8ea:	6e65                	lui	t3,0x19
 8ec:	7244                	flw	fs1,36(a2)
 8ee:	6961                	lui	s2,0x18
 8f0:	4d6e                	lw	s10,216(sp)
 8f2:	7875                	lui	a6,0xffffd
 8f4:	7000                	flw	fs0,32(s0)
 8f6:	6e69                	lui	t3,0x1a
 8f8:	6f4d                	lui	t5,0x13
 8fa:	6564                	flw	fs1,76(a0)
 8fc:	495f 705f 6c75      	0x6c75705f495f
 902:	446c                	lw	a1,76(s0)
 904:	006e776f          	jal	a4,e790a <wiring.c.7604182b+0xe547b>
 908:	6970                	flw	fa2,84(a0)
 90a:	416e                	lw	sp,216(sp)
 90c:	6f6e                	flw	ft10,216(sp)
 90e:	6564                	flw	fs1,76(a0)
 910:	5400                	lw	s0,40(s0)
 912:	4d49                	li	s10,18
 914:	5f31                	li	t5,-20
 916:	5254                	lw	a3,36(a2)
 918:	4f435f47          	fmsub.q	ft10,ft6,fs4,fs1,unknown
 91c:	5f4d                	li	t5,-13
 91e:	5249                	li	tp,-14
 920:	6e51                	lui	t3,0x14
 922:	4900                	lw	s0,16(a0)
 924:	4332                	lw	t1,12(sp)
 926:	5f31                	li	t5,-20
 928:	5245                	li	tp,-15
 92a:	495f 5152 006e      	0x6e5152495f
 930:	6172                	flw	ft2,28(sp)
 932:	706d                	c.lui	zero,0xffffb
 934:	5400                	lw	s0,40(s0)
 936:	4d49                	li	s10,18
 938:	5f32                	lw	t5,44(sp)
 93a:	5249                	li	tp,-14
 93c:	6e51                	lui	t3,0x14
 93e:	7000                	flw	fs0,32(s0)
 940:	6e69                	lui	t3,0x1a
 942:	435f 0033 5249      	0x52490033435f
 948:	5245                	li	tp,-15
 94a:	4900                	lw	s0,16(a0)
 94c:	5250                	lw	a2,36(a2)
 94e:	0052                	c.slli	zero,0x14
 950:	4d44                	lw	s1,28(a0)
 952:	3141                	jal	5d2 <_data_lma+0x4e>
 954:	435f 6168 6e6e      	0x6e6e6168435f
 95a:	6c65                	lui	s8,0x19
 95c:	5f35                	li	t5,-19
 95e:	5249                	li	tp,-14
 960:	6e51                	lui	t3,0x14
 962:	5600                	lw	s0,40(a2)
 964:	4654                	lw	a3,12(a2)
 966:	4441                	li	s0,16
 968:	5244                	lw	s1,36(a2)
 96a:	6c00                	flw	fs0,24(s0)
 96c:	6968776f          	jal	a4,88002 <wiring.c.7604182b+0x85b73>
 970:	43006867          	0x43006867
 974:	656e6e6f          	jal	t3,e6fca <wiring.c.7604182b+0xe4b3b>
 978:	6f697463          	bgeu	s2,s6,1060 <ch32v003fun.c.297fed70+0x17e>
 97c:	006e                	c.slli	zero,0x1b
 97e:	616d                	addi	sp,sp,240
 980:	6e69                	lui	t3,0x1a
 982:	4700                	lw	s0,8(a4)
 984:	4950                	lw	a2,20(a0)
 986:	6e69704f          	fnmadd.q	ft0,fs2,ft6,fa3
 98a:	6f4d                	lui	t5,0x13
 98c:	6564                	flw	fs1,76(a0)
 98e:	4900                	lw	s0,16(a0)
 990:	5350                	lw	a2,36(a4)
 992:	0052                	c.slli	zero,0x14
 994:	6970                	flw	fa2,84(a0)
 996:	5f6e                	lw	t5,248(sp)
 998:	6f6e                	flw	ft10,216(sp)
 99a:	656e                	flw	fa0,216(sp)
 99c:	5200                	lw	s0,32(a2)
 99e:	5345                	li	t1,-15
 9a0:	5245                	li	tp,-15
 9a2:	4556                	lw	a0,84(sp)
 9a4:	3744                	fld	fs1,168(a4)
 9a6:	7000                	flw	fs0,32(s0)
 9a8:	6e69                	lui	t3,0x1a
 9aa:	6f4d                	lui	t5,0x13
 9ac:	6564                	flw	fs1,76(a0)
 9ae:	495f 705f 6c75      	0x6c75705f495f
 9b4:	556c                	lw	a1,108(a0)
 9b6:	0070                	addi	a2,sp,12
 9b8:	6544                	flw	fs1,12(a0)
 9ba:	616c                	flw	fa1,68(a0)
 9bc:	5f79                	li	t5,-2
 9be:	6954                	flw	fa3,20(a0)
 9c0:	00736b63          	bltu	t1,t2,9d6 <_data_lma+0x452>
 9c4:	4f495047          	fmsub.q	ft0,fs2,fs4,fs1,unknown
 9c8:	6f70                	flw	fa2,92(a4)
 9ca:	7472                	flw	fs0,60(sp)
 9cc:	6f700073          	0x6f700073
 9d0:	7472                	flw	fs0,60(sp)
 9d2:	6e5f 6e6f 0065      	0x656e6f6e5f
 9d8:	5349                	li	t1,-14
 9da:	5251                	li	tp,-12
 9dc:	5700                	lw	s0,40(a4)
 9de:	4844                	lw	s1,20(s0)
 9e0:	5254                	lw	a3,36(a2)
 9e2:	6900                	flw	fs0,16(a0)
 9e4:	706e                	flw	ft0,248(sp)
 9e6:	7475                	lui	s0,0xffffd
 9e8:	4100                	lw	s0,0(a0)
 9ea:	414e                	lw	sp,208(sp)
 9ec:	4f4c                	lw	a1,28(a4)
 9ee:	706e6947          	fmsub.s	fs2,ft8,ft6,fa4,unknown
 9f2:	7475                	lui	s0,0xffffd
 9f4:	69640073          	0x69640073
 9f8:	61746967          	0x61746967
 9fc:	576c                	lw	a1,108(a4)
 9fe:	6972                	flw	fs2,28(sp)
 a00:	6574                	flw	fa3,76(a0)
 a02:	7700                	flw	fs0,40(a4)
 a04:	7269                	lui	tp,0xffffa
 a06:	6e69                	lui	t3,0x1a
 a08:	00632e67          	0x632e67
 a0c:	7341                	lui	t1,0xffff0
 a0e:	5f74                	lw	a3,124(a4)
 a10:	00796333          	or	t1,s2,t2
 a14:	6f6d                	lui	t5,0x1b
 a16:	6564                	flw	fs1,76(a0)
 a18:	4100                	lw	s0,0(a0)
 a1a:	6e69                	lui	t3,0x1a
 a1c:	5f34                	lw	a3,120(a4)
 a1e:	3344                	fld	fs1,160(a4)
 a20:	7000                	flw	fs0,32(s0)
 a22:	4574726f          	jal	tp,48678 <wiring.c.7604182b+0x461e9>
 a26:	616e                	flw	ft2,216(sp)
 a28:	6c62                	flw	fs8,24(sp)
 a2a:	0065                	c.nop	25
 a2c:	7341                	lui	t1,0xffff0
 a2e:	5f74                	lw	a3,124(a4)
 a30:	3432                	fld	fs0,296(sp)
 a32:	6331                	lui	t1,0xc
 a34:	5f79                	li	t5,-2
 a36:	6564                	flw	fs1,76(a0)
 a38:	6166                	flw	ft2,88(sp)
 a3a:	6c75                	lui	s8,0x1d
 a3c:	0074                	addi	a3,sp,12
 a3e:	4f495047          	fmsub.q	ft0,fs2,fs4,fs1,unknown
 a42:	6970                	flw	fa2,84(a0)
 a44:	536e                	lw	t1,248(sp)
 a46:	6174                	flw	fa3,68(a0)
 a48:	6574                	flw	fa3,76(a0)
 a4a:	4100                	lw	s0,0(a0)
 a4c:	6e69                	lui	t3,0x1a
 a4e:	5f31                	li	t5,-20
 a50:	3141                	jal	6d0 <_data_lma+0x14c>
 a52:	7200                	flw	fs0,32(a2)
 a54:	7365                	lui	t1,0xffff9
 a56:	6c75                	lui	s8,0x1d
 a58:	0074                	addi	a3,sp,12
 a5a:	504d4153          	0x504d4153
 a5e:	5254                	lw	a3,36(a2)
 a60:	0031                	c.nop	12
 a62:	504d4153          	0x504d4153
 a66:	5254                	lw	a3,36(a2)
 a68:	0032                	c.slli	zero,0xc
 a6a:	6970                	flw	fa2,84(a0)
 a6c:	536e                	lw	t1,248(sp)
 a6e:	6174                	flw	fa3,68(a0)
 a70:	6574                	flw	fa3,76(a0)
 a72:	6e5f 636f 6168      	0x6168636f6e5f
 a78:	676e                	flw	fa4,216(sp)
 a7a:	0065                	c.nop	25
 a7c:	4f49                	li	t5,18
 a7e:	5246                	lw	tp,112(sp)
 a80:	0031                	c.nop	12
 a82:	4f49                	li	t5,18
 a84:	5246                	lw	tp,112(sp)
 a86:	0032                	c.slli	zero,0xc
 a88:	4f49                	li	t5,18
 a8a:	5246                	lw	tp,112(sp)
 a8c:	4f490033          	0x4f490033
 a90:	5246                	lw	tp,112(sp)
 a92:	0034                	addi	a3,sp,8
 a94:	7341                	lui	t1,0xffff0
 a96:	5f74                	lw	a3,124(a4)
 a98:	3735                	jal	9c4 <_data_lma+0x440>
 a9a:	41007963          	bgeu	zero,a6,eac <_data_lma+0x928>
 a9e:	315f7473          	csrrci	s0,0x315,30
 aa2:	6335                	lui	t1,0xd
 aa4:	0079                	c.nop	30
 aa6:	4441                	li	s0,16
 aa8:	74657343          	0x74657343
 aac:	6f50                	flw	fa2,28(a4)
 aae:	00726577          	0x726577
 ab2:	4449                	li	s0,18
 ab4:	5441                	li	s0,-16
 ab6:	5241                	li	tp,-16
 ab8:	0031                	c.nop	12
 aba:	4449                	li	s0,18
 abc:	5441                	li	s0,-16
 abe:	5241                	li	tp,-16
 ac0:	0032                	c.slli	zero,0xc
 ac2:	4449                	li	s0,18
 ac4:	5441                	li	s0,-16
 ac6:	5241                	li	tp,-16
 ac8:	44490033          	0x44490033
 acc:	5441                	li	s0,-16
 ace:	5241                	li	tp,-16
 ad0:	0034                	addi	a3,sp,8
 ad2:	7341                	lui	t1,0xffff0
 ad4:	5f74                	lw	a3,124(a4)
 ad6:	79633033          	0x79633033
 ada:	6100                	flw	fs0,0(a0)
 adc:	616e                	flw	ft2,216(sp)
 ade:	6f6c                	flw	fa1,92(a4)
 ae0:	61655267          	0x61655267
 ae4:	0064                	addi	s1,sp,12
 ae6:	50746567          	0x50746567
 aea:	0074726f          	jal	tp,482f0 <wiring.c.7604182b+0x45e61>
 aee:	6970                	flw	fa2,84(a0)
 af0:	536e                	lw	t1,248(sp)
 af2:	6174                	flw	fa3,68(a0)
 af4:	6574                	flw	fa3,76(a0)
 af6:	6c5f 776f 4100      	0x4100776f6c5f
 afc:	4344                	lw	s1,4(a4)
 afe:	696c6163          	bltu	s8,s6,1180 <ch32v003fun.c.297fed70+0x29e>
 b02:	7262                	flw	ft4,56(sp)
 b04:	7461                	lui	s0,0xffff8
 b06:	0065                	c.nop	25
 b08:	4441                	li	s0,16
 b0a:	79545f43          	fmadd.s	ft10,fs0,fs5,fa5,unknown
 b0e:	6570                	flw	fa2,76(a0)
 b10:	6544                	flw	fs1,12(a0)
 b12:	0066                	c.slli	zero,0x19
 b14:	6941                	lui	s2,0x10
 b16:	566e                	lw	a2,248(sp)
 b18:	6572                	flw	fa0,28(sp)
 b1a:	0066                	c.slli	zero,0x19
 b1c:	6941                	lui	s2,0x10
 b1e:	566e                	lw	a2,248(sp)
 b20:	006c6163          	bltu	s8,t1,b22 <_data_lma+0x59e>
 b24:	6941                	lui	s2,0x10
 b26:	336e                	fld	ft6,248(sp)
 b28:	445f 0032 4452      	0x44520032445f
 b2e:	5441                	li	s0,-16
 b30:	5241                	li	tp,-16
 b32:	4100                	lw	s0,0(a0)
 b34:	414e                	lw	sp,208(sp)
 b36:	4f4c                	lw	a1,28(a4)
 b38:	6d617347          	0x6d617347
 b3c:	6c70                	flw	fa2,92(s0)
 b3e:	7465                	lui	s0,0xffff9
 b40:	6d69                	lui	s10,0x1a
 b42:	7365                	lui	t1,0xffff9
 b44:	5700                	lw	s0,40(a4)
 b46:	4c44                	lw	s1,28(s0)
 b48:	5254                	lw	a3,36(a2)
 b4a:	5f00                	lw	s0,56(a4)
 b4c:	695f 746e 5f38      	0x5f38746e695f
 b52:	0074                	addi	a3,sp,12
 b54:	4f495047          	fmsub.q	ft0,fs2,fs4,fs1,unknown
 b58:	0078                	addi	a4,sp,12
 b5a:	6941                	lui	s2,0x10
 b5c:	306e                	fld	ft0,248(sp)
 b5e:	415f 0032 4441      	0x44410032415f
 b64:	74657343          	0x74657343
 b68:	706d6153          	0x706d6153
 b6c:	656c                	flw	fa1,76(a0)
 b6e:	6974                	flw	fa3,84(a0)
 b70:	656d                	lui	a0,0x1b
 b72:	6400                	flw	fs0,8(s0)
 b74:	6769                	lui	a4,0x1a
 b76:	7469                	lui	s0,0xffffa
 b78:	6c61                	lui	s8,0x18
 b7a:	6552                	flw	fa0,20(sp)
 b7c:	6461                	lui	s0,0x18
 b7e:	4100                	lw	s0,0(a0)
 b80:	6e69                	lui	t3,0x1a
 b82:	5f35                	li	t5,-19
 b84:	3544                	fld	fs1,168(a0)
 b86:	6500                	flw	fs0,8(a0)
 b88:	616e                	flw	ft2,216(sp)
 b8a:	6c62                	flw	fs8,24(sp)
 b8c:	0065                	c.nop	25
 b8e:	6f6d                	lui	t5,0x1b
 b90:	6564                	flw	fs1,76(a0)
 b92:	614d                	addi	sp,sp,176
 b94:	41006b73          	csrrsi	s6,0x410,0
 b98:	4344                	lw	s1,4(a4)
 b9a:	6e69                	lui	t3,0x1a
 b9c:	7469                	lui	s0,0xffffa
 b9e:	7000                	flw	fs0,32(s0)
 ba0:	0074726f          	jal	tp,483a6 <wiring.c.7604182b+0x45f17>
 ba4:	5352                	lw	t1,52(sp)
 ba6:	5251                	li	tp,-12
 ba8:	0031                	c.nop	12
 baa:	5352                	lw	t1,52(sp)
 bac:	5251                	li	tp,-12
 bae:	0032                	c.slli	zero,0xc
 bb0:	5352                	lw	t1,52(sp)
 bb2:	5251                	li	tp,-12
 bb4:	4c440033          	0x4c440033
 bb8:	5259                	li	tp,-10
 bba:	4100                	lw	s0,0(a0)
 bbc:	375f7473          	csrrci	s0,0x375,30
 bc0:	00796333          	or	t1,s2,t2
 bc4:	6941                	lui	s2,0x10
 bc6:	376e                	fld	fa4,248(sp)
 bc8:	445f 0034 6950      	0x69500034445f
 bce:	4f6e                	lw	t5,216(sp)
 bd0:	6666                	flw	fa2,88(sp)
 bd2:	00746573          	csrrsi	a0,0x7,8
 bd6:	6970                	flw	fa2,84(a0)
 bd8:	536e                	lw	t1,248(sp)
 bda:	6174                	flw	fa3,68(a0)
 bdc:	6574                	flw	fa3,76(a0)
 bde:	685f 6769 0068      	0x686769685f
 be4:	7341                	lui	t1,0xffff0
 be6:	5f74                	lw	a3,124(a4)
 be8:	3334                	fld	fa3,96(a4)
 bea:	41007963          	bgeu	zero,a6,ffc <ch32v003fun.c.297fed70+0x11a>
 bee:	6e69                	lui	t3,0x1a
 bf0:	5f32                	lw	t5,44(sp)
 bf2:	74003443          	0x74003443
 bf6:	7261                	lui	tp,0xffff8
 bf8:	5f746567          	0x5f746567
 bfc:	6970                	flw	fa2,84(a0)
 bfe:	5f6e                	lw	t5,248(sp)
 c00:	74617473          	csrrci	s0,0x746,2
 c04:	0065                	c.nop	25
 c06:	7341                	lui	t1,0xffff0
 c08:	5f74                	lw	a3,124(a4)
 c0a:	6339                	lui	t1,0xe
 c0c:	0079                	c.nop	30
 c0e:	6941                	lui	s2,0x10
 c10:	366e                	fld	fa2,248(sp)
 c12:	445f 0036       	0x36445f

Disassembly of section .comment:

00000000 <.comment>:
	asm volatile( "\n\
   0:	3a434347          	fmsub.d	ft6,ft6,ft4,ft7,rmm
   4:	2820                	fld	fs0,80(s0)
   6:	2029                	jal	10 <InterruptVector+0x10>
   8:	3031                	jal	fffff814 <__global_pointer$+0xdfffef84>
   a:	322e                	fld	ft4,232(sp)
   c:	302e                	fld	ft0,232(sp)
	...

Disassembly of section .riscv.attributes:

00000000 <.riscv.attributes>:
   0:	2441                	jal	280 <handle_reset+0x14>
   2:	0000                	unimp
   4:	7200                	flw	fs0,32(a2)
   6:	7369                	lui	t1,0xffffa
   8:	01007663          	bgeu	zero,a6,14 <InterruptVector+0x14>
   c:	001a                	c.slli	zero,0x6
   e:	0000                	unimp
  10:	0404                	addi	s1,sp,512
  12:	7205                	lui	tp,0xfffe1
  14:	3376                	fld	ft6,376(sp)
  16:	6532                	flw	fa0,12(sp)
  18:	7031                	c.lui	zero,0xfffec
  1a:	5f39                	li	t5,-18
  1c:	30703263          	0x30703263
  20:	0800                	addi	s0,sp,16
  22:	0a01                	addi	s4,s4,0
  24:	0b              	Address 0x0000000000000024 is out of bounds.


Disassembly of section .debug_frame:

00000000 <.debug_frame>:
   0:	000c                	0xc
   2:	0000                	unimp
   4:	ffff                	0xffff
   6:	ffff                	0xffff
   8:	7c010003          	lb	zero,1984(sp)
   c:	0d01                	addi	s10,s10,0
   e:	0002                	c.slli64	zero
  10:	000c                	0xc
	...
  1e:	0000                	unimp
  20:	0024                	addi	s1,sp,8
	...
  2e:	0000                	unimp
  30:	0e42                	slli	t3,t3,0x10
  32:	4614                	lw	a3,8(a2)
  34:	0389                	addi	t2,t2,2
  36:	0181                	addi	gp,gp,0
  38:	0288                	addi	a0,sp,320
  3a:	0002                	c.slli64	zero
  3c:	c10a                	sw	sp,128(sp)
  3e:	c842                	sw	a6,16(sp)
  40:	c942                	sw	a6,144(sp)
  42:	0e42                	slli	t3,t3,0x10
  44:	4200                	lw	s0,0(a2)
  46:	0024000b          	0x24000b
	...
  56:	0000                	unimp
  58:	0e42                	slli	t3,t3,0x10
  5a:	4620                	lw	s0,72(a2)
  5c:	0181                	addi	gp,gp,0
  5e:	0288                	addi	a0,sp,320
  60:	0389                	addi	t2,t2,2
  62:	0002                	c.slli64	zero
  64:	c10a                	sw	sp,128(sp)
  66:	c842                	sw	a6,16(sp)
  68:	c942                	sw	a6,144(sp)
  6a:	0e42                	slli	t3,t3,0x10
  6c:	4200                	lw	s0,0(a2)
  6e:	000c000b          	0xc000b
  72:	0000                	unimp
  74:	0000                	unimp
  76:	0000                	unimp
  78:	00a0                	addi	s0,sp,72
  7a:	0000                	unimp
  7c:	0050                	addi	a2,sp,4
  7e:	0000                	unimp
  80:	000c                	0xc
  82:	0000                	unimp
  84:	0000                	unimp
  86:	0000                	unimp
  88:	00f0                	addi	a2,sp,76
  8a:	0000                	unimp
  8c:	0090                	addi	a2,sp,64
  8e:	0000                	unimp
  90:	000c                	0xc
	...
  9e:	0000                	unimp
	if (pin <= pin_A2) {
  a0:	001c                	0x1c
	...
		PinOffset = (pin + 1);
  ae:	0000                	unimp
		GPIOx = GPIOA;
  b0:	0e42                	slli	t3,t3,0x10
  b2:	440c                	lw	a1,8(s0)
		GPIOx-> BSHR |= 1 << PinOffset;
  b4:	0288                	addi	a0,sp,320
	if (value) {
  b6:	0181                	addi	gp,gp,0
		GPIOx-> BSHR |= 1 << (16 + PinOffset);
  b8:	c140                	sw	s0,4(a0)
  ba:	c844                	sw	s1,20(s0)
  bc:	0e42                	slli	t3,t3,0x10
  be:	0000                	unimp
  c0:	0014                	0x14
}
  c2:	0000                	unimp
	else if (pin <= pin_C7) {
  c4:	0000                	unimp
  c6:	0000                	unimp
  c8:	0180                	addi	s0,sp,192
		PinOffset = (pin - 2);
  ca:	0000                	unimp
  cc:	00ec                	addi	a1,sp,76
  ce:	0000                	unimp
		GPIOx = GPIOC;
  d0:	0e42                	slli	t3,t3,0x10
  d2:	440c                	lw	a1,8(s0)
  d4:	0181                	addi	gp,gp,0
	else if (pin <= pin_D7) {
  d6:	0288                	addi	a0,sp,320
  d8:	000c                	0xc
  da:	0000                	unimp
		PinOffset = (pin - 10);
  dc:	0000                	unimp
  de:	0000                	unimp
		GPIOx = GPIOD;
  e0:	026c                	addi	a1,sp,268
  e2:	0000                	unimp
		PinOffset = (pin - 10);
  e4:	0072                	c.slli	zero,0x1c
		GPIOx = GPIOD;
  e6:	0000                	unimp
  e8:	000c                	0xc
  ea:	0000                	unimp
		GPIOx-> BSHR |= 1 << (16 + PinOffset);
  ec:	0000                	unimp
  ee:	0000                	unimp
	if (pin <= pin_A2) {
  f0:	02de                	slli	t0,t0,0x17
  f2:	0000                	unimp
  f4:	0002                	c.slli64	zero
		PinOffset *= (pin + 1);
  f6:	0000                	unimp
  f8:	000c                	0xc
	...
		GPIOx = GPIOA;
 106:	0000                	unimp
	GPIOx->CFGLR &= ~(0b1111<<PinOffset);							// zero the 4 configuration bits
 108:	0024                	addi	s1,sp,8
	...
 116:	0000                	unimp
	switch (mode) {
 118:	0e44                	addi	s1,sp,788
 11a:	4a6c                	lw	a1,84(a2)
 11c:	0889                	addi	a7,a7,2
 11e:	0681                	addi	a3,a3,0
 120:	0788                	addi	a0,sp,960
 122:	0a40                	addi	s0,sp,276
 124:	42c1                	li	t0,16
	GPIOx->CFGLR |= modeMask<<PinOffset;
 126:	44c8                	lw	a0,12(s1)
 128:	44c9                	li	s1,18
 12a:	000e                	c.slli	zero,0x3
 12c:	0b42                	slli	s6,s6,0x10
 12e:	0000                	unimp
 130:	000c                	0xc
	...
 13e:	0000                	unimp
 140:	000c                	0xc
	...
	else if (pin <= pin_C7) {
 14e:	0000                	unimp
 150:	000c                	0xc
	...
		GPIOx = GPIOC;
 15e:	0000                	unimp
 160:	000c                	0xc
	...
		PinOffset *= (pin - 10);
 16e:	0000                	unimp
 170:	000c                	0xc
	...
}
 17e:	0000                	unimp
int main() {
 180:	0020                	addi	s0,sp,8
	...
	RCC->CFGR0 = RCC_HPRE_DIV1 | RCC_PLLSRC_HSI_Mul2;      // PLLCLK = HSI * 2 = 48 MHz; HCLK = SYSCLK = APB1
 18e:	0000                	unimp
 190:	0e42                	slli	t3,t3,0x10
	RCC->CTLR  = RCC_HSION | RCC_PLLON | ((HSITRIM) << 3); // Use HSI, but enable PLL.
 192:	440c                	lw	a1,8(s0)
 194:	0288                	addi	a0,sp,320
 196:	0181                	addi	gp,gp,0
	FLASH->ACTLR = FLASH_ACTLR_LATENCY_1;                  // 1 Cycle Latency
 198:	0a40                	addi	s0,sp,276
 19a:	44c1                	li	s1,16
 19c:	42c8                	lw	a0,4(a3)
 19e:	000e                	c.slli	zero,0x3
	RCC->INTR  = 0x009F0000;                               // Clear PLL, CSSC, HSE, HSI and LSI ready flags.
 1a0:	0b42                	slli	s6,s6,0x10
 1a2:	0000                	unimp
 1a4:	0020                	addi	s0,sp,8
	...
	while((RCC->CTLR & RCC_PLLRDY) == 0);                                      // Wait till PLL is ready
 1b2:	0000                	unimp
	RCC->CFGR0 = ( RCC->CFGR0 & ((uint32_t)~(RCC_SW))) | (uint32_t)RCC_SW_PLL; // Select PLL as system clock source
 1b4:	0e42                	slli	t3,t3,0x10
	while ((RCC->CFGR0 & (uint32_t)RCC_SWS) != (uint32_t)0x08);                // Wait till PLL is used as system clock source
 1b6:	440c                	lw	a1,8(s0)
	RCC->CFGR0 = ( RCC->CFGR0 & ((uint32_t)~(RCC_SW))) | (uint32_t)RCC_SW_PLL; // Select PLL as system clock source
 1b8:	0288                	addi	a0,sp,320
 1ba:	0389                	addi	t2,t2,2
 1bc:	8146                	mv	sp,a7
 1be:	4001                	c.li	zero,0
	while ((RCC->CFGR0 & (uint32_t)RCC_SWS) != (uint32_t)0x08);                // Wait till PLL is used as system clock source
 1c0:	42c1                	li	t0,16
 1c2:	42c8                	lw	a0,4(a3)
 1c4:	42c9                	li	t0,18
 1c6:	000e                	c.slli	zero,0x3
 1c8:	000c                	0xc
	...
 1d6:	0000                	unimp
 1d8:	000c                	0xc
	...
	SysTick->CNT = 0;
 1e6:	0000                	unimp
	systick_cnt = 0;
 1e8:	000c                	0xc
	...
			RCC->APB2PCENR |= RCC_APB2Periph_GPIOA;
 1f6:	0000                	unimp
 1f8:	000c                	0xc
	...
	pinMode(pin_A2, pinMode_I_floating);
 206:	0000                	unimp
 208:	0020                	addi	s0,sp,8
	...
	pinMode(pin_C2, pinMode_I_floating);
 216:	0000                	unimp
		int temp=LEDs[0].brightness;
 218:	0e42                	slli	t3,t3,0x10
 21a:	440c                	lw	a1,8(s0)
 21c:	0288                	addi	a0,sp,320
 21e:	8948                	0x8948
 220:	40018103          	lb	sp,1024(gp) # 20000c90 <__global_pointer$+0x400>
	uint32_t end = systick_cnt + n; 
 224:	44c1                	li	s1,16
 226:	42c8                	lw	a0,4(a3)
 228:	42c9                	li	t0,18
 22a:	000e                	c.slli	zero,0x3
	while( ((int32_t)(systick_cnt - end )) < 0 );
 22c:	0024                	addi	s1,sp,8
	...
		for(int i=1; i<12; i++){
 23a:	0000                	unimp
		int temp=LEDs[0].brightness;
 23c:	0e44                	addi	s1,sp,788
 23e:	08cc                	addi	a1,sp,84
			LEDs[i-1].brightness=LEDs[i].brightness;
 240:	8958                	0x8958
 242:	88018103          	lb	sp,-1920(gp) # 20000110 <_ebss+0x68>
 246:	4002                	0x4002
 248:	c10a                	sw	sp,128(sp)
 24a:	c846                	sw	a7,16(sp)
 24c:	c944                	sw	s1,20(a0)
 24e:	0e44                	addi	s1,sp,788
 250:	4200                	lw	s0,0(a2)
 252:	0030000b          	0x30000b
	...
		for(int i=1; i<12; i++){
 262:	0000                	unimp
 264:	0e42                	slli	t3,t3,0x10
		LEDs[11].brightness=temp;
 266:	460c                	lw	a1,8(a2)
 268:	0181                	addi	gp,gp,0
	while(1){
 26a:	0288                	addi	a0,sp,320
	asm volatile( "\n\
 26c:	0389                	addi	t2,t2,2
 26e:	0a000003          	lb	zero,160(zero) # a0 <digitalWrite>
 272:	42c8                	lw	a0,4(a3)
 274:	42c1                	li	t0,16
 276:	42c9                	li	t0,18
 278:	000e                	c.slli	zero,0x3
 27a:	0b40                	addi	s0,sp,404
 27c:	c144                	sw	s1,4(a0)
 27e:	c842                	sw	a6,16(sp)
 280:	c942                	sw	a6,144(sp)
 282:	0e44                	addi	s1,sp,788
 284:	0000                	unimp
 286:	0000                	unimp
 288:	0020                	addi	s0,sp,8
	...
asm volatile(
 296:	0000                	unimp
 298:	0e42                	slli	t3,t3,0x10
 29a:	460c                	lw	a1,8(a2)
 29c:	0181                	addi	gp,gp,0
 29e:	0288                	addi	a0,sp,320
 2a0:	0389                	addi	t2,t2,2
 2a2:	c140                	sw	s0,4(a0)
 2a4:	c846                	sw	a7,16(sp)
 2a6:	c942                	sw	a6,144(sp)
 2a8:	0e42                	slli	t3,t3,0x10
 2aa:	0000                	unimp
 2ac:	000c                	0xc
	...
 2b6:	0000                	unimp
 2b8:	009c                	addi	a5,sp,64
 2ba:	0000                	unimp
 2bc:	000c                	0xc
	...
	SETUP_SYSTICK_HCLK
 2ca:	0000                	unimp
 2cc:	0048                	addi	a0,sp,4
 2ce:	0000                	unimp
 2d0:	0000                	unimp
asm volatile(
 2d2:	0000                	unimp
 2d4:	02e0                	addi	s0,sp,332
 2d6:	0000                	unimp
 2d8:	0298                	addi	a4,sp,320
 2da:	0000                	unimp
 2dc:	0e44                	addi	s1,sp,788
	asm volatile( "1: j 1b" );
 2de:	443c                	lw	a5,72(s0)
{
 2e0:	8e480c8f          	0x8e480c8f
 2e4:	05886c0b          	0x5886c0b
	SysTick->CMP += (SYSTEM_CORE_CLOCK/SYSTICKHZ);
 2e8:	0689                	addi	a3,a3,2
 2ea:	0a8d                	addi	s5,s5,3
{
 2ec:	0181                	addi	gp,gp,0
 2ee:	0285                	addi	t0,t0,1
	SysTick->CMP += (SYSTEM_CORE_CLOCK/SYSTICKHZ);
 2f0:	0386                	slli	t2,t2,0x1
 2f2:	078a0487          	0x78a0487
{
 2f6:	098c088b          	0x98c088b
 2fa:	c8022803          	lw	a6,-896(tp) # fffe0c80 <__global_pointer$+0xdffe03f0>
 2fe:	c144                	sw	s1,4(a0)
 300:	c544                	sw	s1,12(a0)
 302:	c644                	sw	s1,12(a2)
 304:	c744                	sw	s1,12(a4)
 306:	c944                	sw	s1,20(a0)
 308:	ca44                	sw	s1,20(a2)
 30a:	cb44                	sw	s1,20(a4)
 30c:	cc44                	sw	s1,28(s0)
 30e:	cd44                	sw	s1,28(a0)
 310:	ce44                	sw	s1,28(a2)
 312:	cf44                	sw	s1,28(a4)
 314:	0e44                	addi	s1,sp,788
	...
