
main-pwm.elf:     file format elf32-littleriscv


Disassembly of section .init:

00000000 <InterruptVector>:
void InterruptVectorDefault()  __attribute__((naked)) __attribute((section(".init")));


void InterruptVectorDefault()
{
	asm volatile( "\n\
   0:	42c0006f          	j	42c <handle_reset>
   4:	0000                	unimp
   6:	0000                	unimp
   8:	04aa                	slli	s1,s1,0xa
   a:	0000                	unimp
   c:	04aa                	slli	s1,s1,0xa
	...
  2e:	0000                	unimp
  30:	04ac                	addi	a1,sp,584
  32:	0000                	unimp
  34:	0000                	unimp
  36:	0000                	unimp
  38:	04aa                	slli	s1,s1,0xa
  3a:	0000                	unimp
  3c:	0000                	unimp
  3e:	0000                	unimp
  40:	04aa                	slli	s1,s1,0xa
  42:	0000                	unimp
  44:	04aa                	slli	s1,s1,0xa
  46:	0000                	unimp
  48:	04aa                	slli	s1,s1,0xa
  4a:	0000                	unimp
  4c:	04aa                	slli	s1,s1,0xa
  4e:	0000                	unimp
  50:	04aa                	slli	s1,s1,0xa
  52:	0000                	unimp
  54:	04aa                	slli	s1,s1,0xa
  56:	0000                	unimp
  58:	04aa                	slli	s1,s1,0xa
  5a:	0000                	unimp
  5c:	04aa                	slli	s1,s1,0xa
  5e:	0000                	unimp
  60:	04aa                	slli	s1,s1,0xa
  62:	0000                	unimp
  64:	04aa                	slli	s1,s1,0xa
  66:	0000                	unimp
  68:	04aa                	slli	s1,s1,0xa
  6a:	0000                	unimp
  6c:	04aa                	slli	s1,s1,0xa
  6e:	0000                	unimp
  70:	04aa                	slli	s1,s1,0xa
  72:	0000                	unimp
  74:	04aa                	slli	s1,s1,0xa
  76:	0000                	unimp
  78:	04aa                	slli	s1,s1,0xa
  7a:	0000                	unimp
  7c:	04aa                	slli	s1,s1,0xa
  7e:	0000                	unimp
  80:	04aa                	slli	s1,s1,0xa
  82:	0000                	unimp
  84:	04aa                	slli	s1,s1,0xa
  86:	0000                	unimp
  88:	04aa                	slli	s1,s1,0xa
  8a:	0000                	unimp
  8c:	04aa                	slli	s1,s1,0xa
  8e:	0000                	unimp
  90:	04aa                	slli	s1,s1,0xa
  92:	0000                	unimp
  94:	04aa                	slli	s1,s1,0xa
  96:	0000                	unimp
  98:	04aa                	slli	s1,s1,0xa
  9a:	0000                	unimp
  9c:	0000                	unimp
	...

Disassembly of section .text:

000000a0 <__mulsi3>:
  a0:	00050613          	mv	a2,a0
  a4:	00000513          	li	a0,0
  a8:	0015f693          	andi	a3,a1,1
  ac:	00068463          	beqz	a3,b4 <__mulsi3+0x14>
  b0:	00c50533          	add	a0,a0,a2
  b4:	0015d593          	srli	a1,a1,0x1
  b8:	00161613          	slli	a2,a2,0x1
  bc:	fe0596e3          	bnez	a1,a8 <__mulsi3+0x8>
  c0:	00008067          	ret

000000c4 <main>:
}

/*
 * main() - does the stuff
 */
int main() {
  c4:	1141                	addi	sp,sp,-16
  c6:	c606                	sw	ra,12(sp)
  c8:	c422                	sw	s0,8(sp)
  ca:	c226                	sw	s1,4(sp)
}

void SystemInit48HSI( void )
{
	// Values lifted from the EVT.  There is little to no documentation on what this does.
	RCC->CFGR0 = RCC_HPRE_DIV1 | RCC_PLLSRC_HSI_Mul2;      // PLLCLK = HSI * 2 = 48 MHz; HCLK = SYSCLK = APB1
  cc:	400217b7          	lui	a5,0x40021
	RCC->CTLR  = RCC_HSION | RCC_PLLON | ((HSITRIM) << 3); // Use HSI, but enable PLL.
  d0:	01000737          	lui	a4,0x1000
	RCC->CFGR0 = RCC_HPRE_DIV1 | RCC_PLLSRC_HSI_Mul2;      // PLLCLK = HSI * 2 = 48 MHz; HCLK = SYSCLK = APB1
  d4:	0007a223          	sw	zero,4(a5) # 40021004 <__global_pointer$+0x200206d4>
	RCC->CTLR  = RCC_HSION | RCC_PLLON | ((HSITRIM) << 3); // Use HSI, but enable PLL.
  d8:	08170713          	addi	a4,a4,129 # 1000081 <wiring.c.7604182b+0xffd6e8>
  dc:	c398                	sw	a4,0(a5)
	FLASH->ACTLR = FLASH_ACTLR_LATENCY_1;                  // 1 Cycle Latency
  de:	4685                	li	a3,1
  e0:	40022737          	lui	a4,0x40022
  e4:	c314                	sw	a3,0(a4)
	RCC->INTR  = 0x009F0000;                               // Clear PLL, CSSC, HSE, HSI and LSI ready flags.
  e6:	009f0737          	lui	a4,0x9f0
  ea:	c798                	sw	a4,8(a5)

	// From SetSysClockTo_48MHZ_HSI
	while((RCC->CTLR & RCC_PLLRDY) == 0);                                      // Wait till PLL is ready
  ec:	020006b7          	lui	a3,0x2000
  f0:	40021737          	lui	a4,0x40021
  f4:	431c                	lw	a5,0(a4)
  f6:	8ff5                	and	a5,a5,a3
  f8:	dff5                	beqz	a5,f4 <main+0x30>
	RCC->CFGR0 = ( RCC->CFGR0 & ((uint32_t)~(RCC_SW))) | (uint32_t)RCC_SW_PLL; // Select PLL as system clock source
  fa:	435c                	lw	a5,4(a4)
	while ((RCC->CFGR0 & (uint32_t)RCC_SWS) != (uint32_t)0x08);                // Wait till PLL is used as system clock source
  fc:	46a1                	li	a3,8
	RCC->CFGR0 = ( RCC->CFGR0 & ((uint32_t)~(RCC_SW))) | (uint32_t)RCC_SW_PLL; // Select PLL as system clock source
  fe:	9bf1                	andi	a5,a5,-4
 100:	0027e793          	ori	a5,a5,2
 104:	c35c                	sw	a5,4(a4)
	while ((RCC->CFGR0 & (uint32_t)RCC_SWS) != (uint32_t)0x08);                // Wait till PLL is used as system clock source
 106:	400217b7          	lui	a5,0x40021
 10a:	43d8                	lw	a4,4(a5)
 10c:	8b31                	andi	a4,a4,12
 10e:	fed71ee3          	bne	a4,a3,10a <main+0x46>
	RCC->APB2PCENR |=	RCC_APB2Periph_GPIOA | RCC_APB2Periph_GPIOC |
 112:	4f98                	lw	a4,24(a5)
 114:	6585                	lui	a1,0x1
 116:	81558693          	addi	a3,a1,-2027 # 815 <_data_lma+0xa5>
 11a:	8f55                	or	a4,a4,a3
 11c:	cf98                	sw	a4,24(a5)
	RCC->APB1PCENR |=	RCC_APB1Periph_TIM2;
 11e:	4fd8                	lw	a4,28(a5)
	RCC->APB2PRSTR |=  RCC_APB2Periph_TIM1;
 120:	80058693          	addi	a3,a1,-2048
	RCC->APB2PRSTR &= ~RCC_APB2Periph_TIM1;
 124:	72fd                	lui	t0,0xfffff
	RCC->APB1PCENR |=	RCC_APB1Periph_TIM2;
 126:	00176713          	ori	a4,a4,1
 12a:	cfd8                	sw	a4,28(a5)
	RCC->APB2PRSTR |=  RCC_APB2Periph_TIM1;
 12c:	47d8                	lw	a4,12(a5)
	GPIOC->CFGLR &= ~(0xf<<(4*4));
 12e:	fff10637          	lui	a2,0xfff10
 132:	167d                	addi	a2,a2,-1
	RCC->APB2PRSTR |=  RCC_APB2Periph_TIM1;
 134:	8f55                	or	a4,a4,a3
 136:	c7d8                	sw	a4,12(a5)
	RCC->APB2PRSTR &= ~RCC_APB2Periph_TIM1;
 138:	47d8                	lw	a4,12(a5)
 13a:	7ff28693          	addi	a3,t0,2047 # fffff7ff <__global_pointer$+0xdfffeecf>
	GPIOC->CFGLR &= ~(0xf<<(4*2));
 13e:	0ff28293          	addi	t0,t0,255
	RCC->APB2PRSTR &= ~RCC_APB2Periph_TIM1;
 142:	8f75                	and	a4,a4,a3
 144:	c7d8                	sw	a4,12(a5)
	RCC->APB1PRSTR |=  RCC_APB1Periph_TIM2;
 146:	4b98                	lw	a4,16(a5)
	TIM1->PSC = 0x0000;
 148:	400133b7          	lui	t2,0x40013
	TIM1->ATRLR = 255;
 14c:	0ff00513          	li	a0,255
	RCC->APB1PRSTR |=  RCC_APB1Periph_TIM2;
 150:	00176713          	ori	a4,a4,1
 154:	cb98                	sw	a4,16(a5)
	RCC->APB1PRSTR &= ~RCC_APB1Periph_TIM2;
 156:	4b98                	lw	a4,16(a5)
	TIM2->CCER |= TIM_CC4E | TIM_CC4P;	// Enable CH2 output, positive pol
 158:	630d                	lui	t1,0x3
	RCC->APB1PRSTR &= ~RCC_APB1Periph_TIM2;
 15a:	9b79                	andi	a4,a4,-2
 15c:	cb98                	sw	a4,16(a5)
	GPIOC->CFGLR &= ~(0xf<<(4*4));
 15e:	40011737          	lui	a4,0x40011
 162:	4314                	lw	a3,0(a4)
 164:	8ef1                	and	a3,a3,a2
 166:	c314                	sw	a3,0(a4)
	GPIOC->CFGLR |= (GPIO_Speed_10MHz | GPIO_CNF_OUT_OD_AF)<<(4*GPIO_PinSource4);
 168:	4314                	lw	a3,0(a4)
 16a:	000d0637          	lui	a2,0xd0
 16e:	8ed1                	or	a3,a3,a2
 170:	c314                	sw	a3,0(a4)
	GPIOA->CFGLR &= ~(0xf<<(4*1));
 172:	80072683          	lw	a3,-2048(a4) # 40010800 <__global_pointer$+0x2000fed0>
	GPIOC->CFGLR |= (GPIO_Speed_10MHz | GPIO_CNF_OUT_OD_AF)<<(4*GPIO_PinSource2);
 176:	d0058613          	addi	a2,a1,-768
	GPIOA->CFGLR &= ~(0xf<<(4*1));
 17a:	f0f6f693          	andi	a3,a3,-241
 17e:	80d72023          	sw	a3,-2048(a4)
	GPIOA->CFGLR |= (GPIO_Speed_10MHz | GPIO_CNF_OUT_OD_AF)<<(4*GPIO_PinSource1);
 182:	80072683          	lw	a3,-2048(a4)
 186:	0d06e693          	ori	a3,a3,208
 18a:	80d72023          	sw	a3,-2048(a4)
	GPIOC->CFGLR &= ~(0xf<<(4*2));
 18e:	4314                	lw	a3,0(a4)
 190:	0056f6b3          	and	a3,a3,t0
 194:	c314                	sw	a3,0(a4)
	GPIOC->CFGLR |= (GPIO_Speed_10MHz | GPIO_CNF_OUT_OD_AF)<<(4*GPIO_PinSource2);
 196:	4314                	lw	a3,0(a4)
 198:	8ed1                	or	a3,a3,a2
 19a:	c314                	sw	a3,0(a4)
	GPIOC->CFGLR &= ~(0xf<<(4*1));
 19c:	4314                	lw	a3,0(a4)
	AFIO->PCFR1 |= AFIO_PCFR1_TIM2_REMAP_PARTIALREMAP1;
 19e:	40010637          	lui	a2,0x40010
	GPIOC->CFGLR &= ~(0xf<<(4*1));
 1a2:	f0f6f693          	andi	a3,a3,-241
 1a6:	c314                	sw	a3,0(a4)
	GPIOC->CFGLR |= (GPIO_Speed_10MHz | GPIO_CNF_OUT_OD_AF)<<(4*GPIO_PinSource1);
 1a8:	4314                	lw	a3,0(a4)
 1aa:	0d06e693          	ori	a3,a3,208
 1ae:	c314                	sw	a3,0(a4)
	AFIO->PCFR1 |= AFIO_PCFR1_TIM2_REMAP_PARTIALREMAP1;
 1b0:	4254                	lw	a3,4(a2)
 1b2:	1006e693          	ori	a3,a3,256
 1b6:	c254                	sw	a3,4(a2)
	TIM1->PSC = 0x0000;
 1b8:	c2039423          	sh	zero,-984(t2) # 40012c28 <__global_pointer$+0x200122f8>
	TIM2->PSC = 0x0000;
 1bc:	400006b7          	lui	a3,0x40000
 1c0:	02069423          	sh	zero,40(a3) # 40000028 <__global_pointer$+0x1ffff6f8>
	TIM1->ATRLR = 255;
 1c4:	c2a39623          	sh	a0,-980(t2)
	TIM2->ATRLR = 255;
 1c8:	02a69623          	sh	a0,44(a3)
	TIM1->SWEVGR |= TIM_UG;
 1cc:	c143d503          	lhu	a0,-1004(t2)
 1d0:	0542                	slli	a0,a0,0x10
 1d2:	8141                	srli	a0,a0,0x10
 1d4:	00156513          	ori	a0,a0,1
 1d8:	c0a39a23          	sh	a0,-1004(t2)
	TIM2->SWEVGR |= TIM_UG;
 1dc:	0146d503          	lhu	a0,20(a3)
 1e0:	0542                	slli	a0,a0,0x10
 1e2:	8141                	srli	a0,a0,0x10
 1e4:	00156513          	ori	a0,a0,1
 1e8:	00a69a23          	sh	a0,20(a3)
	TIM2->CTLR1 |= TIM_ARPE;
 1ec:	0006d503          	lhu	a0,0(a3)
 1f0:	0542                	slli	a0,a0,0x10
 1f2:	8141                	srli	a0,a0,0x10
 1f4:	08056513          	ori	a0,a0,128
 1f8:	00a69023          	sh	a0,0(a3)
	TIM1->CTLR1 |= TIM_ARPE; // unnecessary?
 1fc:	c003d503          	lhu	a0,-1024(t2)
 200:	0542                	slli	a0,a0,0x10
 202:	8141                	srli	a0,a0,0x10
 204:	08056513          	ori	a0,a0,128
 208:	c0a39023          	sh	a0,-1024(t2)
	TIM1->CH1CVR = 128; //T1CH1/PC4/pin7
 20c:	08000513          	li	a0,128
 210:	c2a3aa23          	sw	a0,-972(t2)
	TIM1->CH2CVR = 128; //T1CH2/PA1/pin1
 214:	c2a3ac23          	sw	a0,-968(t2)
	TIM2->CH2CVR = 128; //T2CH2/PC2/pin6*
 218:	de88                	sw	a0,56(a3)
	TIM2->CH4CVR = 128; //T2CH4/PC1/pin5*
 21a:	c2a8                	sw	a0,64(a3)
	TIM1->CCER |= TIM_CC1E | TIM_CC1P;	// Enable CH1 output, positive pol
 21c:	c203d503          	lhu	a0,-992(t2)
 220:	0542                	slli	a0,a0,0x10
 222:	8141                	srli	a0,a0,0x10
 224:	00356513          	ori	a0,a0,3
 228:	c2a39023          	sh	a0,-992(t2)
	TIM1->CCER |= TIM_CC2E | TIM_CC2P;	// Enable CH4 output, positive pol
 22c:	c203d503          	lhu	a0,-992(t2)
 230:	0542                	slli	a0,a0,0x10
 232:	8141                	srli	a0,a0,0x10
 234:	03056513          	ori	a0,a0,48
 238:	c2a39023          	sh	a0,-992(t2)
	TIM2->CCER |= TIM_CC2E | TIM_CC2P;	// Enable CH1 output, positive pol
 23c:	0206d503          	lhu	a0,32(a3)
 240:	0542                	slli	a0,a0,0x10
 242:	8141                	srli	a0,a0,0x10
 244:	03056513          	ori	a0,a0,48
 248:	02a69023          	sh	a0,32(a3)
	TIM2->CCER |= TIM_CC4E | TIM_CC4P;	// Enable CH2 output, positive pol
 24c:	0206d503          	lhu	a0,32(a3)
 250:	0542                	slli	a0,a0,0x10
 252:	8141                	srli	a0,a0,0x10
 254:	00656533          	or	a0,a0,t1
 258:	02a69023          	sh	a0,32(a3)
	TIM1->CHCTLR1 |= TIM_OC1M_2 | TIM_OC1M_1;	// CH1 Mode is output, PWM1 (CC1S = 00, OC1M = 110)
 25c:	c183d503          	lhu	a0,-1000(t2)
	TIM1->CHCTLR1 |= TIM_OC2M_2 | TIM_OC2M_1;	// CH2 Mode is output, PWM1 (CC1S = 00, OC1M = 110)
 260:	6319                	lui	t1,0x6
	TIM1->CHCTLR1 |= TIM_OC1M_2 | TIM_OC1M_1;	// CH1 Mode is output, PWM1 (CC1S = 00, OC1M = 110)
 262:	0542                	slli	a0,a0,0x10
 264:	8141                	srli	a0,a0,0x10
 266:	06056513          	ori	a0,a0,96
 26a:	c0a39c23          	sh	a0,-1000(t2)
	TIM1->CHCTLR1 |= TIM_OC2M_2 | TIM_OC2M_1;	// CH2 Mode is output, PWM1 (CC1S = 00, OC1M = 110)
 26e:	c183d503          	lhu	a0,-1000(t2)
 272:	0542                	slli	a0,a0,0x10
 274:	8141                	srli	a0,a0,0x10
 276:	00656533          	or	a0,a0,t1
 27a:	c0a39c23          	sh	a0,-1000(t2)
	TIM2->CHCTLR1 |= TIM_OC2M_2 | TIM_OC2M_1 | TIM_OC2PE;
 27e:	0186d303          	lhu	t1,24(a3)
 282:	651d                	lui	a0,0x7
 284:	80050093          	addi	ra,a0,-2048 # 6800 <wiring.c.7604182b+0x3e67>
 288:	0342                	slli	t1,t1,0x10
 28a:	01035313          	srli	t1,t1,0x10
 28e:	00136333          	or	t1,t1,ra
 292:	0342                	slli	t1,t1,0x10
 294:	01035313          	srli	t1,t1,0x10
 298:	00669c23          	sh	t1,24(a3)
	TIM2->CHCTLR2 |= TIM_OC4M_2 | TIM_OC4M_1 | TIM_OC4PE;
 29c:	01c6d503          	lhu	a0,28(a3)
	TIM1->BDTR  |= TIM_MOE;	// Brake and deadband registers
 2a0:	6321                	lui	t1,0x8
	TIM2->CHCTLR2 |= TIM_OC4M_2 | TIM_OC4M_1 | TIM_OC4PE;
 2a2:	0542                	slli	a0,a0,0x10
 2a4:	8141                	srli	a0,a0,0x10
 2a6:	00156533          	or	a0,a0,ra
 2aa:	0542                	slli	a0,a0,0x10
 2ac:	8141                	srli	a0,a0,0x10
 2ae:	00a69e23          	sh	a0,28(a3)
	TIM1->BDTR  |= TIM_MOE;	// Brake and deadband registers
 2b2:	c443d503          	lhu	a0,-956(t2)
 2b6:	0542                	slli	a0,a0,0x10
 2b8:	8141                	srli	a0,a0,0x10
 2ba:	00656533          	or	a0,a0,t1
 2be:	c4a39223          	sh	a0,-956(t2)
	TIM1->CTLR1 |= TIM_CEN;	// Enable TIM1
 2c2:	c003d603          	lhu	a2,-1024(t2)
 2c6:	0642                	slli	a2,a2,0x10
 2c8:	8241                	srli	a2,a2,0x10
 2ca:	00166613          	ori	a2,a2,1
 2ce:	c0c39023          	sh	a2,-1024(t2)
	TIM2->CTLR1 |= TIM_CEN;	// Enable TIM2
 2d2:	0006d603          	lhu	a2,0(a3)
 2d6:	0642                	slli	a2,a2,0x10
 2d8:	8241                	srli	a2,a2,0x10
 2da:	00166613          	ori	a2,a2,1
 2de:	00c69023          	sh	a2,0(a3)
	SysTick->CTLR = 0;
 2e2:	e000f6b7          	lui	a3,0xe000f
 2e6:	0006a023          	sw	zero,0(a3) # e000f000 <__global_pointer$+0xc000e6d0>
 *
 * @return  none
 */
RV_STATIC_INLINE void NVIC_EnableIRQ(IRQn_Type IRQn)
{
  NVIC->IENR[((uint32_t)(IRQn) >> 5)] = (1 << ((uint32_t)(IRQn) & 0x1F));
 2ea:	e000e637          	lui	a2,0xe000e
 2ee:	10b62023          	sw	a1,256(a2) # e000e100 <__global_pointer$+0xc000d7d0>
	SysTick->CMP = (SYSTEM_CORE_CLOCK/8/SYSTICKHZ)-1;
 2f2:	76f58593          	addi	a1,a1,1903
 2f6:	ca8c                	sw	a1,16(a3)
	SysTick->CNT = 0;
 2f8:	0006a423          	sw	zero,8(a3)
	SysTick->CTLR = SYSTICK_CTLR_STE | SYSTICK_CTLR_STIE |
 2fc:	461d                	li	a2,7
 2fe:	c290                	sw	a2,0(a3)
	RCC->CFGR0 &= ~(0x1F<<11);
 300:	43d4                	lw	a3,4(a5)
 302:	7641                	lui	a2,0xffff0
 304:	7ff60613          	addi	a2,a2,2047 # ffff07ff <__global_pointer$+0xdffefecf>
 308:	8ef1                	and	a3,a3,a2
 30a:	c3d4                	sw	a3,4(a5)
	RCC->APB2PCENR |= RCC_APB2Periph_GPIOA | RCC_APB2Periph_ADC1;
 30c:	4f94                	lw	a3,24(a5)
 30e:	2046e693          	ori	a3,a3,516
 312:	cf94                	sw	a3,24(a5)
	GPIOA->CFGLR &= ~(0xf<<(4*GPIO_PinSource2));	// CNF = 00: Analog, MODE = 00: Input
 314:	80072683          	lw	a3,-2048(a4)
 318:	0056f2b3          	and	t0,a3,t0
 31c:	80572023          	sw	t0,-2048(a4)
	RCC->APB2PRSTR |= RCC_APB2Periph_ADC1;
 320:	47d8                	lw	a4,12(a5)
	ADC1->CTLR2 |= ADC_ADON | ADC_EXTSEL;
 322:	000e06b7          	lui	a3,0xe0
 326:	0685                	addi	a3,a3,1
	RCC->APB2PRSTR |= RCC_APB2Periph_ADC1;
 328:	20076713          	ori	a4,a4,512
 32c:	c7d8                	sw	a4,12(a5)
	RCC->APB2PRSTR &= ~RCC_APB2Periph_ADC1;
 32e:	47d8                	lw	a4,12(a5)
 330:	dff77713          	andi	a4,a4,-513
 334:	c7d8                	sw	a4,12(a5)
	ADC1->RSQR1 = 0;
 336:	400127b7          	lui	a5,0x40012
 33a:	4207a623          	sw	zero,1068(a5) # 4001242c <__global_pointer$+0x20011afc>
	ADC1->RSQR2 = 0;
 33e:	4207a823          	sw	zero,1072(a5)
	ADC1->RSQR3 = ADC_Channel_0;	// 0-9 for 8 ext inputs and two internals
 342:	4207aa23          	sw	zero,1076(a5)
	ADC1->SAMPTR2 &= ~ADC_SMP2;
 346:	4107a703          	lw	a4,1040(a5)
 34a:	e3f77713          	andi	a4,a4,-449
 34e:	40e7a823          	sw	a4,1040(a5)
	ADC1->SAMPTR2 |= ( ADC_SampleTime_3Cycles << (3 * ADC_Channel_0 ) );	// 0:7 => 3/9/15/30/43/57/73/241 cycles
 352:	4107a703          	lw	a4,1040(a5)
 356:	40e7a823          	sw	a4,1040(a5)
	ADC1->CTLR2 |= ADC_ADON | ADC_EXTSEL;
 35a:	4087a703          	lw	a4,1032(a5)
 35e:	8f55                	or	a4,a4,a3
 360:	40e7a423          	sw	a4,1032(a5)
	ADC1->CTLR2 |= ADC_RSTCAL;
 364:	4087a703          	lw	a4,1032(a5)
	while(ADC1->CTLR2 & ADC_RSTCAL);
 368:	400126b7          	lui	a3,0x40012
	ADC1->CTLR2 |= ADC_RSTCAL;
 36c:	00876713          	ori	a4,a4,8
 370:	40e7a423          	sw	a4,1032(a5)
	while(ADC1->CTLR2 & ADC_RSTCAL);
 374:	4086a703          	lw	a4,1032(a3) # 40012408 <__global_pointer$+0x20011ad8>
 378:	8b21                	andi	a4,a4,8
 37a:	ff6d                	bnez	a4,374 <main+0x2b0>
	ADC1->CTLR2 |= ADC_CAL;
 37c:	4086a703          	lw	a4,1032(a3)
 380:	00476713          	ori	a4,a4,4
 384:	40e6a423          	sw	a4,1032(a3)
	while(ADC1->CTLR2 & ADC_CAL);
 388:	40012737          	lui	a4,0x40012
 38c:	40872783          	lw	a5,1032(a4) # 40012408 <__global_pointer$+0x20011ad8>
 390:	8b91                	andi	a5,a5,4
 392:	ffed                	bnez	a5,38c <main+0x2c8>
	systick_init();		//start systick
	adc_init();		//start ADC for sw polling

	while(1){
		int Delay = adc_get();
		Delay_Ms(( Delay >> 3 ) + 5 );
 394:	6609                	lui	a2,0x2
 396:	6585                	lui	a1,0x1
		int temp=LEDs[0].brightness;
 398:	20000437          	lui	s0,0x20000
	ADC1->CTLR2 |= ADC_SWSTART;
 39c:	400124b7          	lui	s1,0x40012
 3a0:	004002b7          	lui	t0,0x400

#endif

void DelaySysTick( uint32_t n )
{
	uint32_t targend = SysTick->CNT + n;
 3a4:	e000f337          	lui	t1,0xe000f
		Delay_Ms(( Delay >> 3 ) + 5 );
 3a8:	167d                	addi	a2,a2,-1
 3aa:	77058593          	addi	a1,a1,1904 # 1770 <ch32v003fun.c.8affbd33+0x8ce>
		int temp=LEDs[0].brightness;
 3ae:	00040413          	mv	s0,s0
	ADC1->CTLR2 |= ADC_SWSTART;
 3b2:	4084a783          	lw	a5,1032(s1) # 40012408 <__global_pointer$+0x20011ad8>
 3b6:	0057e7b3          	or	a5,a5,t0
 3ba:	40f4a423          	sw	a5,1032(s1)
	while(!(ADC1->STATR & ADC_EOC));
 3be:	4004a783          	lw	a5,1024(s1)
 3c2:	8b89                	andi	a5,a5,2
 3c4:	dfed                	beqz	a5,3be <main+0x2fa>
	return ADC1->RDATAR;
 3c6:	44c4a503          	lw	a0,1100(s1)
 3ca:	00832783          	lw	a5,8(t1) # e000f008 <__global_pointer$+0xc000e6d8>
		Delay_Ms(( Delay >> 3 ) + 5 );
 3ce:	850d                	srai	a0,a0,0x3
 3d0:	8d71                	and	a0,a0,a2
 3d2:	0515                	addi	a0,a0,5
 3d4:	c03e                	sw	a5,0(sp)
 3d6:	31e9                	jal	a0 <__mulsi3>
 3d8:	4782                	lw	a5,0(sp)
 3da:	6709                	lui	a4,0x2
 3dc:	fff70613          	addi	a2,a4,-1 # 1fff <main_pwm.c.a2cb4005+0x223>
 3e0:	6705                	lui	a4,0x1
 3e2:	97aa                	add	a5,a5,a0
 3e4:	004002b7          	lui	t0,0x400
 3e8:	e000f337          	lui	t1,0xe000f
 3ec:	77070593          	addi	a1,a4,1904 # 1770 <ch32v003fun.c.8affbd33+0x8ce>
	while( ((int32_t)( SysTick->CNT - targend )) < 0 );
 3f0:	00832703          	lw	a4,8(t1) # e000f008 <__global_pointer$+0xc000e6d8>
 3f4:	8f1d                	sub	a4,a4,a5
 3f6:	fe074de3          	bltz	a4,3f0 <main+0x32c>
		int temp=LEDs[0].brightness;
 3fa:	00e44683          	lbu	a3,14(s0) # 2000000e <LEDs+0xe>
		for(int i=1; i<12; i++){
 3fe:	4785                	li	a5,1
 400:	43b1                	li	t2,12
		int temp=LEDs[0].brightness;
 402:	0ff6f693          	andi	a3,a3,255
			LEDs[i-1].brightness=LEDs[i].brightness;
 406:	00479513          	slli	a0,a5,0x4
 40a:	9522                	add	a0,a0,s0
 40c:	00e54503          	lbu	a0,14(a0)
 410:	fff78713          	addi	a4,a5,-1
 414:	0712                	slli	a4,a4,0x4
 416:	0ff57513          	andi	a0,a0,255
 41a:	9722                	add	a4,a4,s0
 41c:	00a70723          	sb	a0,14(a4)
		for(int i=1; i<12; i++){
 420:	0785                	addi	a5,a5,1
 422:	fe7792e3          	bne	a5,t2,406 <main+0x342>
		}
		LEDs[11].brightness=temp;
 426:	0ad40f23          	sb	a3,190(s0)
	while(1){
 42a:	b761                	j	3b2 <main+0x2ee>

0000042c <handle_reset>:
	asm volatile( "\n\
 42c:	20000197          	auipc	gp,0x20000
 430:	50418193          	addi	gp,gp,1284 # 20000930 <__global_pointer$>
 434:	ed018113          	addi	sp,gp,-304 # 20000800 <_eusrstack>
 438:	08000513          	li	a0,128
 43c:	30051073          	csrw	mstatus,a0
 440:	468d                	li	a3,3
 442:	80469073          	csrw	0x804,a3
 446:	00000517          	auipc	a0,0x0
 44a:	bba50513          	addi	a0,a0,-1094 # 0 <InterruptVector>
 44e:	8d55                	or	a0,a0,a3
 450:	30551073          	csrw	mtvec,a0
asm volatile(
 454:	20000517          	auipc	a0,0x20000
 458:	cdc50513          	addi	a0,a0,-804 # 20000130 <currentgroup.0>
 45c:	20000597          	auipc	a1,0x20000
 460:	cd858593          	addi	a1,a1,-808 # 20000134 <_ebss>
 464:	4601                	li	a2,0
 466:	00b55663          	bge	a0,a1,472 <handle_reset+0x46>
 46a:	c110                	sw	a2,0(a0)
 46c:	0511                	addi	a0,a0,4
 46e:	feb54ee3          	blt	a0,a1,46a <handle_reset+0x3e>
 472:	77000513          	li	a0,1904
 476:	20000597          	auipc	a1,0x20000
 47a:	b8a58593          	addi	a1,a1,-1142 # 20000000 <LEDs>
 47e:	20000617          	auipc	a2,0x20000
 482:	cb260613          	addi	a2,a2,-846 # 20000130 <currentgroup.0>
 486:	00c58863          	beq	a1,a2,496 <handle_reset+0x6a>
 48a:	4114                	lw	a3,0(a0)
 48c:	c194                	sw	a3,0(a1)
 48e:	0511                	addi	a0,a0,4
 490:	0591                	addi	a1,a1,4
 492:	fec59ae3          	bne	a1,a2,486 <handle_reset+0x5a>
	SETUP_SYSTICK_HCLK
 496:	e000f7b7          	lui	a5,0xe000f
 49a:	4705                	li	a4,1
 49c:	c398                	sw	a4,0(a5)
asm volatile(
 49e:	0c400793          	li	a5,196
 4a2:	34179073          	csrw	mepc,a5
 4a6:	30200073          	mret

000004aa <ADC1_IRQHandler>:
	asm volatile( "1: j 1b" );
 4aa:	a001                	j	4aa <ADC1_IRQHandler>

000004ac <SysTick_Handler>:
{
 4ac:	fd410113          	addi	sp,sp,-44
 4b0:	00f12023          	sw	a5,0(sp)
	SysTick->CMP += (SYSTEM_CORE_CLOCK/8/SYSTICKHZ); //by default, Systick runs at 48/8=6MHz
 4b4:	e000f7b7          	lui	a5,0xe000f
{
 4b8:	00e12223          	sw	a4,4(sp)
	SysTick->CMP += (SYSTEM_CORE_CLOCK/8/SYSTICKHZ); //by default, Systick runs at 48/8=6MHz
 4bc:	0107a703          	lw	a4,16(a5) # e000f010 <__global_pointer$+0xc000e6e0>
{
 4c0:	00d12423          	sw	a3,8(sp)
	SysTick->CMP += (SYSTEM_CORE_CLOCK/8/SYSTICKHZ); //by default, Systick runs at 48/8=6MHz
 4c4:	000016b7          	lui	a3,0x1
 4c8:	77068693          	addi	a3,a3,1904 # 1770 <ch32v003fun.c.8affbd33+0x8ce>
{
 4cc:	02612223          	sw	t1,36(sp)
 4d0:	00a12a23          	sw	a0,20(sp)
 4d4:	00b12823          	sw	a1,16(sp)
 4d8:	00c12623          	sw	a2,12(sp)
 4dc:	02512423          	sw	t0,40(sp)
 4e0:	02712023          	sw	t2,32(sp)
 4e4:	00812e23          	sw	s0,28(sp)
 4e8:	00912c23          	sw	s1,24(sp)
	SysTick->CMP += (SYSTEM_CORE_CLOCK/8/SYSTICKHZ); //by default, Systick runs at 48/8=6MHz
 4ec:	00d70733          	add	a4,a4,a3
 4f0:	00e7a823          	sw	a4,16(a5)
	SysTick->SR = 0;
 4f4:	0007a223          	sw	zero,4(a5)
        timer->CCER &= ~channel;        //disable this channel output
 4f8:	400136b7          	lui	a3,0x40013
 4fc:	c206d783          	lhu	a5,-992(a3) # 40012c20 <__global_pointer$+0x200122f0>
        port->BSHR = (1<<(pin));                //set GPIO 'high'
 500:	00200513          	li	a0,2
        timer->CCER &= ~channel;        //disable this channel output
 504:	400005b7          	lui	a1,0x40000
 508:	01079793          	slli	a5,a5,0x10
 50c:	0107d793          	srli	a5,a5,0x10
 510:	fef7f793          	andi	a5,a5,-17
 514:	01079793          	slli	a5,a5,0x10
 518:	0107d793          	srli	a5,a5,0x10
 51c:	c2f69023          	sh	a5,-992(a3)
        port->CFGLR &= ~(0xf<<(4*pin)); //clear GPIO config - this appears to be necessary. 
 520:	400117b7          	lui	a5,0x40011
 524:	8007a703          	lw	a4,-2048(a5) # 40010800 <__global_pointer$+0x2000fed0>
        timer->CCER &= ~channel;        //disable this channel output
 528:	fffff637          	lui	a2,0xfffff
 52c:	fff60313          	addi	t1,a2,-1 # ffffefff <__global_pointer$+0xdfffe6cf>
        port->CFGLR &= ~(0xf<<(4*pin)); //clear GPIO config - this appears to be necessary. 
 530:	f0f77713          	andi	a4,a4,-241
 534:	80e7a023          	sw	a4,-2048(a5)
        port->CFGLR |= (GPIO_Speed_10MHz | GPIO_CNF_OUT_PP)<<(4*pin); //Sets output mode to GPIO, PP
 538:	8007a703          	lw	a4,-2048(a5)
 53c:	01076713          	ori	a4,a4,16
 540:	80e7a023          	sw	a4,-2048(a5)
        port->BSHR = (1<<(pin));                //set GPIO 'high'
 544:	80a7a823          	sw	a0,-2032(a5)
        timer->CCER &= ~channel;        //disable this channel output
 548:	0205d703          	lhu	a4,32(a1) # 40000020 <__global_pointer$+0x1ffff6f0>
 54c:	01071713          	slli	a4,a4,0x10
 550:	01075713          	srli	a4,a4,0x10
 554:	00677733          	and	a4,a4,t1
 558:	02e59023          	sh	a4,32(a1)
        port->CFGLR &= ~(0xf<<(4*pin)); //clear GPIO config - this appears to be necessary. 
 55c:	0007a703          	lw	a4,0(a5)
 560:	f0f77713          	andi	a4,a4,-241
 564:	00e7a023          	sw	a4,0(a5)
        port->CFGLR |= (GPIO_Speed_10MHz | GPIO_CNF_OUT_PP)<<(4*pin); //Sets output mode to GPIO, PP
 568:	0007a703          	lw	a4,0(a5)
 56c:	01076713          	ori	a4,a4,16
 570:	00e7a023          	sw	a4,0(a5)
        port->BSHR = (1<<(pin));                //set GPIO 'high'
 574:	00a7a823          	sw	a0,16(a5)
        timer->CCER &= ~channel;        //disable this channel output
 578:	0205d703          	lhu	a4,32(a1)
 57c:	01071713          	slli	a4,a4,0x10
 580:	01075713          	srli	a4,a4,0x10
 584:	fef77713          	andi	a4,a4,-17
 588:	01071713          	slli	a4,a4,0x10
 58c:	01075713          	srli	a4,a4,0x10
 590:	02e59023          	sh	a4,32(a1)
        port->CFGLR &= ~(0xf<<(4*pin)); //clear GPIO config - this appears to be necessary. 
 594:	0007a583          	lw	a1,0(a5)
 598:	0ff60713          	addi	a4,a2,255
        port->BSHR = (1<<(pin));                //set GPIO 'high'
 59c:	00400613          	li	a2,4
        port->CFGLR &= ~(0xf<<(4*pin)); //clear GPIO config - this appears to be necessary. 
 5a0:	00e5f733          	and	a4,a1,a4
 5a4:	00e7a023          	sw	a4,0(a5)
        port->CFGLR |= (GPIO_Speed_10MHz | GPIO_CNF_OUT_PP)<<(4*pin); //Sets output mode to GPIO, PP
 5a8:	0007a703          	lw	a4,0(a5)
 5ac:	10076713          	ori	a4,a4,256
 5b0:	00e7a023          	sw	a4,0(a5)
        port->BSHR = (1<<(pin));                //set GPIO 'high'
 5b4:	00c7a823          	sw	a2,16(a5)
        timer->CCER &= ~channel;        //disable this channel output
 5b8:	c206d703          	lhu	a4,-992(a3)
 5bc:	01071713          	slli	a4,a4,0x10
 5c0:	01075713          	srli	a4,a4,0x10
 5c4:	ffe77713          	andi	a4,a4,-2
 5c8:	01071713          	slli	a4,a4,0x10
 5cc:	01075713          	srli	a4,a4,0x10
 5d0:	c2e69023          	sh	a4,-992(a3)
        port->CFGLR &= ~(0xf<<(4*pin)); //clear GPIO config - this appears to be necessary. 
 5d4:	0007a703          	lw	a4,0(a5)
 5d8:	fff106b7          	lui	a3,0xfff10
 5dc:	fff68693          	addi	a3,a3,-1 # fff0ffff <__global_pointer$+0xdff0f6cf>
 5e0:	00d77733          	and	a4,a4,a3
 5e4:	00e7a023          	sw	a4,0(a5)
        port->CFGLR |= (GPIO_Speed_10MHz | GPIO_CNF_OUT_PP)<<(4*pin); //Sets output mode to GPIO, PP
 5e8:	0007a703          	lw	a4,0(a5)
 5ec:	000106b7          	lui	a3,0x10
 5f0:	00d76733          	or	a4,a4,a3
 5f4:	00e7a023          	sw	a4,0(a5)
        port->BSHR = (1<<(pin));                //set GPIO 'high'
 5f8:	01000713          	li	a4,16
 5fc:	00e7a823          	sw	a4,16(a5)
	if(++currentgroup > 4) currentgroup=0;
 600:	200007b7          	lui	a5,0x20000
 604:	1307c703          	lbu	a4,304(a5) # 20000130 <currentgroup.0>
 608:	00170713          	addi	a4,a4,1
 60c:	0ff77713          	andi	a4,a4,255
 610:	12e66463          	bltu	a2,a4,738 <SysTick_Handler+0x28c>
 614:	12e78823          	sb	a4,304(a5)
 618:	1307c783          	lbu	a5,304(a5)
		pwm_setpw(	LEDs[group[currentgroup][i]].timer,
 61c:	20000537          	lui	a0,0x20000
 620:	00000613          	li	a2,0
 624:	00179713          	slli	a4,a5,0x1
 628:	00f707b3          	add	a5,a4,a5
 62c:	76400713          	li	a4,1892
 630:	00f70733          	add	a4,a4,a5
 634:	00050513          	mv	a0,a0
    	switch( chl )
 638:	10000313          	li	t1,256
 63c:	000013b7          	lui	t2,0x1
 640:	00100413          	li	s0,1
 644:	01000493          	li	s1,16
	for(int i=0;i<3;i++){
 648:	00300293          	li	t0,3
		pwm_setpw(	LEDs[group[currentgroup][i]].timer,
 64c:	00c707b3          	add	a5,a4,a2
 650:	0007c683          	lbu	a3,0(a5)
 654:	00469693          	slli	a3,a3,0x4
 658:	00d506b3          	add	a3,a0,a3
 65c:	0086a583          	lw	a1,8(a3) # 10008 <wiring.c.7604182b+0xd66f>
 660:	00c6d783          	lhu	a5,12(a3)
				LEDs[group[currentgroup][i]].brightness
 664:	00e6c683          	lbu	a3,14(a3)
		pwm_setpw(	LEDs[group[currentgroup][i]].timer,
 668:	01079793          	slli	a5,a5,0x10
 66c:	0107d793          	srli	a5,a5,0x10
				LEDs[group[currentgroup][i]].brightness
 670:	0ff6f693          	andi	a3,a3,255
    	switch( chl )
 674:	0e678463          	beq	a5,t1,75c <SysTick_Handler+0x2b0>
 678:	0cf36463          	bltu	t1,a5,740 <SysTick_Handler+0x294>
 67c:	0c878863          	beq	a5,s0,74c <SysTick_Handler+0x2a0>
 680:	0c978a63          	beq	a5,s1,754 <SysTick_Handler+0x2a8>
	for(int i=0;i<3;i++){
 684:	00160613          	addi	a2,a2,1
 688:	fc5612e3          	bne	a2,t0,64c <SysTick_Handler+0x1a0>
	for(int i=0;i<3;i++){
 68c:	00000613          	li	a2,0
        port->CFGLR &= ~(0xf<<(4*pin)); //clear GPIO config - this appears to be necessary. 
 690:	00f00493          	li	s1,15
        port->CFGLR |= (GPIO_Speed_10MHz | GPIO_CNF_OUT_OD_AF)<<(4*pin);//Sets mode to OD_AF
 694:	00d00393          	li	t2,13
		GPIO_PWM(	LEDs[group[currentgroup][i]].port,
 698:	00c707b3          	add	a5,a4,a2
 69c:	0007c683          	lbu	a3,0(a5)
	for(int i=0;i<3;i++){
 6a0:	00160613          	addi	a2,a2,1
		GPIO_PWM(	LEDs[group[currentgroup][i]].port,
 6a4:	00469693          	slli	a3,a3,0x4
 6a8:	00d506b3          	add	a3,a0,a3
 6ac:	0006a583          	lw	a1,0(a3)
 6b0:	0046c783          	lbu	a5,4(a3)
 6b4:	0086a303          	lw	t1,8(a3)
 6b8:	00c6d283          	lhu	t0,12(a3)
 6bc:	0ff7f793          	andi	a5,a5,255
        port->CFGLR &= ~(0xf<<(4*pin)); //clear GPIO config - this appears to be necessary. 
 6c0:	0005a403          	lw	s0,0(a1)
 6c4:	00279793          	slli	a5,a5,0x2
 6c8:	00f496b3          	sll	a3,s1,a5
 6cc:	fff6c693          	not	a3,a3
 6d0:	0086f6b3          	and	a3,a3,s0
 6d4:	00d5a023          	sw	a3,0(a1)
        port->CFGLR |= (GPIO_Speed_10MHz | GPIO_CNF_OUT_OD_AF)<<(4*pin);//Sets mode to OD_AF
 6d8:	0005a683          	lw	a3,0(a1)
 6dc:	00f397b3          	sll	a5,t2,a5
 6e0:	00d7e7b3          	or	a5,a5,a3
 6e4:	00f5a023          	sw	a5,0(a1)
        timer->CCER |= channel;         //enable this channel output
 6e8:	02035783          	lhu	a5,32(t1)
 6ec:	0057e2b3          	or	t0,a5,t0
 6f0:	01029293          	slli	t0,t0,0x10
 6f4:	0102d293          	srli	t0,t0,0x10
 6f8:	02531023          	sh	t0,32(t1)
	for(int i=0;i<3;i++){
 6fc:	00300793          	li	a5,3
 700:	f8f61ce3          	bne	a2,a5,698 <SysTick_Handler+0x1ec>
}
 704:	01c12403          	lw	s0,28(sp)
 708:	02812283          	lw	t0,40(sp)
 70c:	02412303          	lw	t1,36(sp)
 710:	02012383          	lw	t2,32(sp)
 714:	01812483          	lw	s1,24(sp)
 718:	01412503          	lw	a0,20(sp)
 71c:	01012583          	lw	a1,16(sp)
 720:	00c12603          	lw	a2,12(sp)
 724:	00812683          	lw	a3,8(sp)
 728:	00412703          	lw	a4,4(sp)
 72c:	00012783          	lw	a5,0(sp)
 730:	02c10113          	addi	sp,sp,44
 734:	30200073          	mret
	if(++currentgroup > 4) currentgroup=0;
 738:	12078823          	sb	zero,304(a5)
 73c:	eddff06f          	j	618 <SysTick_Handler+0x16c>
    	switch( chl )
 740:	f47792e3          	bne	a5,t2,684 <SysTick_Handler+0x1d8>
	    	case TIM_CC4E: timer->CH4CVR = width; break;
 744:	04d5a023          	sw	a3,64(a1)
 748:	f3dff06f          	j	684 <SysTick_Handler+0x1d8>
	    	case TIM_CC1E: timer->CH1CVR = width; break;
 74c:	02d5aa23          	sw	a3,52(a1)
 750:	f35ff06f          	j	684 <SysTick_Handler+0x1d8>
	    	case TIM_CC2E: timer->CH2CVR = width; break;
 754:	02d5ac23          	sw	a3,56(a1)
 758:	f2dff06f          	j	684 <SysTick_Handler+0x1d8>
	    	case TIM_CC3E: timer->CH3CVR = width; break;
 75c:	02d5ae23          	sw	a3,60(a1)
 760:	f25ff06f          	j	684 <SysTick_Handler+0x1d8>

00000764 <group>:
 764:	0201                	addi	tp,tp,0
 766:	0008                	0x8
 768:	0904                	addi	s1,sp,144
 76a:	06070503          	lb	a0,96(a4)
 76e:	0b09                	addi	s6,s6,2

Disassembly of section .data:

20000000 <LEDs>:
20000000:	0800                	addi	s0,sp,16
20000002:	4001                	c.li	zero,0
20000004:	0001                	nop
20000006:	0000                	unimp
20000008:	2c00                	fld	fs0,24(s0)
2000000a:	4001                	c.li	zero,0
2000000c:	0010                	0x10
2000000e:	0008                	0x8
20000010:	1000                	addi	s0,sp,32
20000012:	4001                	c.li	zero,0
20000014:	0004                	0x4
20000016:	0000                	unimp
20000018:	2c00                	fld	fs0,24(s0)
2000001a:	4001                	c.li	zero,0
2000001c:	0001                	nop
2000001e:	1000003f 00044001 	0x440011000003f
20000026:	0000                	unimp
20000028:	2c00                	fld	fs0,24(s0)
2000002a:	4001                	c.li	zero,0
2000002c:	0001                	nop
2000002e:	0020                	addi	s0,sp,8
20000030:	1000                	addi	s0,sp,32
20000032:	4001                	c.li	zero,0
20000034:	0001                	nop
20000036:	0000                	unimp
20000038:	0000                	unimp
2000003a:	4000                	lw	s0,0(s0)
2000003c:	1000                	addi	s0,sp,32
2000003e:	0010                	0x10
20000040:	0800                	addi	s0,sp,16
20000042:	4001                	c.li	zero,0
20000044:	0001                	nop
20000046:	0000                	unimp
20000048:	0000                	unimp
2000004a:	4000                	lw	s0,0(s0)
2000004c:	0010                	0x10
2000004e:	0010                	0x10
20000050:	1000                	addi	s0,sp,32
20000052:	4001                	c.li	zero,0
20000054:	0001                	nop
20000056:	0000                	unimp
20000058:	0000                	unimp
2000005a:	4000                	lw	s0,0(s0)
2000005c:	1000                	addi	s0,sp,32
2000005e:	0010                	0x10
20000060:	1000                	addi	s0,sp,32
20000062:	4001                	c.li	zero,0
20000064:	0002                	c.slli64	zero
20000066:	0000                	unimp
20000068:	0000                	unimp
2000006a:	4000                	lw	s0,0(s0)
2000006c:	0010                	0x10
2000006e:	0008                	0x8
20000070:	1000                	addi	s0,sp,32
20000072:	4001                	c.li	zero,0
20000074:	0001                	nop
20000076:	0000                	unimp
20000078:	0000                	unimp
2000007a:	4000                	lw	s0,0(s0)
2000007c:	1000                	addi	s0,sp,32
2000007e:	0004                	0x4
20000080:	1000                	addi	s0,sp,32
20000082:	4001                	c.li	zero,0
20000084:	0004                	0x4
20000086:	0000                	unimp
20000088:	2c00                	fld	fs0,24(s0)
2000008a:	4001                	c.li	zero,0
2000008c:	0001                	nop
2000008e:	0002                	c.slli64	zero
20000090:	1000                	addi	s0,sp,32
20000092:	4001                	c.li	zero,0
20000094:	0002                	c.slli64	zero
20000096:	0000                	unimp
20000098:	0000                	unimp
2000009a:	4000                	lw	s0,0(s0)
2000009c:	0010                	0x10
2000009e:	0000                	unimp
200000a0:	0800                	addi	s0,sp,16
200000a2:	4001                	c.li	zero,0
200000a4:	0001                	nop
200000a6:	0000                	unimp
200000a8:	2c00                	fld	fs0,24(s0)
200000aa:	4001                	c.li	zero,0
200000ac:	0010                	0x10
200000ae:	0002                	c.slli64	zero
200000b0:	1000                	addi	s0,sp,32
200000b2:	4001                	c.li	zero,0
200000b4:	0002                	c.slli64	zero
200000b6:	0000                	unimp
200000b8:	2c00                	fld	fs0,24(s0)
200000ba:	4001                	c.li	zero,0
200000bc:	0010                	0x10
200000be:	0004                	0x4

200000c0 <APBAHBPrescTable.lto_priv.0>:
200000c0:	0201                	addi	tp,tp,0
200000c2:	06050403          	lb	s0,96(a0) # 20000060 <LEDs+0x60>
200000c6:	02010807          	0x2010807
200000ca:	06050403          	lb	s0,96(a0)
200000ce:	          	0x4020807

200000d0 <ADCPrescTable.lto_priv.0>:
200000d0:	0402                	c.slli64	s0
200000d2:	0806                	slli	a6,a6,0x1
200000d4:	0804                	addi	s1,sp,16
200000d6:	100c                	addi	a1,sp,32
200000d8:	1008                	addi	a0,sp,32
200000da:	2018                	fld	fa4,0(s0)
200000dc:	2010                	fld	fa2,0(s0)
200000de:	4030                	lw	a2,64(s0)
200000e0:	4020                	lw	s0,64(s0)
200000e2:	8060                	0x8060

200000e4 <APBAHBPrescTable.lto_priv.1>:
200000e4:	0201                	addi	tp,tp,0
200000e6:	06050403          	lb	s0,96(a0)
200000ea:	02010807          	0x2010807
200000ee:	06050403          	lb	s0,96(a0)
200000f2:	          	0x4020807

200000f4 <ADCPrescTable.lto_priv.1>:
200000f4:	0402                	c.slli64	s0
200000f6:	0806                	slli	a6,a6,0x1
200000f8:	0804                	addi	s1,sp,16
200000fa:	100c                	addi	a1,sp,32
200000fc:	1008                	addi	a0,sp,32
200000fe:	2018                	fld	fa4,0(s0)
20000100:	2010                	fld	fa2,0(s0)
20000102:	4030                	lw	a2,64(s0)
20000104:	4020                	lw	s0,64(s0)
20000106:	8060                	0x8060

20000108 <APBAHBPrescTable.lto_priv.2>:
20000108:	0201                	addi	tp,tp,0
2000010a:	06050403          	lb	s0,96(a0)
2000010e:	02010807          	0x2010807
20000112:	06050403          	lb	s0,96(a0)
20000116:	          	0x4020807

20000118 <ADCPrescTable.lto_priv.2>:
20000118:	0402                	c.slli64	s0
2000011a:	0806                	slli	a6,a6,0x1
2000011c:	0804                	addi	s1,sp,16
2000011e:	100c                	addi	a1,sp,32
20000120:	1008                	addi	a0,sp,32
20000122:	2018                	fld	fa4,0(s0)
20000124:	2010                	fld	fa2,0(s0)
20000126:	4030                	lw	a2,64(s0)
20000128:	4020                	lw	s0,64(s0)
2000012a:	8060                	0x8060
2000012c:	0000                	unimp
	...

Disassembly of section .bss:

20000130 <currentgroup.0>:
20000130:	0000                	unimp
	...

Disassembly of section .debug_info:

00000000 <ch32v003fun.c.8affbd33-0xea2>:
	asm volatile( "\n\
       0:	0e9e                	slli	t4,t4,0x7
       2:	0000                	unimp
       4:	0004                	0x4
       6:	0000                	unimp
       8:	0000                	unimp
       a:	0104                	addi	s1,sp,128
       c:	002c                	addi	a1,sp,8
       e:	0000                	unimp
      10:	cb0c                	sw	a1,16(a4)
      12:	0000                	unimp
      14:	e100                	fsw	fs0,0(a0)
      16:	0000                	unimp
      18:	a800                	fsd	fs0,16(s0)
      1a:	0002                	c.slli64	zero
	...
      24:	0200                	addi	s0,sp,256
      26:	000016f3          	csrrw	a3,ustatus,zero
	...
      32:	9c01                	0x9c01
      34:	006d                	c.nop	27
      36:	0000                	unimp
      38:	00170403          	lb	s0,1(a4)
      3c:	0000                	unimp
      3e:	0000                	unimp
      40:	0300                	addi	s0,sp,384
      42:	0000170f          	0x170f
      46:	001e                	c.slli	zero,0x7
      48:	0000                	unimp
      4a:	1c04                	addi	s1,sp,560
      4c:	01000017          	auipc	zero,0x1000
      50:	055c                	addi	a5,sp,644
      52:	1729                	addi	a4,a4,-22
      54:	0000                	unimp
      56:	0055                	c.nop	21
      58:	0000                	unimp
      5a:	3405                	jal	fffffa7a <__global_pointer$+0xdffff14a>
      5c:	73000017          	auipc	zero,0x73000
      60:	0000                	unimp
      62:	0500                	addi	s0,sp,640
      64:	1740                	addi	s0,sp,932
      66:	0000                	unimp
      68:	0091                	addi	ra,ra,4
      6a:	0000                	unimp
      6c:	0200                	addi	s0,sp,256
      6e:	1752                	slli	a4,a4,0x34
	...
      78:	0000                	unimp
      7a:	9c01                	0x9c01
      7c:	00e0                	addi	s0,sp,76
      7e:	0000                	unimp
      80:	00176303          	0x176303
      84:	d300                	sw	s0,32(a4)
      86:	0000                	unimp
      88:	0300                	addi	s0,sp,384
      8a:	1770                	addi	a2,sp,940
      8c:	0000                	unimp
      8e:	013a                	slli	sp,sp,0xe
      90:	0000                	unimp
      92:	00177d03          	0x177d03
      96:	8700                	0x8700
      98:	0001                	nop
      9a:	0300                	addi	s0,sp,384
      9c:	178a                	slli	a5,a5,0x22
      9e:	0000                	unimp
      a0:	01c1                	addi	gp,gp,16
      a2:	0000                	unimp
      a4:	00179703          	lh	a4,1(a5)
      a8:	ed00                	fsw	fs0,24(a0)
      aa:	0001                	nop
      ac:	0500                	addi	s0,sp,640
      ae:	17a4                	addi	s1,sp,1000
      b0:	0000                	unimp
      b2:	00000227          	0x227
      b6:	af05                	j	7e6 <_data_lma+0x76>
      b8:	c6000017          	auipc	zero,0xc6000
      bc:	0002                	c.slli64	zero
      be:	0500                	addi	s0,sp,640
      c0:	17bc                	addi	a5,sp,1000
      c2:	0000                	unimp
int main() {
      c4:	0315                	addi	t1,t1,5
      c6:	0000                	unimp
      c8:	0006                	c.slli	zero,0x1
      ca:	0000                	unimp
	RCC->CFGR0 = RCC_HPRE_DIV1 | RCC_PLLSRC_HSI_Mul2;      // PLLCLK = HSI * 2 = 48 MHz; HCLK = SYSCLK = APB1
      cc:	7000                	flw	fs0,32(s0)
      ce:	000e                	c.slli	zero,0x3
	RCC->CTLR  = RCC_HSION | RCC_PLLON | ((HSITRIM) << 3); // Use HSI, but enable PLL.
      d0:	0700                	addi	s0,sp,896
      d2:	5a01                	li	s4,-32
	RCC->CFGR0 = RCC_HPRE_DIV1 | RCC_PLLSRC_HSI_Mul2;      // PLLCLK = HSI * 2 = 48 MHz; HCLK = SYSCLK = APB1
      d4:	5e01f303          	0x5e01f303
	RCC->CTLR  = RCC_HSION | RCC_PLLON | ((HSITRIM) << 3); // Use HSI, but enable PLL.
      d8:	025c0107          	0x25c0107
      dc:	0078                	addi	a4,sp,12
	FLASH->ACTLR = FLASH_ACTLR_LATENCY_1;                  // 1 Cycle Latency
      de:	0000                	unimp
      e0:	ca02                	sw	zero,20(sp)
      e2:	00000017          	auipc	zero,0x0
	RCC->INTR  = 0x009F0000;                               // Clear PLL, CSSC, HSE, HSI and LSI ready flags.
      e6:	0000                	unimp
      e8:	0000                	unimp
      ea:	0000                	unimp
	while((RCC->CTLR & RCC_PLLRDY) == 0);                                      // Wait till PLL is ready
      ec:	0100                	addi	s0,sp,128
      ee:	7f9c                	flw	fa5,56(a5)
      f0:	0001                	nop
      f2:	0300                	addi	s0,sp,384
      f4:	000017db          	0x17db
      f8:	000003bb          	0x3bb
	while ((RCC->CFGR0 & (uint32_t)RCC_SWS) != (uint32_t)0x08);                // Wait till PLL is used as system clock source
      fc:	0017e803          	0x17e803
	RCC->CFGR0 = ( RCC->CFGR0 & ((uint32_t)~(RCC_SW))) | (uint32_t)RCC_SW_PLL; // Select PLL as system clock source
     100:	0600                	addi	s0,sp,768
     102:	0004                	0x4
     104:	0300                	addi	s0,sp,384
	while ((RCC->CFGR0 & (uint32_t)RCC_SWS) != (uint32_t)0x08);                // Wait till PLL is used as system clock source
     106:	17f5                	addi	a5,a5,-3
     108:	0000                	unimp
     10a:	0476                	slli	s0,s0,0x1d
     10c:	0000                	unimp
     10e:	00180203          	lb	tp,1(a6)
	RCC->APB2PCENR |=	RCC_APB2Periph_GPIOA | RCC_APB2Periph_GPIOC |
     112:	9700                	0x9700
     114:	0004                	0x4
     116:	0300                	addi	s0,sp,384
     118:	0000180f          	0x180f
     11c:	04b8                	addi	a4,sp,584
	RCC->APB1PCENR |=	RCC_APB1Periph_TIM2;
     11e:	0000                	unimp
	RCC->APB2PRSTR |=  RCC_APB2Periph_TIM1;
     120:	1c05                	addi	s8,s8,-31
     122:	0018                	0x18
	RCC->APB2PRSTR &= ~RCC_APB2Periph_TIM1;
     124:	f900                	fsw	fs0,48(a0)
	RCC->APB1PCENR |=	RCC_APB1Periph_TIM2;
     126:	0004                	0x4
     128:	0500                	addi	s0,sp,640
     12a:	1829                	addi	a6,a6,-22
	RCC->APB2PRSTR |=  RCC_APB2Periph_TIM1;
     12c:	0000                	unimp
	GPIOC->CFGLR &= ~(0xf<<(4*4));
     12e:	0551                	addi	a0,a0,20
     130:	0000                	unimp
     132:	3605                	jal	fffffc52 <__global_pointer$+0xdffff322>
	RCC->APB2PRSTR |=  RCC_APB2Periph_TIM1;
     134:	0018                	0x18
     136:	8900                	0x8900
	RCC->APB2PRSTR &= ~RCC_APB2Periph_TIM1;
     138:	0005                	c.nop	1
     13a:	0500                	addi	s0,sp,640
     13c:	1841                	addi	a6,a6,-16
	GPIOC->CFGLR &= ~(0xf<<(4*2));
     13e:	0000                	unimp
     140:	000005cb          	fnmsub.s	fa1,ft0,ft0,ft0,rne
	RCC->APB2PRSTR &= ~RCC_APB2Periph_TIM1;
     144:	4e08                	lw	a0,24(a2)
	RCC->APB1PRSTR |=  RCC_APB1Periph_TIM2;
     146:	0018                	0x18
	TIM1->PSC = 0x0000;
     148:	0000                	unimp
     14a:	0000                	unimp
	TIM1->ATRLR = 255;
     14c:	6d00                	flw	fs0,24(a0)
     14e:	0001                	nop
	RCC->APB1PRSTR |=  RCC_APB1Periph_TIM2;
     150:	0500                	addi	s0,sp,640
     152:	00001853          	fadd.s	fa6,ft0,ft0,rtz
	RCC->APB1PRSTR &= ~RCC_APB1Periph_TIM2;
     156:	05e9                	addi	a1,a1,26
	TIM2->CCER |= TIM_CC4E | TIM_CC4P;	// Enable CH2 output, positive pol
     158:	0000                	unimp
	RCC->APB1PRSTR &= ~RCC_APB1Periph_TIM2;
     15a:	0009                	c.nop	2
     15c:	0000                	unimp
	GPIOC->CFGLR &= ~(0xf<<(4*4));
     15e:	7b00                	flw	fs0,48(a4)
     160:	000e                	c.slli	zero,0x3
     162:	0900                	addi	s0,sp,144
     164:	0000                	unimp
     166:	0000                	unimp
	GPIOC->CFGLR |= (GPIO_Speed_10MHz | GPIO_CNF_OUT_OD_AF)<<(4*GPIO_PinSource4);
     168:	0e84                	addi	s1,sp,848
     16a:	0000                	unimp
     16c:	0a00                	addi	s0,sp,272
     16e:	1861                	addi	a6,a6,-8
     170:	0000                	unimp
	GPIOA->CFGLR &= ~(0xf<<(4*1));
     172:	0028                	addi	a0,sp,8
     174:	0000                	unimp
	GPIOC->CFGLR |= (GPIO_Speed_10MHz | GPIO_CNF_OUT_OD_AF)<<(4*GPIO_PinSource2);
     176:	0018620b          	0x18620b
	GPIOA->CFGLR &= ~(0xf<<(4*1));
     17a:	0100                	addi	s0,sp,128
     17c:	0056                	c.slli	zero,0x15
     17e:	0200                	addi	s0,sp,256
     180:	27c2                	fld	fa5,16(sp)
	GPIOA->CFGLR |= (GPIO_Speed_10MHz | GPIO_CNF_OUT_OD_AF)<<(4*GPIO_PinSource1);
     182:	0000                	unimp
     184:	00c4                	addi	s1,sp,68
     186:	0000                	unimp
     188:	0368                	addi	a0,sp,396
     18a:	0000                	unimp
     18c:	9c01                	0x9c01
	GPIOC->CFGLR &= ~(0xf<<(4*2));
     18e:	0272                	slli	tp,tp,0x1c
     190:	0000                	unimp
     192:	000c                	0xc
     194:	0015                	c.nop	5
	GPIOC->CFGLR |= (GPIO_Speed_10MHz | GPIO_CNF_OUT_OD_AF)<<(4*GPIO_PinSource2);
     196:	c400                	sw	s0,8(s0)
     198:	0000                	unimp
     19a:	4000                	lw	s0,0(s0)
	GPIOC->CFGLR &= ~(0xf<<(4*1));
     19c:	0000                	unimp
	AFIO->PCFR1 |= AFIO_PCFR1_TIM2_REMAP_PARTIALREMAP1;
     19e:	0200                	addi	s0,sp,256
     1a0:	0189                	addi	gp,gp,2
	GPIOC->CFGLR &= ~(0xf<<(4*1));
     1a2:	0d02                	c.slli64	s10
     1a4:	2979                	jal	642 <SysTick_Handler+0x196>
     1a6:	0000                	unimp
	GPIOC->CFGLR |= (GPIO_Speed_10MHz | GPIO_CNF_OUT_OD_AF)<<(4*GPIO_PinSource1);
     1a8:	0112                	slli	sp,sp,0x4
     1aa:	0000                	unimp
     1ac:	01d0                	addi	a2,sp,196
     1ae:	0000                	unimp
	AFIO->PCFR1 |= AFIO_PCFR1_TIM2_REMAP_PARTIALREMAP1;
     1b0:	8a02                	jr	s4
     1b2:	0201                	addi	tp,tp,0
     1b4:	4c0e                	lw	s8,192(sp)
     1b6:	0028                	addi	a0,sp,8
	TIM1->PSC = 0x0000;
     1b8:	e200                	fsw	fs0,0(a2)
     1ba:	0002                	c.slli64	zero
	TIM2->PSC = 0x0000;
     1bc:	1e00                	addi	s0,sp,816
     1be:	0000                	unimp
     1c0:	0200                	addi	s0,sp,256
     1c2:	e402018b          	0xe402018b
	TIM1->ATRLR = 255;
     1c6:	0001                	nop
	TIM2->ATRLR = 255;
     1c8:	0f00                	addi	s0,sp,912
     1ca:	2981                	jal	61a <SysTick_Handler+0x16e>
	TIM1->SWEVGR |= TIM_UG;
     1cc:	0000                	unimp
     1ce:	02ea                	slli	t0,t0,0x1a
     1d0:	0000                	unimp
     1d2:	0008                	0x8
     1d4:	0000                	unimp
     1d6:	fe02                	fsw	ft0,60(sp)
     1d8:	0302                	c.slli64	t1
     1da:	298a                	fld	fs3,128(sp)
	TIM2->SWEVGR |= TIM_UG;
     1dc:	0000                	unimp
     1de:	00000607          	0x607
     1e2:	0000                	unimp
     1e4:	0a0d                	addi	s4,s4,3
     1e6:	0028                	addi	a0,sp,8
     1e8:	0000                	unimp
     1ea:	94000003          	lb	zero,-1728(zero) # fffff940 <__global_pointer$+0xdffff010>
	TIM2->CTLR1 |= TIM_ARPE;
     1ee:	0000                	unimp
     1f0:	0200                	addi	s0,sp,256
     1f2:	018c                	addi	a1,sp,192
     1f4:	0a02                	c.slli64	s4
     1f6:	000027d3          	fadd.s	fa5,ft0,ft0,rdn
     1fa:	0058                	addi	a4,sp,4
	TIM1->CTLR1 |= TIM_ARPE; // unnecessary?
     1fc:	0000                	unimp
     1fe:	d405                	beqz	s0,126 <main+0x62>
     200:	1b000027          	0x1b000027
     204:	0006                	c.slli	zero,0x1
     206:	0b00                	addi	s0,sp,400
     208:	27e1                	jal	9d0 <_data_lma+0x260>
     20a:	0000                	unimp
	TIM1->CH1CVR = 128; //T1CH1/PC4/pin7
     20c:	7d06                	flw	fs10,96(sp)
     20e:	0800                	addi	s0,sp,16
     210:	1aff                	0x1aff
     212:	0c9f 27fd 0000      	0x27fd0c9f
	TIM2->CH2CVR = 128; //T2CH2/PC2/pin6*
     218:	039c                	addi	a5,sp,448
	TIM2->CH4CVR = 128; //T2CH4/PC1/pin5*
     21a:	0000                	unimp
	TIM1->CCER |= TIM_CC1E | TIM_CC1P;	// Enable CH1 output, positive pol
     21c:	0078                	addi	a4,sp,12
     21e:	0000                	unimp
     220:	8f02                	jr	t5
     222:	0f01                	addi	t5,t5,0
     224:	bb10                	fsd	fa2,48(a4)
     226:	a4000013          	li	zero,-1472
     22a:	90000003          	lb	zero,-1792(zero) # fffff900 <__global_pointer$+0xdfffefd0>
	TIM1->CCER |= TIM_CC2E | TIM_CC2P;	// Enable CH4 output, positive pol
     22e:	0000                	unimp
     230:	0200                	addi	s0,sp,256
     232:	0190                	addi	a2,sp,192
     234:	00025203          	lhu	tp,0(tp) # 0 <InterruptVector>
     238:	0300                	addi	s0,sp,384
     23a:	13c8                	addi	a0,sp,484
	TIM2->CCER |= TIM_CC2E | TIM_CC2P;	// Enable CH1 output, positive pol
     23c:	0000                	unimp
     23e:	0634                	addi	a3,sp,776
     240:	0000                	unimp
     242:	9011                	srli	s0,s0,0x24
     244:	0000                	unimp
     246:	0500                	addi	s0,sp,640
     248:	000013d3          	fadd.s	ft7,ft0,ft0,rtz
	TIM2->CCER |= TIM_CC4E | TIM_CC4P;	// Enable CH2 output, positive pol
     24c:	0655                	addi	a2,a2,21
     24e:	0000                	unimp
     250:	0000                	unimp
     252:	ee08                	fsw	fa0,24(a2)
     254:	b8000027          	0xb8000027
     258:	0000                	unimp
     25a:	6700                	flw	fs0,8(a4)
	TIM1->CHCTLR1 |= TIM_OC1M_2 | TIM_OC1M_1;	// CH1 Mode is output, PWM1 (CC1S = 00, OC1M = 110)
     25c:	0002                	c.slli64	zero
     25e:	0b00                	addi	s0,sp,400
	TIM1->CHCTLR1 |= TIM_OC2M_2 | TIM_OC2M_1;	// CH2 Mode is output, PWM1 (CC1S = 00, OC1M = 110)
     260:	000027ef          	jal	a5,2260 <main_pwm.c.a2cb4005+0x484>
	TIM1->CHCTLR1 |= TIM_OC1M_2 | TIM_OC1M_1;	// CH1 Mode is output, PWM1 (CC1S = 00, OC1M = 110)
     264:	5f01                	li	t5,-32
     266:	0900                	addi	s0,sp,144
     268:	03d8                	addi	a4,sp,452
     26a:	0000                	unimp
     26c:	0e8d                	addi	t4,t4,3
	TIM1->CHCTLR1 |= TIM_OC2M_2 | TIM_OC2M_1;	// CH2 Mode is output, PWM1 (CC1S = 00, OC1M = 110)
     26e:	0000                	unimp
     270:	0000                	unimp
     272:	1d02                	slli	s10,s10,0x20
     274:	0014                	0x14
	...
	TIM2->CHCTLR1 |= TIM_OC2M_2 | TIM_OC2M_1 | TIM_OC2PE;
     27e:	0100                	addi	s0,sp,128
     280:	f09c                	fsw	fa5,32(s1)
     282:	0002                	c.slli64	zero
     284:	0300                	addi	s0,sp,384
     286:	143a                	slli	s0,s0,0x2e
     288:	0000                	unimp
     28a:	0668                	addi	a0,sp,780
     28c:	0000                	unimp
     28e:	00144703          	lbu	a4,1(s0)
     292:	8900                	0x8900
     294:	0006                	c.slli	zero,0x1
     296:	0b00                	addi	s0,sp,400
     298:	1454                	addi	a3,sp,548
     29a:	0000                	unimp
	TIM2->CHCTLR2 |= TIM_OC4M_2 | TIM_OC4M_1 | TIM_OC4PE;
     29c:	9102                	jalr	sp
     29e:	0570                	addi	a2,sp,652
	TIM1->BDTR  |= TIM_MOE;	// Brake and deadband registers
     2a0:	1461                	addi	s0,s0,-8
	TIM2->CHCTLR2 |= TIM_OC4M_2 | TIM_OC4M_1 | TIM_OC4PE;
     2a2:	0000                	unimp
     2a4:	06b5                	addi	a3,a3,13
     2a6:	0000                	unimp
     2a8:	6e05                	lui	t3,0x1
     2aa:	0014                	0x14
     2ac:	df00                	sw	s0,56(a4)
     2ae:	0006                	c.slli	zero,0x1
     2b0:	1200                	addi	s0,sp,288
	TIM1->BDTR  |= TIM_MOE;	// Brake and deadband registers
     2b2:	142e                	slli	s0,s0,0x2b
     2b4:	0000                	unimp
     2b6:	0a00                	addi	s0,sp,272
     2b8:	0000147b          	0x147b
     2bc:	00d0                	addi	a2,sp,68
     2be:	0000                	unimp
     2c0:	7c05                	lui	s8,0xfffe1
	TIM1->CTLR1 |= TIM_CEN;	// Enable TIM1
     2c2:	0014                	0x14
     2c4:	1e00                	addi	s0,sp,816
     2c6:	05000007          	0x5000007
     2ca:	1489                	addi	s1,s1,-30
     2cc:	0000                	unimp
     2ce:	00000753          	fadd.s	fa4,ft0,ft0,rne
	TIM2->CTLR1 |= TIM_CEN;	// Enable TIM2
     2d2:	0006                	c.slli	zero,0x1
     2d4:	0000                	unimp
     2d6:	9600                	0x9600
     2d8:	000e                	c.slli	zero,0x3
     2da:	0700                	addi	s0,sp,896
     2dc:	5a01                	li	s4,-32
     2de:	9102                	jalr	sp
     2e0:	0770                	addi	a2,sp,908
	SysTick->CTLR = 0;
     2e2:	5b01                	li	s6,-32
     2e4:	7808                	flw	fa0,48(s0)
     2e6:	7200                	flw	fs0,32(a2)
     2e8:	0600                	addi	s0,sp,768
     2ea:	2322                	fld	ft6,8(sp)
     2ec:	00000003          	lb	zero,0(zero) # 0 <InterruptVector>
     2f0:	9602                	jalr	a2
	SysTick->CMP = (SYSTEM_CORE_CLOCK/8/SYSTICKHZ)-1;
     2f2:	001d                	c.nop	7
	...
	SysTick->CTLR = SYSTICK_CTLR_STE | SYSTICK_CTLR_STIE |
     2fc:	0100                	addi	s0,sp,128
     2fe:	3d9c                	fld	fa5,56(a1)
	RCC->CFGR0 &= ~(0x1F<<11);
     300:	03000003          	lb	zero,48(zero) # 30 <InterruptVector+0x30>
     304:	1da6                	slli	s11,s11,0x29
     306:	0000                	unimp
     308:	078a                	slli	a5,a5,0x2
     30a:	0000                	unimp
	RCC->APB2PCENR |= RCC_APB2Periph_GPIOA | RCC_APB2Periph_ADC1;
     30c:	001db003          	0x1db003
     310:	ab00                	fsd	fs0,16(a4)
     312:	03000007          	0x3000007
	GPIOA->CFGLR &= ~(0xf<<(4*GPIO_PinSource2));	// CNF = 00: Analog, MODE = 00: Input
     316:	1dbc                	addi	a5,sp,760
     318:	0000                	unimp
     31a:	07d4                	addi	a3,sp,964
     31c:	0000                	unimp
     31e:	0006                	c.slli	zero,0x1
	RCC->APB2PRSTR |= RCC_APB2Periph_ADC1;
     320:	0000                	unimp
	ADC1->CTLR2 |= ADC_ADON | ADC_EXTSEL;
     322:	7200                	flw	fs0,32(a2)
     324:	0002                	c.slli64	zero
     326:	0700                	addi	s0,sp,896
	RCC->APB2PRSTR |= RCC_APB2Periph_ADC1;
     328:	5a01                	li	s4,-32
     32a:	5a01f303          	0x5a01f303
	RCC->APB2PRSTR &= ~RCC_APB2Periph_ADC1;
     32e:	025b0107          	0x25b0107
     332:	0078                	addi	a4,sp,12
     334:	00034613          	xori	a2,t1,0
	ADC1->RSQR1 = 0;
     338:	0100                	addi	s0,sp,128
     33a:	0030                	addi	a2,sp,8
     33c:	1400                	addi	s0,sp,544
	ADC1->RSQR2 = 0;
     33e:	141d                	addi	s0,s0,-25
     340:	0000                	unimp
	ADC1->RSQR3 = ADC_Channel_0;	// 0-9 for 8 ext inputs and two internals
     342:	034c                	addi	a1,sp,388
     344:	0000                	unimp
	ADC1->SAMPTR2 &= ~ADC_SMP2;
     346:	2e15                	jal	67a <SysTick_Handler+0x1ce>
     348:	0014                	0x14
     34a:	0000                	unimp
     34c:	d216                	sw	t0,36(sp)
     34e:	001d                	c.nop	7
     350:	2c00                	fld	fs0,24(s0)
	ADC1->SAMPTR2 |= ( ADC_SampleTime_3Cycles << (3 * ADC_Channel_0 ) );	// 0:7 => 3/9/15/30/43/57/73/241 cycles
     352:	0004                	0x4
     354:	7e00                	flw	fs0,56(a2)
     356:	0000                	unimp
     358:	0100                	addi	s0,sp,128
	ADC1->CTLR2 |= ADC_ADON | ADC_EXTSEL;
     35a:	169c                	addi	a5,sp,864
     35c:	1dc9                	addi	s11,s11,-14
     35e:	0000                	unimp
     360:	04aa                	slli	s1,s1,0xa
     362:	0000                	unimp
	ADC1->CTLR2 |= ADC_RSTCAL;
     364:	0002                	c.slli64	zero
     366:	0000                	unimp
	while(ADC1->CTLR2 & ADC_RSTCAL);
     368:	9c01                	0x9c01
     36a:	3b02                	fld	fs6,32(sp)
	ADC1->CTLR2 |= ADC_RSTCAL;
     36c:	001d                	c.nop	7
	...
	while(ADC1->CTLR2 & ADC_RSTCAL);
     376:	0100                	addi	s0,sp,128
     378:	909c                	0x909c
     37a:	03000003          	lb	zero,48(zero) # 30 <InterruptVector+0x30>
	ADC1->CTLR2 |= ADC_CAL;
     37e:	00001d4b          	fnmsub.s	fs10,ft0,ft0,ft0,rtz
     382:	07f5                	addi	a5,a5,29
     384:	0000                	unimp
     386:	5505                	li	a0,-31
	while(ADC1->CTLR2 & ADC_CAL);
     388:	001d                	c.nop	7
     38a:	1300                	addi	s0,sp,416
     38c:	0008                	0x8
     38e:	0000                	unimp
     390:	6002                	flw	ft0,0(sp)
     392:	001d                	c.nop	7
	...
	ADC1->CTLR2 |= ADC_SWSTART;
     39c:	0100                	addi	s0,sp,128
     39e:	539c                	lw	a5,32(a5)
     3a0:	0006                	c.slli	zero,0x1
     3a2:	0300                	addi	s0,sp,384
	uint32_t targend = SysTick->CNT + n;
     3a4:	1d70                	addi	a2,sp,700
     3a6:	0000                	unimp
		Delay_Ms(( Delay >> 3 ) + 5 );
     3a8:	0000083f 001d7d0b 	0x1d7d0b0000083f
		int temp=LEDs[0].brightness;
     3b0:	0300                	addi	s0,sp,384
	ADC1->CTLR2 |= ADC_SWSTART;
     3b2:	ac91                	j	606 <SysTick_Handler+0x15a>
     3b4:	177f                	0x177f
     3b6:	1d89                	addi	s11,s11,-30
     3b8:	0000                	unimp
     3ba:	d718                	sw	a4,40(a4)
     3bc:	0015                	c.nop	5
	while(!(ADC1->STATR & ADC_EOC));
     3be:	0000                	unimp
     3c0:	0000                	unimp
     3c2:	e800                	fsw	fs0,16(s0)
     3c4:	0000                	unimp
	return ADC1->RDATAR;
     3c6:	0100                	addi	s0,sp,128
     3c8:	131e                	slli	t1,t1,0x27
     3ca:	e815                	bnez	s0,3fe <main+0x33a>
     3cc:	0015                	c.nop	5
		Delay_Ms(( Delay >> 3 ) + 5 );
     3ce:	1200                	addi	s0,sp,288
     3d0:	15f5                	addi	a1,a1,-3
     3d2:	0000                	unimp
     3d4:	0300                	addi	s0,sp,384
     3d6:	0000160f          	0x160f
     3da:	0860                	addi	s0,sp,28
     3dc:	0000                	unimp
     3de:	00160203          	lb	tp,1(a2)
     3e2:	4500                	lw	s0,8(a0)
     3e4:	0009                	c.nop	2
     3e6:	1100                	addi	s0,sp,160
     3e8:	0100                	addi	s0,sp,128
     3ea:	0000                	unimp
     3ec:	00161b0b          	0x161b0b
	while( ((int32_t)( SysTick->CNT - targend )) < 0 );
     3f0:	0300                	addi	s0,sp,384
     3f2:	b091                	j	fffffc36 <__global_pointer$+0xdffff306>
     3f4:	0b7f                	0xb7f
     3f6:	00001627          	0x1627
		int temp=LEDs[0].brightness;
     3fa:	9102                	jalr	sp
     3fc:	0b48                	addi	a0,sp,404
		for(int i=1; i<12; i++){
     3fe:	1634                	addi	a3,sp,808
     400:	0000                	unimp
		int temp=LEDs[0].brightness;
     402:	7fab9103          	lh	sp,2042(s7)
			LEDs[i-1].brightness=LEDs[i].brightness;
     406:	4005                	c.li	zero,1
     408:	0016                	c.slli	zero,0x5
     40a:	eb00                	fsw	fs0,16(a4)
     40c:	0009                	c.nop	2
     40e:	1900                	addi	s0,sp,176
     410:	0000164b          	fnmsub.s	fa2,ft0,ft0,ft0,rtz
     414:	0000                	unimp
     416:	0000                	unimp
     418:	540a                	lw	s0,160(sp)
     41a:	0016                	c.slli	zero,0x5
     41c:	0800                	addi	s0,sp,16
     41e:	0001                	nop
		for(int i=1; i<12; i++){
     420:	0500                	addi	s0,sp,640
     422:	1655                	addi	a2,a2,-11
     424:	0000                	unimp
		LEDs[11].brightness=temp;
     426:	0a3e                	slli	s4,s4,0xf
     428:	0000                	unimp
	while(1){
     42a:	6208                	flw	fa0,0(a2)
	asm volatile( "\n\
     42c:	0016                	c.slli	zero,0x5
     42e:	4000                	lw	s0,0(s0)
     430:	0001                	nop
     432:	3400                	fld	fs0,40(s0)
     434:	0006                	c.slli	zero,0x1
     436:	0500                	addi	s0,sp,640
     438:	00001663          	bnez	zero,444 <handle_reset+0x18>
     43c:	0ac1                	addi	s5,s5,16
     43e:	0000                	unimp
     440:	7005                	c.lui	zero,0xfffe1
     442:	0016                	c.slli	zero,0x5
     444:	f900                	fsw	fs0,48(a0)
     446:	000a                	c.slli	zero,0x2
     448:	0500                	addi	s0,sp,640
     44a:	167d                	addi	a2,a2,-1
     44c:	0000                	unimp
     44e:	0b49                	addi	s6,s6,18
     450:	0000                	unimp
     452:	0016880b          	0x16880b
asm volatile(
     456:	0100                	addi	s0,sp,128
     458:	0e5f 17ca 0000      	0x17ca0e5f
	...
     466:	3601                	jal	ffffff66 <__global_pointer$+0xdffff636>
     468:	0d02                	c.slli64	s10
     46a:	04b8                	addi	a4,sp,584
     46c:	0000                	unimp
     46e:	00180f03          	lb	t5,1(a6)
     472:	ac00                	fsd	fs0,24(s0)
     474:	0300000b          	0x300000b
     478:	1802                	slli	a6,a6,0x20
     47a:	0000                	unimp
     47c:	0bcc                	addi	a1,sp,468
     47e:	0000                	unimp
     480:	0017f503          	0x17f503
     484:	ea00                	fsw	fs0,16(a2)
     486:	0300000b          	0x300000b
     48a:	17e8                	addi	a0,sp,1004
     48c:	0000                	unimp
     48e:	0bfe                	slli	s7,s7,0x1f
     490:	0000                	unimp
     492:	0017db03          	lhu	s6,1(a5)
	SETUP_SYSTICK_HCLK
     496:	1200                	addi	s0,sp,288
     498:	000c                	0xc
     49a:	0500                	addi	s0,sp,640
     49c:	181c                	addi	a5,sp,48
asm volatile(
     49e:	0000                	unimp
     4a0:	0bac                	addi	a1,sp,472
     4a2:	0000                	unimp
     4a4:	2905                	jal	8d4 <_data_lma+0x164>
     4a6:	0018                	0x18
     4a8:	ea00                	fsw	fs0,16(a2)
	asm volatile( "1: j 1b" );
     4aa:	1700000b          	0x1700000b
{
     4ae:	1836                	slli	a6,a6,0x2d
     4b0:	0000                	unimp
     4b2:	00184117          	auipc	sp,0x184
	SysTick->CMP += (SYSTEM_CORE_CLOCK/8/SYSTICKHZ); //by default, Systick runs at 48/8=6MHz
     4b6:	0000                	unimp
{
     4b8:	ca10                	sw	a2,16(a2)
     4ba:	00000017          	auipc	zero,0x0
	SysTick->CMP += (SYSTEM_CORE_CLOCK/8/SYSTICKHZ); //by default, Systick runs at 48/8=6MHz
     4be:	0000                	unimp
{
     4c0:	7000                	flw	fs0,32(s0)
     4c2:	0001                	nop
	SysTick->CMP += (SYSTEM_CORE_CLOCK/8/SYSTICKHZ); //by default, Systick runs at 48/8=6MHz
     4c4:	0100                	addi	s0,sp,128
     4c6:	2d0e023b          	0x2d0e023b
     4ca:	0005                	c.nop	1
{
     4cc:	0300                	addi	s0,sp,384
     4ce:	0000180f          	0x180f
     4d2:	0c26                	slli	s8,s8,0x9
     4d4:	0000                	unimp
     4d6:	00180203          	lb	tp,1(a6)
     4da:	4600                	lw	s0,8(a2)
     4dc:	000c                	0xc
     4de:	0300                	addi	s0,sp,384
     4e0:	17f5                	addi	a5,a5,-3
     4e2:	0000                	unimp
     4e4:	0c46                	slli	s8,s8,0x11
     4e6:	0000                	unimp
     4e8:	0017e803          	0x17e803
	SysTick->CMP += (SYSTEM_CORE_CLOCK/8/SYSTICKHZ); //by default, Systick runs at 48/8=6MHz
     4ec:	5a00                	lw	s0,48(a2)
     4ee:	000c                	0xc
     4f0:	1500                	addi	s0,sp,672
     4f2:	000017db          	0x17db
	SysTick->SR = 0;
     4f6:	7011                	c.lui	zero,0xfffe4
        timer->CCER &= ~channel;        //disable this channel output
     4f8:	0001                	nop
     4fa:	0500                	addi	s0,sp,640
     4fc:	181c                	addi	a5,sp,48
     4fe:	0000                	unimp
        port->BSHR = (1<<(pin));                //set GPIO 'high'
     500:	0c26                	slli	s8,s8,0x9
     502:	0000                	unimp
        timer->CCER &= ~channel;        //disable this channel output
     504:	2905                	jal	934 <_data_lma+0x1c4>
     506:	0018                	0x18
     508:	4600                	lw	s0,8(a2)
     50a:	000c                	0xc
     50c:	1700                	addi	s0,sp,928
     50e:	1836                	slli	a6,a6,0x2d
     510:	0000                	unimp
     512:	00184117          	auipc	sp,0x184
     516:	0600                	addi	s0,sp,768
     518:	0000                	unimp
     51a:	0000                	unimp
     51c:	00e0                	addi	s0,sp,76
     51e:	0000                	unimp
        port->CFGLR &= ~(0xf<<(4*pin)); //clear GPIO config - this appears to be necessary. 
     520:	015b0107          	0x15b0107
     524:	073a                	slli	a4,a4,0xe
     526:	5c01                	li	s8,-32
        timer->CCER &= ~channel;        //disable this channel output
     528:	3001                	jal	fffffd28 <__global_pointer$+0xdffff3f8>
     52a:	0000                	unimp
     52c:	0e00                	addi	s0,sp,784
     52e:	17ca                	slli	a5,a5,0x32
	...
        port->CFGLR |= (GPIO_Speed_10MHz | GPIO_CNF_OUT_PP)<<(4*pin); //Sets output mode to GPIO, PP
     538:	0000                	unimp
     53a:	3901                	jal	14a <main+0x86>
     53c:	0e02                	c.slli64	t3
     53e:	058c                	addi	a1,sp,704
     540:	0000                	unimp
     542:	00180f03          	lb	t5,1(a6)
        port->BSHR = (1<<(pin));                //set GPIO 'high'
     546:	6e00                	flw	fs0,24(a2)
        timer->CCER &= ~channel;        //disable this channel output
     548:	000c                	0xc
     54a:	0300                	addi	s0,sp,384
     54c:	1802                	slli	a6,a6,0x20
     54e:	0000                	unimp
     550:	0c8e                	slli	s9,s9,0x3
     552:	0000                	unimp
     554:	0017f503          	0x17f503
     558:	a200                	fsd	fs0,0(a2)
     55a:	000c                	0xc
        port->CFGLR &= ~(0xf<<(4*pin)); //clear GPIO config - this appears to be necessary. 
     55c:	0300                	addi	s0,sp,384
     55e:	17e8                	addi	a0,sp,1004
     560:	0000                	unimp
     562:	0cb6                	slli	s9,s9,0xd
     564:	0000                	unimp
     566:	0017db03          	lhu	s6,1(a5)
        port->CFGLR |= (GPIO_Speed_10MHz | GPIO_CNF_OUT_PP)<<(4*pin); //Sets output mode to GPIO, PP
     56a:	ca00                	sw	s0,16(a2)
     56c:	000c                	0xc
     56e:	0500                	addi	s0,sp,640
     570:	181c                	addi	a5,sp,48
     572:	0000                	unimp
        port->BSHR = (1<<(pin));                //set GPIO 'high'
     574:	0c6e                	slli	s8,s8,0x1b
     576:	0000                	unimp
        timer->CCER &= ~channel;        //disable this channel output
     578:	2905                	jal	9a8 <_data_lma+0x238>
     57a:	0018                	0x18
     57c:	a200                	fsd	fs0,0(a2)
     57e:	000c                	0xc
     580:	1700                	addi	s0,sp,928
     582:	1836                	slli	a6,a6,0x2d
     584:	0000                	unimp
     586:	00184117          	auipc	sp,0x184
     58a:	0000                	unimp
     58c:	ca10                	sw	a2,16(a2)
     58e:	00000017          	auipc	zero,0x0
     592:	0000                	unimp
        port->CFGLR &= ~(0xf<<(4*pin)); //clear GPIO config - this appears to be necessary. 
     594:	8800                	0x8800
     596:	0001                	nop
     598:	0100                	addi	s0,sp,128
     59a:	0b0d0247          	fmsub.d	ft4,fs10,fa6,ft1,rne
        port->BSHR = (1<<(pin));                //set GPIO 'high'
     59e:	0006                	c.slli	zero,0x1
        port->CFGLR &= ~(0xf<<(4*pin)); //clear GPIO config - this appears to be necessary. 
     5a0:	0300                	addi	s0,sp,384
     5a2:	0000180f          	0x180f
     5a6:	0cde                	slli	s9,s9,0x17
        port->CFGLR |= (GPIO_Speed_10MHz | GPIO_CNF_OUT_PP)<<(4*pin); //Sets output mode to GPIO, PP
     5a8:	0000                	unimp
     5aa:	00180203          	lb	tp,1(a6)
     5ae:	0b00                	addi	s0,sp,400
     5b0:	000d                	c.nop	3
     5b2:	0300                	addi	s0,sp,384
        port->BSHR = (1<<(pin));                //set GPIO 'high'
     5b4:	17f5                	addi	a5,a5,-3
     5b6:	0000                	unimp
        timer->CCER &= ~channel;        //disable this channel output
     5b8:	0d1f 0000 e803      	0xe80300000d1f
     5be:	53000017          	auipc	zero,0x53000
     5c2:	000d                	c.nop	3
     5c4:	0300                	addi	s0,sp,384
     5c6:	000017db          	0x17db
     5ca:	00000d67          	jalr	s10,zero # 0 <InterruptVector>
     5ce:	8811                	andi	s0,s0,4
     5d0:	0001                	nop
     5d2:	0500                	addi	s0,sp,640
        port->CFGLR &= ~(0xf<<(4*pin)); //clear GPIO config - this appears to be necessary. 
     5d4:	181c                	addi	a5,sp,48
     5d6:	0000                	unimp
     5d8:	0d7a                	slli	s10,s10,0x1e
     5da:	0000                	unimp
     5dc:	2905                	jal	a0c <_data_lma+0x29c>
     5de:	0018                	0x18
     5e0:	a700                	fsd	fs0,8(a4)
     5e2:	000d                	c.nop	3
     5e4:	1700                	addi	s0,sp,928
     5e6:	1836                	slli	a6,a6,0x2d
        port->CFGLR |= (GPIO_Speed_10MHz | GPIO_CNF_OUT_PP)<<(4*pin); //Sets output mode to GPIO, PP
     5e8:	0000                	unimp
     5ea:	00184117          	auipc	sp,0x184
     5ee:	0600                	addi	s0,sp,768
     5f0:	0000                	unimp
     5f2:	0000                	unimp
     5f4:	00e0                	addi	s0,sp,76
     5f6:	0000                	unimp
        port->BSHR = (1<<(pin));                //set GPIO 'high'
     5f8:	015b0107          	0x15b0107
     5fc:	0740                	addi	s0,sp,900
     5fe:	5d01                	li	s10,-32
	if(++currentgroup > 4) currentgroup=0;
     600:	3101                	jal	200 <main+0x13c>
     602:	025e0107          	0x25e0107
     606:	4891                	li	a7,4
     608:	0000                	unimp
     60a:	1a00                	addi	s0,sp,304
     60c:	0000                	unimp
     60e:	0000                	unimp
     610:	036a                	slli	t1,t1,0x1a
     612:	0000                	unimp
     614:	0621                	addi	a2,a2,8
     616:	0000                	unimp
     618:	045a0107          	0x45a0107
		pwm_setpw(	LEDs[group[currentgroup][i]].timer,
     61c:	a091                	j	660 <SysTick_Handler+0x1b4>
     61e:	067f                	0x67f
     620:	0900                	addi	s0,sp,144
     622:	0000                	unimp
     624:	0000                	unimp
     626:	006d                	c.nop	27
     628:	0000                	unimp
     62a:	0009                	c.nop	2
     62c:	0000                	unimp
     62e:	f000                	fsw	fs0,32(s0)
     630:	0002                	c.slli64	zero
     632:	0000                	unimp
     634:	0006                	c.slli	zero,0x1
     636:	0000                	unimp
    	switch( chl )
     638:	f000                	fsw	fs0,32(s0)
     63a:	0002                	c.slli64	zero
     63c:	0700                	addi	s0,sp,896
     63e:	5a01                	li	s4,-32
     640:	7fab9103          	lh	sp,2042(s7)
     644:	015b0107          	0x15b0107
	for(int i=0;i<3;i++){
     648:	0731                	addi	a4,a4,12
     64a:	5c01                	li	s8,-32
		pwm_setpw(	LEDs[group[currentgroup][i]].timer,
     64c:	3001                	jal	fffffe4c <__global_pointer$+0xdffff51c>
     64e:	0000                	unimp
     650:	0000                	unimp
     652:	0200                	addi	s0,sp,256
     654:	1cd1                	addi	s9,s9,-12
	...
     65e:	0000                	unimp
     660:	9c01                	0x9c01
     662:	00000687          	0x687
				LEDs[group[currentgroup][i]].brightness
     666:	e104                	fsw	fs1,0(a0)
		pwm_setpw(	LEDs[group[currentgroup][i]].timer,
     668:	001c                	0x1c
     66a:	0100                	addi	s0,sp,128
     66c:	045a                	slli	s0,s0,0x16
     66e:	1ced                	addi	s9,s9,-5
				LEDs[group[currentgroup][i]].brightness
     670:	0000                	unimp
     672:	5b01                	li	s6,-32
    	switch( chl )
     674:	001cf703          	0x1cf703
     678:	bb00                	fsd	fs0,48(a4)
     67a:	000d                	c.nop	3
     67c:	0500                	addi	s0,sp,640
     67e:	1d01                	addi	s10,s10,-32
     680:	0000                	unimp
     682:	0e19                	addi	t3,t3,6
	for(int i=0;i<3;i++){
     684:	0000                	unimp
     686:	0200                	addi	s0,sp,256
     688:	1cac                	addi	a1,sp,632
	...
        port->CFGLR &= ~(0xf<<(4*pin)); //clear GPIO config - this appears to be necessary. 
     692:	0000                	unimp
        port->CFGLR |= (GPIO_Speed_10MHz | GPIO_CNF_OUT_OD_AF)<<(4*pin);//Sets mode to OD_AF
     694:	9c01                	0x9c01
     696:	06ad                	addi	a3,a3,11
		GPIO_PWM(	LEDs[group[currentgroup][i]].port,
     698:	0000                	unimp
     69a:	001cbc03          	0x1cbc03
     69e:	3700                	fld	fs0,40(a4)
	for(int i=0;i<3;i++){
     6a0:	000e                	c.slli	zero,0x3
     6a2:	0300                	addi	s0,sp,384
		GPIO_PWM(	LEDs[group[currentgroup][i]].port,
     6a4:	1cc6                	slli	s9,s9,0x31
     6a6:	0000                	unimp
     6a8:	0e55                	addi	t3,t3,21
     6aa:	0000                	unimp
     6ac:	0200                	addi	s0,sp,256
     6ae:	1c7d                	addi	s8,s8,-1
	...
     6b8:	0000                	unimp
     6ba:	9c01                	0x9c01
     6bc:	06dc                	addi	a5,sp,836
     6be:	0000                	unimp
        port->CFGLR &= ~(0xf<<(4*pin)); //clear GPIO config - this appears to be necessary. 
     6c0:	001c8d03          	lb	s10,1(s9)
     6c4:	7300                	flw	fs0,32(a4)
     6c6:	000e                	c.slli	zero,0x3
     6c8:	0300                	addi	s0,sp,384
     6ca:	00001c97          	auipc	s9,0x1
     6ce:	0e91                	addi	t4,t4,4
     6d0:	0000                	unimp
     6d2:	001ca103          	lw	sp,1(s9) # 16cb <ch32v003fun.c.8affbd33+0x829>
     6d6:	af00                	fsd	fs0,24(a4)
        port->CFGLR |= (GPIO_Speed_10MHz | GPIO_CNF_OUT_OD_AF)<<(4*pin);//Sets mode to OD_AF
     6d8:	000e                	c.slli	zero,0x3
     6da:	0000                	unimp
     6dc:	5802                	lw	a6,32(sp)
     6de:	001c                	0x1c
	...
        timer->CCER |= channel;         //enable this channel output
     6e8:	0100                	addi	s0,sp,128
     6ea:	029c                	addi	a5,sp,320
     6ec:	03000007          	0x3000007
     6f0:	1c68                	addi	a0,sp,572
     6f2:	0000                	unimp
     6f4:	0ee0                	addi	s0,sp,860
     6f6:	0000                	unimp
     6f8:	001c7203          	0x1c7203
	for(int i=0;i<3;i++){
     6fc:	fe00                	fsw	fs0,56(a2)
     6fe:	000e                	c.slli	zero,0x3
     700:	0000                	unimp
     702:	1302                	slli	t1,t1,0x20
}
     704:	001c                	0x1c
	...
     70e:	0100                	addi	s0,sp,128
     710:	419c                	lw	a5,0(a1)
     712:	03000007          	0x3000007
     716:	00001c23          	sh	zero,24(zero) # 18 <InterruptVector+0x18>
     71a:	0f1c                	addi	a5,sp,912
     71c:	0000                	unimp
     71e:	2e04                	fld	fs1,24(a2)
     720:	001c                	0x1c
     722:	0100                	addi	s0,sp,128
     724:	1c39035b          	0x1c39035b
     728:	0000                	unimp
     72a:	0f56                	slli	t5,t5,0x15
     72c:	0000                	unimp
     72e:	4305                	li	t1,1
     730:	001c                	0x1c
     732:	b000                	fsd	fs0,32(s0)
     734:	0500000f          	fence	ow,unknown
	if(++currentgroup > 4) currentgroup=0;
     738:	1c4d                	addi	s8,s8,-13
     73a:	0000                	unimp
     73c:	1019                	c.nop	-26
     73e:	0000                	unimp
    	switch( chl )
     740:	0200                	addi	s0,sp,256
     742:	1a30                	addi	a2,sp,312
	...
	    	case TIM_CC1E: timer->CH1CVR = width; break;
     74c:	0000                	unimp
     74e:	9c01                	0x9c01
     750:	00000797          	auipc	a5,0x0
	    	case TIM_CC2E: timer->CH2CVR = width; break;
     754:	001a4103          	lbu	sp,1(s4)
     758:	7400                	flw	fs0,40(s0)
     75a:	0010                	0x10
	    	case TIM_CC3E: timer->CH3CVR = width; break;
     75c:	0300                	addi	s0,sp,384
     75e:	1a4c                	addi	a1,sp,308
     760:	0000                	unimp
     762:	109d                	addi	ra,ra,-25
     764:	0000                	unimp
     766:	001a301b          	0x1a301b
	...
     772:	0100                	addi	s0,sp,128
     774:	1507011b          	0x1507011b
     778:	1a4c                	addi	a1,sp,308
     77a:	0000                	unimp
     77c:	001a4103          	lbu	sp,1(s4)
     780:	e500                	fsw	fs0,8(a0)
     782:	0010                	0x10
     784:	0600                	addi	s0,sp,768
     786:	0000                	unimp
     788:	0000                	unimp
     78a:	036a                	slli	t1,t1,0x1a
     78c:	0000                	unimp
     78e:	025a0107          	0x25a0107
     792:	0078                	addi	a4,sp,12
     794:	0000                	unimp
     796:	0200                	addi	s0,sp,256
     798:	19ca                	slli	s3,s3,0x32
	...
     7a2:	0000                	unimp
     7a4:	9c01                	0x9c01
     7a6:	080d                	addi	a6,a6,3
     7a8:	0000                	unimp
     7aa:	0019db03          	lhu	s6,1(s3)
     7ae:	0300                	addi	s0,sp,384
     7b0:	0011                	c.nop	4
     7b2:	0300                	addi	s0,sp,384
     7b4:	19e6                	slli	s3,s3,0x39
     7b6:	0000                	unimp
     7b8:	113c                	addi	a5,sp,168
     7ba:	0000                	unimp
     7bc:	f20e                	fsw	ft3,36(sp)
     7be:	0019                	c.nop	6
	...
     7c8:	0100                	addi	s0,sp,128
     7ca:	012e                	slli	sp,sp,0xb
     7cc:	fc09                	bnez	s0,6e6 <SysTick_Handler+0x23a>
     7ce:	03000007          	0x3000007
     7d2:	1a19                	addi	s4,s4,-26
     7d4:	0000                	unimp
     7d6:	1168                	addi	a0,sp,172
     7d8:	0000                	unimp
     7da:	001a0e03          	lb	t3,1(s4)
     7de:	b000                	fsd	fs0,32(s0)
     7e0:	0011                	c.nop	4
     7e2:	0300                	addi	s0,sp,384
     7e4:	00001a03          	lh	s4,0(zero) # 0 <InterruptVector>
     7e8:	11ce                	slli	gp,gp,0x33
     7ea:	0000                	unimp
     7ec:	a811                	j	800 <_data_lma+0x90>
     7ee:	0001                	nop
     7f0:	0500                	addi	s0,sp,640
     7f2:	1a24                	addi	s1,sp,312
     7f4:	0000                	unimp
     7f6:	000011fb          	0x11fb
     7fa:	0000                	unimp
     7fc:	0006                	c.slli	zero,0x1
     7fe:	0000                	unimp
     800:	6a00                	flw	fs0,16(a2)
     802:	07000003          	lb	zero,112(zero) # 70 <InterruptVector+0x70>
     806:	5a01                	li	s4,-32
     808:	7802                	flw	fa6,32(sp)
     80a:	0000                	unimp
     80c:	0200                	addi	s0,sp,256
     80e:	197d                	addi	s2,s2,-1
	...
     818:	0000                	unimp
     81a:	9c01                	0x9c01
     81c:	084a                	slli	a6,a6,0x12
     81e:	0000                	unimp
     820:	8e04                	0x8e04
     822:	0019                	c.nop	6
     824:	0100                	addi	s0,sp,128
     826:	045a                	slli	s0,s0,0x16
     828:	0000199b          	0x199b
     82c:	5b01                	li	s6,-32
     82e:	0019a803          	lw	a6,1(s3)
     832:	2900                	fld	fs0,16(a0)
     834:	0012                	c.slli	zero,0x4
     836:	0500                	addi	s0,sp,640
     838:	000019b3          	sll	s3,zero,zero
     83c:	125e                	slli	tp,tp,0x37
     83e:	0000                	unimp
     840:	be05                	j	370 <main+0x2ac>
     842:	0019                	c.nop	6
     844:	a300                	fsd	fs0,0(a4)
     846:	0012                	c.slli	zero,0x4
     848:	0000                	unimp
     84a:	3202                	fld	ft4,32(sp)
     84c:	0019                	c.nop	6
	...
     856:	0100                	addi	s0,sp,128
     858:	899c                	0x899c
     85a:	0008                	0x8
     85c:	0300                	addi	s0,sp,384
     85e:	00001943          	fmadd.s	fs2,ft0,ft0,ft0,rtz
     862:	12e8                	addi	a0,sp,364
     864:	0000                	unimp
     866:	4f04                	lw	s1,24(a4)
     868:	0019                	c.nop	6
     86a:	0100                	addi	s0,sp,128
     86c:	195b035b          	0x195b035b
     870:	0000                	unimp
     872:	1322                	slli	t1,t1,0x28
     874:	0000                	unimp
     876:	6605                	lui	a2,0x1
     878:	0019                	c.nop	6
     87a:	6700                	flw	fs0,8(a4)
     87c:	05000013          	li	zero,80
     880:	1971                	addi	s2,s2,-4
     882:	0000                	unimp
     884:	000013db          	0x13db
     888:	0200                	addi	s0,sp,256
     88a:	18e5                	addi	a7,a7,-7
	...
     894:	0000                	unimp
     896:	9c01                	0x9c01
     898:	0932                	slli	s2,s2,0xc
     89a:	0000                	unimp
     89c:	0018f603          	0x18f603
     8a0:	2000                	fld	fs0,0(s0)
     8a2:	0014                	0x14
     8a4:	0300                	addi	s0,sp,384
     8a6:	00001903          	lh	s2,0(zero) # 0 <InterruptVector>
     8aa:	1462                	slli	s0,s0,0x38
     8ac:	0000                	unimp
     8ae:	00191003          	lh	zero,1(s2)
     8b2:	b200                	fsd	fs0,32(a2)
     8b4:	0014                	0x14
     8b6:	0500                	addi	s0,sp,640
     8b8:	0000191b          	0x191b
     8bc:	0000151b          	0x151b
     8c0:	2605                	jal	be0 <_data_lma+0x470>
     8c2:	0019                	c.nop	6
     8c4:	5d00                	lw	s0,56(a0)
     8c6:	0015                	c.nop	5
     8c8:	1000                	addi	s0,sp,32
     8ca:	18e5                	addi	a7,a7,-7
     8cc:	0000                	unimp
     8ce:	0000                	unimp
     8d0:	0000                	unimp
     8d2:	01c0                	addi	s0,sp,196
     8d4:	0000                	unimp
     8d6:	4101                	li	sp,0
     8d8:	0701                	addi	a4,a4,0
     8da:	0912                	slli	s2,s2,0x4
     8dc:	0000                	unimp
     8de:	00191003          	lh	zero,1(s2)
     8e2:	ad00                	fsd	fs0,24(a0)
     8e4:	0015                	c.nop	5
     8e6:	0300                	addi	s0,sp,384
     8e8:	00001903          	lh	s2,0(zero) # 0 <InterruptVector>
     8ec:	00001613          	slli	a2,zero,0x0
     8f0:	0018f603          	0x18f603
     8f4:	3c00                	fld	fs0,56(s0)
     8f6:	0016                	c.slli	zero,0x5
     8f8:	1100                	addi	s0,sp,160
     8fa:	01c0                	addi	s0,sp,196
     8fc:	0000                	unimp
     8fe:	1b05                	addi	s6,s6,-31
     900:	0019                	c.nop	6
     902:	6500                	flw	fs0,8(a0)
     904:	0016                	c.slli	zero,0x5
     906:	0500                	addi	s0,sp,640
     908:	1926                	slli	s2,s2,0x29
     90a:	0000                	unimp
     90c:	0000168f          	0x168f
     910:	0000                	unimp
     912:	001c                	0x1c
     914:	0000                	unimp
     916:	9600                	0x9600
     918:	000e                	c.slli	zero,0x3
     91a:	0700                	addi	s0,sp,896
     91c:	5a01                	li	s4,-32
     91e:	5a01f303          	0x5a01f303
     922:	035b0107          	0x35b0107
     926:	075b01f3          	0x75b01f3
     92a:	5c01                	li	s8,-32
     92c:	5c01f303          	0x5c01f303
     930:	0000                	unimp
     932:	9802                	jalr	a6
     934:	0018                	0x18
	...
     93e:	0100                	addi	s0,sp,128
     940:	6a9c                	flw	fa5,16(a3)
     942:	0009                	c.nop	2
     944:	0300                	addi	s0,sp,384
     946:	18a9                	addi	a7,a7,-22
     948:	0000                	unimp
     94a:	16b9                	addi	a3,a3,-18
     94c:	0000                	unimp
     94e:	0018b603          	0x18b603
     952:	da00                	sw	s0,48(a2)
     954:	0016                	c.slli	zero,0x5
     956:	0300                	addi	s0,sp,384
     958:	18c1                	addi	a7,a7,-16
     95a:	0000                	unimp
     95c:	16f8                	addi	a4,sp,876
     95e:	0000                	unimp
     960:	cc05                	beqz	s0,998 <_data_lma+0x228>
     962:	0018                	0x18
     964:	1900                	addi	s0,sp,176
     966:	00000017          	auipc	zero,0x0
     96a:	0c02                	c.slli64	s8
     96c:	001d                	c.nop	7
	...
     976:	0100                	addi	s0,sp,128
     978:	b49c                	fsd	fa5,40(s1)
     97a:	0009                	c.nop	2
     97c:	0300                	addi	s0,sp,384
     97e:	1d1c                	addi	a5,sp,688
     980:	0000                	unimp
     982:	172c                	addi	a1,sp,936
     984:	0000                	unimp
     986:	001d2603          	lw	a2,1(s10)
     98a:	5800                	lw	s0,48(s0)
     98c:	05000017          	auipc	zero,0x5000
     990:	1d30                	addi	a2,sp,696
     992:	0000                	unimp
     994:	1784                	addi	s1,sp,992
     996:	0000                	unimp
     998:	0006                	c.slli	zero,0x1
     99a:	0000                	unimp
     99c:	3200                	fld	fs0,32(a2)
     99e:	0009                	c.nop	2
     9a0:	0700                	addi	s0,sp,896
     9a2:	5a01                	li	s4,-32
     9a4:	7902                	flw	fs2,32(sp)
     9a6:	0700                	addi	s0,sp,896
     9a8:	5b01                	li	s6,-32
     9aa:	3001                	jal	1aa <main+0xe6>
     9ac:	025c0107          	0x25c0107
     9b0:	0078                	addi	a4,sp,12
     9b2:	0000                	unimp
     9b4:	8002                	0x8002
     9b6:	001a                	c.slli	zero,0x6
	...
     9c0:	0100                	addi	s0,sp,128
     9c2:	c79c                	sw	a5,8(a5)
     9c4:	000a                	c.slli	zero,0x2
     9c6:	0300                	addi	s0,sp,384
     9c8:	1a90                	addi	a2,sp,368
     9ca:	0000                	unimp
     9cc:	00001797          	auipc	a5,0x1
     9d0:	001a9a03          	lh	s4,1(s5)
     9d4:	0b00                	addi	s0,sp,400
     9d6:	0018                	0x18
     9d8:	0500                	addi	s0,sp,640
     9da:	1aa4                	addi	s1,sp,376
     9dc:	0000                	unimp
     9de:	186c                	addi	a1,sp,60
     9e0:	0000                	unimp
     9e2:	ae05                	j	d12 <_data_lma+0x5a2>
     9e4:	001a                	c.slli	zero,0x6
     9e6:	ad00                	fsd	fs0,24(a0)
     9e8:	0018                	0x18
     9ea:	0500                	addi	s0,sp,640
     9ec:	1ab8                	addi	a4,sp,376
     9ee:	0000                	unimp
     9f0:	000018ef          	jal	a7,19f0 <ch32v003fun.c.8affbd33+0xb4e>
     9f4:	c305                	beqz	a4,a14 <_data_lma+0x2a4>
     9f6:	001a                	c.slli	zero,0x6
     9f8:	4600                	lw	s0,8(a2)
     9fa:	0019                	c.nop	6
     9fc:	0500                	addi	s0,sp,640
     9fe:	1ace                	slli	s5,s5,0x33
     a00:	0000                	unimp
     a02:	19bc                	addi	a5,sp,248
     a04:	0000                	unimp
     a06:	d805                	beqz	s0,936 <_data_lma+0x1c6>
     a08:	001a                	c.slli	zero,0x6
     a0a:	9800                	0x9800
     a0c:	001a                	c.slli	zero,0x6
     a0e:	0500                	addi	s0,sp,640
     a10:	1ae2                	slli	s5,s5,0x38
     a12:	0000                	unimp
     a14:	1b61                	addi	s6,s6,-8
     a16:	0000                	unimp
     a18:	001aed17          	auipc	s10,0x1ae
     a1c:	0500                	addi	s0,sp,640
     a1e:	1af8                	addi	a4,sp,380
     a20:	0000                	unimp
     a22:	00001baf          	0x1baf
     a26:	0405                	addi	s0,s0,1
     a28:	2b00001b          	0x2b00001b
     a2c:	001c                	0x1c
     a2e:	0b00                	addi	s0,sp,400
     a30:	1b10                	addi	a2,sp,432
     a32:	0000                	unimp
     a34:	77d49103          	lh	sp,1917(s1)
     a38:	001b1c0b          	0x1b1c0b
     a3c:	0300                	addi	s0,sp,384
     a3e:	f491                	bnez	s1,94a <_data_lma+0x1da>
     a40:	1b280877          	0x1b280877
     a44:	0000                	unimp
     a46:	01d8                	addi	a4,sp,196
     a48:	0000                	unimp
     a4a:	0a80                	addi	s0,sp,336
     a4c:	0000                	unimp
     a4e:	2905                	jal	e7e <_data_lma+0x70e>
     a50:	3f00001b          	0x3f00001b
     a54:	001c                	0x1c
     a56:	0500                	addi	s0,sp,640
     a58:	1b35                	addi	s6,s6,-19
     a5a:	0000                	unimp
     a5c:	1c6c                	addi	a1,sp,572
     a5e:	0000                	unimp
     a60:	0006                	c.slli	zero,0x1
     a62:	0000                	unimp
     a64:	3200                	fld	fs0,32(a2)
     a66:	0009                	c.nop	2
     a68:	0700                	addi	s0,sp,896
     a6a:	5a01                	li	s4,-32
     a6c:	9104                	0x9104
     a6e:	77c0                	flw	fs0,44(a5)
     a70:	0706                	slli	a4,a4,0x1
     a72:	5b01                	li	s6,-32
     a74:	3001                	jal	274 <main+0x1b0>
     a76:	045c0107          	0x45c0107
     a7a:	bc91                	j	4ce <SysTick_Handler+0x22>
     a7c:	00000677          	0x677
     a80:	001a                	c.slli	zero,0x6
     a82:	0000                	unimp
     a84:	7000                	flw	fs0,32(s0)
     a86:	000e                	c.slli	zero,0x3
     a88:	a000                	fsd	fs0,0(s0)
     a8a:	000a                	c.slli	zero,0x2
     a8c:	0700                	addi	s0,sp,896
     a8e:	5a01                	li	s4,-32
     a90:	77d49103          	lh	sp,1917(s1)
     a94:	015b0107          	0x15b0107
     a98:	0730                	addi	a2,sp,904
     a9a:	5c01                	li	s8,-32
     a9c:	0802                	c.slli64	a6
     a9e:	0020                	addi	s0,sp,8
     aa0:	0006                	c.slli	zero,0x1
     aa2:	0000                	unimp
     aa4:	4a00                	lw	s0,16(a2)
     aa6:	0008                	0x8
     aa8:	0700                	addi	s0,sp,896
     aaa:	5a01                	li	s4,-32
     aac:	9104                	0x9104
     aae:	77bc                	flw	fa5,104(a5)
     ab0:	0706                	slli	a4,a4,0x1
     ab2:	5b01                	li	s6,-32
     ab4:	9109                	srli	a0,a0,0x22
     ab6:	77bc                	flw	fa5,104(a5)
     ab8:	9106                	add	sp,sp,ra
     aba:	77b8                	flw	fa4,104(a5)
     abc:	2206                	fld	ft4,64(sp)
     abe:	035c0107          	0x35c0107
     ac2:	0072                	c.slli	zero,0x1c
     ac4:	0006                	c.slli	zero,0x1
     ac6:	0200                	addi	s0,sp,256
     ac8:	1a58                	addi	a4,sp,308
	...
     ad2:	0000                	unimp
     ad4:	9c01                	0x9c01
     ad6:	0bcd                	addi	s7,s7,19
     ad8:	0000                	unimp
     ada:	001a6903          	0x1a6903
     ade:	8a00                	0x8a00
     ae0:	001c                	0x1c
     ae2:	0300                	addi	s0,sp,384
     ae4:	1a74                	addi	a3,sp,316
     ae6:	0000                	unimp
     ae8:	1cc1                	addi	s9,s9,-16
     aea:	0000                	unimp
     aec:	d80e                	sw	gp,48(sp)
     aee:	0000001b          	0x1b
     af2:	0000                	unimp
     af4:	0000                	unimp
     af6:	0000                	unimp
     af8:	0100                	addi	s0,sp,128
     afa:	0112                	slli	sp,sp,0x4
     afc:	2614                	fld	fa3,8(a2)
     afe:	0300000b          	0x300000b
     b02:	1bf2                	slli	s7,s7,0x3c
     b04:	0000                	unimp
     b06:	1d11                	addi	s10,s10,-28
     b08:	0000                	unimp
     b0a:	001be803          	0x1be803
     b0e:	2400                	fld	fs0,8(s0)
     b10:	001d                	c.nop	7
     b12:	0500                	addi	s0,sp,640
     b14:	1bfc                	addi	a5,sp,508
     b16:	0000                	unimp
     b18:	1d5a                	slli	s10,s10,0x36
     b1a:	0000                	unimp
     b1c:	0705                	addi	a4,a4,1
     b1e:	001c                	0x1c
     b20:	8500                	0x8500
     b22:	001d                	c.nop	7
     b24:	0000                	unimp
     b26:	9d0e                	add	s10,s10,gp
     b28:	0000001b          	0x1b
     b2c:	0000                	unimp
     b2e:	0000                	unimp
     b30:	0000                	unimp
     b32:	0100                	addi	s0,sp,128
     b34:	0114                	addi	a3,sp,128
     b36:	6014                	flw	fa3,0(s0)
     b38:	0300000b          	0x300000b
     b3c:	00001bb7          	lui	s7,0x1
     b40:	00001da3          	sh	zero,27(zero) # 1b <InterruptVector+0x1b>
     b44:	001bad03          	lw	s10,1(s7) # 1001 <ch32v003fun.c.8affbd33+0x15f>
     b48:	b600                	fsd	fs0,40(a2)
     b4a:	001d                	c.nop	7
     b4c:	0500                	addi	s0,sp,640
     b4e:	1bc1                	addi	s7,s7,-16
     b50:	0000                	unimp
     b52:	1dec                	addi	a1,sp,764
     b54:	0000                	unimp
     b56:	cc05                	beqz	s0,b8e <_data_lma+0x41e>
     b58:	ff00001b          	0xff00001b
     b5c:	001d                	c.nop	7
     b5e:	0000                	unimp
     b60:	6210                	flw	fa2,0(a2)
     b62:	0000001b          	0x1b
     b66:	0000                	unimp
     b68:	0000                	unimp
     b6a:	0002                	c.slli64	zero
     b6c:	0100                	addi	s0,sp,128
     b6e:	0116                	slli	sp,sp,0x5
     b70:	a014                	fsd	fa3,0(s0)
     b72:	0300000b          	0x300000b
     b76:	1b7c                	addi	a5,sp,444
     b78:	0000                	unimp
     b7a:	1e1d                	addi	t3,t3,-25
     b7c:	0000                	unimp
     b7e:	001b7203          	0x1b7203
     b82:	3b00                	fld	fs0,48(a4)
     b84:	001e                	c.slli	zero,0x7
     b86:	1100                	addi	s0,sp,160
     b88:	0200                	addi	s0,sp,256
     b8a:	0000                	unimp
     b8c:	8605                	srai	a2,a2,0x1
     b8e:	6400001b          	0x6400001b
     b92:	001e                	c.slli	zero,0x7
     b94:	0500                	addi	s0,sp,640
     b96:	1b91                	addi	s7,s7,-28
     b98:	0000                	unimp
     b9a:	1e82                	slli	t4,t4,0x20
     b9c:	0000                	unimp
     b9e:	0000                	unimp
     ba0:	001a                	c.slli	zero,0x6
     ba2:	0000                	unimp
     ba4:	4100                	lw	s0,0(a0)
     ba6:	bb000007          	0xbb000007
     baa:	0700000b          	0x700000b
     bae:	5a01                	li	s4,-32
     bb0:	5a01f303          	0x5a01f303
     bb4:	025b0107          	0x25b0107
     bb8:	0079                	c.nop	30
     bba:	1c00                	addi	s0,sp,560
     bbc:	0000                	unimp
     bbe:	0000                	unimp
     bc0:	09b4                	addi	a3,sp,216
     bc2:	0000                	unimp
     bc4:	035b0107          	0x35b0107
     bc8:	005b01f3          	0x5b01f3
     bcc:	0200                	addi	s0,sp,256
     bce:	0000186f          	jal	a6,1bce <ch32v003fun.c.8affbd33+0xd2c>
	...
     bda:	9c01                	0x9c01
     bdc:	00000c47          	fmsub.s	fs8,ft0,ft0,ft0,rne
     be0:	00188003          	lb	zero,1(a7)
     be4:	ab00                	fsd	fs0,16(a4)
     be6:	001e                	c.slli	zero,0x7
     be8:	0500                	addi	s0,sp,640
     bea:	0000188b          	0x188b
     bee:	00001ed7          	0x1ed7
     bf2:	001a                	c.slli	zero,0x6
     bf4:	0000                	unimp
     bf6:	6a00                	flw	fs0,16(a2)
     bf8:	06000003          	lb	zero,96(zero) # 60 <InterruptVector+0x60>
     bfc:	000c                	0xc
     bfe:	0700                	addi	s0,sp,896
     c00:	5a01                	li	s4,-32
     c02:	7902                	flw	fs2,32(sp)
     c04:	0000                	unimp
     c06:	001a                	c.slli	zero,0x6
     c08:	0000                	unimp
     c0a:	7200                	flw	fs0,32(a2)
     c0c:	0002                	c.slli64	zero
     c0e:	2700                	fld	fs0,8(a4)
     c10:	000c                	0xc
     c12:	0700                	addi	s0,sp,896
     c14:	5a01                	li	s4,-32
     c16:	7902                	flw	fs2,32(sp)
     c18:	0700                	addi	s0,sp,896
     c1a:	5b01                	li	s6,-32
     c1c:	7802                	flw	fa6,32(sp)
     c1e:	1300                	addi	s0,sp,416
     c20:	0346                	slli	t1,t1,0x11
     c22:	0000                	unimp
     c24:	3001                	jal	424 <main+0x360>
     c26:	0600                	addi	s0,sp,768
     c28:	0000                	unimp
     c2a:	0000                	unimp
     c2c:	0272                	slli	tp,tp,0x1c
     c2e:	0000                	unimp
     c30:	055a0107          	0x55a0107
     c34:	00000003          	lb	zero,0(zero) # 0 <InterruptVector>
     c38:	0700                	addi	s0,sp,896
     c3a:	5b01                	li	s6,-32
     c3c:	3101                	jal	83c <_data_lma+0xcc>
     c3e:	00034613          	xori	a2,t1,0
     c42:	0100                	addi	s0,sp,128
     c44:	0030                	addi	a2,sp,8
     c46:	1600                	addi	s0,sp,800
     c48:	1509                	addi	a0,a0,-30
     c4a:	0000                	unimp
     c4c:	0000                	unimp
     c4e:	0000                	unimp
     c50:	009c                	addi	a5,sp,64
     c52:	0000                	unimp
     c54:	9c01                	0x9c01
     c56:	f302                	fsw	ft0,164(sp)
     c58:	00000013          	nop
     c5c:	0000                	unimp
     c5e:	0000                	unimp
     c60:	0000                	unimp
     c62:	0100                	addi	s0,sp,128
     c64:	7c9c                	flw	fa5,56(s1)
     c66:	000c                	0xc
     c68:	0300                	addi	s0,sp,384
     c6a:	1404                	addi	s1,sp,544
     c6c:	0000                	unimp
     c6e:	00001ef7          	0x1ef7
     c72:	0f05                	addi	t5,t5,1
     c74:	0014                	0x14
     c76:	3100                	fld	fs0,32(a0)
     c78:	001f 0000 1302      	0x13020000001f
     c7e:	0028                	addi	a0,sp,8
     c80:	ac00                	fsd	fs0,24(s0)
     c82:	0004                	0x4
     c84:	b800                	fsd	fs0,48(s0)
     c86:	0002                	c.slli64	zero
     c88:	0100                	addi	s0,sp,128
     c8a:	189c                	addi	a5,sp,112
     c8c:	000e                	c.slli	zero,0x3
     c8e:	1000                	addi	s0,sp,32
     c90:	28ff                	0x28ff
     c92:	0000                	unimp
     c94:	04f8                	addi	a4,sp,588
     c96:	0000                	unimp
     c98:	0218                	addi	a4,sp,256
     c9a:	0000                	unimp
     c9c:	2e02                	fld	ft8,0(sp)
     c9e:	0201                	addi	tp,tp,0
     ca0:	0cc9                	addi	s9,s9,18
     ca2:	0000                	unimp
     ca4:	00292f03          	lw	t5,2(s2)
     ca8:	6e00                	flw	fs0,24(a2)
     caa:	001f 0300 2923      	0x29230300001f
     cb0:	0000                	unimp
     cb2:	1f82                	slli	t6,t6,0x20
     cb4:	0000                	unimp
     cb6:	00291703          	lh	a4,2(s2)
     cba:	9a00                	0x9a00
     cbc:	001f 0300 290b      	0x290b0300001f
     cc2:	0000                	unimp
     cc4:	1fae                	slli	t6,t6,0x2b
     cc6:	0000                	unimp
     cc8:	1000                	addi	s0,sp,32
     cca:	28ff                	0x28ff
     ccc:	0000                	unimp
     cce:	0504                	addi	s1,sp,640
     cd0:	0000                	unimp
     cd2:	0238                	addi	a4,sp,264
     cd4:	0000                	unimp
     cd6:	2f02                	fld	ft10,0(sp)
     cd8:	0201                	addi	tp,tp,0
     cda:	00000d03          	lb	s10,0(zero) # 0 <InterruptVector>
     cde:	00292f03          	lw	t5,2(s2)
     ce2:	c600                	sw	s0,8(a2)
     ce4:	001f 0300 2923      	0x29230300001f
     cea:	0000                	unimp
     cec:	1fdc                	addi	a5,sp,1012
     cee:	0000                	unimp
     cf0:	00291703          	lh	a4,2(s2)
     cf4:	f200                	fsw	fs0,32(a2)
     cf6:	001f 0300 290b      	0x290b0300001f
     cfc:	0000                	unimp
     cfe:	2006                	fld	ft0,64(sp)
     d00:	0000                	unimp
     d02:	0e00                	addi	s0,sp,784
     d04:	28ff                	0x28ff
     d06:	0000                	unimp
     d08:	0578                	addi	a4,sp,652
     d0a:	0000                	unimp
     d0c:	0040                	addi	s0,sp,4
     d0e:	0000                	unimp
     d10:	3002                	fld	ft0,32(sp)
     d12:	0201                	addi	tp,tp,0
     d14:	0d3d                	addi	s10,s10,15
     d16:	0000                	unimp
     d18:	00292f03          	lw	t5,2(s2)
     d1c:	1e00                	addi	s0,sp,816
     d1e:	0020                	addi	s0,sp,8
     d20:	0300                	addi	s0,sp,384
     d22:	00002923          	sw	zero,18(zero) # 12 <InterruptVector+0x12>
     d26:	2032                	fld	ft0,264(sp)
     d28:	0000                	unimp
     d2a:	00291703          	lh	a4,2(s2)
     d2e:	4800                	lw	s0,16(s0)
     d30:	0020                	addi	s0,sp,8
     d32:	0300                	addi	s0,sp,384
     d34:	0000290b          	0x290b
     d38:	205c                	fld	fa5,128(s0)
     d3a:	0000                	unimp
     d3c:	0e00                	addi	s0,sp,784
     d3e:	28ff                	0x28ff
     d40:	0000                	unimp
     d42:	05b8                	addi	a4,sp,712
     d44:	0000                	unimp
     d46:	0048                	addi	a0,sp,4
     d48:	0000                	unimp
     d4a:	3102                	fld	ft2,32(sp)
     d4c:	0201                	addi	tp,tp,0
     d4e:	00000d77          	0xd77
     d52:	00292f03          	lw	t5,2(s2)
     d56:	7400                	flw	fs0,40(s0)
     d58:	0020                	addi	s0,sp,8
     d5a:	0300                	addi	s0,sp,384
     d5c:	00002923          	sw	zero,18(zero) # 12 <InterruptVector+0x12>
     d60:	2088                	fld	fa0,0(s1)
     d62:	0000                	unimp
     d64:	00291703          	lh	a4,2(s2)
     d68:	a000                	fsd	fs0,0(s0)
     d6a:	0020                	addi	s0,sp,8
     d6c:	0300                	addi	s0,sp,384
     d6e:	0000290b          	0x290b
     d72:	20b4                	fld	fa3,64(s1)
     d74:	0000                	unimp
     d76:	0800                	addi	s0,sp,16
     d78:	282d                	jal	db2 <_data_lma+0x642>
     d7a:	0000                	unimp
     d7c:	0258                	addi	a4,sp,260
     d7e:	0000                	unimp
     d80:	00000dbb          	0xdbb
     d84:	3205                	jal	6a4 <SysTick_Handler+0x1f8>
     d86:	0028                	addi	a0,sp,8
     d88:	cc00                	sw	s0,24(s0)
     d8a:	0020                	addi	s0,sp,8
     d8c:	1d00                	addi	s0,sp,688
     d8e:	2854                	fld	fa3,144(s0)
     d90:	0000                	unimp
     d92:	0638                	addi	a4,sp,776
     d94:	0000                	unimp
     d96:	0270                	addi	a2,sp,268
     d98:	0000                	unimp
     d9a:	3802                	fld	fa6,32(sp)
     d9c:	0301                	addi	t1,t1,0
     d9e:	00287803          	0x287803
     da2:	ea00                	fsw	fs0,16(a2)
     da4:	0020                	addi	s0,sp,8
     da6:	0300                	addi	s0,sp,384
     da8:	286c                	fld	fa1,208(s0)
     daa:	0000                	unimp
     dac:	2112                	fld	ft2,256(sp)
     dae:	0000                	unimp
     db0:	00286003          	0x286003
     db4:	3000                	fld	fs0,32(s0)
     db6:	0021                	c.nop	8
     db8:	0000                	unimp
     dba:	1e00                	addi	s0,sp,816
     dbc:	283e                	fld	fa6,456(sp)
     dbe:	0000                	unimp
     dc0:	0690                	addi	a2,sp,832
     dc2:	0000                	unimp
     dc4:	0074                	addi	a3,sp,12
     dc6:	0000                	unimp
     dc8:	0e0c                	addi	a1,sp,784
     dca:	0000                	unimp
     dcc:	3f05                	jal	cfc <_data_lma+0x58c>
     dce:	0028                	addi	a0,sp,8
     dd0:	4e00                	lw	s0,24(a2)
     dd2:	0021                	c.nop	8
     dd4:	1d00                	addi	s0,sp,688
     dd6:	2885                	jal	e46 <_data_lma+0x6d6>
     dd8:	0000                	unimp
     dda:	0690                	addi	a2,sp,832
     ddc:	0000                	unimp
     dde:	0290                	addi	a2,sp,320
     de0:	0000                	unimp
     de2:	4002                	0x4002
     de4:	0301                	addi	t1,t1,0
     de6:	0028b503          	0x28b503
     dea:	7900                	flw	fs0,48(a0)
     dec:	0021                	c.nop	8
     dee:	0300                	addi	s0,sp,384
     df0:	28a9                	jal	e4a <_data_lma+0x6da>
     df2:	0000                	unimp
     df4:	218c                	fld	fa1,0(a1)
     df6:	0000                	unimp
     df8:	00289d03          	lh	s10,2(a7)
     dfc:	9f00                	0x9f00
     dfe:	0021                	c.nop	8
     e00:	0300                	addi	s0,sp,384
     e02:	2891                	jal	e56 <_data_lma+0x6e6>
     e04:	0000                	unimp
     e06:	21b2                	fld	ft3,264(sp)
     e08:	0000                	unimp
     e0a:	0000                	unimp
     e0c:	0028200b          	0x28200b
     e10:	0500                	addi	s0,sp,640
     e12:	00013003          	0x13003
     e16:	0020                	addi	s0,sp,8
     e18:	0012b50b          	0x12b50b
     e1c:	0500                	addi	s0,sp,640
     e1e:	0000c003          	lbu	zero,0(ra)
     e22:	0b20                	addi	s0,sp,408
     e24:	12dc                	addi	a5,sp,356
     e26:	0000                	unimp
     e28:	0305                	addi	t1,t1,1
     e2a:	00d0                	addi	a2,sp,68
     e2c:	2000                	fld	fs0,0(s0)
     e2e:	0024170b          	0x24170b
     e32:	0500                	addi	s0,sp,640
     e34:	0000e403          	0xe403
     e38:	0b20                	addi	s0,sp,408
     e3a:	243e                	fld	fs0,456(sp)
     e3c:	0000                	unimp
     e3e:	0305                	addi	t1,t1,1
     e40:	00f4                	addi	a3,sp,76
     e42:	2000                	fld	fs0,0(s0)
     e44:	002ccf0b          	0x2ccf0b
     e48:	0500                	addi	s0,sp,640
     e4a:	00010803          	lb	a6,0(sp) # 1845ea <wiring.c.7604182b+0x181c51>
     e4e:	0b20                	addi	s0,sp,408
     e50:	2cf6                	fld	fs9,344(sp)
     e52:	0000                	unimp
     e54:	0305                	addi	t1,t1,1
     e56:	0118                	addi	a4,sp,128
     e58:	2000                	fld	fs0,0(s0)
     e5a:	00278f0b          	0x278f0b
     e5e:	0500                	addi	s0,sp,640
     e60:	00000003          	lb	zero,0(zero) # 0 <InterruptVector>
     e64:	0b20                	addi	s0,sp,408
     e66:	27b6                	fld	fa5,328(sp)
     e68:	0000                	unimp
     e6a:	0305                	addi	t1,t1,1
     e6c:	0764                	addi	s1,sp,908
     e6e:	0000                	unimp
     e70:	141f 0000 0a00      	0xa000000141f
     e76:	0000                	unimp
     e78:	0400                	addi	s0,sp,512
     e7a:	2000                	fld	fs0,0(s0)
     e7c:	00c1                	addi	ra,ra,16
     e7e:	0000                	unimp
     e80:	00c1                	addi	ra,ra,16
     e82:	0000                	unimp
     e84:	0020                	addi	s0,sp,8
     e86:	0000                	unimp
     e88:	0000                	unimp
     e8a:	0000                	unimp
     e8c:	2000                	fld	fs0,0(s0)
     e8e:	00d8                	addi	a4,sp,68
     e90:	0000                	unimp
     e92:	00d8                	addi	a4,sp,68
     e94:	0000                	unimp
     e96:	251f 0000 1b00      	0x1b000000251f
     e9c:	0000                	unimp
     e9e:	0400                	addi	s0,sp,512
	...

00000ea2 <ch32v003fun.c.8affbd33>:
     ea2:	0f36                	slli	t5,t5,0xd
     ea4:	0000                	unimp
     ea6:	0004                	0x4
     ea8:	019e                	slli	gp,gp,0x7
     eaa:	0000                	unimp
     eac:	0104                	addi	s1,sp,128
     eae:	0581                	addi	a1,a1,0
     eb0:	0000                	unimp
     eb2:	430c                	lw	a1,0(a4)
     eb4:	0001                	nop
     eb6:	e100                	fsw	fs0,0(a0)
     eb8:	0000                	unimp
     eba:	b300                	fsd	fs0,32(a4)
     ebc:	02000027          	0x2000027
     ec0:	0601                	addi	a2,a2,0
     ec2:	00000533          	add	a0,zero,zero
     ec6:	0004f003          	0x4f003
     eca:	0100                	addi	s0,sp,128
     ecc:	0030182b          	0x30182b
     ed0:	0000                	unimp
     ed2:	0102                	c.slli64	sp
     ed4:	3108                	fld	fa0,32(a0)
     ed6:	0005                	c.nop	1
     ed8:	0400                	addi	s0,sp,512
     eda:	0030                	addi	a2,sp,8
     edc:	0000                	unimp
     ede:	0202                	c.slli64	tp
     ee0:	7305                	lui	t1,0xfffe1
     ee2:	0004                	0x4
     ee4:	0300                	addi	s0,sp,384
     ee6:	02b4                	addi	a3,sp,328
     ee8:	0000                	unimp
     eea:	3901                	jal	afa <_data_lma+0x38a>
     eec:	4f19                	li	t5,6
     eee:	0000                	unimp
     ef0:	0200                	addi	s0,sp,256
     ef2:	0702                	c.slli64	a4
     ef4:	05cc                	addi	a1,sp,708
     ef6:	0000                	unimp
     ef8:	00018103          	lb	sp,0(gp) # 20000930 <__global_pointer$>
     efc:	0100                	addi	s0,sp,128
     efe:	184d                	addi	a6,a6,-13
     f00:	0062                	c.slli	zero,0x18
     f02:	0000                	unimp
     f04:	0402                	c.slli64	s0
     f06:	7c05                	lui	s8,0xfffe1
     f08:	03000003          	lb	zero,48(zero) # 30 <InterruptVector+0x30>
     f0c:	0000053f 75194f01 	0x75194f010000053f
     f14:	0000                	unimp
     f16:	0200                	addi	s0,sp,256
     f18:	0704                	addi	s1,sp,896
     f1a:	00000273          	0x273
     f1e:	0802                	c.slli64	a6
     f20:	7705                	lui	a4,0xfffe1
     f22:	02000003          	lb	zero,32(zero) # 20 <InterruptVector+0x20>
     f26:	0708                	addi	a0,sp,896
     f28:	026e                	slli	tp,tp,0x1b
     f2a:	0000                	unimp
     f2c:	0405                	addi	s0,s0,1
     f2e:	6905                	lui	s2,0x1
     f30:	746e                	flw	fs0,248(sp)
     f32:	0300                	addi	s0,sp,384
     f34:	0404                	addi	s1,sp,512
     f36:	0000                	unimp
     f38:	e801                	bnez	s0,f48 <ch32v003fun.c.8affbd33+0xa6>
     f3a:	9d1a                	add	s10,s10,t1
     f3c:	0000                	unimp
     f3e:	0200                	addi	s0,sp,256
     f40:	0704                	addi	s1,sp,896
     f42:	0278                	addi	a4,sp,268
     f44:	0000                	unimp
     f46:	0002ef03          	0x2ef03
     f4a:	0200                	addi	s0,sp,256
     f4c:	17d1                	addi	a5,a5,-12
     f4e:	009d                	addi	ra,ra,7
     f50:	0000                	unimp
     f52:	1002                	c.slli	zero,0x20
     f54:	eb04                	fsw	fs1,16(a4)
     f56:	03000003          	lb	zero,48(zero) # 30 <InterruptVector+0x30>
     f5a:	000002cb          	fnmsub.s	ft5,ft0,ft0,ft0,rne
     f5e:	c31b2803          	lw	a6,-975(s6)
     f62:	0000                	unimp
     f64:	0600                	addi	s0,sp,768
     f66:	df04                	sw	s1,56(a4)
     f68:	0005                	c.nop	1
     f6a:	0300                	addi	s0,sp,384
     f6c:	02d2                	slli	t0,t0,0x14
     f6e:	0000                	unimp
     f70:	2e04                	fld	fs1,24(a2)
     f72:	b718                	fsd	fa4,40(a4)
     f74:	0000                	unimp
     f76:	0700                	addi	s0,sp,896
     f78:	0804                	addi	s1,sp,16
     f7a:	3004                	fld	fs1,32(s0)
     f7c:	0000                	unimp
     f7e:	0800                	addi	s0,sp,16
     f80:	e304                	fsw	fs1,0(a4)
     f82:	0000                	unimp
     f84:	0200                	addi	s0,sp,256
     f86:	0801                	addi	a6,a6,0
     f88:	053a                	slli	a0,a0,0xe
     f8a:	0000                	unimp
     f8c:	e304                	fsw	fs1,0(a4)
     f8e:	0000                	unimp
     f90:	0800                	addi	s0,sp,16
     f92:	ea04                	fsw	fs1,16(a2)
     f94:	0000                	unimp
     f96:	0900                	addi	s0,sp,144
     f98:	000000e3          	beqz	zero,1798 <ch32v003fun.c.8affbd33+0x8f6>
     f9c:	0105                	addi	sp,sp,1
     f9e:	0000                	unimp
     fa0:	9d0a                	add	s10,s10,sp
     fa2:	0000                	unimp
     fa4:	1700                	addi	s0,sp,928
     fa6:	0300                	addi	s0,sp,384
     fa8:	04f2                	slli	s1,s1,0x1c
     faa:	0000                	unimp
     fac:	1805                	addi	a6,a6,-31
     fae:	00002413          	slti	s0,zero,0
     fb2:	0400                	addi	s0,sp,512
     fb4:	0105                	addi	sp,sp,1
     fb6:	0000                	unimp
     fb8:	0001110b          	0x1110b
     fbc:	0300                	addi	s0,sp,384
     fbe:	02b6                	slli	t0,t0,0xd
     fc0:	0000                	unimp
     fc2:	2405                	jal	11e2 <ch32v003fun.c.8affbd33+0x340>
     fc4:	4314                	lw	a3,0(a4)
     fc6:	0000                	unimp
     fc8:	0b00                	addi	s0,sp,400
     fca:	0000011b          	0x11b
     fce:	00018303          	lb	t1,0(gp) # 20000930 <__global_pointer$>
     fd2:	0500                	addi	s0,sp,640
     fd4:	132c                	addi	a1,sp,424
     fd6:	0056                	c.slli	zero,0x15
     fd8:	0000                	unimp
     fda:	00054103          	lbu	sp,0(a0)
     fde:	0500                	addi	s0,sp,640
     fe0:	1430                	addi	a2,sp,552
     fe2:	0069                	c.nop	26
     fe4:	0000                	unimp
     fe6:	0001380b          	0x1380b
     fea:	0400                	addi	s0,sp,512
     fec:	0144                	addi	s1,sp,132
     fee:	0000                	unimp
     ff0:	00040603          	lb	a2,0(s0)
     ff4:	0500                	addi	s0,sp,640
     ff6:	1552                	slli	a0,a0,0x34
     ff8:	0091                	addi	ra,ra,4
     ffa:	0000                	unimp
     ffc:	2c0c                	fld	fa1,24(s0)
     ffe:	ac06                	fsd	ft1,24(sp)
    1000:	f309                	bnez	a4,f02 <ch32v003fun.c.8affbd33+0x60>
    1002:	0001                	nop
    1004:	0d00                	addi	s0,sp,656
    1006:	032a                	slli	t1,t1,0xa
    1008:	0000                	unimp
    100a:	ae06                	fsd	ft1,280(sp)
    100c:	00014413          	xori	s0,sp,0
    1010:	0000                	unimp
    1012:	760d                	lui	a2,0xfffe3
    1014:	0005                	c.nop	1
    1016:	0600                	addi	s0,sp,768
    1018:	014413af          	0x14413af
    101c:	0000                	unimp
    101e:	0d04                	addi	s1,sp,656
    1020:	0574                	addi	a3,sp,652
    1022:	0000                	unimp
    1024:	b006                	fsd	ft1,32(sp)
    1026:	00014413          	xori	s0,sp,0
    102a:	0800                	addi	s0,sp,16
    102c:	7b0d                	lui	s6,0xfffe3
    102e:	0005                	c.nop	1
    1030:	0600                	addi	s0,sp,768
    1032:	13b1                	addi	t2,t2,-20
    1034:	0144                	addi	s1,sp,132
    1036:	0000                	unimp
    1038:	0d0c                	addi	a1,sp,656
    103a:	0000032b          	0x32b
    103e:	b206                	fsd	ft1,288(sp)
    1040:	00014413          	xori	s0,sp,0
    1044:	1000                	addi	s0,sp,32
    1046:	060d                	addi	a2,a2,3
    1048:	000a                	c.slli	zero,0x2
    104a:	0600                	addi	s0,sp,768
    104c:	014413b3          	sll	t2,s0,s4
    1050:	0000                	unimp
    1052:	0d14                	addi	a3,sp,656
    1054:	010d                	addi	sp,sp,3
    1056:	0000                	unimp
    1058:	b406                	fsd	ft1,40(sp)
    105a:	00014413          	xori	s0,sp,0
    105e:	1800                	addi	s0,sp,48
    1060:	4f0e                	lw	t5,192(sp)
    1062:	5242                	lw	tp,48(sp)
    1064:	0600                	addi	s0,sp,768
    1066:	13b5                	addi	t2,t2,-19
    1068:	0144                	addi	s1,sp,132
    106a:	0000                	unimp
    106c:	0e1c                	addi	a5,sp,784
    106e:	00525057          	0x525057
    1072:	b606                	fsd	ft1,296(sp)
    1074:	00014413          	xori	s0,sp,0
    1078:	2000                	fld	fs0,0(s0)
    107a:	1b0d                	addi	s6,s6,-29
    107c:	0001                	nop
    107e:	0600                	addi	s0,sp,768
    1080:	014413b7          	lui	t2,0x1441
    1084:	0000                	unimp
    1086:	0d24                	addi	s1,sp,664
    1088:	0116                	slli	sp,sp,0x5
    108a:	0000                	unimp
    108c:	b806                	fsd	ft1,48(sp)
    108e:	00014413          	xori	s0,sp,0
    1092:	2800                	fld	fs0,16(s0)
    1094:	0300                	addi	s0,sp,384
    1096:	00000303          	lb	t1,0(zero) # 0 <InterruptVector>
    109a:	b906                	fsd	ft1,176(sp)
    109c:	00015a03          	lhu	s4,0(sp)
    10a0:	0f00                	addi	s0,sp,912
    10a2:	061c                	addi	a5,sp,768
    10a4:	6c090137          	lui	sp,0x6c090
    10a8:	0002                	c.slli64	zero
    10aa:	1000                	addi	s0,sp,32
    10ac:	023c                	addi	a5,sp,264
    10ae:	0000                	unimp
    10b0:	3906                	fld	fs2,96(sp)
    10b2:	1001                	c.nop	-32
    10b4:	0144                	addi	s1,sp,132
    10b6:	0000                	unimp
    10b8:	1000                	addi	s0,sp,32
    10ba:	000005fb          	0x5fb
    10be:	3a06                	fld	fs4,96(sp)
    10c0:	1001                	c.nop	-32
    10c2:	0144                	addi	s1,sp,132
    10c4:	0000                	unimp
    10c6:	1004                	addi	s1,sp,32
    10c8:	000001bb          	0x1bb
    10cc:	3b06                	fld	fs6,96(sp)
    10ce:	1001                	c.nop	-32
    10d0:	0149                	addi	sp,sp,18
    10d2:	0000                	unimp
    10d4:	1008                	addi	a0,sp,32
    10d6:	02f6                	slli	t0,t0,0x1d
    10d8:	0000                	unimp
    10da:	3c06                	fld	fs8,96(sp)
    10dc:	1001                	c.nop	-32
    10de:	0144                	addi	s1,sp,132
    10e0:	0000                	unimp
    10e2:	100c                	addi	a1,sp,32
    10e4:	033e                	slli	t1,t1,0xf
    10e6:	0000                	unimp
    10e8:	3d06                	fld	fs10,96(sp)
    10ea:	1001                	c.nop	-32
    10ec:	0144                	addi	s1,sp,132
    10ee:	0000                	unimp
    10f0:	1110                	addi	a2,sp,160
    10f2:	4342                	lw	t1,16(sp)
    10f4:	0052                	c.slli	zero,0x14
    10f6:	3e06                	fld	ft8,96(sp)
    10f8:	1001                	c.nop	-32
    10fa:	0144                	addi	s1,sp,132
    10fc:	0000                	unimp
    10fe:	1014                	addi	a3,sp,32
    1100:	0615                	addi	a2,a2,5
    1102:	0000                	unimp
    1104:	3f06                	fld	ft10,96(sp)
    1106:	1001                	c.nop	-32
    1108:	0144                	addi	s1,sp,132
    110a:	0000                	unimp
    110c:	0018                	0x18
    110e:	fa12                	fsw	ft4,52(sp)
    1110:	0004                	0x4
    1112:	0600                	addi	s0,sp,768
    1114:	0140                	addi	s0,sp,132
    1116:	0001ff03          	0x1ff03
    111a:	0f00                	addi	s0,sp,912
    111c:	0628                	addi	a0,sp,776
    111e:	10090177          	0x10090177
    1122:	10000003          	lb	zero,256(zero) # 100 <main+0x3c>
    1126:	0000032b          	0x32b
    112a:	7906                	flw	fs2,96(sp)
    112c:	1301                	addi	t1,t1,-32
    112e:	0144                	addi	s1,sp,132
    1130:	0000                	unimp
    1132:	1000                	addi	s0,sp,32
    1134:	000003b7          	lui	t2,0x0
    1138:	7a06                	flw	fs4,96(sp)
    113a:	1301                	addi	t1,t1,-32
    113c:	0144                	addi	s1,sp,132
    113e:	0000                	unimp
    1140:	1004                	addi	s1,sp,32
    1142:	0229                	addi	tp,tp,10
    1144:	0000                	unimp
    1146:	7b06                	flw	fs6,96(sp)
    1148:	1301                	addi	t1,t1,-32
    114a:	0144                	addi	s1,sp,132
    114c:	0000                	unimp
    114e:	1008                	addi	a0,sp,32
    1150:	04e0                	addi	s0,sp,588
    1152:	0000                	unimp
    1154:	7c06                	flw	fs8,96(sp)
    1156:	1301                	addi	t1,t1,-32
    1158:	0144                	addi	s1,sp,132
    115a:	0000                	unimp
    115c:	100c                	addi	a1,sp,32
    115e:	021f 0000 7d06      	0x7d060000021f
    1164:	1301                	addi	t1,t1,-32
    1166:	0144                	addi	s1,sp,132
    1168:	0000                	unimp
    116a:	1010                	addi	a2,sp,32
    116c:	03ae                	slli	t2,t2,0xb
    116e:	0000                	unimp
    1170:	7e06                	flw	ft8,96(sp)
    1172:	1301                	addi	t1,t1,-32
    1174:	0144                	addi	s1,sp,132
    1176:	0000                	unimp
    1178:	1014                	addi	a3,sp,32
    117a:	01b1                	addi	gp,gp,12
    117c:	0000                	unimp
    117e:	7f06                	flw	ft10,96(sp)
    1180:	1301                	addi	t1,t1,-32
    1182:	0144                	addi	s1,sp,132
    1184:	0000                	unimp
    1186:	1018                	addi	a4,sp,32
    1188:	000003cf          	fnmadd.s	ft7,ft0,ft0,ft0,rne
    118c:	8006                	c.mv	zero,ra
    118e:	1301                	addi	t1,t1,-32
    1190:	0144                	addi	s1,sp,132
    1192:	0000                	unimp
    1194:	101c                	addi	a5,sp,32
    1196:	042d                	addi	s0,s0,11
    1198:	0000                	unimp
    119a:	8106                	mv	sp,ra
    119c:	1301                	addi	t1,t1,-32
    119e:	0144                	addi	s1,sp,132
    11a0:	0000                	unimp
    11a2:	1020                	addi	s0,sp,40
    11a4:	041e                	slli	s0,s0,0x7
    11a6:	0000                	unimp
    11a8:	8206                	mv	tp,ra
    11aa:	1301                	addi	t1,t1,-32
    11ac:	0144                	addi	s1,sp,132
    11ae:	0000                	unimp
    11b0:	0024                	addi	s1,sp,8
    11b2:	1e12                	slli	t3,t3,0x24
    11b4:	06000003          	lb	zero,96(zero) # 60 <InterruptVector+0x60>
    11b8:	79030183          	lb	gp,1936(t1) # fffe1790 <__global_pointer$+0xdffe0e60>
    11bc:	0002                	c.slli64	zero
    11be:	0f00                	addi	s0,sp,912
    11c0:	061c                	addi	a5,sp,768
    11c2:	01c6                	slli	gp,gp,0x11
    11c4:	ec09                	bnez	s0,11de <ch32v003fun.c.8affbd33+0x33c>
    11c6:	10000003          	lb	zero,256(zero) # 100 <main+0x3c>
    11ca:	0000057b          	0x57b
    11ce:	c806                	sw	ra,16(sp)
    11d0:	1301                	addi	t1,t1,-32
    11d2:	00000127          	0x127
    11d6:	1000                	addi	s0,sp,32
    11d8:	042d                	addi	s0,s0,11
    11da:	0000                	unimp
    11dc:	c906                	sw	ra,144(sp)
    11de:	1301                	addi	t1,t1,-32
    11e0:	0000011b          	0x11b
    11e4:	1002                	c.slli	zero,0x20
    11e6:	08aa                	slli	a7,a7,0xa
    11e8:	0000                	unimp
    11ea:	ca06                	sw	ra,20(sp)
    11ec:	1301                	addi	t1,t1,-32
    11ee:	00000127          	0x127
    11f2:	1004                	addi	s1,sp,32
    11f4:	00000437          	lui	s0,0x0
    11f8:	cb06                	sw	ra,148(sp)
    11fa:	1301                	addi	t1,t1,-32
    11fc:	0000011b          	0x11b
    1200:	1106                	slli	sp,sp,0x21
    1202:	5242                	lw	tp,48(sp)
    1204:	0052                	c.slli	zero,0x14
    1206:	cc06                	sw	ra,24(sp)
    1208:	1301                	addi	t1,t1,-32
    120a:	00000127          	0x127
    120e:	1008                	addi	a0,sp,32
    1210:	0441                	addi	s0,s0,16
    1212:	0000                	unimp
    1214:	cd06                	sw	ra,152(sp)
    1216:	1301                	addi	t1,t1,-32
    1218:	0000011b          	0x11b
    121c:	100a                	c.slli	zero,0x22
    121e:	06ae                	slli	a3,a3,0xb
    1220:	0000                	unimp
    1222:	ce06                	sw	ra,28(sp)
    1224:	1301                	addi	t1,t1,-32
    1226:	00000127          	0x127
    122a:	100c                	addi	a1,sp,32
    122c:	0000044b          	fnmsub.s	fs0,ft0,ft0,ft0,rne
    1230:	cf06                	sw	ra,156(sp)
    1232:	1301                	addi	t1,t1,-32
    1234:	0000011b          	0x11b
    1238:	100e                	c.slli	zero,0x23
    123a:	06b6                	slli	a3,a3,0xd
    123c:	0000                	unimp
    123e:	d006                	sw	ra,32(sp)
    1240:	1301                	addi	t1,t1,-32
    1242:	00000127          	0x127
    1246:	1010                	addi	a2,sp,32
    1248:	0455                	addi	s0,s0,21
    124a:	0000                	unimp
    124c:	d106                	sw	ra,160(sp)
    124e:	1301                	addi	t1,t1,-32
    1250:	0000011b          	0x11b
    1254:	1012                	c.slli	zero,0x24
    1256:	03fe                	slli	t2,t2,0x1f
    1258:	0000                	unimp
    125a:	d206                	sw	ra,36(sp)
    125c:	1301                	addi	t1,t1,-32
    125e:	00000127          	0x127
    1262:	1014                	addi	a3,sp,32
    1264:	045f 0000 d306      	0xd3060000045f
    126a:	1301                	addi	t1,t1,-32
    126c:	0000011b          	0x11b
    1270:	1116                	slli	sp,sp,0x25
    1272:	00525047          	fmsub.s	ft0,ft4,ft5,ft0,unknown
    1276:	d406                	sw	ra,40(sp)
    1278:	1301                	addi	t1,t1,-32
    127a:	00000127          	0x127
    127e:	1018                	addi	a4,sp,32
    1280:	0469                	addi	s0,s0,26
    1282:	0000                	unimp
    1284:	d506                	sw	ra,168(sp)
    1286:	1301                	addi	t1,t1,-32
    1288:	0000011b          	0x11b
    128c:	001a                	c.slli	zero,0x6
    128e:	4312                	lw	t1,4(sp)
    1290:	06000003          	lb	zero,96(zero) # 60 <InterruptVector+0x60>
    1294:	01d6                	slli	gp,gp,0x15
    1296:	00031d03          	lh	s10,0(t1)
    129a:	0900                	addi	s0,sp,144
    129c:	0116                	slli	sp,sp,0x5
    129e:	0000                	unimp
    12a0:	0409                	addi	s0,s0,2
    12a2:	0000                	unimp
    12a4:	9d0a                	add	s10,s10,sp
    12a6:	0000                	unimp
    12a8:	0f00                	addi	s0,sp,912
    12aa:	0400                	addi	s0,sp,512
    12ac:	03f9                	addi	t2,t2,30
    12ae:	0000                	unimp
    12b0:	0004090b          	0x4090b
    12b4:	1300                	addi	s0,sp,416
    12b6:	048e                	slli	s1,s1,0x3
    12b8:	0000                	unimp
    12ba:	7306                	flw	ft6,96(sp)
    12bc:	040e140b          	0x40e140b
    12c0:	0000                	unimp
    12c2:	1609                	addi	a2,a2,-30
    12c4:	0001                	nop
    12c6:	3000                	fld	fs0,32(s0)
    12c8:	0004                	0x4
    12ca:	0a00                	addi	s0,sp,272
    12cc:	009d                	addi	ra,ra,7
    12ce:	0000                	unimp
    12d0:	20040013          	addi	zero,s0,512 # 200 <main+0x13c>
    12d4:	0004                	0x4
    12d6:	0b00                	addi	s0,sp,400
    12d8:	0430                	addi	a2,sp,520
    12da:	0000                	unimp
    12dc:	00016513          	ori	a0,sp,0
    12e0:	0600                	addi	s0,sp,768
    12e2:	0b74                	addi	a3,sp,412
    12e4:	3514                	fld	fa3,40(a0)
    12e6:	0004                	0x4
    12e8:	1400                	addi	s0,sp,544
    12ea:	009d0407          	0x9d0407
    12ee:	0000                	unimp
    12f0:	1306                	slli	t1,t1,0x21
    12f2:	010d                	addi	sp,sp,3
    12f4:	0469                	addi	s0,s0,26
    12f6:	0000                	unimp
    12f8:	5515                	li	a0,-27
    12fa:	0002                	c.slli64	zero
    12fc:	0100                	addi	s0,sp,128
    12fe:	cf15                	beqz	a4,133a <ch32v003fun.c.8affbd33+0x498>
    1300:	0001                	nop
    1302:	0200                	addi	s0,sp,256
    1304:	4a15                	li	s4,5
    1306:	0005                	c.nop	1
    1308:	0300                	addi	s0,sp,384
    130a:	0f00                	addi	s0,sp,912
    130c:	0618                	addi	a4,sp,768
    130e:	115c                	addi	a5,sp,164
    1310:	c709                	beqz	a4,131a <ch32v003fun.c.8affbd33+0x478>
    1312:	0004                	0x4
    1314:	1000                	addi	s0,sp,32
    1316:	0000032b          	0x32b
    131a:	5e06                	lw	t3,96(sp)
    131c:	1311                	addi	t1,t1,-28
    131e:	0144                	addi	s1,sp,132
    1320:	0000                	unimp
    1322:	1100                	addi	s0,sp,160
    1324:	06005253          	fadd.q	ft4,ft0,ft0,unknown
    1328:	115f 4413 0001      	0x14413115f
    132e:	0400                	addi	s0,sp,512
    1330:	4311                	li	t1,4
    1332:	544e                	lw	s0,240(sp)
    1334:	0600                	addi	s0,sp,768
    1336:	1160                	addi	s0,sp,172
    1338:	00014413          	xori	s0,sp,0
    133c:	0800                	addi	s0,sp,16
    133e:	2d10                	fld	fa2,24(a0)
    1340:	0004                	0x4
    1342:	0600                	addi	s0,sp,768
    1344:	1161                	addi	sp,sp,-8
    1346:	380e                	fld	fa6,224(sp)
    1348:	0001                	nop
    134a:	0c00                	addi	s0,sp,528
    134c:	4311                	li	t1,4
    134e:	504d                	c.li	zero,-13
    1350:	0600                	addi	s0,sp,768
    1352:	1162                	slli	sp,sp,0x38
    1354:	00014413          	xori	s0,sp,0
    1358:	1000                	addi	s0,sp,32
    135a:	3710                	fld	fa2,40(a4)
    135c:	0004                	0x4
    135e:	0600                	addi	s0,sp,768
    1360:	380e1163          	bnez	t3,16e2 <ch32v003fun.c.8affbd33+0x840>
    1364:	0001                	nop
    1366:	1400                	addi	s0,sp,544
    1368:	1200                	addi	s0,sp,288
    136a:	03de                	slli	t2,t2,0x17
    136c:	0000                	unimp
    136e:	6406                	flw	fs0,64(sp)
    1370:	0211                	addi	tp,tp,4
    1372:	0469                	addi	s0,s0,26
    1374:	0000                	unimp
    1376:	7316                	flw	ft6,100(sp)
    1378:	0001                	nop
    137a:	0700                	addi	s0,sp,896
    137c:	008a050f          	0x8a050f
    1380:	0000                	unimp
    1382:	0005f117          	auipc	sp,0x5f
    1386:	0c00                	addi	s0,sp,528
    1388:	0801d107          	0x801d107
    138c:	0519                	addi	a0,a0,6
    138e:	0000                	unimp
    1390:	8610                	0x8610
    1392:	07000003          	lb	zero,112(zero) # 70 <InterruptVector+0x70>
    1396:	01d2                	slli	gp,gp,0x14
    1398:	dd08                	sw	a0,56(a0)
    139a:	0000                	unimp
    139c:	0000                	unimp
    139e:	8510                	0x8510
    13a0:	07000003          	lb	zero,112(zero) # 70 <InterruptVector+0x70>
    13a4:	01d2                	slli	gp,gp,0x14
    13a6:	dd11                	beqz	a0,12c2 <ch32v003fun.c.8affbd33+0x420>
    13a8:	0000                	unimp
    13aa:	0400                	addi	s0,sp,512
    13ac:	1710                	addi	a2,sp,928
    13ae:	0005                	c.nop	1
    13b0:	0700                	addi	s0,sp,896
    13b2:	9d0f01d3          	0x9d0f01d3
    13b6:	0000                	unimp
    13b8:	0800                	addi	s0,sp,16
    13ba:	1800                	addi	s0,sp,48
    13bc:	0000029b          	0x29b
    13c0:	0603d407          	0x603d407
    13c4:	0000053f 07006e19 	0x7006e190000053f
    13cc:	03d4                	addi	a3,sp,452
    13ce:	381d                	jal	c04 <_data_lma+0x494>
    13d0:	0001                	nop
    13d2:	1300                	addi	s0,sp,416
    13d4:	0000018b          	0x18b
    13d8:	0b03d607          	0xb03d607
    13dc:	0138                	addi	a4,sp,136
    13de:	0000                	unimp
    13e0:	1a00                	addi	s0,sp,304
    13e2:	01e9                	addi	gp,gp,26
    13e4:	0000                	unimp
    13e6:	0603cd07          	flq	fs10,96(t2) # 60 <InterruptVector+0x60>
    13ea:	7d1a                	flw	fs10,164(sp)
    13ec:	0004                	0x4
    13ee:	0700                	addi	s0,sp,896
    13f0:	03c6                	slli	t2,t2,0x11
    13f2:	1b06                	slli	s6,s6,0x21
    13f4:	01a9                	addi	gp,gp,10
    13f6:	0000                	unimp
    13f8:	0503be07          	fld	ft8,80(t2)
    13fc:	008a                	slli	ra,ra,0x2
    13fe:	0000                	unimp
    1400:	0000057b          	0x57b
    1404:	6319                	lui	t1,0x6
    1406:	0700                	addi	s0,sp,896
    1408:	03be                	slli	t2,t2,0xf
    140a:	8a11                	andi	a2,a2,4
    140c:	0000                	unimp
    140e:	1300                	addi	s0,sp,416
    1410:	0000055b          	0x55b
    1414:	0603c007          	flq	ft0,96(t2)
    1418:	008a                	slli	ra,ra,0x2
    141a:	0000                	unimp
    141c:	1b00                	addi	s0,sp,432
    141e:	000003f7          	0x3f7
    1422:	05039907          	0x5039907
    1426:	008a                	slli	ra,ra,0x2
    1428:	0000                	unimp
    142a:	05f4                	addi	a3,sp,716
    142c:	0000                	unimp
    142e:	6619                	lui	a2,0x6
    1430:	0064                	addi	s1,sp,12
    1432:	10039907          	0x10039907
    1436:	008a                	slli	ra,ra,0x2
    1438:	0000                	unimp
    143a:	6219                	lui	tp,0x6
    143c:	6675                	lui	a2,0x1d
    143e:	0700                	addi	s0,sp,896
    1440:	0399                	addi	t2,t2,6
    1442:	ef20                	fsw	fs0,88(a4)
    1444:	0000                	unimp
    1446:	1c00                	addi	s0,sp,560
    1448:	03a9                	addi	t2,t2,10
    144a:	0000                	unimp
    144c:	29039907          	0x29039907
    1450:	008a                	slli	ra,ra,0x2
    1452:	0000                	unimp
    1454:	00038613          	mv	a2,t2
    1458:	0700                	addi	s0,sp,896
    145a:	f407039b          	0xf407039b
    145e:	0005                	c.nop	1
    1460:	1300                	addi	s0,sp,416
    1462:	000002bf 06039c07 	0x6039c07000002bf
    146a:	008a                	slli	ra,ra,0x2
    146c:	0000                	unimp
    146e:	00055b13          	srli	s6,a0,0x0
    1472:	0700                	addi	s0,sp,896
    1474:	039d                	addi	t2,t2,7
    1476:	0001380b          	0x1380b
    147a:	1d00                	addi	s0,sp,688
    147c:	00052213          	slti	tp,a0,0
    1480:	0700                	addi	s0,sp,896
    1482:	03a0                	addi	s0,sp,456
    1484:	00008a07          	0x8a07
    1488:	1e00                	addi	s0,sp,816
    148a:	0074                	addi	a3,sp,12
    148c:	0703a707          	flw	fa4,112(t2)
    1490:	008a                	slli	ra,ra,0x2
    1492:	0000                	unimp
    1494:	0000                	unimp
    1496:	e309                	bnez	a4,1498 <ch32v003fun.c.8affbd33+0x5f6>
    1498:	0000                	unimp
    149a:	0400                	addi	s0,sp,512
    149c:	0006                	c.slli	zero,0x1
    149e:	0a00                	addi	s0,sp,272
    14a0:	009d                	addi	ra,ra,7
    14a2:	0000                	unimp
    14a4:	4b180003          	lb	zero,1201(a6)
    14a8:	0002                	c.slli64	zero
    14aa:	0700                	addi	s0,sp,896
    14ac:	036d                	addi	t1,t1,27
    14ae:	1f06                	slli	t5,t5,0x21
    14b0:	0006                	c.slli	zero,0x1
    14b2:	1c00                	addi	s0,sp,560
    14b4:	0266                	slli	tp,tp,0x19
    14b6:	0000                	unimp
    14b8:	15036d07          	0x15036d07
    14bc:	008a                	slli	ra,ra,0x2
    14be:	0000                	unimp
    14c0:	1800                	addi	s0,sp,48
    14c2:	0366                	slli	t1,t1,0x19
    14c4:	0000                	unimp
    14c6:	06035c07          	0x6035c07
    14ca:	063a                	slli	a2,a2,0xe
    14cc:	0000                	unimp
    14ce:	fc1c                	fsw	fa5,56(s0)
    14d0:	0002                	c.slli64	zero
    14d2:	0700                	addi	s0,sp,896
    14d4:	035c                	addi	a5,sp,388
    14d6:	8a1c                	0x8a1c
    14d8:	0000                	unimp
    14da:	0000                	unimp
    14dc:	1018                	addi	a4,sp,32
    14de:	0004                	0x4
    14e0:	0700                	addi	s0,sp,896
    14e2:	034e                	slli	t1,t1,0x13
    14e4:	5506                	lw	a0,96(sp)
    14e6:	0006                	c.slli	zero,0x1
    14e8:	1c00                	addi	s0,sp,560
    14ea:	02fc                	addi	a5,sp,332
    14ec:	0000                	unimp
    14ee:	19034e07          	flq	ft8,400(t1) # 6190 <wiring.c.7604182b+0x37f7>
    14f2:	008a                	slli	ra,ra,0x2
    14f4:	0000                	unimp
    14f6:	1f00                	addi	s0,sp,944
    14f8:	00000193          	li	gp,0
    14fc:	06034507          	flq	fa0,96(t1)
    1500:	d01f 0004 0700      	0x7000004d01f
    1506:	1a060337          	lui	t1,0x1a060
    150a:	0208                	addi	a0,sp,256
    150c:	0000                	unimp
    150e:	0602cf07          	flq	ft10,96(t0) # 400060 <wiring.c.7604182b+0x3fd6c7>
    1512:	0003111b          	0x3111b
    1516:	0700                	addi	s0,sp,896
    1518:	0285                	addi	t0,t0,1
    151a:	8a01                	andi	a2,a2,0
    151c:	0000                	unimp
    151e:	c300                	sw	s0,0(a4)
    1520:	0006                	c.slli	zero,0x1
    1522:	1c00                	addi	s0,sp,560
    1524:	03be                	slli	t2,t2,0xf
    1526:	0000                	unimp
    1528:	14028507          	0x14028507
    152c:	06dc                	addi	a5,sp,836
    152e:	0000                	unimp
    1530:	6219                	lui	tp,0x6
    1532:	6675                	lui	a2,0x1d
    1534:	0700                	addi	s0,sp,896
    1536:	0285                	addi	t0,t0,1
    1538:	d53d                	beqz	a0,14a6 <ch32v003fun.c.8affbd33+0x604>
    153a:	0000                	unimp
    153c:	1900                	addi	s0,sp,176
    153e:	6d66                	flw	fs10,88(sp)
    1540:	0074                	addi	a3,sp,12
    1542:	4e028507          	0x4e028507
    1546:	000000ef          	jal	ra,1546 <ch32v003fun.c.8affbd33+0x6a4>
    154a:	1e20                	addi	s0,sp,824
    154c:	6572                	flw	fa0,28(sp)
    154e:	0074                	addi	a3,sp,12
    1550:	06028707          	0x6028707
    1554:	008a                	slli	ra,ra,0x2
    1556:	0000                	unimp
    1558:	761e                	flw	fa2,228(sp)
    155a:	0061                	c.nop	24
    155c:	0a028807          	0xa028807
    1560:	00c9                	addi	ra,ra,18
    1562:	0000                	unimp
    1564:	2100                	fld	fs0,0(a0)
    1566:	008a                	slli	ra,ra,0x2
    1568:	0000                	unimp
    156a:	06dc                	addi	a5,sp,836
    156c:	0000                	unimp
    156e:	dd22                	sw	s0,184(sp)
    1570:	0000                	unimp
    1572:	2200                	fld	fs0,0(a2)
    1574:	008a                	slli	ra,ra,0x2
    1576:	0000                	unimp
    1578:	d522                	sw	s0,168(sp)
    157a:	0000                	unimp
    157c:	0000                	unimp
    157e:	0408                	addi	a0,sp,512
    1580:	000006c3          	fmadd.s	fa3,ft0,ft0,ft0,rne
    1584:	0002851b          	0x2851b
    1588:	0700                	addi	s0,sp,896
    158a:	0279                	addi	tp,tp,30
    158c:	8a01                	andi	a2,a2,0
    158e:	0000                	unimp
    1590:	3500                	fld	fs0,40(a0)
    1592:	1c000007          	0x1c000007
    1596:	0386                	slli	t2,t2,0x1
    1598:	0000                	unimp
    159a:	15027907          	0x15027907
    159e:	00dd                	addi	ra,ra,23
    15a0:	0000                	unimp
    15a2:	171c                	addi	a5,sp,928
    15a4:	0005                	c.nop	1
    15a6:	0700                	addi	s0,sp,896
    15a8:	0279                	addi	tp,tp,30
    15aa:	9d2a                	add	s10,s10,a0
    15ac:	0000                	unimp
    15ae:	1900                	addi	s0,sp,176
    15b0:	6d66                	flw	fs10,88(sp)
    15b2:	0074                	addi	a3,sp,12
    15b4:	42027907          	0x42027907
    15b8:	000000ef          	jal	ra,15b8 <ch32v003fun.c.8affbd33+0x716>
    15bc:	1e20                	addi	s0,sp,824
    15be:	6572                	flw	fa0,28(sp)
    15c0:	0074                	addi	a3,sp,12
    15c2:	06027b07          	0x6027b07
    15c6:	008a                	slli	ra,ra,0x2
    15c8:	0000                	unimp
    15ca:	761e                	flw	fa2,228(sp)
    15cc:	0061                	c.nop	24
    15ce:	0a027c07          	0xa027c07
    15d2:	00c9                	addi	ra,ra,18
    15d4:	0000                	unimp
    15d6:	1b00                	addi	s0,sp,432
    15d8:	0358                	addi	a4,sp,388
    15da:	0000                	unimp
    15dc:	01020807          	0x1020807
    15e0:	008a                	slli	ra,ra,0x2
    15e2:	0000                	unimp
    15e4:	07f6                	slli	a5,a5,0x1d
    15e6:	0000                	unimp
    15e8:	be1c                	fsd	fa5,56(a2)
    15ea:	07000003          	lb	zero,112(zero) # 70 <InterruptVector+0x70>
    15ee:	0208                	addi	a0,sp,256
    15f0:	dc15                	beqz	s0,152c <ch32v003fun.c.8affbd33+0x68a>
    15f2:	0006                	c.slli	zero,0x1
    15f4:	1900                	addi	s0,sp,176
    15f6:	7562                	flw	fa0,56(sp)
    15f8:	0066                	c.slli	zero,0x19
    15fa:	3f020807          	0x3f020807
    15fe:	00d5                	addi	ra,ra,21
    1600:	0000                	unimp
    1602:	6619                	lui	a2,0x6
    1604:	746d                	lui	s0,0xffffb
    1606:	0700                	addi	s0,sp,896
    1608:	0208                	addi	a0,sp,256
    160a:	ef50                	fsw	fa2,28(a4)
    160c:	0000                	unimp
    160e:	1900                	addi	s0,sp,176
    1610:	6176                	flw	ft2,92(sp)
    1612:	0700                	addi	s0,sp,896
    1614:	0208                	addi	a0,sp,256
    1616:	c95d                	beqz	a0,16cc <ch32v003fun.c.8affbd33+0x82a>
    1618:	0000                	unimp
    161a:	1e00                	addi	s0,sp,816
    161c:	6662                	flw	fa2,24(sp)
    161e:	0700                	addi	s0,sp,896
    1620:	020a                	slli	tp,tp,0x2
    1622:	0000f507          	0xf507
    1626:	1e00                	addi	s0,sp,816
    1628:	6662                	flw	fa2,24(sp)
    162a:	0032                	c.slli	zero,0xc
    162c:	07020b07          	0x7020b07
    1630:	00f5                	addi	ra,ra,29
    1632:	0000                	unimp
    1634:	631e                	flw	ft6,196(sp)
    1636:	0068                	addi	a0,sp,12
    1638:	07020c07          	0x7020c07
    163c:	000000e3          	beqz	zero,1e3c <main_pwm.c.a2cb4005+0x60>
    1640:	6e1e                	flw	ft8,196(sp)
    1642:	0700                	addi	s0,sp,896
    1644:	0214                	addi	a3,sp,256
    1646:	8a06                	mv	s4,ra
    1648:	0000                	unimp
    164a:	2300                	fld	fs0,0(a4)
    164c:	6e65                	lui	t3,0x19
    164e:	0064                	addi	s1,sp,12
    1650:	01027307          	0x1027307
    1654:	1e1d                	addi	t3,t3,-25
    1656:	656c                	flw	fa1,76(a0)
    1658:	006e                	c.slli	zero,0x1b
    165a:	07021607          	0x7021607
    165e:	008a                	slli	ra,ra,0x2
    1660:	0000                	unimp
    1662:	131d                	addi	t1,t1,-25
    1664:	038d                	addi	t2,t2,3
    1666:	0000                	unimp
    1668:	09021b07          	0x9021b07
    166c:	000000e3          	beqz	zero,1e6c <main_pwm.c.a2cb4005+0x90>
    1670:	0003c313          	xori	t1,t2,0
    1674:	0700                	addi	s0,sp,896
    1676:	021c                	addi	a5,sp,256
    1678:	8a08                	0x8a08
    167a:	0000                	unimp
    167c:	1e00                	addi	s0,sp,816
    167e:	006c                	addi	a1,sp,12
    1680:	09021d07          	0x9021d07
    1684:	000000e3          	beqz	zero,1e84 <main_pwm.c.a2cb4005+0xa8>
    1688:	701e                	flw	ft0,228(sp)
    168a:	7274                	flw	fa3,100(a2)
    168c:	0700                	addi	s0,sp,896
    168e:	021e                	slli	tp,tp,0x7
    1690:	dd0a                	sw	sp,184(sp)
    1692:	0000                	unimp
    1694:	0000                	unimp
    1696:	0000                	unimp
    1698:	0001c01b          	0x1c01b
    169c:	0700                	addi	s0,sp,896
    169e:	01f9                	addi	gp,gp,30
    16a0:	8a01                	andi	a2,a2,0
    16a2:	0000                	unimp
    16a4:	5100                	lw	s0,32(a0)
    16a6:	0008                	0x8
    16a8:	1c00                	addi	s0,sp,560
    16aa:	0386                	slli	t2,t2,0x1
    16ac:	0000                	unimp
    16ae:	1601f907          	0x1601f907
    16b2:	00dd                	addi	ra,ra,23
    16b4:	0000                	unimp
    16b6:	171c                	addi	a5,sp,928
    16b8:	0005                	c.nop	1
    16ba:	0700                	addi	s0,sp,896
    16bc:	01f9                	addi	gp,gp,30
    16be:	00009d2b          	0x9d2b
    16c2:	1900                	addi	s0,sp,176
    16c4:	6d66                	flw	fs10,88(sp)
    16c6:	0074                	addi	a3,sp,12
    16c8:	4301f907          	0x4301f907
    16cc:	000000ef          	jal	ra,16cc <ch32v003fun.c.8affbd33+0x82a>
    16d0:	7619                	lui	a2,0xfffe6
    16d2:	0061                	c.nop	24
    16d4:	5001f907          	0x5001f907
    16d8:	00c9                	addi	ra,ra,18
    16da:	0000                	unimp
    16dc:	621e                	flw	ft4,196(sp)
    16de:	0700                	addi	s0,sp,896
    16e0:	e01301fb          	0xe01301fb
    16e4:	0004                	0x4
    16e6:	1e00                	addi	s0,sp,816
    16e8:	006e                	c.slli	zero,0x1b
    16ea:	06020007          	0x6020007
    16ee:	008a                	slli	ra,ra,0x2
    16f0:	0000                	unimp
    16f2:	2400                	fld	fs0,8(s0)
    16f4:	03bd                	addi	t2,t2,15
    16f6:	0000                	unimp
    16f8:	0101d707          	0x101d707
    16fc:	008a                	slli	ra,ra,0x2
    16fe:	0000                	unimp
    1700:	08aa                	slli	a7,a7,0xa
    1702:	0000                	unimp
    1704:	7319                	lui	t1,0xfffe6
    1706:	0700                	addi	s0,sp,896
    1708:	dd0d01d7          	0xdd0d01d7
    170c:	0000                	unimp
    170e:	1900                	addi	s0,sp,176
    1710:	656c                	flw	fa1,76(a0)
    1712:	006e                	c.slli	zero,0x1b
    1714:	1401d707          	0x1401d707
    1718:	008a                	slli	ra,ra,0x2
    171a:	0000                	unimp
    171c:	6219                	lui	tp,0x6
    171e:	6675                	lui	a2,0x1d
    1720:	0700                	addi	s0,sp,896
    1722:	d51f01d7          	0xd51f01d7
    1726:	0000                	unimp
    1728:	1e00                	addi	s0,sp,816
    172a:	0062                	c.slli	zero,0x18
    172c:	1401da07          	0x1401da07
    1730:	08aa                	slli	a7,a7,0xa
    1732:	0000                	unimp
    1734:	701e                	flw	ft0,228(sp)
    1736:	0030                	addi	a2,sp,8
    1738:	0901db07          	0x901db07
    173c:	00dd                	addi	ra,ra,23
    173e:	0000                	unimp
    1740:	691e                	flw	fs2,196(sp)
    1742:	0700                	addi	s0,sp,896
    1744:	01dc                	addi	a5,sp,196
    1746:	8a06                	mv	s4,ra
    1748:	0000                	unimp
    174a:	0000                	unimp
    174c:	0408                	addi	a0,sp,512
    174e:	04e0                	addi	s0,sp,588
    1750:	0000                	unimp
    1752:	4224                	lw	s1,64(a2)
    1754:	0002                	c.slli64	zero
    1756:	0700                	addi	s0,sp,896
    1758:	01b8                	addi	a4,sp,200
    175a:	8a01                	andi	a2,a2,0
    175c:	0000                	unimp
    175e:	2800                	fld	fs0,16(s0)
    1760:	0009                	c.nop	2
    1762:	1900                	addi	s0,sp,176
    1764:	7470                	flw	fa2,108(s0)
    1766:	0072                	c.slli	zero,0x1c
    1768:	1001b807          	fld	fa6,256(gp) # 20000a30 <__global_pointer$+0x100>
    176c:	00dd                	addi	ra,ra,23
    176e:	0000                	unimp
    1770:	6c19                	lui	s8,0x6
    1772:	6e65                	lui	t3,0x19
    1774:	0700                	addi	s0,sp,896
    1776:	01b8                	addi	a4,sp,200
    1778:	8a19                	andi	a2,a2,6
    177a:	0000                	unimp
    177c:	1c00                	addi	s0,sp,560
    177e:	038d                	addi	t2,t2,3
    1780:	0000                	unimp
    1782:	2301b807          	fld	fa6,560(gp) # 20000b60 <__global_pointer$+0x230>
    1786:	000000e3          	beqz	zero,1f86 <main_pwm.c.a2cb4005+0x1aa>
    178a:	c31c                	sw	a5,0(a4)
    178c:	07000003          	lb	zero,112(zero) # 70 <InterruptVector+0x70>
    1790:	01b8                	addi	a4,sp,200
    1792:	8a31                	andi	a2,a2,12
    1794:	0000                	unimp
    1796:	1c00                	addi	s0,sp,560
    1798:	0386                	slli	t2,t2,0x1
    179a:	0000                	unimp
    179c:	3f01b807          	fld	fa6,1008(gp) # 20000d20 <__global_pointer$+0x3f0>
    17a0:	00dd                	addi	ra,ra,23
    17a2:	0000                	unimp
    17a4:	691e                	flw	fs2,196(sp)
    17a6:	0700                	addi	s0,sp,896
    17a8:	01ba                	slli	gp,gp,0xe
    17aa:	8a06                	mv	s4,ra
    17ac:	0000                	unimp
    17ae:	1300                	addi	s0,sp,416
    17b0:	012c                	addi	a1,sp,136
    17b2:	0000                	unimp
    17b4:	0601bb07          	fld	fs6,96(gp) # 20000990 <__global_pointer$+0x60>
    17b8:	008a                	slli	ra,ra,0x2
    17ba:	0000                	unimp
    17bc:	00038513          	mv	a0,t2
    17c0:	0700                	addi	s0,sp,896
    17c2:	01bc                	addi	a5,sp,200
    17c4:	dd09                	beqz	a0,16de <ch32v003fun.c.8affbd33+0x83c>
    17c6:	0000                	unimp
    17c8:	0000                	unimp
    17ca:	df24                	sw	s1,120(a4)
    17cc:	0001                	nop
    17ce:	0700                	addi	s0,sp,896
    17d0:	8a01018f          	0x8a01018f
    17d4:	0000                	unimp
    17d6:	cd00                	sw	s0,24(a0)
    17d8:	0009                	c.nop	2
    17da:	1c00                	addi	s0,sp,560
    17dc:	02c5                	addi	t0,t0,17
    17de:	0000                	unimp
    17e0:	10018f07          	0x10018f07
    17e4:	0062                	c.slli	zero,0x18
    17e6:	0000                	unimp
    17e8:	ea1c                	fsw	fa5,16(a2)
    17ea:	0004                	0x4
    17ec:	0700                	addi	s0,sp,896
    17ee:	9d24018f          	0x9d24018f
    17f2:	0000                	unimp
    17f4:	1c00                	addi	s0,sp,560
    17f6:	02e5                	addi	t0,t0,25
    17f8:	0000                	unimp
    17fa:	2f018f07          	0x2f018f07
    17fe:	008a                	slli	ra,ra,0x2
    1800:	0000                	unimp
    1802:	a31c                	fsd	fa5,0(a4)
    1804:	0001                	nop
    1806:	0700                	addi	s0,sp,896
    1808:	8a3e018f          	0x8a3e018f
    180c:	0000                	unimp
    180e:	1c00                	addi	s0,sp,560
    1810:	0386                	slli	t2,t2,0x1
    1812:	0000                	unimp
    1814:	09019007          	0x9019007
    1818:	00dd                	addi	ra,ra,23
    181a:	0000                	unimp
    181c:	00038513          	mv	a0,t2
    1820:	0700                	addi	s0,sp,896
    1822:	0192                	slli	gp,gp,0x4
    1824:	dd08                	sw	a0,56(a0)
    1826:	0000                	unimp
    1828:	1300                	addi	s0,sp,416
    182a:	049f 0000 9307      	0x93070000049f
    1830:	0601                	addi	a2,a2,0
    1832:	008a                	slli	ra,ra,0x2
    1834:	0000                	unimp
    1836:	691e                	flw	fs2,196(sp)
    1838:	0700                	addi	s0,sp,896
    183a:	0194                	addi	a3,sp,192
    183c:	8a06                	mv	s4,ra
    183e:	0000                	unimp
    1840:	1e00                	addi	s0,sp,816
    1842:	656c                	flw	fa1,76(a0)
    1844:	006e                	c.slli	zero,0x1b
    1846:	09019407          	0x9019407
    184a:	008a                	slli	ra,ra,0x2
    184c:	0000                	unimp
    184e:	bf25                	j	1786 <ch32v003fun.c.8affbd33+0x8e4>
    1850:	0009                	c.nop	2
    1852:	1300                	addi	s0,sp,416
    1854:	0396                	slli	t2,t2,0x5
    1856:	0000                	unimp
    1858:	0701a107          	flw	ft2,112(gp) # 200009a0 <__global_pointer$+0x70>
    185c:	008a                	slli	ra,ra,0x2
    185e:	0000                	unimp
    1860:	1d00                	addi	s0,sp,688
    1862:	6a1e                	flw	fs4,196(sp)
    1864:	0700                	addi	s0,sp,896
    1866:	e30801af          	0xe30801af
    186a:	0000                	unimp
    186c:	0000                	unimp
    186e:	1b00                	addi	s0,sp,432
    1870:	03be                	slli	t2,t2,0xf
    1872:	0000                	unimp
    1874:	05015907          	0x5015907
    1878:	008a                	slli	ra,ra,0x2
    187a:	0000                	unimp
    187c:	09f6                	slli	s3,s3,0x1d
    187e:	0000                	unimp
    1880:	7319                	lui	t1,0xfffe6
    1882:	0700                	addi	s0,sp,896
    1884:	0159                	addi	sp,sp,22
    1886:	ef16                	fsw	ft5,156(sp)
    1888:	0000                	unimp
    188a:	1e00                	addi	s0,sp,816
    188c:	07006c73          	csrrsi	s8,0x70,0
    1890:	8a06015b          	0x8a06015b
    1894:	0000                	unimp
    1896:	0000                	unimp
    1898:	0003511b          	0x3511b
    189c:	0700                	addi	s0,sp,896
    189e:	0151                	addi	sp,sp,20
    18a0:	0000d507          	0xd507
    18a4:	3600                	fld	fs0,40(a2)
    18a6:	000a                	c.slli	zero,0x2
    18a8:	1900                	addi	s0,sp,176
    18aa:	00637273          	csrrci	tp,0x6,6
    18ae:	1a015107          	0x1a015107
    18b2:	0a36                	slli	s4,s4,0xd
    18b4:	0000                	unimp
    18b6:	6319                	lui	t1,0x6
    18b8:	0700                	addi	s0,sp,896
    18ba:	0151                	addi	sp,sp,20
    18bc:	00008a23          	sb	zero,20(ra)
    18c0:	1900                	addi	s0,sp,176
    18c2:	006e                	c.slli	zero,0x1b
    18c4:	2d015107          	0x2d015107
    18c8:	00a4                	addi	s1,sp,72
    18ca:	0000                	unimp
    18cc:	731e                	flw	ft6,228(sp)
    18ce:	0700                	addi	s0,sp,896
    18d0:	3d170153          	0x3d170153
    18d4:	000a                	c.slli	zero,0x2
    18d6:	0000                	unimp
    18d8:	0408                	addi	a0,sp,512
    18da:	0a3c                	addi	a5,sp,280
    18dc:	0000                	unimp
    18de:	0826                	slli	a6,a6,0x9
    18e0:	3704                	fld	fs1,40(a4)
    18e2:	0000                	unimp
    18e4:	1b00                	addi	s0,sp,432
    18e6:	0234                	addi	a3,sp,264
    18e8:	0000                	unimp
    18ea:	07014107          	flq	ft2,112(sp) # 603f2 <wiring.c.7604182b+0x5da59>
    18ee:	00d5                	addi	ra,ra,21
    18f0:	0000                	unimp
    18f2:	0a90                	addi	a2,sp,336
    18f4:	0000                	unimp
    18f6:	011c                	addi	a5,sp,128
    18f8:	0006                	c.slli	zero,0x1
    18fa:	0700                	addi	s0,sp,896
    18fc:	0141                	addi	sp,sp,16
    18fe:	d515                	beqz	a0,182a <ch32v003fun.c.8affbd33+0x988>
    1900:	0000                	unimp
    1902:	1900                	addi	s0,sp,176
    1904:	00637273          	csrrci	tp,0x6,6
    1908:	27014107          	flq	ft2,624(sp)
    190c:	0a36                	slli	s4,s4,0xd
    190e:	0000                	unimp
    1910:	6e19                	lui	t3,0x6
    1912:	0700                	addi	s0,sp,896
    1914:	0141                	addi	sp,sp,16
    1916:	0000a433          	sltz	s0,ra
    191a:	1e00                	addi	s0,sp,816
    191c:	0064                	addi	s1,sp,12
    191e:	08014307          	flq	ft6,128(sp)
    1922:	00dd                	addi	ra,ra,23
    1924:	0000                	unimp
    1926:	731e                	flw	ft6,228(sp)
    1928:	0700                	addi	s0,sp,896
    192a:	0144                	addi	s1,sp,132
    192c:	ef0e                	fsw	ft3,156(sp)
    192e:	0000                	unimp
    1930:	0000                	unimp
    1932:	0004ad1b          	0x4ad1b
    1936:	0700                	addi	s0,sp,896
    1938:	0139                	addi	sp,sp,14
    193a:	8a05                	andi	a2,a2,1
    193c:	0000                	unimp
    193e:	db00                	sw	s0,48(a4)
    1940:	000a                	c.slli	zero,0x2
    1942:	1900                	addi	s0,sp,176
    1944:	6c76                	flw	fs8,92(sp)
    1946:	0700                	addi	s0,sp,896
    1948:	0139                	addi	sp,sp,14
    194a:	3618                	fld	fa4,40(a2)
    194c:	000a                	c.slli	zero,0x2
    194e:	1900                	addi	s0,sp,176
    1950:	7276                	flw	ft4,124(sp)
    1952:	0700                	addi	s0,sp,896
    1954:	0139                	addi	sp,sp,14
    1956:	3628                	fld	fa0,104(a2)
    1958:	000a                	c.slli	zero,0x2
    195a:	1900                	addi	s0,sp,176
    195c:	006e                	c.slli	zero,0x1b
    195e:	33013907          	fld	fs2,816(sp)
    1962:	00a4                	addi	s1,sp,72
    1964:	0000                	unimp
    1966:	6c1e                	flw	fs8,196(sp)
    1968:	0700                	addi	s0,sp,896
    196a:	3d17013b          	0x3d17013b
    196e:	000a                	c.slli	zero,0x2
    1970:	1e00                	addi	s0,sp,816
    1972:	0072                	c.slli	zero,0x1c
    1974:	1e013b07          	fld	fs6,480(sp)
    1978:	0a3d                	addi	s4,s4,15
    197a:	0000                	unimp
    197c:	1b00                	addi	s0,sp,432
    197e:	0025                	c.nop	9
    1980:	0000                	unimp
    1982:	07013107          	fld	ft2,112(sp)
    1986:	00d5                	addi	ra,ra,21
    1988:	0000                	unimp
    198a:	0b28                	addi	a0,sp,408
    198c:	0000                	unimp
    198e:	011c                	addi	a5,sp,128
    1990:	0006                	c.slli	zero,0x1
    1992:	0700                	addi	s0,sp,896
    1994:	0131                	addi	sp,sp,12
    1996:	d514                	sw	a3,40(a0)
    1998:	0000                	unimp
    199a:	1900                	addi	s0,sp,176
    199c:	00637273          	csrrci	tp,0x6,6
    19a0:	26013107          	fld	ft2,608(sp)
    19a4:	0a36                	slli	s4,s4,0xd
    19a6:	0000                	unimp
    19a8:	6e19                	lui	t3,0x6
    19aa:	0700                	addi	s0,sp,896
    19ac:	0131                	addi	sp,sp,12
    19ae:	a432                	fsd	fa2,8(sp)
    19b0:	0000                	unimp
    19b2:	1e00                	addi	s0,sp,816
    19b4:	0064                	addi	s1,sp,12
    19b6:	11013307          	fld	ft6,272(sp)
    19ba:	000000d7          	0xd7
    19be:	731e                	flw	ft6,228(sp)
    19c0:	0700                	addi	s0,sp,896
    19c2:	0134                	addi	a3,sp,136
    19c4:	000a3d17          	auipc	s10,0xa3
    19c8:	0000                	unimp
    19ca:	0001241b          	0x1241b
    19ce:	0700                	addi	s0,sp,896
    19d0:	012c                	addi	a1,sp,136
    19d2:	0000dd07          	0xdd07
    19d6:	5000                	lw	s0,32(s0)
    19d8:	1900000b          	0x1900000b
    19dc:	2c070073          	0x2c070073
    19e0:	1b01                	addi	s6,s6,-32
    19e2:	000000ef          	jal	ra,19e2 <ch32v003fun.c.8affbd33+0xb40>
    19e6:	6319                	lui	t1,0x6
    19e8:	0700                	addi	s0,sp,896
    19ea:	012c                	addi	a1,sp,136
    19ec:	8a22                	mv	s4,s0
    19ee:	0000                	unimp
    19f0:	0000                	unimp
    19f2:	0004c61b          	0x4c61b
    19f6:	0700                	addi	s0,sp,896
    19f8:	0124                	addi	s1,sp,136
    19fa:	0000d507          	0xd507
    19fe:	8e00                	0x8e00
    1a00:	1900000b          	0x1900000b
    1a04:	006d                	c.nop	27
    1a06:	1d012407          	flw	fs0,464(sp)
    1a0a:	0a36                	slli	s4,s4,0xd
    1a0c:	0000                	unimp
    1a0e:	6319                	lui	t1,0x6
    1a10:	0700                	addi	s0,sp,896
    1a12:	0124                	addi	s1,sp,136
    1a14:	8a24                	0x8a24
    1a16:	0000                	unimp
    1a18:	1900                	addi	s0,sp,176
    1a1a:	006e                	c.slli	zero,0x1b
    1a1c:	2e012407          	flw	fs0,736(sp)
    1a20:	00a4                	addi	s1,sp,72
    1a22:	0000                	unimp
    1a24:	731e                	flw	ft6,228(sp)
    1a26:	0700                	addi	s0,sp,896
    1a28:	0126                	slli	sp,sp,0x9
    1a2a:	000a3d17          	auipc	s10,0xa3
    1a2e:	0000                	unimp
    1a30:	0004261b          	0x4261b
    1a34:	0700                	addi	s0,sp,896
    1a36:	dd07011b          	0xdd07011b
    1a3a:	0000                	unimp
    1a3c:	b600                	fsd	fs0,40(a2)
    1a3e:	1900000b          	0x1900000b
    1a42:	1b070073          	0x1b070073
    1a46:	1a01                	addi	s4,s4,-32
    1a48:	000000ef          	jal	ra,1a48 <ch32v003fun.c.8affbd33+0xba6>
    1a4c:	6319                	lui	t1,0x6
    1a4e:	0700                	addi	s0,sp,896
    1a50:	8a21011b          	0x8a21011b
    1a54:	0000                	unimp
    1a56:	0000                	unimp
    1a58:	00056d1b          	0x56d1b
    1a5c:	0700                	addi	s0,sp,896
    1a5e:	0109                	addi	sp,sp,2
    1a60:	0000dd07          	0xdd07
    1a64:	de00                	sw	s0,56(a2)
    1a66:	1900000b          	0x1900000b
    1a6a:	0068                	addi	a0,sp,12
    1a6c:	1a010907          	0x1a010907
    1a70:	000000ef          	jal	ra,1a70 <ch32v003fun.c.8affbd33+0xbce>
    1a74:	6e19                	lui	t3,0x6
    1a76:	0700                	addi	s0,sp,896
    1a78:	0109                	addi	sp,sp,2
    1a7a:	ef29                	bnez	a4,1ad4 <ch32v003fun.c.8affbd33+0xc32>
    1a7c:	0000                	unimp
    1a7e:	0000                	unimp
    1a80:	00033027          	fsd	ft0,0(t1) # 6000 <wiring.c.7604182b+0x3667>
    1a84:	0700                	addi	s0,sp,896
    1a86:	0ea0                	addi	s0,sp,856
    1a88:	00dd                	addi	ra,ra,23
    1a8a:	0000                	unimp
    1a8c:	0ca0                	addi	s0,sp,600
    1a8e:	0000                	unimp
    1a90:	6828                	flw	fa0,80(s0)
    1a92:	0700                	addi	s0,sp,896
    1a94:	31a0                	fld	fs0,96(a1)
    1a96:	0a3d                	addi	s4,s4,15
    1a98:	0000                	unimp
    1a9a:	6e28                	flw	fa0,88(a2)
    1a9c:	0700                	addi	s0,sp,896
    1a9e:	49a0                	lw	s0,80(a1)
    1aa0:	0a3d                	addi	s4,s4,15
    1aa2:	0000                	unimp
    1aa4:	7a29                	lui	s4,0xfffea
    1aa6:	0700                	addi	s0,sp,896
    1aa8:	17a2                	slli	a5,a5,0x28
    1aaa:	0a3d                	addi	s4,s4,15
    1aac:	0000                	unimp
    1aae:	6c29                	lui	s8,0xa
    1ab0:	0700                	addi	s0,sp,896
    1ab2:	00a409a3          	sb	a0,19(s0) # ffffb013 <__global_pointer$+0xdfffa6e3>
    1ab6:	0000                	unimp
    1ab8:	6929                	lui	s2,0xa
    1aba:	0070                	addi	a2,sp,12
    1abc:	a40ca307          	flw	ft6,-1472(s9)
    1ac0:	0000                	unimp
    1ac2:	2900                	fld	fs0,16(a0)
    1ac4:	706a                	flw	ft0,184(sp)
    1ac6:	0700                	addi	s0,sp,896
    1ac8:	00a410a3          	sh	a0,1(s0)
    1acc:	0000                	unimp
    1ace:	6b29                	lui	s6,0xa
    1ad0:	0700                	addi	s0,sp,896
    1ad2:	00a414a3          	sh	a0,9(s0)
    1ad6:	0000                	unimp
    1ad8:	7029                	c.lui	zero,0xfffea
    1ada:	0700                	addi	s0,sp,896
    1adc:	00a417a3          	sh	a0,15(s0)
    1ae0:	0000                	unimp
    1ae2:	6d29                	lui	s10,0xa
    1ae4:	a3070073          	0xa3070073
    1ae8:	a41a                	fsd	ft6,8(sp)
    1aea:	0000                	unimp
    1aec:	2900                	fld	fs0,16(a0)
    1aee:	3070                	fld	fa2,224(s0)
    1af0:	0700                	addi	s0,sp,896
    1af2:	00a41ea3          	sh	a0,29(s0)
    1af6:	0000                	unimp
    1af8:	6d29                	lui	s10,0xa
    1afa:	6d65                	lui	s10,0x19
    1afc:	0700                	addi	s0,sp,896
    1afe:	00a422a3          	sw	a0,5(s0)
    1b02:	0000                	unimp
    1b04:	a82a                	fsd	fa0,16(sp)
    1b06:	0004                	0x4
    1b08:	0700                	addi	s0,sp,896
    1b0a:	00a427a3          	sw	a0,15(s0)
    1b0e:	0000                	unimp
    1b10:	292a                	fld	fs2,136(sp)
    1b12:	0005                	c.nop	1
    1b14:	0700                	addi	s0,sp,896
    1b16:	09a4                	addi	s1,sp,216
    1b18:	0ca0                	addi	s0,sp,600
    1b1a:	0000                	unimp
    1b1c:	2e2a                	fld	ft8,136(sp)
    1b1e:	0002                	c.slli64	zero
    1b20:	0700                	addi	s0,sp,896
    1b22:	09a5                	addi	s3,s3,9
    1b24:	0cb0                	addi	a2,sp,600
    1b26:	0000                	unimp
    1b28:	2a1d                	jal	1c5e <ch32v003fun.c.8affbd33+0xdbc>
    1b2a:	03ca                	slli	t2,t2,0x12
    1b2c:	0000                	unimp
    1b2e:	a40be307          	0xa40be307
    1b32:	0000                	unimp
    1b34:	2900                	fld	fs0,16(a0)
    1b36:	327a                	fld	ft4,440(sp)
    1b38:	0700                	addi	s0,sp,896
    1b3a:	19e4                	addi	s1,sp,252
    1b3c:	0a3d                	addi	s4,s4,15
    1b3e:	0000                	unimp
    1b40:	0000                	unimp
    1b42:	a409                	j	1d44 <ch32v003fun.c.8affbd33+0xea2>
    1b44:	0000                	unimp
    1b46:	b000                	fsd	fs0,32(s0)
    1b48:	000c                	0xc
    1b4a:	0a00                	addi	s0,sp,272
    1b4c:	009d                	addi	ra,ra,7
    1b4e:	0000                	unimp
    1b50:	a4090007          	0xa4090007
    1b54:	0000                	unimp
    1b56:	c000                	sw	s0,0(s0)
    1b58:	000c                	0xc
    1b5a:	0a00                	addi	s0,sp,272
    1b5c:	009d                	addi	ra,ra,7
    1b5e:	0000                	unimp
    1b60:	00ff                	0xff
    1b62:	00050727          	0x50727
    1b66:	0700                	addi	s0,sp,896
    1b68:	0e92                	slli	t4,t4,0x4
    1b6a:	00dd                	addi	ra,ra,23
    1b6c:	0000                	unimp
    1b6e:	00000cfb          	0xcfb
    1b72:	6828                	flw	fa0,80(s0)
    1b74:	0700                	addi	s0,sp,896
    1b76:	3392                	fld	ft7,288(sp)
    1b78:	0a3d                	addi	s4,s4,15
    1b7a:	0000                	unimp
    1b7c:	6e28                	flw	fa0,88(a2)
    1b7e:	0700                	addi	s0,sp,896
    1b80:	4b92                	lw	s7,4(sp)
    1b82:	0a3d                	addi	s4,s4,15
    1b84:	0000                	unimp
    1b86:	6e29                	lui	t3,0xa
    1b88:	94070077          	0x94070077
    1b8c:	0001380b          	0x1380b
    1b90:	2900                	fld	fs0,16(a0)
    1b92:	7768                	flw	fa0,108(a4)
    1b94:	0700                	addi	s0,sp,896
    1b96:	0b95                	addi	s7,s7,5
    1b98:	0138                	addi	a4,sp,136
    1b9a:	0000                	unimp
    1b9c:	2700                	fld	fs0,8(a4)
    1b9e:	00000563          	beqz	zero,1ba8 <ch32v003fun.c.8affbd33+0xd06>
    1ba2:	dd0e8a07          	0xdd0e8a07
    1ba6:	0000                	unimp
    1ba8:	3600                	fld	fs0,40(a2)
    1baa:	000d                	c.nop	3
    1bac:	2800                	fld	fs0,16(s0)
    1bae:	0068                	addi	a0,sp,12
    1bb0:	3d348a07          	0x3d348a07
    1bb4:	000a                	c.slli	zero,0x2
    1bb6:	2800                	fld	fs0,16(s0)
    1bb8:	006e                	c.slli	zero,0x1b
    1bba:	3d4c8a07          	0x3d4c8a07
    1bbe:	000a                	c.slli	zero,0x2
    1bc0:	2900                	fld	fs0,16(a0)
    1bc2:	776e                	flw	fa4,248(sp)
    1bc4:	0700                	addi	s0,sp,896
    1bc6:	0b8c                	addi	a1,sp,464
    1bc8:	0138                	addi	a4,sp,136
    1bca:	0000                	unimp
    1bcc:	6829                	lui	a6,0xa
    1bce:	8d070077          	0x8d070077
    1bd2:	0001380b          	0x1380b
    1bd6:	0000                	unimp
    1bd8:	00060627          	0x60627
    1bdc:	0700                	addi	s0,sp,896
    1bde:	00dd0e83          	lb	t4,13(s10) # 1900d <wiring.c.7604182b+0x16674>
    1be2:	0000                	unimp
    1be4:	0d71                	addi	s10,s10,28
    1be6:	0000                	unimp
    1be8:	6828                	flw	fa0,80(s0)
    1bea:	0700                	addi	s0,sp,896
    1bec:	0a3d3283          	0xa3d3283
    1bf0:	0000                	unimp
    1bf2:	6e28                	flw	fa0,88(a2)
    1bf4:	0700                	addi	s0,sp,896
    1bf6:	0a3d4a83          	lbu	s5,163(s10)
    1bfa:	0000                	unimp
    1bfc:	6e29                	lui	t3,0xa
    1bfe:	85070077          	0x85070077
    1c02:	00011b0b          	0x11b0b
    1c06:	2900                	fld	fs0,16(a0)
    1c08:	7768                	flw	fa0,108(a4)
    1c0a:	0700                	addi	s0,sp,896
    1c0c:	2085                	jal	1c6c <ch32v003fun.c.8affbd33+0xdca>
    1c0e:	0000011b          	0x11b
    1c12:	2b00                	fld	fs0,16(a4)
    1c14:	015d                	addi	sp,sp,23
    1c16:	0000                	unimp
    1c18:	8a057b07          	0x8a057b07
    1c1c:	0000                	unimp
    1c1e:	b600                	fsd	fs0,40(a2)
    1c20:	000d                	c.nop	3
    1c22:	2800                	fld	fs0,16(s0)
    1c24:	6c5f 0700 197b      	0x197b07006c5f
    1c2a:	000000ef          	jal	ra,1c2a <ch32v003fun.c.8affbd33+0xd88>
    1c2e:	5f28                	lw	a0,120(a4)
    1c30:	0072                	c.slli	zero,0x1c
    1c32:	ef297b07          	0xef297b07
    1c36:	0000                	unimp
    1c38:	2800                	fld	fs0,16(s0)
    1c3a:	006e                	c.slli	zero,0x1b
    1c3c:	a4347b07          	0xa4347b07
    1c40:	0000                	unimp
    1c42:	2900                	fld	fs0,16(a0)
    1c44:	006c                	addi	a1,sp,12
    1c46:	3d177d07          	0x3d177d07
    1c4a:	000a                	c.slli	zero,0x2
    1c4c:	2900                	fld	fs0,16(a0)
    1c4e:	0072                	c.slli	zero,0x1c
    1c50:	3d267d07          	0x3d267d07
    1c54:	000a                	c.slli	zero,0x2
    1c56:	0000                	unimp
    1c58:	00061a2b          	0x61a2b
    1c5c:	0700                	addi	s0,sp,896
    1c5e:	0576                	slli	a0,a0,0x1d
    1c60:	008a                	slli	ra,ra,0x2
    1c62:	0000                	unimp
    1c64:	00000ddb          	0xddb
    1c68:	6c28                	flw	fa0,88(s0)
    1c6a:	0700                	addi	s0,sp,896
    1c6c:	1876                	slli	a6,a6,0x3d
    1c6e:	000000ef          	jal	ra,1c6e <ch32v003fun.c.8affbd33+0xdcc>
    1c72:	7228                	flw	fa0,96(a2)
    1c74:	0700                	addi	s0,sp,896
    1c76:	2776                	fld	fa4,344(sp)
    1c78:	000000ef          	jal	ra,1c78 <ch32v003fun.c.8affbd33+0xdd6>
    1c7c:	2b00                	fld	fs0,16(a4)
    1c7e:	00000293          	li	t0,0
    1c82:	dd077507          	0xdd077507
    1c86:	0000                	unimp
    1c88:	0a00                	addi	s0,sp,272
    1c8a:	000e                	c.slli	zero,0x3
    1c8c:	2800                	fld	fs0,16(s0)
    1c8e:	0064                	addi	s1,sp,12
    1c90:	dd157507          	0xdd157507
    1c94:	0000                	unimp
    1c96:	2800                	fld	fs0,16(s0)
    1c98:	75070073          	0x75070073
    1c9c:	ef24                	fsw	fs1,88(a4)
    1c9e:	0000                	unimp
    1ca0:	2800                	fld	fs0,16(s0)
    1ca2:	006e                	c.slli	zero,0x1b
    1ca4:	a42e7507          	0xa42e7507
    1ca8:	0000                	unimp
    1caa:	0000                	unimp
    1cac:	0002012b          	0x2012b
    1cb0:	0700                	addi	s0,sp,896
    1cb2:	0774                	addi	a3,sp,908
    1cb4:	00dd                	addi	ra,ra,23
    1cb6:	0000                	unimp
    1cb8:	00000e2f          	0xe2f
    1cbc:	6428                	flw	fa0,72(s0)
    1cbe:	0700                	addi	s0,sp,896
    1cc0:	1474                	addi	a3,sp,556
    1cc2:	00dd                	addi	ra,ra,23
    1cc4:	0000                	unimp
    1cc6:	7328                	flw	fa0,96(a4)
    1cc8:	0700                	addi	s0,sp,896
    1cca:	2374                	fld	fa3,192(a4)
    1ccc:	000000ef          	jal	ra,1ccc <ch32v003fun.c.8affbd33+0xe2a>
    1cd0:	2b00                	fld	fs0,16(a4)
    1cd2:	0014                	0x14
    1cd4:	0000                	unimp
    1cd6:	d5077307          	0xd5077307
    1cda:	0000                	unimp
    1cdc:	6a00                	flw	fs0,16(a2)
    1cde:	000e                	c.slli	zero,0x3
    1ce0:	2c00                	fld	fs0,24(s0)
    1ce2:	0601                	addi	a2,a2,0
    1ce4:	0000                	unimp
    1ce6:	d5147307          	0xd5147307
    1cea:	0000                	unimp
    1cec:	2800                	fld	fs0,16(s0)
    1cee:	73070063          	beq	a4,a6,240e <main_pwm.c.a2cb4005+0x632>
    1cf2:	8a1e                	mv	s4,t2
    1cf4:	0000                	unimp
    1cf6:	2800                	fld	fs0,16(s0)
    1cf8:	006e                	c.slli	zero,0x1b
    1cfa:	a4287307          	0xa4287307
    1cfe:	0000                	unimp
    1d00:	2900                	fld	fs0,16(a0)
    1d02:	73070073          	0x73070073
    1d06:	d73c                	sw	a5,104(a4)
    1d08:	0000                	unimp
    1d0a:	0000                	unimp
    1d0c:	0001792b          	0x1792b
    1d10:	0700                	addi	s0,sp,896
    1d12:	0872                	slli	a6,a6,0x1c
    1d14:	00a4                	addi	s1,sp,72
    1d16:	0000                	unimp
    1d18:	0e99                	addi	t4,t4,6
    1d1a:	0000                	unimp
    1d1c:	7328                	flw	fa0,96(a4)
    1d1e:	0700                	addi	s0,sp,896
    1d20:	1c72                	slli	s8,s8,0x3c
    1d22:	000000ef          	jal	ra,1d22 <ch32v003fun.c.8affbd33+0xe80>
    1d26:	6e28                	flw	fa0,88(a2)
    1d28:	0700                	addi	s0,sp,896
    1d2a:	2672                	fld	fa2,280(sp)
    1d2c:	00a4                	addi	s1,sp,72
    1d2e:	0000                	unimp
    1d30:	7029                	c.lui	zero,0xfffea
    1d32:	0700                	addi	s0,sp,896
    1d34:	3772                	fld	fa4,312(sp)
    1d36:	000000ef          	jal	ra,1d36 <ch32v003fun.c.8affbd33+0xe94>
    1d3a:	2b00                	fld	fs0,16(a4)
    1d3c:	0135                	addi	sp,sp,13
    1d3e:	0000                	unimp
    1d40:	a4087107          	0xa4087107
    1d44:	0000                	unimp
    1d46:	be00                	fsd	fs0,56(a2)
    1d48:	000e                	c.slli	zero,0x3
    1d4a:	2800                	fld	fs0,16(s0)
    1d4c:	71070073          	0x71070073
    1d50:	0000ef1b          	0xef1b
    1d54:	2900                	fld	fs0,16(a0)
    1d56:	0061                	c.nop	24
    1d58:	ef2c7107          	0xef2c7107
    1d5c:	0000                	unimp
    1d5e:	0000                	unimp
    1d60:	00028c2b          	0x28c2b
    1d64:	0700                	addi	s0,sp,896
    1d66:	051a                	slli	a0,a0,0x6
    1d68:	008a                	slli	ra,ra,0x2
    1d6a:	0000                	unimp
    1d6c:	0ef4                	addi	a3,sp,860
    1d6e:	0000                	unimp
    1d70:	3c2c                	fld	fa1,120(s0)
    1d72:	0001                	nop
    1d74:	0700                	addi	s0,sp,896
    1d76:	181a                	slli	a6,a6,0x26
    1d78:	000000ef          	jal	ra,1d78 <ch32v003fun.c.8affbd33+0xed6>
    1d7c:	2a20                	fld	fs0,80(a2)
    1d7e:	03d9                	addi	t2,t2,22
    1d80:	0000                	unimp
    1d82:	c90a1c07          	0xc90a1c07
    1d86:	0000                	unimp
    1d88:	2a00                	fld	fs0,16(a2)
    1d8a:	02da                	slli	t0,t0,0x16
    1d8c:	0000                	unimp
    1d8e:	8a061e07          	0x8a061e07
    1d92:	0000                	unimp
    1d94:	0000                	unimp
    1d96:	0002a827          	fsw	ft0,16(t0)
    1d9a:	0700                	addi	s0,sp,896
    1d9c:	0c14                	addi	a3,sp,528
    1d9e:	008a                	slli	ra,ra,0x2
    1da0:	0000                	unimp
    1da2:	00000f27          	0xf27
    1da6:	7328                	flw	fa0,96(a4)
    1da8:	0700                	addi	s0,sp,896
    1daa:	1e14                	addi	a3,sp,816
    1dac:	00dd                	addi	ra,ra,23
    1dae:	0000                	unimp
    1db0:	6c28                	flw	fa0,88(s0)
    1db2:	6e65                	lui	t3,0x19
    1db4:	0700                	addi	s0,sp,896
    1db6:	2514                	fld	fa3,8(a0)
    1db8:	008a                	slli	ra,ra,0x2
    1dba:	0000                	unimp
    1dbc:	6228                	flw	fa0,64(a2)
    1dbe:	6675                	lui	a2,0x1d
    1dc0:	0700                	addi	s0,sp,896
    1dc2:	3014                	fld	fa3,32(s0)
    1dc4:	00d5                	addi	ra,ra,21
    1dc6:	0000                	unimp
    1dc8:	1f00                	addi	s0,sp,944
    1dca:	04b4                	addi	a3,sp,584
    1dcc:	0000                	unimp
    1dce:	0602a707          	flw	fa4,96(t0)
    1dd2:	9c1a                	add	s8,s8,t1
    1dd4:	07000003          	lb	zero,112(zero) # 70 <InterruptVector+0x70>
    1dd8:	02fe                	slli	t0,t0,0x1f
    1dda:	0006                	c.slli	zero,0x1

00001ddc <main_pwm.c.a2cb4005>:
    1ddc:	0bb9                	addi	s7,s7,14
    1dde:	0000                	unimp
    1de0:	0004                	0x4
    1de2:	000003eb          	0x3eb
    1de6:	0104                	addi	s1,sp,128
    1de8:	0581                	addi	a1,a1,0
    1dea:	0000                	unimp
    1dec:	c30c                	sw	a1,0(a4)
    1dee:	0008                	0x8
    1df0:	e100                	fsw	fs0,0(a0)
    1df2:	0000                	unimp
    1df4:	bb00                	fsd	fs0,48(a4)
    1df6:	0028                	addi	a0,sp,8
    1df8:	0200                	addi	s0,sp,256
    1dfa:	062e                	slli	a2,a2,0xb
    1dfc:	0000                	unimp
    1dfe:	00d20407          	0xd20407
    1e02:	0000                	unimp
    1e04:	4201                	li	tp,0
    1e06:	d20e                	sw	gp,36(sp)
    1e08:	0000                	unimp
    1e0a:	0300                	addi	s0,sp,384
    1e0c:	091c                	addi	a5,sp,144
    1e0e:	0000                	unimp
    1e10:	0302                	c.slli64	t1
    1e12:	06e4                	addi	s1,sp,844
    1e14:	0000                	unimp
    1e16:	07e80303          	lb	t1,126(a6) # a07e <wiring.c.7604182b+0x76e5>
    1e1a:	0000                	unimp
    1e1c:	030c                	addi	a1,sp,384
    1e1e:	0722                	slli	a4,a4,0x8
    1e20:	0000                	unimp
    1e22:	030e                	slli	t1,t1,0x3
    1e24:	0854                	addi	a3,sp,20
    1e26:	0000                	unimp
    1e28:	0310                	addi	a2,sp,384
    1e2a:	00000897          	auipc	a7,0x0
    1e2e:	0311                	addi	t1,t1,4
    1e30:	06bc                	addi	a5,sp,840
    1e32:	0000                	unimp
    1e34:	0312                	slli	t1,t1,0x4
    1e36:	06f4                	addi	a3,sp,844
    1e38:	0000                	unimp
    1e3a:	06260313          	addi	t1,a2,98 # 1d062 <wiring.c.7604182b+0x1a6c9>
    1e3e:	0000                	unimp
    1e40:	0314                	addi	a3,sp,384
    1e42:	064c                	addi	a1,sp,772
    1e44:	0000                	unimp
    1e46:	0315                	addi	t1,t1,5
    1e48:	081a                	slli	a6,a6,0x6
    1e4a:	0000                	unimp
    1e4c:	0316                	slli	t1,t1,0x5
    1e4e:	0676                	slli	a2,a2,0x1d
    1e50:	0000                	unimp
    1e52:	08b00317          	auipc	t1,0x8b00
    1e56:	0000                	unimp
    1e58:	0318                	addi	a4,sp,384
    1e5a:	073a                	slli	a4,a4,0xe
    1e5c:	0000                	unimp
    1e5e:	0319                	addi	t1,t1,6
    1e60:	09f0                	addi	a2,sp,220
    1e62:	0000                	unimp
    1e64:	031a                	slli	t1,t1,0x6
    1e66:	00000807          	0x807
    1e6a:	0655031b          	0x655031b
    1e6e:	0000                	unimp
    1e70:	031c                	addi	a5,sp,384
    1e72:	08a0                	addi	s0,sp,88
    1e74:	0000                	unimp
    1e76:	031d                	addi	t1,t1,7
    1e78:	000006c7          	fmsub.s	fa3,ft0,ft0,ft0,rne
    1e7c:	031e                	slli	t1,t1,0x7
    1e7e:	0000094f          	fnmadd.s	fs2,ft0,ft0,ft0,rne
    1e82:	031f 0902 0000      	0x902031f
    1e88:	0320                	addi	s0,sp,392
    1e8a:	0730                	addi	a2,sp,904
    1e8c:	0000                	unimp
    1e8e:	0321                	addi	t1,t1,8
    1e90:	06fd                	addi	a3,a3,31
    1e92:	0000                	unimp
    1e94:	0322                	slli	t1,t1,0x8
    1e96:	08d9                	addi	a7,a7,22
    1e98:	0000                	unimp
    1e9a:	093d0323          	sb	s3,134(s10)
    1e9e:	0000                	unimp
    1ea0:	0324                	addi	s1,sp,392
    1ea2:	0930                	addi	a2,sp,152
    1ea4:	0000                	unimp
    1ea6:	0325                	addi	t1,t1,9
    1ea8:	0966                	slli	s2,s2,0x19
    1eaa:	0000                	unimp
    1eac:	0026                	c.slli	zero,0x9
    1eae:	0404                	addi	s1,sp,512
    1eb0:	00027807          	0x27807
    1eb4:	0500                	addi	s0,sp,640
    1eb6:	0000079b          	0x79b
    1eba:	6301                	0x6301
    1ebc:	00001d03          	lh	s10,0(zero) # 0 <InterruptVector>
    1ec0:	0400                	addi	s0,sp,512
    1ec2:	0601                	addi	a2,a2,0
    1ec4:	00000533          	add	a0,zero,zero
    1ec8:	f005                	bnez	s0,1de8 <main_pwm.c.a2cb4005+0xc>
    1eca:	0004                	0x4
    1ecc:	0200                	addi	s0,sp,256
    1ece:	00f8182b          	0xf8182b
    1ed2:	0000                	unimp
    1ed4:	0104                	addi	s1,sp,128
    1ed6:	3108                	fld	fa0,32(a0)
    1ed8:	0005                	c.nop	1
    1eda:	0400                	addi	s0,sp,512
    1edc:	0502                	c.slli64	a0
    1ede:	00000473          	0x473
    1ee2:	b405                	j	1902 <ch32v003fun.c.8affbd33+0xa60>
    1ee4:	0002                	c.slli64	zero
    1ee6:	0200                	addi	s0,sp,256
    1ee8:	1939                	addi	s2,s2,-18
    1eea:	0112                	slli	sp,sp,0x4
    1eec:	0000                	unimp
    1eee:	0204                	addi	s1,sp,256
    1ef0:	0005cc07          	flq	fs8,0(a1)
    1ef4:	0400                	addi	s0,sp,512
    1ef6:	0504                	addi	s1,sp,640
    1ef8:	037c                	addi	a5,sp,396
    1efa:	0000                	unimp
    1efc:	3f05                	jal	1e2c <main_pwm.c.a2cb4005+0x50>
    1efe:	0005                	c.nop	1
    1f00:	0200                	addi	s0,sp,256
    1f02:	012c194f          	fnmadd.s	fs2,fs8,fs2,ft0,rtz
    1f06:	0000                	unimp
    1f08:	0404                	addi	s1,sp,512
    1f0a:	00027307          	0x27307
    1f0e:	0400                	addi	s0,sp,512
    1f10:	0508                	addi	a0,sp,640
    1f12:	00000377          	0x377
    1f16:	0804                	addi	s1,sp,16
    1f18:	00026e07          	0x26e07
    1f1c:	0600                	addi	s0,sp,768
    1f1e:	0504                	addi	s1,sp,640
    1f20:	6e69                	lui	t3,0x1a
    1f22:	0074                	addi	a3,sp,12
    1f24:	f205                	bnez	a2,1e44 <main_pwm.c.a2cb4005+0x68>
    1f26:	0004                	0x4
    1f28:	0300                	addi	s0,sp,384
    1f2a:	1318                	addi	a4,sp,416
    1f2c:	00ec                	addi	a1,sp,76
    1f2e:	0000                	unimp
    1f30:	00014807          	flq	fa6,0(sp)
    1f34:	0800                	addi	s0,sp,16
    1f36:	0154                	addi	a3,sp,132
    1f38:	0000                	unimp
    1f3a:	4808                	lw	a0,16(s0)
    1f3c:	0001                	nop
    1f3e:	0500                	addi	s0,sp,640
    1f40:	02b6                	slli	t0,t0,0xd
    1f42:	0000                	unimp
    1f44:	06142403          	lw	s0,97(s0)
    1f48:	0001                	nop
    1f4a:	0800                	addi	s0,sp,16
    1f4c:	00000163          	beqz	zero,1f4e <main_pwm.c.a2cb4005+0x172>
    1f50:	4105                	li	sp,1
    1f52:	0005                	c.nop	1
    1f54:	0300                	addi	s0,sp,384
    1f56:	1430                	addi	a2,sp,552
    1f58:	0120                	addi	s0,sp,136
    1f5a:	0000                	unimp
    1f5c:	7408                	flw	fa0,40(s0)
    1f5e:	0001                	nop
    1f60:	0700                	addi	s0,sp,896
    1f62:	0180                	addi	s0,sp,192
    1f64:	0000                	unimp
    1f66:	5409                	li	s0,-30
    1f68:	7101                	addi	sp,sp,-512
    1f6a:	a509                	j	256c <main_pwm.c.a2cb4005+0x790>
    1f6c:	0002                	c.slli64	zero
    1f6e:	0a00                	addi	s0,sp,272
    1f70:	0000057b          	0x57b
    1f74:	7301                	lui	t1,0xfffe0
    1f76:	00018013          	mv	zero,gp
    1f7a:	0000                	unimp
    1f7c:	ae0a                	fsd	ft2,280(sp)
    1f7e:	0006                	c.slli	zero,0x1
    1f80:	0100                	addi	s0,sp,128
    1f82:	1374                	addi	a3,sp,428
    1f84:	0180                	addi	s0,sp,192
    1f86:	0000                	unimp
    1f88:	0a04                	addi	s1,sp,272
    1f8a:	06b6                	slli	a3,a3,0xd
    1f8c:	0000                	unimp
    1f8e:	7501                	lui	a0,0xfffe0
    1f90:	00018013          	mv	zero,gp
    1f94:	0800                	addi	s0,sp,16
    1f96:	4d0a                	lw	s10,128(sp)
    1f98:	01000007          	0x1000007
    1f9c:	1376                	slli	t1,t1,0x3d
    1f9e:	0180                	addi	s0,sp,192
    1fa0:	0000                	unimp
    1fa2:	0a0c                	addi	a1,sp,272
    1fa4:	0755                	addi	a4,a4,21
    1fa6:	0000                	unimp
    1fa8:	7701                	lui	a4,0xfffe0
    1faa:	00018013          	mv	zero,gp
    1fae:	1000                	addi	s0,sp,32
    1fb0:	830a                	mv	t1,sp
    1fb2:	01000007          	0x1000007
    1fb6:	1378                	addi	a4,sp,428
    1fb8:	0180                	addi	s0,sp,192
    1fba:	0000                	unimp
    1fbc:	0a14                	addi	a3,sp,272
    1fbe:	0789                	addi	a5,a5,2
    1fc0:	0000                	unimp
    1fc2:	7901                	lui	s2,0xfffe0
    1fc4:	00018013          	mv	zero,gp
    1fc8:	1800                	addi	s0,sp,48
    1fca:	8f0a                	mv	t5,sp
    1fcc:	01000007          	0x1000007
    1fd0:	137a                	slli	t1,t1,0x3e
    1fd2:	0180                	addi	s0,sp,192
    1fd4:	0000                	unimp
    1fd6:	0a1c                	addi	a5,sp,272
    1fd8:	0795                	addi	a5,a5,5
    1fda:	0000                	unimp
    1fdc:	7b01                	lui	s6,0xfffe0
    1fde:	00018013          	mv	zero,gp
    1fe2:	2000                	fld	fs0,0(s0)
    1fe4:	380a                	fld	fa6,160(sp)
    1fe6:	0006                	c.slli	zero,0x1
    1fe8:	0100                	addi	s0,sp,128
    1fea:	137c                	addi	a5,sp,428
    1fec:	0180                	addi	s0,sp,192
    1fee:	0000                	unimp
    1ff0:	0a24                	addi	s1,sp,280
    1ff2:	0690                	addi	a2,sp,832
    1ff4:	0000                	unimp
    1ff6:	7d01                	lui	s10,0xfffe0
    1ff8:	00018013          	mv	zero,gp
    1ffc:	2800                	fld	fs0,16(s0)
    1ffe:	7a0a                	flw	fs4,160(sp)
    2000:	0009                	c.nop	2
    2002:	0100                	addi	s0,sp,128
    2004:	137e                	slli	t1,t1,0x3f
    2006:	0180                	addi	s0,sp,192
    2008:	0000                	unimp
    200a:	0a2c                	addi	a1,sp,280
    200c:	0980                	addi	s0,sp,208
    200e:	0000                	unimp
    2010:	7f01                	lui	t5,0xfffe0
    2012:	00018013          	mv	zero,gp
    2016:	3000                	fld	fs0,32(s0)
    2018:	860a                	mv	a2,sp
    201a:	0009                	c.nop	2
    201c:	0100                	addi	s0,sp,128
    201e:	1380                	addi	s0,sp,480
    2020:	0180                	addi	s0,sp,192
    2022:	0000                	unimp
    2024:	0a34                	addi	a3,sp,280
    2026:	0621                	addi	a2,a2,8
    2028:	0000                	unimp
    202a:	8101                	c.srli64	a0
    202c:	00018013          	mv	zero,gp
    2030:	3800                	fld	fs0,48(s0)
    2032:	c30a                	sw	sp,132(sp)
    2034:	01000007          	0x1000007
    2038:	1382                	slli	t2,t2,0x20
    203a:	0180                	addi	s0,sp,192
    203c:	0000                	unimp
    203e:	0a3c                	addi	a5,sp,280
    2040:	000007cb          	fnmsub.s	fa5,ft0,ft0,ft0,rne
    2044:	8301                	c.srli64	a4
    2046:	00018013          	mv	zero,gp
    204a:	4000                	lw	s0,0(s0)
    204c:	d30a                	sw	sp,164(sp)
    204e:	01000007          	0x1000007
    2052:	1384                	addi	s1,sp,480
    2054:	0180                	addi	s0,sp,192
    2056:	0000                	unimp
    2058:	0a44                	addi	s1,sp,276
    205a:	000007db          	0x7db
    205e:	8501                	c.srai64	a0
    2060:	00018013          	mv	zero,gp
    2064:	4800                	lw	s0,16(s0)
    2066:	a90a                	fsd	ft2,144(sp)
    2068:	0008                	0x8
    206a:	0100                	addi	s0,sp,128
    206c:	1386                	slli	t2,t2,0x21
    206e:	0180                	addi	s0,sp,192
    2070:	0000                	unimp
    2072:	0a4c                	addi	a1,sp,276
    2074:	09dd                	addi	s3,s3,23
    2076:	0000                	unimp
    2078:	8701                	c.srai64	a4
    207a:	00018013          	mv	zero,gp
    207e:	5000                	lw	s0,32(s0)
    2080:	0500                	addi	s0,sp,640
    2082:	0848                	addi	a0,sp,20
    2084:	0000                	unimp
    2086:	8801                	andi	s0,s0,0
    2088:	00018a03          	lb	s4,0(gp) # 20000930 <__global_pointer$>
    208c:	0b00                	addi	s0,sp,400
    208e:	011c                	addi	a5,sp,128
    2090:	1e090137          	lui	sp,0x1e090
    2094:	0c000003          	lb	zero,192(zero) # c0 <__mulsi3+0x20>
    2098:	023c                	addi	a5,sp,264
    209a:	0000                	unimp
    209c:	3901                	jal	1cac <ch32v003fun.c.8affbd33+0xe0a>
    209e:	1001                	c.nop	-32
    20a0:	0180                	addi	s0,sp,192
    20a2:	0000                	unimp
    20a4:	0c00                	addi	s0,sp,528
    20a6:	000005fb          	0x5fb
    20aa:	3a01                	jal	19ba <ch32v003fun.c.8affbd33+0xb18>
    20ac:	1001                	c.nop	-32
    20ae:	0180                	addi	s0,sp,192
    20b0:	0000                	unimp
    20b2:	0c04                	addi	s1,sp,528
    20b4:	000001bb          	0x1bb
    20b8:	3b01                	jal	1dc8 <ch32v003fun.c.8affbd33+0xf26>
    20ba:	1001                	c.nop	-32
    20bc:	0185                	addi	gp,gp,1
    20be:	0000                	unimp
    20c0:	0c08                	addi	a0,sp,528
    20c2:	02f6                	slli	t0,t0,0x1d
    20c4:	0000                	unimp
    20c6:	3c01                	jal	1ad6 <ch32v003fun.c.8affbd33+0xc34>
    20c8:	1001                	c.nop	-32
    20ca:	0180                	addi	s0,sp,192
    20cc:	0000                	unimp
    20ce:	0c0c                	addi	a1,sp,528
    20d0:	033e                	slli	t1,t1,0xf
    20d2:	0000                	unimp
    20d4:	3d01                	jal	1ee4 <main_pwm.c.a2cb4005+0x108>
    20d6:	1001                	c.nop	-32
    20d8:	0180                	addi	s0,sp,192
    20da:	0000                	unimp
    20dc:	0d10                	addi	a2,sp,656
    20de:	4342                	lw	t1,16(sp)
    20e0:	0052                	c.slli	zero,0x14
    20e2:	3e01                	jal	1bf2 <ch32v003fun.c.8affbd33+0xd50>
    20e4:	1001                	c.nop	-32
    20e6:	0180                	addi	s0,sp,192
    20e8:	0000                	unimp
    20ea:	0c14                	addi	a3,sp,528
    20ec:	0615                	addi	a2,a2,5
    20ee:	0000                	unimp
    20f0:	3f01                	jal	2000 <main_pwm.c.a2cb4005+0x224>
    20f2:	1001                	c.nop	-32
    20f4:	0180                	addi	s0,sp,192
    20f6:	0000                	unimp
    20f8:	0018                	0x18
    20fa:	fa0e                	fsw	ft3,52(sp)
    20fc:	0004                	0x4
    20fe:	0100                	addi	s0,sp,128
    2100:	0140                	addi	s0,sp,132
    2102:	0002b103          	0x2b103
    2106:	0b00                	addi	s0,sp,400
    2108:	010c                	addi	a1,sp,128
    210a:	60090147          	fmsub.s	ft2,fs2,ft0,fa2,rne
    210e:	0c000003          	lb	zero,192(zero) # c0 <__mulsi3+0x20>
    2112:	042d                	addi	s0,s0,11
    2114:	0000                	unimp
    2116:	4901                	li	s2,0
    2118:	0e01                	addi	t3,t3,0
    211a:	0174                	addi	a3,sp,140
    211c:	0000                	unimp
    211e:	0c00                	addi	s0,sp,528
    2120:	0a16                	slli	s4,s4,0x5
    2122:	0000                	unimp
    2124:	4a01                	li	s4,0
    2126:	1301                	addi	t1,t1,-32
    2128:	0180                	addi	s0,sp,192
    212a:	0000                	unimp
    212c:	0c04                	addi	s1,sp,528
    212e:	00000837          	lui	a6,0x0
    2132:	4b01                	li	s6,0
    2134:	1301                	addi	t1,t1,-32
    2136:	0180                	addi	s0,sp,192
    2138:	0000                	unimp
    213a:	0008                	0x8
    213c:	fa0e                	fsw	ft3,52(sp)
    213e:	01000007          	0x1000007
    2142:	014c                	addi	a1,sp,132
    2144:	00032b03          	lw	s6,0(t1) # fffe0000 <__global_pointer$+0xdffdf6d0>
    2148:	0b00                	addi	s0,sp,400
    214a:	0128                	addi	a0,sp,136
    214c:	04090177          	0x4090177
    2150:	0004                	0x4
    2152:	0c00                	addi	s0,sp,528
    2154:	0000032b          	0x32b
    2158:	7901                	lui	s2,0xfffe0
    215a:	1301                	addi	t1,t1,-32
    215c:	0180                	addi	s0,sp,192
    215e:	0000                	unimp
    2160:	0c00                	addi	s0,sp,528
    2162:	000003b7          	lui	t2,0x0
    2166:	7a01                	lui	s4,0xfffe0
    2168:	1301                	addi	t1,t1,-32
    216a:	0180                	addi	s0,sp,192
    216c:	0000                	unimp
    216e:	0c04                	addi	s1,sp,528
    2170:	0229                	addi	tp,tp,10
    2172:	0000                	unimp
    2174:	7b01                	lui	s6,0xfffe0
    2176:	1301                	addi	t1,t1,-32
    2178:	0180                	addi	s0,sp,192
    217a:	0000                	unimp
    217c:	0c08                	addi	a0,sp,528
    217e:	04e0                	addi	s0,sp,588
    2180:	0000                	unimp
    2182:	7c01                	lui	s8,0xfffe0
    2184:	1301                	addi	t1,t1,-32
    2186:	0180                	addi	s0,sp,192
    2188:	0000                	unimp
    218a:	0c0c                	addi	a1,sp,528
    218c:	021f 0000 7d01      	0x7d010000021f
    2192:	1301                	addi	t1,t1,-32
    2194:	0180                	addi	s0,sp,192
    2196:	0000                	unimp
    2198:	0c10                	addi	a2,sp,528
    219a:	03ae                	slli	t2,t2,0xb
    219c:	0000                	unimp
    219e:	7e01                	lui	t3,0xfffe0
    21a0:	1301                	addi	t1,t1,-32
    21a2:	0180                	addi	s0,sp,192
    21a4:	0000                	unimp
    21a6:	0c14                	addi	a3,sp,528
    21a8:	01b1                	addi	gp,gp,12
    21aa:	0000                	unimp
    21ac:	7f01                	lui	t5,0xfffe0
    21ae:	1301                	addi	t1,t1,-32
    21b0:	0180                	addi	s0,sp,192
    21b2:	0000                	unimp
    21b4:	0c18                	addi	a4,sp,528
    21b6:	000003cf          	fnmadd.s	ft7,ft0,ft0,ft0,rne
    21ba:	8001                	c.srli64	s0
    21bc:	1301                	addi	t1,t1,-32
    21be:	0180                	addi	s0,sp,192
    21c0:	0000                	unimp
    21c2:	0c1c                	addi	a5,sp,528
    21c4:	042d                	addi	s0,s0,11
    21c6:	0000                	unimp
    21c8:	8101                	c.srli64	a0
    21ca:	1301                	addi	t1,t1,-32
    21cc:	0180                	addi	s0,sp,192
    21ce:	0000                	unimp
    21d0:	0c20                	addi	s0,sp,536
    21d2:	041e                	slli	s0,s0,0x7
    21d4:	0000                	unimp
    21d6:	8201                	c.srli64	a2
    21d8:	1301                	addi	t1,t1,-32
    21da:	0180                	addi	s0,sp,192
    21dc:	0000                	unimp
    21de:	0024                	addi	s1,sp,8
    21e0:	1e0e                	slli	t3,t3,0x23
    21e2:	01000003          	lb	zero,16(zero) # 10 <InterruptVector+0x10>
    21e6:	6d030183          	lb	gp,1744(t1)
    21ea:	0b000003          	lb	zero,176(zero) # b0 <__mulsi3+0x10>
    21ee:	0150                	addi	a2,sp,132
    21f0:	019d                	addi	gp,gp,7
    21f2:	1409                	addi	s0,s0,-30
    21f4:	0006                	c.slli	zero,0x1
    21f6:	0c00                	addi	s0,sp,528
    21f8:	06ae                	slli	a3,a3,0xb
    21fa:	0000                	unimp
    21fc:	9f01                	0x9f01
    21fe:	1301                	addi	t1,t1,-32
    2200:	0000016f          	jal	sp,2200 <main_pwm.c.a2cb4005+0x424>
    2204:	0c00                	addi	s0,sp,528
    2206:	042d                	addi	s0,s0,11
    2208:	0000                	unimp
    220a:	a001                	j	220a <main_pwm.c.a2cb4005+0x42e>
    220c:	1301                	addi	t1,t1,-32
    220e:	00000163          	beqz	zero,2210 <main_pwm.c.a2cb4005+0x434>
    2212:	0c02                	c.slli64	s8
    2214:	06b6                	slli	a3,a3,0xd
    2216:	0000                	unimp
    2218:	a101                	j	2618 <main_pwm.c.a2cb4005+0x83c>
    221a:	1301                	addi	t1,t1,-32
    221c:	0000016f          	jal	sp,221c <main_pwm.c.a2cb4005+0x440>
    2220:	0c04                	addi	s1,sp,528
    2222:	00000437          	lui	s0,0x0
    2226:	a201                	j	2326 <main_pwm.c.a2cb4005+0x54a>
    2228:	1301                	addi	t1,t1,-32
    222a:	00000163          	beqz	zero,222c <main_pwm.c.a2cb4005+0x450>
    222e:	0c06                	slli	s8,s8,0x1
    2230:	0689                	addi	a3,a3,2
    2232:	0000                	unimp
    2234:	a301                	j	2734 <main_pwm.c.a2cb4005+0x958>
    2236:	1301                	addi	t1,t1,-32
    2238:	0000016f          	jal	sp,2238 <main_pwm.c.a2cb4005+0x45c>
    223c:	0c08                	addi	a0,sp,528
    223e:	0441                	addi	s0,s0,16
    2240:	0000                	unimp
    2242:	a401                	j	2442 <main_pwm.c.a2cb4005+0x666>
    2244:	1301                	addi	t1,t1,-32
    2246:	00000163          	beqz	zero,2248 <main_pwm.c.a2cb4005+0x46c>
    224a:	0c0a                	slli	s8,s8,0x2
    224c:	095c                	addi	a5,sp,148
    224e:	0000                	unimp
    2250:	a501                	j	2850 <main_pwm.c.a2cb4005+0xa74>
    2252:	1301                	addi	t1,t1,-32
    2254:	0000016f          	jal	sp,2254 <main_pwm.c.a2cb4005+0x478>
    2258:	0c0c                	addi	a1,sp,528
    225a:	0000044b          	fnmsub.s	fs0,ft0,ft0,ft0,rne
    225e:	a601                	j	255e <main_pwm.c.a2cb4005+0x782>
    2260:	1301                	addi	t1,t1,-32
    2262:	00000163          	beqz	zero,2264 <main_pwm.c.a2cb4005+0x488>
    2266:	0c0e                	slli	s8,s8,0x3
    2268:	085e                	slli	a6,a6,0x17
    226a:	0000                	unimp
    226c:	a701                	j	296c <main_pwm.c.a2cb4005+0xb90>
    226e:	1301                	addi	t1,t1,-32
    2270:	0000016f          	jal	sp,2270 <main_pwm.c.a2cb4005+0x494>
    2274:	0c10                	addi	a2,sp,528
    2276:	0455                	addi	s0,s0,21
    2278:	0000                	unimp
    227a:	a801                	j	228a <main_pwm.c.a2cb4005+0x4ae>
    227c:	1301                	addi	t1,t1,-32
    227e:	00000163          	beqz	zero,2280 <main_pwm.c.a2cb4005+0x4a4>
    2282:	0c12                	slli	s8,s8,0x4
    2284:	06a5                	addi	a3,a3,9
    2286:	0000                	unimp
    2288:	a901                	j	2698 <main_pwm.c.a2cb4005+0x8bc>
    228a:	1301                	addi	t1,t1,-32
    228c:	0000016f          	jal	sp,228c <main_pwm.c.a2cb4005+0x4b0>
    2290:	0c14                	addi	a3,sp,528
    2292:	045f 0000 aa01      	0xaa010000045f
    2298:	1301                	addi	t1,t1,-32
    229a:	00000163          	beqz	zero,229c <main_pwm.c.a2cb4005+0x4c0>
    229e:	0c16                	slli	s8,s8,0x5
    22a0:	06ac                	addi	a1,sp,840
    22a2:	0000                	unimp
    22a4:	ab01                	j	27b4 <main_pwm.c.a2cb4005+0x9d8>
    22a6:	1301                	addi	t1,t1,-32
    22a8:	0000016f          	jal	sp,22a8 <main_pwm.c.a2cb4005+0x4cc>
    22ac:	0c18                	addi	a4,sp,528
    22ae:	0469                	addi	s0,s0,26
    22b0:	0000                	unimp
    22b2:	ac01                	j	24c2 <main_pwm.c.a2cb4005+0x6e6>
    22b4:	1301                	addi	t1,t1,-32
    22b6:	00000163          	beqz	zero,22b8 <main_pwm.c.a2cb4005+0x4dc>
    22ba:	0c1a                	slli	s8,s8,0x6
    22bc:	06b4                	addi	a3,sp,840
    22be:	0000                	unimp
    22c0:	ad01                	j	28d0 <main_pwm.c.a2cb4005+0xaf4>
    22c2:	1301                	addi	t1,t1,-32
    22c4:	0000016f          	jal	sp,22c4 <main_pwm.c.a2cb4005+0x4e8>
    22c8:	0c1c                	addi	a5,sp,528
    22ca:	0a26                	slli	s4,s4,0x9
    22cc:	0000                	unimp
    22ce:	ae01                	j	25de <main_pwm.c.a2cb4005+0x802>
    22d0:	1301                	addi	t1,t1,-32
    22d2:	00000163          	beqz	zero,22d4 <main_pwm.c.a2cb4005+0x4f8>
    22d6:	0c1e                	slli	s8,s8,0x7
    22d8:	07f5                	addi	a5,a5,29
    22da:	0000                	unimp
    22dc:	af01                	j	29ec <wiring.c.7604182b+0x53>
    22de:	1301                	addi	t1,t1,-32
    22e0:	0000016f          	jal	sp,22e0 <main_pwm.c.a2cb4005+0x504>
    22e4:	0c20                	addi	s0,sp,536
    22e6:	08ee                	slli	a7,a7,0x1b
    22e8:	0000                	unimp
    22ea:	b001                	j	1aea <ch32v003fun.c.8affbd33+0xc48>
    22ec:	1301                	addi	t1,t1,-32
    22ee:	00000163          	beqz	zero,22f0 <main_pwm.c.a2cb4005+0x514>
    22f2:	0d22                	slli	s10,s10,0x8
    22f4:	00544e43          	fmadd.s	ft8,fs0,ft5,ft0,rmm
    22f8:	b101                	j	1ef8 <main_pwm.c.a2cb4005+0x11c>
    22fa:	1301                	addi	t1,t1,-32
    22fc:	0000016f          	jal	sp,22fc <main_pwm.c.a2cb4005+0x520>
    2300:	0c24                	addi	s1,sp,536
    2302:	08f8                	addi	a4,sp,92
    2304:	0000                	unimp
    2306:	b201                	j	1c06 <ch32v003fun.c.8affbd33+0xd64>
    2308:	1301                	addi	t1,t1,-32
    230a:	00000163          	beqz	zero,230c <main_pwm.c.a2cb4005+0x530>
    230e:	0d26                	slli	s10,s10,0x9
    2310:	5350                	lw	a2,36(a4)
    2312:	b3010043          	fmadd.d	ft0,ft2,fa6,fs6,rne
    2316:	1301                	addi	t1,t1,-32
    2318:	0000016f          	jal	sp,2318 <main_pwm.c.a2cb4005+0x53c>
    231c:	0c28                	addi	a0,sp,536
    231e:	0000099b          	0x99b
    2322:	b401                	j	1d22 <ch32v003fun.c.8affbd33+0xe80>
    2324:	1301                	addi	t1,t1,-32
    2326:	00000163          	beqz	zero,2328 <main_pwm.c.a2cb4005+0x54c>
    232a:	0c2a                	slli	s8,s8,0xa
    232c:	07bd                	addi	a5,a5,15
    232e:	0000                	unimp
    2330:	b501                	j	2130 <main_pwm.c.a2cb4005+0x354>
    2332:	1301                	addi	t1,t1,-32
    2334:	0000016f          	jal	sp,2334 <main_pwm.c.a2cb4005+0x558>
    2338:	0c2c                	addi	a1,sp,536
    233a:	09a6                	slli	s3,s3,0x9
    233c:	0000                	unimp
    233e:	b601                	j	1e3e <main_pwm.c.a2cb4005+0x62>
    2340:	1301                	addi	t1,t1,-32
    2342:	00000163          	beqz	zero,2344 <main_pwm.c.a2cb4005+0x568>
    2346:	0c2e                	slli	s8,s8,0xb
    2348:	000007ab          	0x7ab
    234c:	b701                	j	224c <main_pwm.c.a2cb4005+0x470>
    234e:	1301                	addi	t1,t1,-32
    2350:	0000016f          	jal	sp,2350 <main_pwm.c.a2cb4005+0x574>
    2354:	0c30                	addi	a2,sp,536
    2356:	09b1                	addi	s3,s3,12
    2358:	0000                	unimp
    235a:	b801                	j	1b6a <ch32v003fun.c.8affbd33+0xcc8>
    235c:	1301                	addi	t1,t1,-32
    235e:	00000163          	beqz	zero,2360 <main_pwm.c.a2cb4005+0x584>
    2362:	0c32                	slli	s8,s8,0xc
    2364:	0888                	addi	a0,sp,80
    2366:	0000                	unimp
    2368:	b901                	j	1f78 <main_pwm.c.a2cb4005+0x19c>
    236a:	1301                	addi	t1,t1,-32
    236c:	0180                	addi	s0,sp,192
    236e:	0000                	unimp
    2370:	0c34                	addi	a3,sp,536
    2372:	06dd                	addi	a3,a3,23
    2374:	0000                	unimp
    2376:	ba01                	j	1c86 <ch32v003fun.c.8affbd33+0xde4>
    2378:	1301                	addi	t1,t1,-32
    237a:	0180                	addi	s0,sp,192
    237c:	0000                	unimp
    237e:	0c38                	addi	a4,sp,536
    2380:	0915                	addi	s2,s2,5
    2382:	0000                	unimp
    2384:	bb01                	j	2094 <main_pwm.c.a2cb4005+0x2b8>
    2386:	1301                	addi	t1,t1,-32
    2388:	0180                	addi	s0,sp,192
    238a:	0000                	unimp
    238c:	0c3c                	addi	a5,sp,536
    238e:	0762                	slli	a4,a4,0x18
    2390:	0000                	unimp
    2392:	bc01                	j	1da2 <ch32v003fun.c.8affbd33+0xf00>
    2394:	1301                	addi	t1,t1,-32
    2396:	0180                	addi	s0,sp,192
    2398:	0000                	unimp
    239a:	0c40                	addi	s0,sp,532
    239c:	071d                	addi	a4,a4,7
    239e:	0000                	unimp
    23a0:	bd01                	j	21b0 <main_pwm.c.a2cb4005+0x3d4>
    23a2:	1301                	addi	t1,t1,-32
    23a4:	0000016f          	jal	sp,23a4 <main_pwm.c.a2cb4005+0x5c8>
    23a8:	0c44                	addi	s1,sp,532
    23aa:	09bc                	addi	a5,sp,216
    23ac:	0000                	unimp
    23ae:	be01                	j	1ebe <main_pwm.c.a2cb4005+0xe2>
    23b0:	1301                	addi	t1,t1,-32
    23b2:	00000163          	beqz	zero,23b4 <main_pwm.c.a2cb4005+0x5d8>
    23b6:	0c46                	slli	s8,s8,0x11
    23b8:	0000088f          	0x88f
    23bc:	bf01                	j	22cc <main_pwm.c.a2cb4005+0x4f0>
    23be:	1301                	addi	t1,t1,-32
    23c0:	0000016f          	jal	sp,23c0 <main_pwm.c.a2cb4005+0x5e4>
    23c4:	0c48                	addi	a0,sp,532
    23c6:	000009c7          	fmsub.s	fs3,ft0,ft0,ft0,rne
    23ca:	c001                	beqz	s0,23ca <main_pwm.c.a2cb4005+0x5ee>
    23cc:	1301                	addi	t1,t1,-32
    23ce:	00000163          	beqz	zero,23d0 <main_pwm.c.a2cb4005+0x5f4>
    23d2:	0c4a                	slli	s8,s8,0x12
    23d4:	090e                	slli	s2,s2,0x3
    23d6:	0000                	unimp
    23d8:	c101                	beqz	a0,23d8 <main_pwm.c.a2cb4005+0x5fc>
    23da:	1301                	addi	t1,t1,-32
    23dc:	0000016f          	jal	sp,23dc <main_pwm.c.a2cb4005+0x600>
    23e0:	0c4c                	addi	a1,sp,532
    23e2:	09d2                	slli	s3,s3,0x14
    23e4:	0000                	unimp
    23e6:	c201                	beqz	a2,23e6 <main_pwm.c.a2cb4005+0x60a>
    23e8:	1301                	addi	t1,t1,-32
    23ea:	00000163          	beqz	zero,23ec <main_pwm.c.a2cb4005+0x610>
    23ee:	004e                	c.slli	zero,0x13
    23f0:	110e                	slli	sp,sp,0x23
    23f2:	01000007          	0x1000007
    23f6:	110301c3          	fmadd.s	ft3,ft6,fa6,ft2,rne
    23fa:	0004                	0x4
    23fc:	0f00                	addi	s0,sp,912
    23fe:	0159                	addi	sp,sp,22
    2400:	0000                	unimp
    2402:	0631                	addi	a2,a2,12
    2404:	0000                	unimp
    2406:	d210                	sw	a2,32(a2)
    2408:	0000                	unimp
    240a:	0f00                	addi	s0,sp,912
    240c:	0700                	addi	s0,sp,896
    240e:	0621                	addi	a2,a2,8
    2410:	0000                	unimp
    2412:	3108                	fld	fa0,32(a0)
    2414:	0006                	c.slli	zero,0x1
    2416:	1100                	addi	s0,sp,160
    2418:	048e                	slli	s1,s1,0x3
    241a:	0000                	unimp
    241c:	7301                	lui	t1,0xfffe0
    241e:	0636140b          	0x636140b
    2422:	0000                	unimp
    2424:	0001590f          	0x1590f
    2428:	5800                	lw	s0,48(s0)
    242a:	0006                	c.slli	zero,0x1
    242c:	1000                	addi	s0,sp,32
    242e:	00d2                	slli	ra,ra,0x14
    2430:	0000                	unimp
    2432:	48070013          	addi	zero,a4,1152 # fffe0480 <__global_pointer$+0xdffdfb50>
    2436:	0006                	c.slli	zero,0x1
    2438:	0800                	addi	s0,sp,16
    243a:	0658                	addi	a4,sp,772
    243c:	0000                	unimp
    243e:	6511                	lui	a0,0x4
    2440:	0001                	nop
    2442:	0100                	addi	s0,sp,128
    2444:	0b74                	addi	a3,sp,412
    2446:	5d14                	lw	a3,56(a0)
    2448:	0006                	c.slli	zero,0x1
    244a:	1200                	addi	s0,sp,288
    244c:	00d20407          	0xd20407
    2450:	0000                	unimp
    2452:	1301                	addi	t1,t1,-32
    2454:	010d                	addi	sp,sp,3
    2456:	0691                	addi	a3,a3,4
    2458:	0000                	unimp
    245a:	00025503          	lhu	a0,0(tp) # 6000 <wiring.c.7604182b+0x3667>
    245e:	0100                	addi	s0,sp,128
    2460:	0001cf03          	lbu	t5,0(gp) # 20000930 <__global_pointer$>
    2464:	0200                	addi	s0,sp,256
    2466:	00054a03          	lbu	s4,0(a0) # 4000 <wiring.c.7604182b+0x1667>
    246a:	0300                	addi	s0,sp,384
    246c:	1300                	addi	s0,sp,416
    246e:	0d14                	addi	a3,sp,656
    2470:	4101                	li	sp,0
    2472:	0911                	addi	s2,s2,4
    2474:	07ec                	addi	a1,sp,972
    2476:	0000                	unimp
    2478:	490d                	li	s2,3
    247a:	01005253          	fadd.s	ft4,ft0,fa6,unknown
    247e:	1142                	slli	sp,sp,0x30
    2480:	00080113          	mv	sp,a6
    2484:	0000                	unimp
    2486:	490d                	li	s2,3
    2488:	5250                	lw	a2,36(a2)
    248a:	0100                	addi	s0,sp,128
    248c:	06131143          	fmadd.q	ft2,ft6,ft1,ft0,rtz
    2490:	0008                	0x8
    2492:	2000                	fld	fs0,0(s0)
    2494:	d40c                	sw	a1,40(s0)
    2496:	0006                	c.slli	zero,0x1
    2498:	0100                	addi	s0,sp,128
    249a:	1144                	addi	s1,sp,164
    249c:	00018013          	mv	zero,gp
    24a0:	4000                	lw	s0,0(s0)
    24a2:	0d0c                	addi	a1,sp,656
    24a4:	0001                	nop
    24a6:	0100                	addi	s0,sp,128
    24a8:	1145                	addi	sp,sp,-15
    24aa:	00018013          	mv	zero,gp
    24ae:	4400                	lw	s0,8(s0)
    24b0:	920c                	0x920c
    24b2:	0008                	0x8
    24b4:	0100                	addi	s0,sp,128
    24b6:	1146                	slli	sp,sp,0x31
    24b8:	00018013          	mv	zero,gp
    24bc:	4800                	lw	s0,16(s0)
    24be:	330c                	fld	fa1,32(a4)
    24c0:	0006                	c.slli	zero,0x1
    24c2:	0100                	addi	s0,sp,128
    24c4:	85131147          	0x85131147
    24c8:	0001                	nop
    24ca:	4c00                	lw	s0,24(s0)
    24cc:	ed0c                	fsw	fa1,24(a0)
    24ce:	0006                	c.slli	zero,0x1
    24d0:	0100                	addi	s0,sp,128
    24d2:	1148                	addi	a0,sp,164
    24d4:	1b12                	slli	s6,s6,0x24
    24d6:	0008                	0x8
    24d8:	5000                	lw	s0,32(s0)
    24da:	2d0c                	fld	fa1,24(a0)
    24dc:	0004                	0x4
    24de:	0100                	addi	s0,sp,128
    24e0:	1149                	addi	sp,sp,-14
    24e2:	200d                	jal	2504 <main_pwm.c.a2cb4005+0x728>
    24e4:	0008                	0x8
    24e6:	5400                	lw	s0,40(s0)
    24e8:	030c                	addi	a1,sp,384
    24ea:	000a                	c.slli	zero,0x2
    24ec:	0100                	addi	s0,sp,128
    24ee:	114a                	slli	sp,sp,0x32
    24f0:	00084013          	xori	zero,a6,0
    24f4:	6000                	flw	fs0,0(s0)
    24f6:	370c                	fld	fa1,40(a4)
    24f8:	0004                	0x4
    24fa:	0100                	addi	s0,sp,128
    24fc:	450d114b          	0x450d114b
    2500:	0008                	0x8
    2502:	7000                	flw	fs0,32(s0)
    2504:	5d14                	lw	a3,56(a0)
    2506:	01000007          	0x1000007
    250a:	114c                	addi	a1,sp,164
    250c:	00086513          	ori	a0,a6,0
    2510:	0000                	unimp
    2512:	1401                	addi	s0,s0,-32
    2514:	0441                	addi	s0,s0,16
    2516:	0000                	unimp
    2518:	4d01                	li	s10,0
    251a:	0d11                	addi	s10,s10,4
    251c:	086a                	slli	a6,a6,0x1a
    251e:	0000                	unimp
    2520:	0120                	addi	s0,sp,136
    2522:	7514                	flw	fa3,40(a0)
    2524:	0009                	c.nop	2
    2526:	0100                	addi	s0,sp,128
    2528:	114e                	slli	sp,sp,0x33
    252a:	00086513          	ori	a0,a6,0
    252e:	8000                	0x8000
    2530:	1401                	addi	s0,s0,-32
    2532:	0000044b          	fnmsub.s	fs0,ft0,ft0,ft0,rne
    2536:	4f01                	li	t5,0
    2538:	0d11                	addi	s10,s10,4
    253a:	086a                	slli	a6,a6,0x1a
    253c:	0000                	unimp
    253e:	01a0                	addi	s0,sp,200
    2540:	2114                	fld	fa3,0(a0)
    2542:	000a                	c.slli	zero,0x2
    2544:	0100                	addi	s0,sp,128
    2546:	1150                	addi	a2,sp,164
    2548:	00086513          	ori	a0,a6,0
    254c:	0000                	unimp
    254e:	1402                	slli	s0,s0,0x20
    2550:	0455                	addi	s0,s0,21
    2552:	0000                	unimp
    2554:	5101                	li	sp,-32
    2556:	0d11                	addi	s10,s10,4
    2558:	086a                	slli	a6,a6,0x1a
    255a:	0000                	unimp
    255c:	0220                	addi	s0,sp,264
    255e:	eb14                	fsw	fa3,16(a4)
    2560:	0009                	c.nop	2
    2562:	0100                	addi	s0,sp,128
    2564:	1152                	slli	sp,sp,0x34
    2566:	00086513          	ori	a0,a6,0
    256a:	8000                	0x8000
    256c:	1402                	slli	s0,s0,0x20
    256e:	045f 0000 5301      	0x53010000045f
    2574:	0d11                	addi	s10,s10,4
    2576:	086a                	slli	a6,a6,0x1a
    2578:	0000                	unimp
    257a:	02a0                	addi	s0,sp,328
    257c:	0b14                	addi	a3,sp,400
    257e:	01000007          	0x1000007
    2582:	1154                	addi	a3,sp,164
    2584:	00086513          	ori	a0,a6,0
    2588:	0000                	unimp
    258a:	04691403          	lh	s0,70(s2) # fffe0046 <__global_pointer$+0xdffdf716>
    258e:	0000                	unimp
    2590:	5501                	li	a0,-32
    2592:	0d11                	addi	s10,s10,4
    2594:	087a                	slli	a6,a6,0x1e
    2596:	0000                	unimp
    2598:	0320                	addi	s0,sp,392
    259a:	b114                	fsd	fa3,32(a0)
    259c:	01000007          	0x1000007
    25a0:	1156                	slli	sp,sp,0x35
    25a2:	9a12                	add	s4,s4,tp
    25a4:	0008                	0x8
    25a6:	0000                	unimp
    25a8:	1404                	addi	s1,sp,544
    25aa:	0a26                	slli	s4,s4,0x9
    25ac:	0000                	unimp
    25ae:	5701                	li	a4,-32
    25b0:	0d11                	addi	s10,s10,4
    25b2:	089f 0000 0500      	0x5000000089f
    25b8:	7014                	flw	fa3,32(s0)
    25ba:	0006                	c.slli	zero,0x1
    25bc:	0100                	addi	s0,sp,128
    25be:	1158                	addi	a4,sp,164
    25c0:	00018013          	mv	zero,gp
    25c4:	1000                	addi	s0,sp,32
    25c6:	000d                	c.nop	3
    25c8:	0001850f          	0x1850f
    25cc:	fc00                	fsw	fs0,56(s0)
    25ce:	10000007          	0x10000007
    25d2:	00d2                	slli	ra,ra,0x14
    25d4:	0000                	unimp
    25d6:	ec070007          	0xec070007
    25da:	08000007          	0x8000007
    25de:	07fc                	addi	a5,sp,972
    25e0:	0000                	unimp
    25e2:	fc08                	fsw	fa0,56(s0)
    25e4:	0f000007          	0xf000007
    25e8:	015e                	slli	sp,sp,0x17
    25ea:	0000                	unimp
    25ec:	0000081b          	0x81b
    25f0:	d210                	sw	a2,32(a2)
    25f2:	0000                	unimp
    25f4:	0300                	addi	s0,sp,384
    25f6:	0800                	addi	s0,sp,16
    25f8:	0000080b          	0x80b
    25fc:	0001480f          	0x1480f
    2600:	3000                	fld	fs0,32(s0)
    2602:	0008                	0x8
    2604:	1000                	addi	s0,sp,32
    2606:	00d2                	slli	ra,ra,0x14
    2608:	0000                	unimp
    260a:	800f000b          	0x800f000b
    260e:	0001                	nop
    2610:	4000                	lw	s0,0(s0)
    2612:	0008                	0x8
    2614:	1000                	addi	s0,sp,32
    2616:	00d2                	slli	ra,ra,0x14
    2618:	0000                	unimp
    261a:	30080003          	lb	zero,768(a6) # 300 <main+0x23c>
    261e:	0008                	0x8
    2620:	0f00                	addi	s0,sp,912
    2622:	0148                	addi	a0,sp,132
    2624:	0000                	unimp
    2626:	0855                	addi	a6,a6,21
    2628:	0000                	unimp
    262a:	d210                	sw	a2,32(a2)
    262c:	0000                	unimp
    262e:	8f00                	0x8f00
    2630:	0f00                	addi	s0,sp,912
    2632:	0180                	addi	s0,sp,192
    2634:	0000                	unimp
    2636:	0865                	addi	a6,a6,25
    2638:	0000                	unimp
    263a:	d210                	sw	a2,32(a2)
    263c:	0000                	unimp
    263e:	0700                	addi	s0,sp,896
    2640:	0800                	addi	s0,sp,16
    2642:	0855                	addi	a6,a6,21
    2644:	0000                	unimp
    2646:	0001480f          	0x1480f
    264a:	7a00                	flw	fs0,48(a2)
    264c:	0008                	0x8
    264e:	1000                	addi	s0,sp,32
    2650:	00d2                	slli	ra,ra,0x14
    2652:	0000                	unimp
    2654:	005f 480f 0001      	0x1480f005f
    265a:	8a00                	0x8a00
    265c:	0008                	0x8
    265e:	1000                	addi	s0,sp,32
    2660:	00d2                	slli	ra,ra,0x14
    2662:	0000                	unimp
    2664:	00df 5e0f 0001      	0x15e0f00df
    266a:	9a00                	0x9a00
    266c:	0008                	0x8
    266e:	1000                	addi	s0,sp,32
    2670:	00d2                	slli	ra,ra,0x14
    2672:	0000                	unimp
    2674:	00ff                	0xff
    2676:	8a08                	0x8a08
    2678:	0008                	0x8
    267a:	0f00                	addi	s0,sp,912
    267c:	0148                	addi	a0,sp,132
    267e:	0000                	unimp
    2680:	08b0                	addi	a2,sp,88
    2682:	0000                	unimp
    2684:	d215                	beqz	a2,25a8 <main_pwm.c.a2cb4005+0x7cc>
    2686:	0000                	unimp
    2688:	0f00                	addi	s0,sp,912
    268a:	0008                	0x8
    268c:	3e0e                	fld	ft8,224(sp)
    268e:	0008                	0x8
    2690:	0100                	addi	s0,sp,128
    2692:	1159                	addi	sp,sp,-10
    2694:	9102                	jalr	sp
    2696:	0006                	c.slli	zero,0x1
    2698:	0b00                	addi	s0,sp,400
    269a:	0118                	addi	a4,sp,128
    269c:	115c                	addi	a5,sp,164
    269e:	1b09                	addi	s6,s6,-30
    26a0:	0009                	c.nop	2
    26a2:	0c00                	addi	s0,sp,528
    26a4:	0000032b          	0x32b
    26a8:	5e01                	li	t3,-32
    26aa:	1311                	addi	t1,t1,-28
    26ac:	0180                	addi	s0,sp,192
    26ae:	0000                	unimp
    26b0:	0d00                	addi	s0,sp,656
    26b2:	01005253          	fadd.s	ft4,ft0,fa6,unknown
    26b6:	115f 8013 0001      	0x18013115f
    26bc:	0400                	addi	s0,sp,512
    26be:	430d                	li	t1,3
    26c0:	544e                	lw	s0,240(sp)
    26c2:	0100                	addi	s0,sp,128
    26c4:	1160                	addi	s0,sp,172
    26c6:	00018013          	mv	zero,gp
    26ca:	0800                	addi	s0,sp,16
    26cc:	2d0c                	fld	fa1,24(a0)
    26ce:	0004                	0x4
    26d0:	0100                	addi	s0,sp,128
    26d2:	1161                	addi	sp,sp,-8
    26d4:	740e                	flw	fs0,224(sp)
    26d6:	0001                	nop
    26d8:	0c00                	addi	s0,sp,528
    26da:	430d                	li	t1,3
    26dc:	504d                	c.li	zero,-13
    26de:	0100                	addi	s0,sp,128
    26e0:	1162                	slli	sp,sp,0x38
    26e2:	00018013          	mv	zero,gp
    26e6:	1000                	addi	s0,sp,32
    26e8:	370c                	fld	fa1,40(a4)
    26ea:	0004                	0x4
    26ec:	0100                	addi	s0,sp,128
    26ee:	740e1163          	bnez	t3,2e30 <wiring.c.7604182b+0x497>
    26f2:	0001                	nop
    26f4:	1400                	addi	s0,sp,544
    26f6:	0e00                	addi	s0,sp,784
    26f8:	03de                	slli	t2,t2,0x17
    26fa:	0000                	unimp
    26fc:	6401                	0x6401
    26fe:	0211                	addi	tp,tp,4
    2700:	08bd                	addi	a7,a7,15
    2702:	0000                	unimp
    2704:	1004                	addi	s1,sp,32
    2706:	eb04                	fsw	fs1,16(a4)
    2708:	04000003          	lb	zero,64(zero) # 40 <InterruptVector+0x40>
    270c:	0801                	addi	a6,a6,0
    270e:	053a                	slli	a0,a0,0xe
    2710:	0000                	unimp
    2712:	1009                	c.nop	-30
    2714:	3804                	fld	fs1,48(s0)
    2716:	8109                	srli	a0,a0,0x2
    2718:	0009                	c.nop	2
    271a:	0a00                	addi	s0,sp,272
    271c:	0970                	addi	a2,sp,156
    271e:	0000                	unimp
    2720:	3904                	fld	fs1,48(a0)
    2722:	8110                	0x8110
    2724:	0009                	c.nop	2
    2726:	0000                	unimp
    2728:	7016                	flw	ft0,100(sp)
    272a:	6e69                	lui	t3,0x1a
    272c:	0400                	addi	s0,sp,512
    272e:	0a3a                	slli	s4,s4,0xe
    2730:	0148                	addi	a0,sp,132
    2732:	0000                	unimp
    2734:	0a04                	addi	s1,sp,272
    2736:	0a30                	addi	a2,sp,280
    2738:	0000                	unimp
    273a:	3b04                	fld	fs1,48(a4)
    273c:	0009870f          	0x9870f
    2740:	0800                	addi	s0,sp,16
    2742:	e60a                	fsw	ft2,12(sp)
    2744:	0008                	0x8
    2746:	0400                	addi	s0,sp,512
    2748:	0b3c                	addi	a5,sp,408
    274a:	00000163          	beqz	zero,274c <main_pwm.c.a2cb4005+0x970>
    274e:	0a0c                	addi	a1,sp,272
    2750:	0864                	addi	s1,sp,28
    2752:	0000                	unimp
    2754:	3d04                	fld	fs1,56(a0)
    2756:	00015e13          	srli	t3,sp,0x0
    275a:	0e00                	addi	s0,sp,784
    275c:	1700                	addi	s0,sp,928
    275e:	1e04                	addi	s1,sp,816
    2760:	17000003          	lb	zero,368(zero) # 170 <main+0xac>
    2764:	1404                	addi	s1,sp,544
    2766:	0006                	c.slli	zero,0x1
    2768:	0500                	addi	s0,sp,640
    276a:	00000a0b          	0xa0b
    276e:	3e04                	fld	fs1,56(a2)
    2770:	00093603          	0x93603
    2774:	0800                	addi	s0,sp,16
    2776:	098d                	addi	s3,s3,3
    2778:	0000                	unimp
    277a:	0009990f          	0x9990f
    277e:	ae00                	fsd	fs0,24(a2)
    2780:	0009                	c.nop	2
    2782:	1000                	addi	s0,sp,32
    2784:	00d2                	slli	ra,ra,0x14
    2786:	0000                	unimp
    2788:	9e08000b          	0x9e08000b
    278c:	0009                	c.nop	2
    278e:	1800                	addi	s0,sp,48
    2790:	07b8                	addi	a4,sp,968
    2792:	0000                	unimp
    2794:	4204                	lw	s1,0(a2)
    2796:	ae15                	j	2aca <wiring.c.7604182b+0x131>
    2798:	0009                	c.nop	2
    279a:	0f00                	addi	s0,sp,912
    279c:	0154                	addi	a3,sp,132
    279e:	0000                	unimp
    27a0:	09d5                	addi	s3,s3,21
    27a2:	0000                	unimp
    27a4:	d210                	sw	a2,32(a2)
    27a6:	0000                	unimp
    27a8:	0300                	addi	s0,sp,384
    27aa:	d210                	sw	a2,32(a2)
    27ac:	0000                	unimp
    27ae:	0200                	addi	s0,sp,256
    27b0:	0700                	addi	s0,sp,896
    27b2:	000009bf 00077d19 	0x77d19000009bf
    27ba:	0400                	addi	s0,sp,512
    27bc:	09d51657          	0x9d51657
    27c0:	0000                	unimp
    27c2:	1c1a                	slli	s8,s8,0x26
    27c4:	000a                	c.slli	zero,0x2
    27c6:	0400                	addi	s0,sp,512
    27c8:	0188                	addi	a0,sp,192
    27ca:	4105                	li	sp,1
    27cc:	0001                	nop
    27ce:	2100                	fld	fs0,0(a0)
    27d0:	000a                	c.slli	zero,0x2
    27d2:	1b00                	addi	s0,sp,432
    27d4:	9511                	srai	a0,a0,0x24
    27d6:	0009                	c.nop	2
    27d8:	0400                	addi	s0,sp,512
    27da:	4107018f          	0x4107018f
    27de:	0001                	nop
    27e0:	1100                	addi	s0,sp,160
    27e2:	000007e3          	beqz	zero,2ff0 <wiring.c.7604182b+0x657>
    27e6:	9104                	0x9104
    27e8:	0701                	addi	a4,a4,0
    27ea:	0141                	addi	sp,sp,16
    27ec:	0000                	unimp
    27ee:	00691c1b          	0x691c1b
    27f2:	9204                	0x9204
    27f4:	0b01                	addi	s6,s6,0
    27f6:	0141                	addi	sp,sp,16
    27f8:	0000                	unimp
    27fa:	0000                	unimp
    27fc:	1d00                	addi	s0,sp,688
    27fe:	0668                	addi	a0,sp,780
    2800:	0000                	unimp
    2802:	7904                	flw	fs1,48(a0)
    2804:	0a01                	addi	s4,s4,0
    2806:	00000163          	beqz	zero,2808 <main_pwm.c.a2cb4005+0xa2c>
    280a:	7f1e                	flw	ft10,228(sp)
    280c:	0008                	0x8
    280e:	0400                	addi	s0,sp,512
    2810:	0150                	addi	a2,sp,132
    2812:	1f06                	slli	t5,t5,0x21
    2814:	0000086f          	jal	a6,2814 <main_pwm.c.a2cb4005+0xa38>
    2818:	1404                	addi	s1,sp,544
    281a:	0601                	addi	a2,a2,0
    281c:	0a70                	addi	a2,sp,284
    281e:	0000                	unimp
    2820:	7611                	lui	a2,0xfffe4
    2822:	04000007          	0x4000007
    2826:	4811012b          	0x4811012b
    282a:	0001                	nop
    282c:	2000                	fld	fs0,0(s0)
    282e:	0a62                	slli	s4,s4,0x18
    2830:	0000                	unimp
    2832:	691c                	flw	fa5,16(a0)
    2834:	0400                	addi	s0,sp,512
    2836:	410a0137          	lui	sp,0x410a0
    283a:	0001                	nop
    283c:	0000                	unimp
    283e:	00691c1b          	0x691c1b
    2842:	3f04                	fld	fs1,56(a4)
    2844:	0a01                	addi	s4,s4,0
    2846:	0141                	addi	sp,sp,16
    2848:	0000                	unimp
    284a:	0000                	unimp
    284c:	6921                	lui	s2,0x8
    284e:	04000007          	0x4000007
    2852:	06f9                	addi	a3,a3,30
    2854:	2d22                	fld	fs10,8(sp)
    2856:	0008                	0x8
    2858:	0400                	addi	s0,sp,512
    285a:	06e9                	addi	a3,a3,26
    285c:	0aa9                	addi	s5,s5,10
    285e:	0000                	unimp
    2860:	000a3023          	0xa3023
    2864:	0400                	addi	s0,sp,512
    2866:	1de9                	addi	s11,s11,-6
    2868:	00000987          	0x987
    286c:	6324                	flw	fs1,64(a4)
    286e:	6c68                	flw	fa0,92(s0)
    2870:	0400                	addi	s0,sp,512
    2872:	2de9                	jal	2f4c <wiring.c.7604182b+0x5b3>
    2874:	00000163          	beqz	zero,2876 <main_pwm.c.a2cb4005+0xa9a>
    2878:	0007a523          	sw	zero,10(a5) # 19d6 <ch32v003fun.c.8affbd33+0xb34>
    287c:	0400                	addi	s0,sp,512
    287e:	3be9                	jal	2658 <main_pwm.c.a2cb4005+0x87c>
    2880:	00000163          	beqz	zero,2882 <main_pwm.c.a2cb4005+0xaa6>
    2884:	2200                	fld	fs0,0(a2)
    2886:	098c                	addi	a1,sp,208
    2888:	0000                	unimp
    288a:	de04                	sw	s1,56(a2)
    288c:	e606                	fsw	ft1,12(sp)
    288e:	000a                	c.slli	zero,0x2
    2890:	2300                	fld	fs0,0(a4)
    2892:	0970                	addi	a2,sp,156
    2894:	0000                	unimp
    2896:	de04                	sw	s1,56(a2)
    2898:	811d                	srli	a0,a0,0x7
    289a:	0009                	c.nop	2
    289c:	2400                	fld	fs0,8(s0)
    289e:	6970                	flw	fa2,84(a0)
    28a0:	006e                	c.slli	zero,0x1b
    28a2:	de04                	sw	s1,56(a2)
    28a4:	0001482b          	0x1482b
    28a8:	2300                	fld	fs0,0(a4)
    28aa:	0a30                	addi	a2,sp,280
    28ac:	0000                	unimp
    28ae:	de04                	sw	s1,56(a2)
    28b0:	873d                	srai	a4,a4,0xf
    28b2:	0009                	c.nop	2
    28b4:	2300                	fld	fs0,0(a4)
    28b6:	08e6                	slli	a7,a7,0x19
    28b8:	0000                	unimp
    28ba:	de04                	sw	s1,56(a2)
    28bc:	634d                	lui	t1,0x13
    28be:	0001                	nop
    28c0:	0000                	unimp
    28c2:	ce22                	sw	s0,28(sp)
    28c4:	0008                	0x8
    28c6:	0400                	addi	s0,sp,512
    28c8:	06d0                	addi	a2,sp,836
    28ca:	00000b23          	sb	zero,22(zero) # 16 <InterruptVector+0x16>
    28ce:	00097023          	0x97023
    28d2:	0400                	addi	s0,sp,512
    28d4:	1fd0                	addi	a2,sp,1012
    28d6:	0981                	addi	s3,s3,0
    28d8:	0000                	unimp
    28da:	7024                	flw	fs1,96(s0)
    28dc:	6e69                	lui	t3,0x1a
    28de:	0400                	addi	s0,sp,512
    28e0:	2dd0                	fld	fa2,152(a1)
    28e2:	0148                	addi	a0,sp,132
    28e4:	0000                	unimp
    28e6:	000a3023          	0xa3023
    28ea:	0400                	addi	s0,sp,512
    28ec:	3fd0                	fld	fa2,184(a5)
    28ee:	00000987          	0x987
    28f2:	0008e623          	0x8e623
    28f6:	0400                	addi	s0,sp,512
    28f8:	4fd0                	lw	a2,28(a5)
    28fa:	00000163          	beqz	zero,28fc <main_pwm.c.a2cb4005+0xb20>
    28fe:	2200                	fld	fs0,0(a2)
    2900:	0a36                	slli	s4,s4,0xd
    2902:	0000                	unimp
    2904:	c304                	sw	s1,0(a4)
    2906:	6006                	flw	ft0,64(sp)
    2908:	2300000b          	0x2300000b
    290c:	0970                	addi	a2,sp,156
    290e:	0000                	unimp
    2910:	c304                	sw	s1,0(a4)
    2912:	811e                	mv	sp,t2
    2914:	0009                	c.nop	2
    2916:	2400                	fld	fs0,8(s0)
    2918:	6970                	flw	fa2,84(a0)
    291a:	006e                	c.slli	zero,0x1b
    291c:	c304                	sw	s1,0(a4)
    291e:	482c                	lw	a1,80(s0)
    2920:	0001                	nop
    2922:	2300                	fld	fs0,0(a4)
    2924:	0a30                	addi	a2,sp,280
    2926:	0000                	unimp
    2928:	c304                	sw	s1,0(a4)
    292a:	873e                	mv	a4,a5
    292c:	0009                	c.nop	2
    292e:	2300                	fld	fs0,0(a4)
    2930:	08e6                	slli	a7,a7,0x19
    2932:	0000                	unimp
    2934:	c304                	sw	s1,0(a4)
    2936:	634e                	flw	ft6,208(sp)
    2938:	0001                	nop
    293a:	0000                	unimp
    293c:	e222                	fsw	fs0,4(sp)
    293e:	0009                	c.nop	2
    2940:	0400                	addi	s0,sp,512
    2942:	06b6                	slli	a3,a3,0xd
    2944:	0b9d                	addi	s7,s7,7
    2946:	0000                	unimp
    2948:	00097023          	0x97023
    294c:	0400                	addi	s0,sp,512
    294e:	1db6                	slli	s11,s11,0x2d
    2950:	0981                	addi	s3,s3,0
    2952:	0000                	unimp
    2954:	7024                	flw	fs1,96(s0)
    2956:	6e69                	lui	t3,0x1a
    2958:	0400                	addi	s0,sp,512
    295a:	2bb6                	fld	fs7,328(sp)
    295c:	0148                	addi	a0,sp,132
    295e:	0000                	unimp
    2960:	000a3023          	0xa3023
    2964:	0400                	addi	s0,sp,512
    2966:	3db6                	fld	fs11,360(sp)
    2968:	00000987          	0x987
    296c:	0008e623          	0x8e623
    2970:	0400                	addi	s0,sp,512
    2972:	4db6                	lw	s11,76(sp)
    2974:	00000163          	beqz	zero,2976 <main_pwm.c.a2cb4005+0xb9a>
    2978:	2100                	fld	fs0,0(a0)
    297a:	063e                	slli	a2,a2,0xf
    297c:	0000                	unimp
    297e:	6504                	flw	fs1,8(a0)
    2980:	2506                	fld	fa0,64(sp)
    2982:	0696                	slli	a3,a3,0x5
    2984:	0000                	unimp
    2986:	a701                	j	3086 <wiring.c.7604182b+0x6ed>
    2988:	1711                	addi	a4,a4,-28
    298a:	2e26                	fld	ft8,72(sp)
    298c:	0006                	c.slli	zero,0x1
    298e:	0100                	addi	s0,sp,128
    2990:	d93011a7          	0xd93011a7
    2994:	0000                	unimp
    2996:	0000                	unimp
	...

00002999 <wiring.c.7604182b>:
    2999:	06ba                	slli	a3,a3,0xe
    299b:	0000                	unimp
    299d:	0004                	0x4
    299f:	0608                	addi	a0,sp,768
    29a1:	0000                	unimp
    29a3:	0104                	addi	s1,sp,128
    29a5:	0581                	addi	a1,a1,0
    29a7:	0000                	unimp
    29a9:	740c                	flw	fa1,40(s0)
    29ab:	000a                	c.slli	zero,0x2
    29ad:	e100                	fsw	fs0,0(a0)
    29af:	0000                	unimp
    29b1:	5900                	lw	s0,48(a0)
    29b3:	0029                	c.nop	10
    29b5:	0200                	addi	s0,sp,256
    29b7:	0704                	addi	s1,sp,896
    29b9:	0278                	addi	a4,sp,268
    29bb:	0000                	unimp
    29bd:	000c0103          	lb	sp,0(s8) # fffe0000 <__global_pointer$+0xdffdf6d0>
    29c1:	0100                	addi	s0,sp,128
    29c3:	1729                	addi	a4,a4,-22
    29c5:	0030                	addi	a2,sp,8
    29c7:	0000                	unimp
    29c9:	0102                	c.slli64	sp
    29cb:	3306                	fld	ft6,96(sp)
    29cd:	0005                	c.nop	1
    29cf:	0300                	addi	s0,sp,384
    29d1:	04f0                	addi	a2,sp,588
    29d3:	0000                	unimp
    29d5:	2b01                	jal	2ee5 <wiring.c.7604182b+0x54c>
    29d7:	4318                	lw	a4,0(a4)
    29d9:	0000                	unimp
    29db:	0200                	addi	s0,sp,256
    29dd:	0801                	addi	a6,a6,0
    29df:	0531                	addi	a0,a0,12
    29e1:	0000                	unimp
    29e3:	0202                	c.slli64	tp
    29e5:	7305                	lui	t1,0xfffe1
    29e7:	0004                	0x4
    29e9:	0300                	addi	s0,sp,384
    29eb:	02b4                	addi	a3,sp,328
    29ed:	0000                	unimp
    29ef:	3901                	jal	25ff <main_pwm.c.a2cb4005+0x823>
    29f1:	5d19                	li	s10,-26
    29f3:	0000                	unimp
    29f5:	0200                	addi	s0,sp,256
    29f7:	0702                	c.slli64	a4
    29f9:	05cc                	addi	a1,sp,708
    29fb:	0000                	unimp
    29fd:	0402                	c.slli64	s0
    29ff:	7c05                	lui	s8,0xfffe1
    2a01:	03000003          	lb	zero,48(zero) # 30 <InterruptVector+0x30>
    2a05:	0000053f 77194f01 	0x77194f010000053f
    2a0d:	0000                	unimp
    2a0f:	0200                	addi	s0,sp,256
    2a11:	0704                	addi	s1,sp,896
    2a13:	00000273          	0x273
    2a17:	0802                	c.slli64	a6
    2a19:	7705                	lui	a4,0xfffe1
    2a1b:	02000003          	lb	zero,32(zero) # 20 <InterruptVector+0x20>
    2a1f:	0708                	addi	a0,sp,896
    2a21:	026e                	slli	tp,tp,0x1b
    2a23:	0000                	unimp
    2a25:	0404                	addi	s1,sp,512
    2a27:	6905                	lui	s2,0x1
    2a29:	746e                	flw	fs0,248(sp)
    2a2b:	0300                	addi	s0,sp,384
    2a2d:	00000c03          	lb	s8,0(zero) # 0 <InterruptVector>
    2a31:	1402                	slli	s0,s0,0x20
    2a33:	2412                	fld	fs0,256(sp)
    2a35:	0000                	unimp
    2a37:	0300                	addi	s0,sp,384
    2a39:	04f2                	slli	s1,s1,0x1c
    2a3b:	0000                	unimp
    2a3d:	1802                	slli	a6,a6,0x20
    2a3f:	00003713          	sltiu	a4,zero,0
    2a43:	0500                	addi	s0,sp,640
    2a45:	009f 0000 ab06      	0xab060000009f
    2a4b:	0000                	unimp
    2a4d:	0300                	addi	s0,sp,384
    2a4f:	02b6                	slli	t0,t0,0xd
    2a51:	0000                	unimp
    2a53:	2402                	fld	fs0,0(sp)
    2a55:	5114                	lw	a3,32(a0)
    2a57:	0000                	unimp
    2a59:	0300                	addi	s0,sp,384
    2a5b:	0541                	addi	a0,a0,16
    2a5d:	0000                	unimp
    2a5f:	3002                	fld	ft0,32(sp)
    2a61:	6b14                	flw	fa3,16(a4)
    2a63:	0000                	unimp
    2a65:	0600                	addi	s0,sp,768
    2a67:	00c1                	addi	ra,ra,16
    2a69:	0000                	unimp
    2a6b:	cd05                	beqz	a0,2aa3 <wiring.c.7604182b+0x10a>
    2a6d:	0000                	unimp
    2a6f:	0700                	addi	s0,sp,896
    2a71:	0354                	addi	a3,sp,388
    2a73:	0971                	addi	s2,s2,28
    2a75:	01f2                	slli	gp,gp,0x1c
    2a77:	0000                	unimp
    2a79:	7b08                	flw	fa0,48(a4)
    2a7b:	0005                	c.nop	1
    2a7d:	0300                	addi	s0,sp,384
    2a7f:	00cd1373          	csrrw	t1,0xc,s10
    2a83:	0000                	unimp
    2a85:	0800                	addi	s0,sp,16
    2a87:	06ae                	slli	a3,a3,0xb
    2a89:	0000                	unimp
    2a8b:	cd137403          	0xcd137403
    2a8f:	0000                	unimp
    2a91:	0400                	addi	s0,sp,512
    2a93:	b608                	fsd	fa0,40(a2)
    2a95:	0006                	c.slli	zero,0x1
    2a97:	0300                	addi	s0,sp,384
    2a99:	1375                	addi	t1,t1,-3
    2a9b:	00cd                	addi	ra,ra,19
    2a9d:	0000                	unimp
    2a9f:	0808                	addi	a0,sp,16
    2aa1:	074d                	addi	a4,a4,19
    2aa3:	0000                	unimp
    2aa5:	cd137603          	0xcd137603
    2aa9:	0000                	unimp
    2aab:	0c00                	addi	s0,sp,528
    2aad:	5508                	lw	a0,40(a0)
    2aaf:	03000007          	0x3000007
    2ab3:	00cd1377          	0xcd1377
    2ab7:	0000                	unimp
    2ab9:	0810                	addi	a2,sp,16
    2abb:	00000783          	lb	a5,0(zero) # 0 <InterruptVector>
    2abf:	cd137803          	0xcd137803
    2ac3:	0000                	unimp
    2ac5:	1400                	addi	s0,sp,544
    2ac7:	8908                	0x8908
    2ac9:	03000007          	0x3000007
    2acd:	1379                	addi	t1,t1,-2
    2acf:	00cd                	addi	ra,ra,19
    2ad1:	0000                	unimp
    2ad3:	0818                	addi	a4,sp,16
    2ad5:	0000078f          	0x78f
    2ad9:	cd137a03          	0xcd137a03
    2add:	0000                	unimp
    2adf:	1c00                	addi	s0,sp,560
    2ae1:	9508                	0x9508
    2ae3:	03000007          	0x3000007
    2ae7:	00cd137b          	0xcd137b
    2aeb:	0000                	unimp
    2aed:	0820                	addi	s0,sp,24
    2aef:	0638                	addi	a4,sp,776
    2af1:	0000                	unimp
    2af3:	cd137c03          	0xcd137c03
    2af7:	0000                	unimp
    2af9:	2400                	fld	fs0,8(s0)
    2afb:	9008                	0x9008
    2afd:	0006                	c.slli	zero,0x1
    2aff:	0300                	addi	s0,sp,384
    2b01:	137d                	addi	t1,t1,-1
    2b03:	00cd                	addi	ra,ra,19
    2b05:	0000                	unimp
    2b07:	0828                	addi	a0,sp,24
    2b09:	097a                	slli	s2,s2,0x1e
    2b0b:	0000                	unimp
    2b0d:	cd137e03          	0xcd137e03
    2b11:	0000                	unimp
    2b13:	2c00                	fld	fs0,24(s0)
    2b15:	8008                	0x8008
    2b17:	0009                	c.nop	2
    2b19:	0300                	addi	s0,sp,384
    2b1b:	137f                	0x137f
    2b1d:	00cd                	addi	ra,ra,19
    2b1f:	0000                	unimp
    2b21:	0830                	addi	a2,sp,24
    2b23:	0986                	slli	s3,s3,0x1
    2b25:	0000                	unimp
    2b27:	cd138003          	lb	zero,-815(t2) # fffffcd1 <__global_pointer$+0xdffff3a1>
    2b2b:	0000                	unimp
    2b2d:	3400                	fld	fs0,40(s0)
    2b2f:	2108                	fld	fa0,0(a0)
    2b31:	0006                	c.slli	zero,0x1
    2b33:	0300                	addi	s0,sp,384
    2b35:	1381                	addi	t2,t2,-32
    2b37:	00cd                	addi	ra,ra,19
    2b39:	0000                	unimp
    2b3b:	0838                	addi	a4,sp,24
    2b3d:	000007c3          	fmadd.s	fa5,ft0,ft0,ft0,rne
    2b41:	cd138203          	lb	tp,-815(t2)
    2b45:	0000                	unimp
    2b47:	3c00                	fld	fs0,56(s0)
    2b49:	cb08                	sw	a0,16(a4)
    2b4b:	03000007          	0x3000007
    2b4f:	00cd1383          	lh	t2,12(s10) # fffe000c <__global_pointer$+0xdffdf6dc>
    2b53:	0000                	unimp
    2b55:	0840                	addi	s0,sp,20
    2b57:	000007d3          	fadd.s	fa5,ft0,ft0,rne
    2b5b:	cd138403          	lb	s0,-815(t2)
    2b5f:	0000                	unimp
    2b61:	4400                	lw	s0,8(s0)
    2b63:	db08                	sw	a0,48(a4)
    2b65:	03000007          	0x3000007
    2b69:	1385                	addi	t2,t2,-31
    2b6b:	00cd                	addi	ra,ra,19
    2b6d:	0000                	unimp
    2b6f:	0848                	addi	a0,sp,20
    2b71:	08a9                	addi	a7,a7,10
    2b73:	0000                	unimp
    2b75:	cd138603          	lb	a2,-815(t2)
    2b79:	0000                	unimp
    2b7b:	4c00                	lw	s0,24(s0)
    2b7d:	dd08                	sw	a0,56(a0)
    2b7f:	0009                	c.nop	2
    2b81:	0300                	addi	s0,sp,384
    2b83:	00cd1387          	0xcd1387
    2b87:	0000                	unimp
    2b89:	0050                	addi	a2,sp,4
    2b8b:	00084803          	lbu	a6,0(a6)
    2b8f:	0300                	addi	s0,sp,384
    2b91:	0388                	addi	a0,sp,448
    2b93:	000000d7          	0xd7
    2b97:	1c09                	addi	s8,s8,-30
    2b99:	09013703          	0x9013703
    2b9d:	0000026b          	0x26b
    2ba1:	3c0a                	fld	fs8,160(sp)
    2ba3:	0002                	c.slli64	zero
    2ba5:	0300                	addi	s0,sp,384
    2ba7:	0139                	addi	sp,sp,14
    2ba9:	cd10                	sw	a2,24(a0)
    2bab:	0000                	unimp
    2bad:	0000                	unimp
    2baf:	fb0a                	fsw	ft2,180(sp)
    2bb1:	0005                	c.nop	1
    2bb3:	0300                	addi	s0,sp,384
    2bb5:	013a                	slli	sp,sp,0xe
    2bb7:	cd10                	sw	a2,24(a0)
    2bb9:	0000                	unimp
    2bbb:	0400                	addi	s0,sp,512
    2bbd:	bb0a                	fsd	ft2,432(sp)
    2bbf:	0001                	nop
    2bc1:	0300                	addi	s0,sp,384
    2bc3:	d210013b          	0xd210013b
    2bc7:	0000                	unimp
    2bc9:	0800                	addi	s0,sp,16
    2bcb:	f60a                	fsw	ft2,44(sp)
    2bcd:	0002                	c.slli64	zero
    2bcf:	0300                	addi	s0,sp,384
    2bd1:	013c                	addi	a5,sp,136
    2bd3:	cd10                	sw	a2,24(a0)
    2bd5:	0000                	unimp
    2bd7:	0c00                	addi	s0,sp,528
    2bd9:	3e0a                	fld	ft8,160(sp)
    2bdb:	03000003          	lb	zero,48(zero) # 30 <InterruptVector+0x30>
    2bdf:	013d                	addi	sp,sp,15
    2be1:	cd10                	sw	a2,24(a0)
    2be3:	0000                	unimp
    2be5:	1000                	addi	s0,sp,32
    2be7:	5243420b          	0x5243420b
    2beb:	0300                	addi	s0,sp,384
    2bed:	013e                	slli	sp,sp,0xf
    2bef:	cd10                	sw	a2,24(a0)
    2bf1:	0000                	unimp
    2bf3:	1400                	addi	s0,sp,544
    2bf5:	150a                	slli	a0,a0,0x22
    2bf7:	0006                	c.slli	zero,0x1
    2bf9:	0300                	addi	s0,sp,384
    2bfb:	cd10013f 18000000 	0x18000000cd10013f
    2c03:	0c00                	addi	s0,sp,528
    2c05:	04fa                	slli	s1,s1,0x1e
    2c07:	0000                	unimp
    2c09:	03014003          	lbu	zero,48(sp) # 410a0030 <__global_pointer$+0x2109f700>
    2c0d:	01fe                	slli	gp,gp,0x1f
    2c0f:	0000                	unimp
    2c11:	2809                	jal	2c23 <wiring.c.7604182b+0x28a>
    2c13:	09017703          	0x9017703
    2c17:	0000030f          	0x30f
    2c1b:	2b0a                	fld	fs6,128(sp)
    2c1d:	03000003          	lb	zero,48(zero) # 30 <InterruptVector+0x30>
    2c21:	0179                	addi	sp,sp,30
    2c23:	0000cd13          	xori	s10,ra,0
    2c27:	0000                	unimp
    2c29:	b70a                	fsd	ft2,424(sp)
    2c2b:	03000003          	lb	zero,48(zero) # 30 <InterruptVector+0x30>
    2c2f:	017a                	slli	sp,sp,0x1e
    2c31:	0000cd13          	xori	s10,ra,0
    2c35:	0400                	addi	s0,sp,512
    2c37:	290a                	fld	fs2,128(sp)
    2c39:	0002                	c.slli64	zero
    2c3b:	0300                	addi	s0,sp,384
    2c3d:	cd13017b          	0xcd13017b
    2c41:	0000                	unimp
    2c43:	0800                	addi	s0,sp,16
    2c45:	e00a                	fsw	ft2,0(sp)
    2c47:	0004                	0x4
    2c49:	0300                	addi	s0,sp,384
    2c4b:	017c                	addi	a5,sp,140
    2c4d:	0000cd13          	xori	s10,ra,0
    2c51:	0c00                	addi	s0,sp,528
    2c53:	1f0a                	slli	t5,t5,0x22
    2c55:	0002                	c.slli64	zero
    2c57:	0300                	addi	s0,sp,384
    2c59:	017d                	addi	sp,sp,31
    2c5b:	0000cd13          	xori	s10,ra,0
    2c5f:	1000                	addi	s0,sp,32
    2c61:	ae0a                	fsd	ft2,280(sp)
    2c63:	03000003          	lb	zero,48(zero) # 30 <InterruptVector+0x30>
    2c67:	017e                	slli	sp,sp,0x1f
    2c69:	0000cd13          	xori	s10,ra,0
    2c6d:	1400                	addi	s0,sp,544
    2c6f:	b10a                	fsd	ft2,160(sp)
    2c71:	0001                	nop
    2c73:	0300                	addi	s0,sp,384
    2c75:	017f                	0x17f
    2c77:	0000cd13          	xori	s10,ra,0
    2c7b:	1800                	addi	s0,sp,48
    2c7d:	cf0a                	sw	sp,156(sp)
    2c7f:	03000003          	lb	zero,48(zero) # 30 <InterruptVector+0x30>
    2c83:	0180                	addi	s0,sp,192
    2c85:	0000cd13          	xori	s10,ra,0
    2c89:	1c00                	addi	s0,sp,560
    2c8b:	2d0a                	fld	fs10,128(sp)
    2c8d:	0004                	0x4
    2c8f:	0300                	addi	s0,sp,384
    2c91:	0181                	addi	gp,gp,0
    2c93:	0000cd13          	xori	s10,ra,0
    2c97:	2000                	fld	fs0,0(s0)
    2c99:	1e0a                	slli	t3,t3,0x22
    2c9b:	0004                	0x4
    2c9d:	0300                	addi	s0,sp,384
    2c9f:	0182                	c.slli64	gp
    2ca1:	0000cd13          	xori	s10,ra,0
    2ca5:	2400                	fld	fs0,8(s0)
    2ca7:	0c00                	addi	s0,sp,528
    2ca9:	031e                	slli	t1,t1,0x7
    2cab:	0000                	unimp
    2cad:	03018303          	lb	t1,48(gp) # 20000960 <__global_pointer$+0x30>
    2cb1:	0278                	addi	a4,sp,268
    2cb3:	0000                	unimp
    2cb5:	b00d                	j	24d7 <main_pwm.c.a2cb4005+0x6fb>
    2cb7:	0000                	unimp
    2cb9:	2c00                	fld	fs0,24(s0)
    2cbb:	0e000003          	lb	zero,224(zero) # e0 <main+0x1c>
    2cbf:	001d                	c.nop	7
    2cc1:	0000                	unimp
    2cc3:	1c05000f          	0x1c05000f
    2cc7:	06000003          	lb	zero,96(zero) # 60 <InterruptVector+0x60>
    2ccb:	032c                	addi	a1,sp,392
    2ccd:	0000                	unimp
    2ccf:	00048e0f          	0x48e0f
    2cd3:	0300                	addi	s0,sp,384
    2cd5:	31140b73          	0x31140b73
    2cd9:	0d000003          	lb	zero,208(zero) # d0 <main+0xc>
    2cdd:	00b0                	addi	a2,sp,72
    2cdf:	0000                	unimp
    2ce1:	00000353          	fadd.s	ft6,ft0,ft0,rne
    2ce5:	1d0e                	slli	s10,s10,0x23
    2ce7:	0000                	unimp
    2ce9:	1300                	addi	s0,sp,416
    2ceb:	0500                	addi	s0,sp,640
    2ced:	00000343          	fmadd.s	ft6,ft0,ft0,ft0,rne
    2cf1:	5306                	lw	t1,96(sp)
    2cf3:	0f000003          	lb	zero,240(zero) # f0 <main+0x2c>
    2cf7:	0165                	addi	sp,sp,25
    2cf9:	0000                	unimp
    2cfb:	140b7403          	0x140b7403
    2cff:	0358                	addi	a4,sp,388
    2d01:	0000                	unimp
    2d03:	0710                	addi	a2,sp,896
    2d05:	1d04                	addi	s1,sp,688
    2d07:	0000                	unimp
    2d09:	0300                	addi	s0,sp,384
    2d0b:	8c010d13          	addi	s10,sp,-1856
    2d0f:	11000003          	lb	zero,272(zero) # 110 <main+0x4c>
    2d13:	0255                	addi	tp,tp,21
    2d15:	0000                	unimp
    2d17:	1101                	addi	sp,sp,-32
    2d19:	000001cf          	fnmadd.s	ft3,ft0,ft0,ft0,rne
    2d1d:	1102                	slli	sp,sp,0x20
    2d1f:	054a                	slli	a0,a0,0x12
    2d21:	0000                	unimp
    2d23:	3b120003          	lb	zero,945(tp) # 3b1 <main+0x2ed>
    2d27:	000d                	c.nop	3
    2d29:	0700                	addi	s0,sp,896
    2d2b:	1d04                	addi	s1,sp,688
    2d2d:	0000                	unimp
    2d2f:	0400                	addi	s0,sp,512
    2d31:	03b7060f          	0x3b7060f
    2d35:	0000                	unimp
    2d37:	5011                	c.li	zero,-28
    2d39:	000c                	0xc
    2d3b:	0000                	unimp
    2d3d:	5711                	li	a4,-28
    2d3f:	000c                	0xc
    2d41:	0100                	addi	s0,sp,128
    2d43:	5e11                	li	t3,-28
    2d45:	000c                	0xc
    2d47:	0200                	addi	s0,sp,256
    2d49:	4511                	li	a0,4
    2d4b:	000d                	c.nop	3
    2d4d:	0300                	addi	s0,sp,384
    2d4f:	1200                	addi	s0,sp,288
    2d51:	0a7d                	addi	s4,s4,31
    2d53:	0000                	unimp
    2d55:	001d0407          	0x1d0407
    2d59:	0000                	unimp
    2d5b:	1604                	addi	s1,sp,800
    2d5d:	3c06                	fld	fs8,96(sp)
    2d5f:	0004                	0x4
    2d61:	1100                	addi	s0,sp,160
    2d63:	0bd8                	addi	a4,sp,468
    2d65:	0000                	unimp
    2d67:	1100                	addi	s0,sp,160
    2d69:	00000a9b          	0xa9b
    2d6d:	1101                	addi	sp,sp,-32
    2d6f:	0aed                	addi	s5,s5,27
    2d71:	0000                	unimp
    2d73:	1102                	slli	sp,sp,0x20
    2d75:	0af4                	addi	a3,sp,348
    2d77:	0000                	unimp
    2d79:	0afb1103          	lh	sp,175(s6) # fffe00af <__global_pointer$+0xdffdf77f>
    2d7d:	0000                	unimp
    2d7f:	1104                	addi	s1,sp,160
    2d81:	0b02                	c.slli64	s6
    2d83:	0000                	unimp
    2d85:	1105                	addi	sp,sp,-31
    2d87:	0b09                	addi	s6,s6,2
    2d89:	0000                	unimp
    2d8b:	1106                	slli	sp,sp,0x21
    2d8d:	0b10                	addi	a2,sp,400
    2d8f:	0000                	unimp
    2d91:	0b171107          	0xb171107
    2d95:	0000                	unimp
    2d97:	1108                	addi	a0,sp,160
    2d99:	0b1e                	slli	s6,s6,0x7
    2d9b:	0000                	unimp
    2d9d:	1109                	addi	sp,sp,-30
    2d9f:	0b56                	slli	s6,s6,0x15
    2da1:	0000                	unimp
    2da3:	110a                	slli	sp,sp,0x22
    2da5:	0b5d                	addi	s6,s6,23
    2da7:	0000                	unimp
    2da9:	0d06110b          	0xd06110b
    2dad:	0000                	unimp
    2daf:	110c                	addi	a1,sp,160
    2db1:	0b64                	addi	s1,sp,412
    2db3:	0000                	unimp
    2db5:	110d                	addi	sp,sp,-29
    2db7:	00000b6b          	0xb6b
    2dbb:	110e                	slli	sp,sp,0x23
    2dbd:	0b72                	slli	s6,s6,0x1c
    2dbf:	0000                	unimp
    2dc1:	0b79110f          	0xb79110f
    2dc5:	0000                	unimp
    2dc7:	1110                	addi	a2,sp,160
    2dc9:	0b80                	addi	s0,sp,464
    2dcb:	0000                	unimp
    2dcd:	1111                	addi	sp,sp,-28
    2dcf:	0d19                	addi	s10,s10,6
    2dd1:	0000                	unimp
    2dd3:	0012                	c.slli	zero,0x4
    2dd5:	0d12                	slli	s10,s10,0x4
    2dd7:	000d                	c.nop	3
    2dd9:	0700                	addi	s0,sp,896
    2ddb:	1d04                	addi	s1,sp,688
    2ddd:	0000                	unimp
    2ddf:	0400                	addi	s0,sp,512
    2de1:	062d                	addi	a2,a2,11
    2de3:	047f                	0x47f
    2de5:	0000                	unimp
    2de7:	9011                	srli	s0,s0,0x24
    2de9:	0000000b          	0xb
    2ded:	bb11                	j	2b01 <wiring.c.7604182b+0x168>
    2def:	000c                	0xc
    2df1:	0100                	addi	s0,sp,128
    2df3:	9711                	srai	a4,a4,0x24
    2df5:	000c                	0xc
    2df7:	0200                	addi	s0,sp,256
    2df9:	0a11                	addi	s4,s4,4
    2dfb:	000c                	0xc
    2dfd:	0300                	addi	s0,sp,384
    2dff:	3711                	jal	2d03 <wiring.c.7604182b+0x36a>
    2e01:	0400000b          	0x400000b
    2e05:	4611                	li	a2,4
    2e07:	000a                	c.slli	zero,0x2
    2e09:	0500                	addi	s0,sp,640
    2e0b:	2911                	jal	321f <wiring.c.7604182b+0x886>
    2e0d:	000c                	0xc
    2e0f:	0600                	addi	s0,sp,768
    2e11:	8011                	srli	s0,s0,0x4
    2e13:	000c                	0xc
    2e15:	0700                	addi	s0,sp,896
    2e17:	1200                	addi	s0,sp,288
    2e19:	00000abf 001d0407 	0x1d040700000abf
    2e21:	0000                	unimp
    2e23:	3804                	fld	fs1,48(s0)
    2e25:	a406                	fsd	ft1,8(sp)
    2e27:	0004                	0x4
    2e29:	1100                	addi	s0,sp,160
    2e2b:	00000adb          	0xadb
    2e2f:	1100                	addi	s0,sp,160
    2e31:	0bb6                	slli	s7,s7,0xd
    2e33:	0000                	unimp
    2e35:	1101                	addi	sp,sp,-32
    2e37:	00000ce7          	jalr	s9,zero # 0 <InterruptVector>
    2e3b:	0002                	c.slli64	zero
    2e3d:	5a12                	lw	s4,36(sp)
    2e3f:	000a                	c.slli	zero,0x2
    2e41:	0700                	addi	s0,sp,896
    2e43:	1d04                	addi	s1,sp,688
    2e45:	0000                	unimp
    2e47:	0400                	addi	s0,sp,512
    2e49:	063e                	slli	a2,a2,0xf
    2e4b:	000004f3          	0x4f3
    2e4f:	2111                	jal	3253 <wiring.c.7604182b+0x8ba>
    2e51:	000c                	0xc
    2e53:	0000                	unimp
    2e55:	cc11                	beqz	s0,2e71 <wiring.c.7604182b+0x4d8>
    2e57:	000a                	c.slli	zero,0x2
    2e59:	0100                	addi	s0,sp,128
    2e5b:	fe11                	bnez	a2,2d77 <wiring.c.7604182b+0x3de>
    2e5d:	000c                	0xc
    2e5f:	0200                	addi	s0,sp,256
    2e61:	e711                	bnez	a4,2e6d <wiring.c.7604182b+0x4d4>
    2e63:	0300000b          	0x300000b
    2e67:	9311                	srli	a4,a4,0x24
    2e69:	000a                	c.slli	zero,0x2
    2e6b:	0400                	addi	s0,sp,512
    2e6d:	7111                	addi	sp,sp,-256
    2e6f:	000c                	0xc
    2e71:	0500                	addi	s0,sp,640
    2e73:	4f11                	li	t5,4
    2e75:	000d                	c.nop	3
    2e77:	0600                	addi	s0,sp,768
    2e79:	d511                	beqz	a0,2d85 <wiring.c.7604182b+0x3ec>
    2e7b:	000c                	0xc
    2e7d:	0700                	addi	s0,sp,896
    2e7f:	d011                	beqz	s0,2d83 <wiring.c.7604182b+0x3ea>
    2e81:	0800000b          	0x800000b
    2e85:	df11                	beqz	a4,2da1 <wiring.c.7604182b+0x408>
    2e87:	0900000b          	0x900000b
    2e8b:	1200                	addi	s0,sp,288
    2e8d:	00000bef          	jal	s7,2e8d <wiring.c.7604182b+0x4f4>
    2e91:	001d0407          	0x1d0407
    2e95:	0000                	unimp
    2e97:	4b04                	lw	s1,16(a4)
    2e99:	3606                	fld	fa2,96(sp)
    2e9b:	0005                	c.nop	1
    2e9d:	1100                	addi	s0,sp,160
    2e9f:	0a86                	slli	s5,s5,0x1
    2ea1:	0000                	unimp
    2ea3:	1100                	addi	s0,sp,160
    2ea5:	00000d33          	add	s10,zero,zero
    2ea9:	1101                	addi	sp,sp,-32
    2eab:	0b2e                	slli	s6,s6,0xb
    2ead:	0000                	unimp
    2eaf:	1102                	slli	sp,sp,0x20
    2eb1:	00000b87          	0xb87
    2eb5:	0cf51103          	lh	sp,207(a0)
    2eb9:	0000                	unimp
    2ebb:	1104                	addi	s1,sp,160
    2ebd:	0b25                	addi	s6,s6,9
    2ebf:	0000                	unimp
    2ec1:	1105                	addi	sp,sp,-31
    2ec3:	0ccc                	addi	a1,sp,596
    2ec5:	0000                	unimp
    2ec7:	1106                	slli	sp,sp,0x21
    2ec9:	0aad                	addi	s5,s5,11
    2ecb:	0000                	unimp
    2ecd:	a3130007          	0xa3130007
    2ed1:	0500000b          	0x500000b
    2ed5:	0aec                	addi	a1,sp,348
    2ed7:	00b5                	addi	ra,ra,13
    2ed9:	0000                	unimp
    2edb:	00000553          	fadd.s	fa0,ft0,ft0,rne
    2edf:	4014                	lw	a3,0(s0)
    2ee1:	000a                	c.slli	zero,0x2
    2ee3:	0500                	addi	s0,sp,640
    2ee5:	27ec                	fld	fa1,200(a5)
    2ee7:	04a4                	addi	s1,sp,584
    2ee9:	0000                	unimp
    2eeb:	1500                	addi	s0,sp,672
    2eed:	00000bc3          	fmadd.s	fs7,ft0,ft0,ft0,rne
    2ef1:	df05                	beqz	a4,2e29 <wiring.c.7604182b+0x490>
    2ef3:	1606                	slli	a2,a2,0x21
    2ef5:	0b4a                	slli	s6,s6,0x12
    2ef7:	0000                	unimp
    2ef9:	cf05                	beqz	a4,2f31 <wiring.c.7604182b+0x598>
    2efb:	7406                	flw	fs0,96(sp)
    2efd:	0005                	c.nop	1
    2eff:	1400                	addi	s0,sp,544
    2f01:	0c79                	addi	s8,s8,30
    2f03:	0000                	unimp
    2f05:	cf05                	beqz	a4,2f3d <wiring.c.7604182b+0x5a4>
    2f07:	9f1a                	add	t5,t5,t1
    2f09:	0000                	unimp
    2f0b:	0000                	unimp
    2f0d:	3f16                	fld	ft10,352(sp)
    2f0f:	000c                	0xc
    2f11:	0500                	addi	s0,sp,640
    2f13:	06c6                	slli	a3,a3,0x11
    2f15:	0599                	addi	a1,a1,6
    2f17:	0000                	unimp
    2f19:	4014                	lw	a3,0(s0)
    2f1b:	000a                	c.slli	zero,0x2
    2f1d:	0500                	addi	s0,sp,640
    2f1f:	29c6                	fld	fs3,80(sp)
    2f21:	04a4                	addi	s1,sp,584
    2f23:	0000                	unimp
    2f25:	4b14                	lw	a3,16(a4)
    2f27:	000c                	0xc
    2f29:	0500                	addi	s0,sp,640
    2f2b:	47c6                	lw	a5,80(sp)
    2f2d:	000004f3          	0x4f3
    2f31:	1700                	addi	s0,sp,928
    2f33:	00000cb3          	add	s9,zero,zero
    2f37:	a705                	j	3657 <wiring.c.7604182b+0xcbe>
    2f39:	b206                	fsd	ft1,288(sp)
    2f3b:	0005                	c.nop	1
    2f3d:	1800                	addi	s0,sp,48
    2f3f:	6919                	lui	s2,0x6
    2f41:	0500                	addi	s0,sp,640
    2f43:	0fb4                	addi	a3,sp,984
    2f45:	009f 0000 0000      	0x9f
    2f4b:	000c6513          	ori	a0,s8,0
    2f4f:	0500                	addi	s0,sp,640
    2f51:	009f098b          	0x9f098b
    2f55:	0000                	unimp
    2f57:	000005f3          	0x5f3
    2f5b:	701a                	flw	ft0,164(sp)
    2f5d:	6e69                	lui	t3,0x1a
    2f5f:	0500                	addi	s0,sp,640
    2f61:	009f1d8b          	0x9f1d8b
    2f65:	0000                	unimp
    2f67:	000c1b1b          	0xc1b1b
    2f6b:	0500                	addi	s0,sp,640
    2f6d:	118c                	addi	a1,sp,224
    2f6f:	000005f3          	0x5f3
    2f73:	000cdd1b          	0xcdd1b
    2f77:	0500                	addi	s0,sp,640
    2f79:	0b8d                	addi	s7,s7,3
    2f7b:	00b5                	addi	ra,ra,13
    2f7d:	0000                	unimp
    2f7f:	000ad41b          	0xad41b
    2f83:	0500                	addi	s0,sp,640
    2f85:	099f 0093 0000      	0x93099f
    2f8b:	1c00                	addi	s0,sp,560
    2f8d:	6b04                	flw	fs1,16(a4)
    2f8f:	0002                	c.slli64	zero
    2f91:	1600                	addi	s0,sp,800
    2f93:	00000a67          	jalr	s4,zero # 0 <InterruptVector>
    2f97:	6c05                	lui	s8,0x1
    2f99:	3606                	fld	fa2,96(sp)
    2f9b:	0006                	c.slli	zero,0x1
    2f9d:	1a00                	addi	s0,sp,304
    2f9f:	6970                	flw	fa2,84(a0)
    2fa1:	006e                	c.slli	zero,0x1b
    2fa3:	6c05                	lui	s8,0x1
    2fa5:	b721                	j	2ead <wiring.c.7604182b+0x514>
    2fa7:	14000003          	lb	zero,320(zero) # 140 <main+0x7c>
    2fab:	02c5                	addi	t0,t0,17
    2fad:	0000                	unimp
    2faf:	6c05                	lui	s8,0x1
    2fb1:	9f2e                	add	t5,t5,a1
    2fb3:	0000                	unimp
    2fb5:	1b00                	addi	s0,sp,432
    2fb7:	00000c1b          	0xc1b
    2fbb:	6e05                	lui	t3,0x1
    2fbd:	f311                	bnez	a4,2ec1 <wiring.c.7604182b+0x528>
    2fbf:	0005                	c.nop	1
    2fc1:	1b00                	addi	s0,sp,432
    2fc3:	0cdd                	addi	s9,s9,23
    2fc5:	0000                	unimp
    2fc7:	6f05                	lui	t5,0x1
    2fc9:	0000b50b          	0xb50b
    2fcd:	0000                	unimp
    2fcf:	1116                	slli	sp,sp,0x25
    2fd1:	000d                	c.nop	3
    2fd3:	0500                	addi	s0,sp,640
    2fd5:	062a                	slli	a2,a2,0xa
    2fd7:	0000068b          	0x68b
    2fdb:	701a                	flw	ft0,164(sp)
    2fdd:	6e69                	lui	t3,0x1a
    2fdf:	0500                	addi	s0,sp,640
    2fe1:	1c2a                	slli	s8,s8,0x2a
    2fe3:	000003b7          	lui	t2,0x0
    2fe7:	8e14                	0x8e14
    2fe9:	000a                	c.slli	zero,0x2
    2feb:	0500                	addi	s0,sp,640
    2fed:	322a                	fld	ft4,168(sp)
    2fef:	043c                	addi	a5,sp,520
    2ff1:	0000                	unimp
    2ff3:	000c1b1b          	0xc1b1b
    2ff7:	0500                	addi	s0,sp,640
    2ff9:	05f3112b          	0x5f3112b
    2ffd:	0000                	unimp
    2fff:	000cdd1b          	0xcdd1b
    3003:	0500                	addi	s0,sp,640
    3005:	0b2c                	addi	a1,sp,408
    3007:	00b5                	addi	ra,ra,13
    3009:	0000                	unimp
    300b:	000d221b          	0xd221b
    300f:	0500                	addi	s0,sp,640
    3011:	0a40                	addi	s0,sp,276
    3013:	009f 0000 aa1b      	0xaa1b0000009f
    3019:	000c                	0xc
    301b:	0500                	addi	s0,sp,640
    301d:	0a42                	slli	s4,s4,0x10
    301f:	009f 0000 1600      	0x16000000009f
    3025:	0aa2                	slli	s5,s5,0x8
    3027:	0000                	unimp
    3029:	1705                	addi	a4,a4,-31
    302b:	a406                	fsd	ft1,8(sp)
    302d:	0006                	c.slli	zero,0x1
    302f:	1400                	addi	s0,sp,544
    3031:	0970                	addi	a2,sp,156
    3033:	0000                	unimp
    3035:	1705                	addi	a4,a4,-31
    3037:	8c20                	0x8c20
    3039:	00000003          	lb	zero,0(zero) # 0 <InterruptVector>
    303d:	ae1d                	j	3373 <wiring.c.7604182b+0x9da>
    303f:	0500000b          	0x500000b
    3043:	1008                	addi	a0,sp,32
    3045:	038c                	addi	a1,sp,448
    3047:	0000                	unimp
    3049:	701a                	flw	ft0,164(sp)
    304b:	6e69                	lui	t3,0x1a
    304d:	0500                	addi	s0,sp,640
    304f:	2708                	fld	fa0,8(a4)
    3051:	000003b7          	lui	t2,0x0
    3055:	0000                	unimp
    3057:	0022                	c.slli	zero,0x8
    3059:	0000                	unimp
    305b:	0002                	c.slli64	zero
    305d:	07a2                	slli	a5,a5,0x8
    305f:	0000                	unimp
    3061:	0104                	addi	s1,sp,128
    3063:	2a01                	jal	3173 <wiring.c.7604182b+0x7da>
    3065:	0000                	unimp
    3067:	00a0                	addi	s0,sp,72
    3069:	0000                	unimp
    306b:	00c4                	addi	s1,sp,68
    306d:	0000                	unimp
    306f:	00000d57          	0xd57
    3073:	00000d83          	lb	s11,0(zero) # 0 <InterruptVector>
    3077:	0df6                	slli	s11,s11,0x1d
    3079:	0000                	unimp
    307b:	8001                	c.srli64	s0

Disassembly of section .debug_abbrev:

00000000 <.debug_abbrev>:
	asm volatile( "\n\
   0:	1101                	addi	sp,sp,-32
   2:	2501                	jal	602 <SysTick_Handler+0x156>
   4:	130e                	slli	t1,t1,0x23
   6:	1b0e030b          	0x1b0e030b
   a:	550e                	lw	a0,224(sp)
   c:	10011117          	auipc	sp,0x10011
  10:	02000017          	auipc	zero,0x2000
  14:	012e                	slli	sp,sp,0xb
  16:	1031                	c.nop	-20
  18:	0111                	addi	sp,sp,4
  1a:	0612                	slli	a2,a2,0x4
  1c:	1840                	addi	s0,sp,52
  1e:	01194297          	auipc	t0,0x1194
  22:	03000013          	li	zero,48
  26:	0005                	c.nop	1
  28:	1031                	c.nop	-20
  2a:	1702                	slli	a4,a4,0x20
  2c:	0000                	unimp
  2e:	0504                	addi	s1,sp,640
  30:	3100                	fld	fs0,32(a0)
  32:	0210                	addi	a2,sp,256
  34:	0018                	0x18
  36:	0500                	addi	s0,sp,640
  38:	0034                	addi	a3,sp,8
  3a:	1031                	c.nop	-20
  3c:	1702                	slli	a4,a4,0x20
  3e:	0000                	unimp
  40:	8906                	mv	s2,ra
  42:	0182                	c.slli64	gp
  44:	1101                	addi	sp,sp,-32
  46:	3101                	jal	fffffc46 <__global_pointer$+0xdffff316>
  48:	07000013          	li	zero,112
  4c:	828a                	mv	t0,sp
  4e:	0001                	nop
  50:	1802                	slli	a6,a6,0x20
  52:	4291                	li	t0,4
  54:	0018                	0x18
  56:	0800                	addi	s0,sp,16
  58:	1031010b          	0x1031010b
  5c:	1755                	addi	a4,a4,-11
  5e:	1301                	addi	t1,t1,-32
  60:	0000                	unimp
  62:	8909                	andi	a0,a0,2
  64:	0182                	c.slli64	gp
  66:	1100                	addi	s0,sp,160
  68:	3101                	jal	fffffc68 <__global_pointer$+0xdffff338>
  6a:	0a000013          	li	zero,160
  6e:	1031010b          	0x1031010b
  72:	1755                	addi	a4,a4,-11
  74:	0000                	unimp
  76:	3100340b          	0x3100340b
  7a:	0210                	addi	a2,sp,256
  7c:	0018                	0x18
  7e:	0c00                	addi	s0,sp,528
  80:	001d                	c.nop	7
  82:	1031                	c.nop	-20
  84:	0152                	slli	sp,sp,0x14
  86:	1755                	addi	a4,a4,-11
  88:	0b58                	addi	a4,sp,404
  8a:	0559                	addi	a0,a0,22
  8c:	00000b57          	0xb57
  90:	1d0d                	addi	s10,s10,-29
  92:	3100                	fld	fs0,32(a0)
  94:	1110                	addi	a2,sp,160
  96:	1201                	addi	tp,tp,-32
  98:	5806                	lw	a6,96(sp)
  9a:	5705590b          	0x5705590b
  9e:	0e00000b          	0xe00000b
  a2:	011d                	addi	sp,sp,7
  a4:	1031                	c.nop	-20
  a6:	0111                	addi	sp,sp,4
  a8:	0612                	slli	a2,a2,0x4
  aa:	0b58                	addi	a4,sp,404
  ac:	0559                	addi	a0,a0,22
  ae:	13010b57          	0x13010b57
  b2:	0000                	unimp
  b4:	31011d0f          	0x31011d0f
  b8:	1110                	addi	a2,sp,160
  ba:	1201                	addi	tp,tp,-32
  bc:	5806                	lw	a6,96(sp)
  be:	570b590b          	0x570b590b
  c2:	1000000b          	0x1000000b
int main() {
  c6:	011d                	addi	sp,sp,7
  c8:	1031                	c.nop	-20
  ca:	0152                	slli	sp,sp,0x14
	RCC->CFGR0 = RCC_HPRE_DIV1 | RCC_PLLSRC_HSI_Mul2;      // PLLCLK = HSI * 2 = 48 MHz; HCLK = SYSCLK = APB1
  cc:	1755                	addi	a4,a4,-11
  ce:	0b58                	addi	a4,sp,404
	RCC->CTLR  = RCC_HSION | RCC_PLLON | ((HSITRIM) << 3); // Use HSI, but enable PLL.
  d0:	0559                	addi	a0,a0,22
  d2:	13010b57          	0x13010b57
	RCC->CFGR0 = RCC_HPRE_DIV1 | RCC_PLLSRC_HSI_Mul2;      // PLLCLK = HSI * 2 = 48 MHz; HCLK = SYSCLK = APB1
  d6:	0000                	unimp
	RCC->CTLR  = RCC_HSION | RCC_PLLON | ((HSITRIM) << 3); // Use HSI, but enable PLL.
  d8:	0b11                	addi	s6,s6,4
  da:	5501                	li	a0,-32
  dc:	12000017          	auipc	zero,0x12000
	FLASH->ACTLR = FLASH_ACTLR_LATENCY_1;                  // 1 Cycle Latency
  e0:	0005                	c.nop	1
  e2:	1031                	c.nop	-20
  e4:	0b1c                	addi	a5,sp,400
	RCC->INTR  = 0x009F0000;                               // Clear PLL, CSSC, HSE, HSI and LSI ready flags.
  e6:	0000                	unimp
  e8:	01828a13          	addi	s4,t0,24 # 1194036 <wiring.c.7604182b+0x119169d>
	while((RCC->CTLR & RCC_PLLRDY) == 0);                                      // Wait till PLL is ready
  ec:	3100                	fld	fs0,32(a0)
  ee:	18429113          	0x18429113
  f2:	0000                	unimp
  f4:	2e14                	fld	fa3,24(a2)
  f6:	3101                	jal	fffffcf6 <__global_pointer$+0xdffff3c6>
  f8:	0110                	addi	a2,sp,128
	RCC->CFGR0 = ( RCC->CFGR0 & ((uint32_t)~(RCC_SW))) | (uint32_t)RCC_SW_PLL; // Select PLL as system clock source
  fa:	15000013          	li	zero,336
  fe:	0005                	c.nop	1
 100:	1031                	c.nop	-20
 102:	0000                	unimp
 104:	2e16                	fld	ft8,320(sp)
	while ((RCC->CFGR0 & (uint32_t)RCC_SWS) != (uint32_t)0x08);                // Wait till PLL is used as system clock source
 106:	3100                	fld	fs0,32(a0)
 108:	1110                	addi	a2,sp,160
 10a:	1201                	addi	tp,tp,-32
 10c:	4006                	0x4006
 10e:	9718                	0x9718
 110:	1942                	slli	s2,s2,0x30
	RCC->APB2PCENR |=	RCC_APB2Periph_GPIOA | RCC_APB2Periph_GPIOC |
 112:	0000                	unimp
 114:	31003417          	auipc	s0,0x31003
 118:	0010                	0x10
 11a:	1800                	addi	s0,sp,48
 11c:	011d                	addi	sp,sp,7
	RCC->APB1PCENR |=	RCC_APB1Periph_TIM2;
 11e:	1031                	c.nop	-20
	RCC->APB2PRSTR |=  RCC_APB2Periph_TIM1;
 120:	0152                	slli	sp,sp,0x14
 122:	1755                	addi	a4,a4,-11
	RCC->APB2PRSTR &= ~RCC_APB2Periph_TIM1;
 124:	0b58                	addi	a4,sp,404
	RCC->APB1PCENR |=	RCC_APB1Periph_TIM2;
 126:	0b59                	addi	s6,s6,22
 128:	00000b57          	0xb57
	RCC->APB2PRSTR |=  RCC_APB2Periph_TIM1;
 12c:	0a19                	addi	s4,s4,6
	GPIOC->CFGLR &= ~(0xf<<(4*4));
 12e:	3100                	fld	fs0,32(a0)
 130:	1110                	addi	a2,sp,160
 132:	0001                	nop
	RCC->APB2PRSTR |=  RCC_APB2Periph_TIM1;
 134:	1a00                	addi	s0,sp,304
 136:	8289                	srli	a3,a3,0x2
	RCC->APB2PRSTR &= ~RCC_APB2Periph_TIM1;
 138:	0101                	addi	sp,sp,0
 13a:	0111                	addi	sp,sp,4
 13c:	1331                	addi	t1,t1,-20
	GPIOC->CFGLR &= ~(0xf<<(4*2));
 13e:	1301                	addi	t1,t1,-32
 140:	0000                	unimp
	RCC->APB2PRSTR &= ~RCC_APB2Periph_TIM1;
 142:	31011d1b          	0x31011d1b
	RCC->APB1PRSTR |=  RCC_APB1Periph_TIM2;
 146:	1110                	addi	a2,sp,160
	TIM1->PSC = 0x0000;
 148:	1201                	addi	tp,tp,-32
 14a:	5806                	lw	a6,96(sp)
	TIM1->ATRLR = 255;
 14c:	5705590b          	0x5705590b
	RCC->APB1PRSTR |=  RCC_APB1Periph_TIM2;
 150:	1c00000b          	0x1c00000b
 154:	8289                	srli	a3,a3,0x2
	RCC->APB1PRSTR &= ~RCC_APB1Periph_TIM2;
 156:	0101                	addi	sp,sp,0
	TIM2->CCER |= TIM_CC4E | TIM_CC4P;	// Enable CH2 output, positive pol
 158:	0111                	addi	sp,sp,4
	RCC->APB1PRSTR &= ~RCC_APB1Periph_TIM2;
 15a:	4295                	li	t0,5
 15c:	3119                	jal	fffffd62 <__global_pointer$+0xdffff432>
	GPIOC->CFGLR &= ~(0xf<<(4*4));
 15e:	1d000013          	li	zero,464
 162:	011d                	addi	sp,sp,7
 164:	1031                	c.nop	-20
 166:	0152                	slli	sp,sp,0x14
	GPIOC->CFGLR |= (GPIO_Speed_10MHz | GPIO_CNF_OUT_OD_AF)<<(4*GPIO_PinSource4);
 168:	1755                	addi	a4,a4,-11
 16a:	0b58                	addi	a4,sp,404
 16c:	0559                	addi	a0,a0,22
 16e:	00000b57          	0xb57
	GPIOA->CFGLR &= ~(0xf<<(4*1));
 172:	0b1e                	slli	s6,s6,0x7
 174:	3101                	jal	fffffd74 <__global_pointer$+0xdffff444>
	GPIOC->CFGLR |= (GPIO_Speed_10MHz | GPIO_CNF_OUT_OD_AF)<<(4*GPIO_PinSource2);
 176:	1110                	addi	a2,sp,160
 178:	1201                	addi	tp,tp,-32
	GPIOA->CFGLR &= ~(0xf<<(4*1));
 17a:	0106                	slli	sp,sp,0x1
 17c:	1f000013          	li	zero,496
 180:	002e                	c.slli	zero,0xb
	GPIOA->CFGLR |= (GPIO_Speed_10MHz | GPIO_CNF_OUT_OD_AF)<<(4*GPIO_PinSource1);
 182:	193c193f 0e030e6e 	0xe030e6e193c193f
 18a:	0b3a                	slli	s6,s6,0xe
 18c:	00000b3b          	0xb3b
	GPIOC->CFGLR &= ~(0xf<<(4*2));
 190:	2e20                	fld	fs0,88(a2)
 192:	3f00                	fld	fs0,56(a4)
 194:	3c19                	jal	fffffbaa <__global_pointer$+0xdffff27a>
	GPIOC->CFGLR |= (GPIO_Speed_10MHz | GPIO_CNF_OUT_OD_AF)<<(4*GPIO_PinSource2);
 196:	6e19                	lui	t3,0x6
 198:	030e                	slli	t1,t1,0x3
 19a:	000e                	c.slli	zero,0x3
	GPIOC->CFGLR &= ~(0xf<<(4*1));
 19c:	0000                	unimp
	AFIO->PCFR1 |= AFIO_PCFR1_TIM2_REMAP_PARTIALREMAP1;
 19e:	1101                	addi	sp,sp,-32
 1a0:	2501                	jal	7a0 <_data_lma+0x30>
	GPIOC->CFGLR &= ~(0xf<<(4*1));
 1a2:	130e                	slli	t1,t1,0x23
 1a4:	1b0e030b          	0x1b0e030b
	GPIOC->CFGLR |= (GPIO_Speed_10MHz | GPIO_CNF_OUT_OD_AF)<<(4*GPIO_PinSource1);
 1a8:	100e                	c.slli	zero,0x23
 1aa:	02000017          	auipc	zero,0x2000
 1ae:	0024                	addi	s1,sp,8
	AFIO->PCFR1 |= AFIO_PCFR1_TIM2_REMAP_PARTIALREMAP1;
 1b0:	0b3e0b0b          	0xb3e0b0b
 1b4:	00000e03          	lb	t3,0(zero) # 0 <InterruptVector>
	TIM1->PSC = 0x0000;
 1b8:	03001603          	lh	a2,48(zero) # 30 <InterruptVector+0x30>
	TIM2->PSC = 0x0000;
 1bc:	3a0e                	fld	fs4,224(sp)
 1be:	390b3b0b          	0x390b3b0b
 1c2:	0013490b          	0x13490b
	TIM1->ATRLR = 255;
 1c6:	0400                	addi	s0,sp,512
	TIM2->ATRLR = 255;
 1c8:	0026                	c.slli	zero,0x9
 1ca:	1349                	addi	t1,t1,-14
	TIM1->SWEVGR |= TIM_UG;
 1cc:	0000                	unimp
 1ce:	2405                	jal	3ee <main+0x32a>
 1d0:	0b00                	addi	s0,sp,400
 1d2:	030b3e0b          	0x30b3e0b
 1d6:	0008                	0x8
 1d8:	0600                	addi	s0,sp,768
 1da:	0b0b000f          	0xb0b000f
	TIM2->SWEVGR |= TIM_UG;
 1de:	00000e03          	lb	t3,0(zero) # 0 <InterruptVector>
 1e2:	0b000f07          	0xb000f07
 1e6:	0800000b          	0x800000b
 1ea:	0b0b000f          	0xb0b000f
	TIM2->CTLR1 |= TIM_ARPE;
 1ee:	1349                	addi	t1,t1,-14
 1f0:	0000                	unimp
 1f2:	0109                	addi	sp,sp,2
 1f4:	4901                	li	s2,0
 1f6:	00130113          	addi	sp,t1,1 # fffe1001 <__global_pointer$+0xdffe06d1>
 1fa:	0a00                	addi	s0,sp,272
	TIM1->CTLR1 |= TIM_ARPE; // unnecessary?
 1fc:	0021                	c.nop	8
 1fe:	1349                	addi	t1,t1,-14
 200:	00000b2f          	0xb2f
 204:	4900350b          	0x4900350b
 208:	0c000013          	li	zero,192
	TIM1->CH1CVR = 128; //T1CH1/PC4/pin7
 20c:	0b0b0113          	addi	sp,s6,176
 210:	0b3a                	slli	s6,s6,0xe
 212:	0b390b3b          	0xb390b3b
	TIM1->CH2CVR = 128; //T1CH2/PA1/pin1
 216:	1301                	addi	t1,t1,-32
	TIM2->CH2CVR = 128; //T2CH2/PC2/pin6*
 218:	0000                	unimp
	TIM2->CH4CVR = 128; //T2CH4/PC1/pin5*
 21a:	0d0d                	addi	s10,s10,3
	TIM1->CCER |= TIM_CC1E | TIM_CC1P;	// Enable CH1 output, positive pol
 21c:	0300                	addi	s0,sp,384
 21e:	3a0e                	fld	fs4,224(sp)
 220:	390b3b0b          	0x390b3b0b
 224:	3813490b          	0x3813490b
 228:	0e00000b          	0xe00000b
	TIM1->CCER |= TIM_CC2E | TIM_CC2P;	// Enable CH4 output, positive pol
 22c:	000d                	c.nop	3
 22e:	0b3a0803          	lb	a6,179(s4) # fffe00b3 <__global_pointer$+0xdffdf783>
 232:	0b390b3b          	0xb390b3b
 236:	1349                	addi	t1,t1,-14
 238:	0b38                	addi	a4,sp,408
 23a:	0000                	unimp
	TIM2->CCER |= TIM_CC2E | TIM_CC2P;	// Enable CH1 output, positive pol
 23c:	0b01130f          	0xb01130f
 240:	3b0b3a0b          	0x3b0b3a0b
 244:	3905                	jal	fffffe74 <__global_pointer$+0xdffff544>
 246:	0013010b          	0x13010b
 24a:	1000                	addi	s0,sp,32
	TIM2->CCER |= TIM_CC4E | TIM_CC4P;	// Enable CH2 output, positive pol
 24c:	000d                	c.nop	3
 24e:	0b3a0e03          	lb	t3,179(s4)
 252:	0b39053b          	0xb39053b
 256:	1349                	addi	t1,t1,-14
 258:	0b38                	addi	a4,sp,408
 25a:	0000                	unimp
	TIM1->CHCTLR1 |= TIM_OC1M_2 | TIM_OC1M_1;	// CH1 Mode is output, PWM1 (CC1S = 00, OC1M = 110)
 25c:	0d11                	addi	s10,s10,4
 25e:	0300                	addi	s0,sp,384
	TIM1->CHCTLR1 |= TIM_OC2M_2 | TIM_OC2M_1;	// CH2 Mode is output, PWM1 (CC1S = 00, OC1M = 110)
 260:	3a08                	fld	fa0,48(a2)
	TIM1->CHCTLR1 |= TIM_OC1M_2 | TIM_OC1M_1;	// CH1 Mode is output, PWM1 (CC1S = 00, OC1M = 110)
 262:	39053b0b          	0x39053b0b
 266:	3813490b          	0x3813490b
 26a:	1200000b          	0x1200000b
	TIM1->CHCTLR1 |= TIM_OC2M_2 | TIM_OC2M_1;	// CH2 Mode is output, PWM1 (CC1S = 00, OC1M = 110)
 26e:	0016                	c.slli	zero,0x5
 270:	0b3a0e03          	lb	t3,179(s4)
 274:	0b39053b          	0xb39053b
 278:	1349                	addi	t1,t1,-14
 27a:	0000                	unimp
 27c:	03003413          	sltiu	s0,zero,48
	TIM2->CHCTLR1 |= TIM_OC2M_2 | TIM_OC2M_1 | TIM_OC2PE;
 280:	3a0e                	fld	fs4,224(sp)
 282:	39053b0b          	0x39053b0b
 286:	0013490b          	0x13490b
 28a:	1400                	addi	s0,sp,544
 28c:	0104                	addi	s1,sp,128
 28e:	0b3e                	slli	s6,s6,0xf
 290:	13490b0b          	0x13490b0b
 294:	0b3a                	slli	s6,s6,0xe
 296:	0b39053b          	0xb39053b
 29a:	1301                	addi	t1,t1,-32
	TIM2->CHCTLR2 |= TIM_OC4M_2 | TIM_OC4M_1 | TIM_OC4PE;
 29c:	0000                	unimp
 29e:	2815                	jal	2d2 <main+0x20e>
	TIM1->BDTR  |= TIM_MOE;	// Brake and deadband registers
 2a0:	0300                	addi	s0,sp,384
	TIM2->CHCTLR2 |= TIM_OC4M_2 | TIM_OC4M_1 | TIM_OC4PE;
 2a2:	1c0e                	slli	s8,s8,0x23
 2a4:	1600000b          	0x1600000b
 2a8:	0034                	addi	a3,sp,8
 2aa:	0b3a0e03          	lb	t3,179(s4)
 2ae:	0b390b3b          	0xb390b3b
	TIM1->BDTR  |= TIM_MOE;	// Brake and deadband registers
 2b2:	1349                	addi	t1,t1,-14
 2b4:	0000193f 03011317 	0x30113170000193f
 2bc:	0b0e                	slli	s6,s6,0x3
 2be:	3b0b3a0b          	0x3b0b3a0b
	TIM1->CTLR1 |= TIM_CEN;	// Enable TIM1
 2c2:	3905                	jal	fffffef2 <__global_pointer$+0xdffff5c2>
 2c4:	0013010b          	0x13010b
 2c8:	1800                	addi	s0,sp,48
 2ca:	012e                	slli	sp,sp,0xb
 2cc:	0e03193f 053b0b3a 	0x53b0b3a0e03193f
	TIM2->CTLR1 |= TIM_CEN;	// Enable TIM2
 2d4:	0b39                	addi	s6,s6,14
 2d6:	13011927          	0x13011927
 2da:	0000                	unimp
 2dc:	0519                	addi	a0,a0,6
 2de:	0300                	addi	s0,sp,384
 2e0:	3a08                	fld	fa0,48(a2)
	SysTick->CTLR = 0;
 2e2:	39053b0b          	0x39053b0b
 2e6:	0013490b          	0x13490b
 2ea:	1a00                	addi	s0,sp,304
 2ec:	002e                	c.slli	zero,0xb
 2ee:	0e03193f 053b0b3a 	0x53b0b3a0e03193f
	SysTick->CMP = (SYSTEM_CORE_CLOCK/8/SYSTICKHZ)-1;
 2f6:	0b39                	addi	s6,s6,14
	SysTick->CNT = 0;
 2f8:	0000                	unimp
 2fa:	3f012e1b          	0x3f012e1b
	SysTick->CTLR = SYSTICK_CTLR_STE | SYSTICK_CTLR_STIE |
 2fe:	0319                	addi	t1,t1,6
	RCC->CFGR0 &= ~(0x1F<<11);
 300:	3a0e                	fld	fs4,224(sp)
 302:	39053b0b          	0x39053b0b
 306:	4919270b          	0x4919270b
 30a:	00130113          	addi	sp,t1,1
	RCC->APB2PCENR |= RCC_APB2Periph_GPIOA | RCC_APB2Periph_ADC1;
 30e:	1c00                	addi	s0,sp,560
 310:	0005                	c.nop	1
 312:	0b3a0e03          	lb	t3,179(s4)
	GPIOA->CFGLR &= ~(0xf<<(4*GPIO_PinSource2));	// CNF = 00: Analog, MODE = 00: Input
 316:	0b39053b          	0xb39053b
 31a:	1349                	addi	t1,t1,-14
 31c:	0000                	unimp
 31e:	0b1d                	addi	s6,s6,7
	RCC->APB2PRSTR |= RCC_APB2Periph_ADC1;
 320:	0001                	nop
	ADC1->CTLR2 |= ADC_ADON | ADC_EXTSEL;
 322:	1e00                	addi	s0,sp,816
 324:	0034                	addi	a3,sp,8
 326:	0b3a0803          	lb	a6,179(s4)
	RCC->APB2PRSTR |= RCC_APB2Periph_ADC1;
 32a:	0b39053b          	0xb39053b
	RCC->APB2PRSTR &= ~RCC_APB2Periph_ADC1;
 32e:	1349                	addi	t1,t1,-14
 330:	0000                	unimp
 332:	2e1f 3f00 0319      	0x3193f002e1f
	ADC1->RSQR1 = 0;
 338:	3a0e                	fld	fs4,224(sp)
 33a:	39053b0b          	0x39053b0b
	ADC1->RSQR2 = 0;
 33e:	0019270b          	0x19270b
	ADC1->RSQR3 = ADC_Channel_0;	// 0-9 for 8 ext inputs and two internals
 342:	2000                	fld	fs0,0(s0)
 344:	0018                	0x18
	ADC1->SAMPTR2 &= ~ADC_SMP2;
 346:	0000                	unimp
 348:	1521                	addi	a0,a0,-24
 34a:	2701                	jal	a4a <_data_lma+0x2da>
 34c:	4919                	li	s2,6
 34e:	00130113          	addi	sp,t1,1
	ADC1->SAMPTR2 |= ( ADC_SampleTime_3Cycles << (3 * ADC_Channel_0 ) );	// 0:7 => 3/9/15/30/43/57/73/241 cycles
 352:	2200                	fld	fs0,0(a2)
 354:	0005                	c.nop	1
 356:	1349                	addi	t1,t1,-14
 358:	0000                	unimp
	ADC1->CTLR2 |= ADC_ADON | ADC_EXTSEL;
 35a:	03000a23          	sb	a6,52(zero) # 34 <InterruptVector+0x34>
 35e:	3a08                	fld	fa0,48(a2)
 360:	39053b0b          	0x39053b0b
	ADC1->CTLR2 |= ADC_RSTCAL;
 364:	2400000b          	0x2400000b
	while(ADC1->CTLR2 & ADC_RSTCAL);
 368:	012e                	slli	sp,sp,0xb
 36a:	0b3a0e03          	lb	t3,179(s4)
	ADC1->CTLR2 |= ADC_RSTCAL;
 36e:	0b39053b          	0xb39053b
 372:	13491927          	0x13491927
	while(ADC1->CTLR2 & ADC_RSTCAL);
 376:	1301                	addi	t1,t1,-32
 378:	0000                	unimp
 37a:	0b25                	addi	s6,s6,9
	ADC1->CTLR2 |= ADC_CAL;
 37c:	0101                	addi	sp,sp,0
 37e:	26000013          	li	zero,608
 382:	0026                	c.slli	zero,0x9
 384:	0000                	unimp
 386:	03012e27          	fsw	fa6,60(sp) # 10011048 <wiring.c.7604182b+0x1000e6af>
	while(ADC1->CTLR2 & ADC_CAL);
 38a:	3a0e                	fld	fs4,224(sp)
 38c:	390b3b0b          	0x390b3b0b
 390:	4919270b          	0x4919270b
		Delay_Ms(( Delay >> 3 ) + 5 );
 394:	00130113          	addi	sp,t1,1
		int temp=LEDs[0].brightness;
 398:	2800                	fld	fs0,16(s0)
 39a:	0005                	c.nop	1
	ADC1->CTLR2 |= ADC_SWSTART;
 39c:	0b3a0803          	lb	a6,179(s4)
 3a0:	0b390b3b          	0xb390b3b
	uint32_t targend = SysTick->CNT + n;
 3a4:	1349                	addi	t1,t1,-14
 3a6:	0000                	unimp
		Delay_Ms(( Delay >> 3 ) + 5 );
 3a8:	3429                	jal	fffffdb2 <__global_pointer$+0xdffff482>
 3aa:	0300                	addi	s0,sp,384
 3ac:	3a08                	fld	fa0,48(a2)
		int temp=LEDs[0].brightness;
 3ae:	390b3b0b          	0x390b3b0b
	ADC1->CTLR2 |= ADC_SWSTART;
 3b2:	0013490b          	0x13490b
 3b6:	2a00                	fld	fs0,16(a2)
 3b8:	0034                	addi	a3,sp,8
 3ba:	0b3a0e03          	lb	t3,179(s4)
	while(!(ADC1->STATR & ADC_EOC));
 3be:	0b390b3b          	0xb390b3b
 3c2:	1349                	addi	t1,t1,-14
 3c4:	0000                	unimp
	return ADC1->RDATAR;
 3c6:	3f012e2b          	0x3f012e2b
 3ca:	0319                	addi	t1,t1,6
 3cc:	3a0e                	fld	fs4,224(sp)
		Delay_Ms(( Delay >> 3 ) + 5 );
 3ce:	390b3b0b          	0x390b3b0b
 3d2:	4919270b          	0x4919270b
 3d6:	00130113          	addi	sp,t1,1
 3da:	2c00                	fld	fs0,24(s0)
 3dc:	0005                	c.nop	1
 3de:	0b3a0e03          	lb	t3,179(s4)
 3e2:	0b390b3b          	0xb390b3b
 3e6:	1349                	addi	t1,t1,-14
 3e8:	0000                	unimp
 3ea:	0100                	addi	s0,sp,128
 3ec:	0111                	addi	sp,sp,4
 3ee:	0e25                	addi	t3,t3,9
	while( ((int32_t)( SysTick->CNT - targend )) < 0 );
 3f0:	0e030b13          	addi	s6,t1,224
 3f4:	17100e1b          	0x17100e1b
 3f8:	0000                	unimp
		int temp=LEDs[0].brightness;
 3fa:	0402                	c.slli64	s0
 3fc:	0301                	addi	t1,t1,0
		for(int i=1; i<12; i++){
 3fe:	3e0e                	fld	ft8,224(sp)
 400:	490b0b0b          	0x490b0b0b
		int temp=LEDs[0].brightness;
 404:	3b0b3a13          	sltiu	s4,s6,944
			LEDs[i-1].brightness=LEDs[i].brightness;
 408:	010b390b          	0x10b390b
 40c:	03000013          	li	zero,48
 410:	0028                	addi	a0,sp,8
 412:	0b1c0e03          	lb	t3,177(s8) # 10b1 <ch32v003fun.c.8affbd33+0x20f>
 416:	0000                	unimp
 418:	2404                	fld	fs1,8(s0)
 41a:	0b00                	addi	s0,sp,400
 41c:	030b3e0b          	0x30b3e0b
		for(int i=1; i<12; i++){
 420:	000e                	c.slli	zero,0x3
 422:	0500                	addi	s0,sp,640
 424:	0016                	c.slli	zero,0x5
		LEDs[11].brightness=temp;
 426:	0b3a0e03          	lb	t3,179(s4)
	while(1){
 42a:	0b390b3b          	0xb390b3b
	asm volatile( "\n\
 42e:	1349                	addi	t1,t1,-14
 430:	0000                	unimp
 432:	2406                	fld	fs0,64(sp)
 434:	0b00                	addi	s0,sp,400
 436:	030b3e0b          	0x30b3e0b
 43a:	0008                	0x8
 43c:	0700                	addi	s0,sp,896
 43e:	0026                	c.slli	zero,0x9
 440:	1349                	addi	t1,t1,-14
 442:	0000                	unimp
 444:	3508                	fld	fa0,40(a0)
 446:	4900                	lw	s0,16(a0)
 448:	09000013          	li	zero,144
 44c:	0b0b0113          	addi	sp,s6,176
 450:	0b3a                	slli	s6,s6,0xe
 452:	0b390b3b          	0xb390b3b
asm volatile(
 456:	1301                	addi	t1,t1,-32
 458:	0000                	unimp
 45a:	0d0a                	slli	s10,s10,0x2
 45c:	0300                	addi	s0,sp,384
 45e:	3a0e                	fld	fs4,224(sp)
 460:	390b3b0b          	0x390b3b0b
 464:	3813490b          	0x3813490b
 468:	0b00000b          	0xb00000b
 46c:	0b0b0113          	addi	sp,s6,176
 470:	0b3a                	slli	s6,s6,0xe
 472:	0b39053b          	0xb39053b
 476:	1301                	addi	t1,t1,-32
 478:	0000                	unimp
 47a:	0d0c                	addi	a1,sp,656
 47c:	0300                	addi	s0,sp,384
 47e:	3a0e                	fld	fs4,224(sp)
 480:	39053b0b          	0x39053b0b
 484:	3813490b          	0x3813490b
 488:	0d00000b          	0xd00000b
 48c:	000d                	c.nop	3
 48e:	0b3a0803          	lb	a6,179(s4)
 492:	0b39053b          	0xb39053b
	SETUP_SYSTICK_HCLK
 496:	1349                	addi	t1,t1,-14
 498:	0b38                	addi	a4,sp,408
 49a:	0000                	unimp
 49c:	160e                	slli	a2,a2,0x23
asm volatile(
 49e:	0300                	addi	s0,sp,384
 4a0:	3a0e                	fld	fs4,224(sp)
 4a2:	39053b0b          	0x39053b0b
 4a6:	0013490b          	0x13490b
	asm volatile( "1: j 1b" );
 4aa:	0f00                	addi	s0,sp,912
{
 4ac:	0101                	addi	sp,sp,0
 4ae:	1349                	addi	t1,t1,-14
 4b0:	1301                	addi	t1,t1,-32
 4b2:	0000                	unimp
	SysTick->CMP += (SYSTEM_CORE_CLOCK/8/SYSTICKHZ); //by default, Systick runs at 48/8=6MHz
 4b4:	2110                	fld	fa2,0(a0)
 4b6:	4900                	lw	s0,16(a0)
{
 4b8:	000b2f13          	slti	t5,s6,0
	SysTick->CMP += (SYSTEM_CORE_CLOCK/8/SYSTICKHZ); //by default, Systick runs at 48/8=6MHz
 4bc:	1100                	addi	s0,sp,160
 4be:	0034                	addi	a3,sp,8
{
 4c0:	0b3a0e03          	lb	t3,179(s4)
	SysTick->CMP += (SYSTEM_CORE_CLOCK/8/SYSTICKHZ); //by default, Systick runs at 48/8=6MHz
 4c4:	0b39053b          	0xb39053b
 4c8:	1349                	addi	t1,t1,-14
 4ca:	0000                	unimp
{
 4cc:	0412                	slli	s0,s0,0x4
 4ce:	3e01                	jal	ffffffde <__global_pointer$+0xdffff6ae>
 4d0:	490b0b0b          	0x490b0b0b
 4d4:	3b0b3a13          	sltiu	s4,s6,944
 4d8:	3905                	jal	108 <main+0x44>
 4da:	0013010b          	0x13010b
 4de:	1300                	addi	s0,sp,416
 4e0:	050b0113          	addi	sp,s6,80
 4e4:	0b3a                	slli	s6,s6,0xe
 4e6:	0b39053b          	0xb39053b
 4ea:	1301                	addi	t1,t1,-32
	SysTick->CMP += (SYSTEM_CORE_CLOCK/8/SYSTICKHZ); //by default, Systick runs at 48/8=6MHz
 4ec:	0000                	unimp
 4ee:	0d14                	addi	a3,sp,656
 4f0:	0300                	addi	s0,sp,384
 4f2:	3a0e                	fld	fs4,224(sp)
	SysTick->SR = 0;
 4f4:	39053b0b          	0x39053b0b
        timer->CCER &= ~channel;        //disable this channel output
 4f8:	3813490b          	0x3813490b
 4fc:	0005                	c.nop	1
 4fe:	1500                	addi	s0,sp,672
        port->BSHR = (1<<(pin));                //set GPIO 'high'
 500:	0021                	c.nop	8
 502:	1349                	addi	t1,t1,-14
        timer->CCER &= ~channel;        //disable this channel output
 504:	0000052f          	0x52f
 508:	0d16                	slli	s10,s10,0x5
 50a:	0300                	addi	s0,sp,384
 50c:	3a08                	fld	fa0,48(a2)
 50e:	390b3b0b          	0x390b3b0b
 512:	3813490b          	0x3813490b
 516:	1700000b          	0x1700000b
 51a:	0b0b000f          	0xb0b000f
 51e:	1349                	addi	t1,t1,-14
        port->CFGLR &= ~(0xf<<(4*pin)); //clear GPIO config - this appears to be necessary. 
 520:	0000                	unimp
 522:	3418                	fld	fa4,40(s0)
 524:	0300                	addi	s0,sp,384
 526:	3a0e                	fld	fs4,224(sp)
        timer->CCER &= ~channel;        //disable this channel output
 528:	390b3b0b          	0x390b3b0b
 52c:	3f13490b          	0x3f13490b
        port->CFGLR &= ~(0xf<<(4*pin)); //clear GPIO config - this appears to be necessary. 
 530:	0019                	c.nop	6
 532:	1900                	addi	s0,sp,176
 534:	0034                	addi	a3,sp,8
 536:	0b3a0e03          	lb	t3,179(s4)
        port->CFGLR |= (GPIO_Speed_10MHz | GPIO_CNF_OUT_PP)<<(4*pin); //Sets output mode to GPIO, PP
 53a:	0b390b3b          	0xb390b3b
 53e:	1349                	addi	t1,t1,-14
 540:	0000                	unimp
 542:	2e1a                	fld	ft8,384(sp)
        port->BSHR = (1<<(pin));                //set GPIO 'high'
 544:	3f01                	jal	454 <handle_reset+0x28>
 546:	0319                	addi	t1,t1,6
        timer->CCER &= ~channel;        //disable this channel output
 548:	3a0e                	fld	fs4,224(sp)
 54a:	39053b0b          	0x39053b0b
 54e:	0113490b          	0x113490b
 552:	1b000013          	li	zero,432
 556:	0000010b          	0x10b
 55a:	341c                	fld	fa5,40(s0)
        port->CFGLR &= ~(0xf<<(4*pin)); //clear GPIO config - this appears to be necessary. 
 55c:	0300                	addi	s0,sp,384
 55e:	3a08                	fld	fa0,48(a2)
 560:	39053b0b          	0x39053b0b
 564:	0013490b          	0x13490b
        port->CFGLR |= (GPIO_Speed_10MHz | GPIO_CNF_OUT_PP)<<(4*pin); //Sets output mode to GPIO, PP
 568:	1d00                	addi	s0,sp,688
 56a:	002e                	c.slli	zero,0xb
 56c:	0e03193f 053b0b3a 	0x53b0b3a0e03193f
        port->BSHR = (1<<(pin));                //set GPIO 'high'
 574:	0b39                	addi	s6,s6,14
 576:	13491927          	0x13491927
        timer->CCER &= ~channel;        //disable this channel output
 57a:	0000                	unimp
 57c:	2e1e                	fld	ft8,448(sp)
 57e:	3f00                	fld	fs0,56(a4)
 580:	0319                	addi	t1,t1,6
 582:	3a0e                	fld	fs4,224(sp)
 584:	39053b0b          	0x39053b0b
 588:	0019270b          	0x19270b
 58c:	1f00                	addi	s0,sp,944
 58e:	012e                	slli	sp,sp,0xb
 590:	0e03193f 053b0b3a 	0x53b0b3a0e03193f
        port->CFGLR &= ~(0xf<<(4*pin)); //clear GPIO config - this appears to be necessary. 
 598:	0b39                	addi	s6,s6,14
 59a:	13011927          	0x13011927
        port->BSHR = (1<<(pin));                //set GPIO 'high'
 59e:	0000                	unimp
        port->CFGLR &= ~(0xf<<(4*pin)); //clear GPIO config - this appears to be necessary. 
 5a0:	0b20                	addi	s0,sp,408
 5a2:	0101                	addi	sp,sp,0
 5a4:	21000013          	li	zero,528
        port->CFGLR |= (GPIO_Speed_10MHz | GPIO_CNF_OUT_PP)<<(4*pin); //Sets output mode to GPIO, PP
 5a8:	002e                	c.slli	zero,0xb
 5aa:	0e03193f 0b3b0b3a 	0xb3b0b3a0e03193f
 5b2:	0b39                	addi	s6,s6,14
        port->BSHR = (1<<(pin));                //set GPIO 'high'
 5b4:	00001927          	0x1927
        timer->CCER &= ~channel;        //disable this channel output
 5b8:	2e22                	fld	ft8,8(sp)
 5ba:	3f01                	jal	4ca <SysTick_Handler+0x1e>
 5bc:	0319                	addi	t1,t1,6
 5be:	3a0e                	fld	fs4,224(sp)
 5c0:	390b3b0b          	0x390b3b0b
 5c4:	0119270b          	0x119270b
 5c8:	23000013          	li	zero,560
 5cc:	0005                	c.nop	1
 5ce:	0b3a0e03          	lb	t3,179(s4)
 5d2:	0b390b3b          	0xb390b3b
        port->CFGLR &= ~(0xf<<(4*pin)); //clear GPIO config - this appears to be necessary. 
 5d6:	1349                	addi	t1,t1,-14
 5d8:	0000                	unimp
 5da:	0524                	addi	s1,sp,648
 5dc:	0300                	addi	s0,sp,384
 5de:	3a08                	fld	fa0,48(a2)
 5e0:	390b3b0b          	0x390b3b0b
 5e4:	0013490b          	0x13490b
        port->CFGLR |= (GPIO_Speed_10MHz | GPIO_CNF_OUT_PP)<<(4*pin); //Sets output mode to GPIO, PP
 5e8:	2500                	fld	fs0,8(a0)
 5ea:	012e                	slli	sp,sp,0xb
 5ec:	0b3a0e03          	lb	t3,179(s4)
 5f0:	0b39053b          	0xb39053b
 5f4:	00001927          	0x1927
        port->BSHR = (1<<(pin));                //set GPIO 'high'
 5f8:	0526                	slli	a0,a0,0x9
 5fa:	0300                	addi	s0,sp,384
 5fc:	3a0e                	fld	fs4,224(sp)
 5fe:	39053b0b          	0x39053b0b
	if(++currentgroup > 4) currentgroup=0;
 602:	0013490b          	0x13490b
 606:	0000                	unimp
 608:	1101                	addi	sp,sp,-32
 60a:	2501                	jal	c0a <_data_lma+0x49a>
 60c:	130e                	slli	t1,t1,0x23
 60e:	1b0e030b          	0x1b0e030b
 612:	100e                	c.slli	zero,0x23
 614:	02000017          	auipc	zero,0x2000
 618:	0024                	addi	s1,sp,8
 61a:	0b3e0b0b          	0xb3e0b0b
		pwm_setpw(	LEDs[group[currentgroup][i]].timer,
 61e:	00000e03          	lb	t3,0(zero) # 0 <InterruptVector>
 622:	03001603          	lh	a2,48(zero) # 30 <InterruptVector+0x30>
 626:	3a0e                	fld	fs4,224(sp)
 628:	390b3b0b          	0x390b3b0b
 62c:	0013490b          	0x13490b
 630:	0400                	addi	s0,sp,512
 632:	0024                	addi	s1,sp,8
 634:	0b3e0b0b          	0xb3e0b0b
    	switch( chl )
 638:	00000803          	lb	a6,0(zero) # 0 <InterruptVector>
 63c:	2605                	jal	95c <_data_lma+0x1ec>
 63e:	4900                	lw	s0,16(a0)
 640:	06000013          	li	zero,96
 644:	0035                	c.nop	13
 646:	1349                	addi	t1,t1,-14
	for(int i=0;i<3;i++){
 648:	0000                	unimp
 64a:	0b011307          	0xb011307
		pwm_setpw(	LEDs[group[currentgroup][i]].timer,
 64e:	3b0b3a0b          	0x3b0b3a0b
 652:	010b390b          	0x10b390b
 656:	08000013          	li	zero,128
 65a:	000d                	c.nop	3
 65c:	0b3a0e03          	lb	t3,179(s4)
 660:	0b390b3b          	0xb390b3b
				LEDs[group[currentgroup][i]].brightness
 664:	1349                	addi	t1,t1,-14
 666:	0b38                	addi	a4,sp,408
		pwm_setpw(	LEDs[group[currentgroup][i]].timer,
 668:	0000                	unimp
 66a:	1309                	addi	t1,t1,-30
 66c:	0b01                	addi	s6,s6,0
 66e:	3b0b3a0b          	0x3b0b3a0b
				LEDs[group[currentgroup][i]].brightness
 672:	3905                	jal	2a2 <main+0x1de>
    	switch( chl )
 674:	0013010b          	0x13010b
 678:	0a00                	addi	s0,sp,272
 67a:	000d                	c.nop	3
 67c:	0b3a0e03          	lb	t3,179(s4)
 680:	0b39053b          	0xb39053b
	for(int i=0;i<3;i++){
 684:	1349                	addi	t1,t1,-14
 686:	0b38                	addi	a4,sp,408
 688:	0000                	unimp
 68a:	03000d0b          	0x3000d0b
	for(int i=0;i<3;i++){
 68e:	3a08                	fld	fa0,48(a2)
        port->CFGLR &= ~(0xf<<(4*pin)); //clear GPIO config - this appears to be necessary. 
 690:	39053b0b          	0x39053b0b
        port->CFGLR |= (GPIO_Speed_10MHz | GPIO_CNF_OUT_OD_AF)<<(4*pin);//Sets mode to OD_AF
 694:	3813490b          	0x3813490b
		GPIO_PWM(	LEDs[group[currentgroup][i]].port,
 698:	0c00000b          	0xc00000b
 69c:	0016                	c.slli	zero,0x5
 69e:	0b3a0e03          	lb	t3,179(s4)
	for(int i=0;i<3;i++){
 6a2:	0b39053b          	0xb39053b
		GPIO_PWM(	LEDs[group[currentgroup][i]].port,
 6a6:	1349                	addi	t1,t1,-14
 6a8:	0000                	unimp
 6aa:	010d                	addi	sp,sp,3
 6ac:	4901                	li	s2,0
 6ae:	00130113          	addi	sp,t1,1
 6b2:	0e00                	addi	s0,sp,784
 6b4:	0021                	c.nop	8
 6b6:	1349                	addi	t1,t1,-14
 6b8:	00000b2f          	0xb2f
 6bc:	0300340f          	0x300340f
        port->CFGLR &= ~(0xf<<(4*pin)); //clear GPIO config - this appears to be necessary. 
 6c0:	3a0e                	fld	fs4,224(sp)
 6c2:	39053b0b          	0x39053b0b
 6c6:	0013490b          	0x13490b
 6ca:	1000                	addi	s0,sp,32
 6cc:	0104                	addi	s1,sp,128
 6ce:	0b3e                	slli	s6,s6,0xf
 6d0:	13490b0b          	0x13490b0b
 6d4:	0b3a                	slli	s6,s6,0xe
 6d6:	0b39053b          	0xb39053b
        port->CFGLR |= (GPIO_Speed_10MHz | GPIO_CNF_OUT_OD_AF)<<(4*pin);//Sets mode to OD_AF
 6da:	1301                	addi	t1,t1,-32
 6dc:	0000                	unimp
 6de:	2811                	jal	6f2 <SysTick_Handler+0x246>
 6e0:	0300                	addi	s0,sp,384
 6e2:	1c0e                	slli	s8,s8,0x23
 6e4:	1200000b          	0x1200000b
        timer->CCER |= channel;         //enable this channel output
 6e8:	0104                	addi	s1,sp,128
 6ea:	0b3e0e03          	lb	t3,179(t3) # 60b3 <wiring.c.7604182b+0x371a>
 6ee:	13490b0b          	0x13490b0b
 6f2:	0b3a                	slli	s6,s6,0xe
 6f4:	0b390b3b          	0xb390b3b
 6f8:	1301                	addi	t1,t1,-32
 6fa:	0000                	unimp
	for(int i=0;i<3;i++){
 6fc:	3f012e13          	slti	t3,sp,1008
 700:	0319                	addi	t1,t1,6
 702:	3a0e                	fld	fs4,224(sp)
}
 704:	390b3b0b          	0x390b3b0b
 708:	4919270b          	0x4919270b
 70c:	00130113          	addi	sp,t1,1
 710:	1400                	addi	s0,sp,544
 712:	0005                	c.nop	1
 714:	0b3a0e03          	lb	t3,179(s4)
 718:	0b390b3b          	0xb390b3b
 71c:	1349                	addi	t1,t1,-14
 71e:	0000                	unimp
 720:	2e15                	jal	a54 <_data_lma+0x2e4>
 722:	3f00                	fld	fs0,56(a4)
 724:	0319                	addi	t1,t1,6
 726:	3a0e                	fld	fs4,224(sp)
 728:	390b3b0b          	0x390b3b0b
 72c:	1600000b          	0x1600000b
 730:	012e                	slli	sp,sp,0xb
 732:	0e03193f 0b3b0b3a 	0xb3b0b3a0e03193f
	if(++currentgroup > 4) currentgroup=0;
 73a:	0b39                	addi	s6,s6,14
 73c:	13011927          	0x13011927
    	switch( chl )
 740:	0000                	unimp
 742:	3f012e17          	auipc	t3,0x3f012
	    	case TIM_CC4E: timer->CH4CVR = width; break;
 746:	0319                	addi	t1,t1,6
 748:	3a0e                	fld	fs4,224(sp)
 74a:	390b3b0b          	0x390b3b0b
	    	case TIM_CC1E: timer->CH1CVR = width; break;
 74e:	0013010b          	0x13010b
 752:	1800                	addi	s0,sp,48
	    	case TIM_CC2E: timer->CH2CVR = width; break;
 754:	0000010b          	0x10b
 758:	3419                	jal	15e <main+0x9a>
 75a:	0300                	addi	s0,sp,384
	    	case TIM_CC3E: timer->CH3CVR = width; break;
 75c:	3a08                	fld	fa0,48(a2)
 75e:	390b3b0b          	0x390b3b0b
 762:	0013490b          	0x13490b
 766:	1a00                	addi	s0,sp,304
 768:	0005                	c.nop	1
 76a:	0b3a0803          	lb	a6,179(s4)
 76e:	0b390b3b          	0xb390b3b
 772:	1349                	addi	t1,t1,-14
 774:	0000                	unimp
 776:	0300341b          	0x300341b
 77a:	3a0e                	fld	fs4,224(sp)
 77c:	390b3b0b          	0x390b3b0b
 780:	0013490b          	0x13490b
 784:	1c00                	addi	s0,sp,560
 786:	0b0b000f          	0xb0b000f
 78a:	1349                	addi	t1,t1,-14
 78c:	0000                	unimp
 78e:	2e1d                	jal	ac4 <_data_lma+0x354>
 790:	3f01                	jal	6a0 <SysTick_Handler+0x1f4>
 792:	0319                	addi	t1,t1,6
 794:	3a0e                	fld	fs4,224(sp)
 796:	390b3b0b          	0x390b3b0b
 79a:	4919270b          	0x4919270b
 79e:	00000013          	nop
 7a2:	1101                	addi	sp,sp,-32
 7a4:	1000                	addi	s0,sp,32
 7a6:	1106                	slli	sp,sp,0x21
 7a8:	1201                	addi	tp,tp,-32
 7aa:	0301                	addi	t1,t1,0
 7ac:	1b0e                	slli	s6,s6,0x23
 7ae:	250e                	fld	fa0,192(sp)
 7b0:	130e                	slli	t1,t1,0x23
 7b2:	0005                	c.nop	1
	...

Disassembly of section .debug_loc:

00000000 <.debug_loc>:
	...
	asm volatile( "\n\
       8:	0001                	nop
       a:	005a                	c.slli	zero,0x16
       c:	0000                	unimp
       e:	0000                	unimp
      10:	0000                	unimp
      12:	0100                	addi	s0,sp,128
      14:	5600                	lw	s0,40(a2)
	...
      26:	0001                	nop
      28:	0000005b          	0x5b
      2c:	0000                	unimp
      2e:	0000                	unimp
      30:	0100                	addi	s0,sp,128
      32:	5a00                	lw	s0,48(a2)
	...
      3c:	0004                	0x4
      3e:	9f5b01f3          	0x9f5b01f3
	...
      4a:	0001                	nop
      4c:	005a                	c.slli	zero,0x16
	...
      5a:	0000                	unimp
      5c:	0100                	addi	s0,sp,128
      5e:	5c00                	lw	s0,56(s0)
	...
      68:	0001                	nop
      6a:	005c                	addi	a5,sp,4
	...
      78:	0000                	unimp
      7a:	0100                	addi	s0,sp,128
      7c:	5500                	lw	s0,40(a0)
	...
      86:	0001                	nop
      88:	0055                	c.nop	21
	...
      96:	0000                	unimp
      98:	0200                	addi	s0,sp,256
      9a:	3000                	fld	fs0,32(s0)
      9c:	009f 0000 0000      	0x9f
      a2:	0000                	unimp
      a4:	0100                	addi	s0,sp,128
      a6:	5e00                	lw	s0,56(a2)
	...
      b0:	0001                	nop
      b2:	005e                	c.slli	zero,0x17
      b4:	0000                	unimp
      b6:	0000                	unimp
      b8:	0000                	unimp
      ba:	0300                	addi	s0,sp,384
      bc:	7e00                	flw	fs0,56(a2)
      be:	9f7f                	0x9f7f
	...
int main() {
      c8:	0001                	nop
      ca:	005e                	c.slli	zero,0x17
	...
	RCC->CTLR  = RCC_HSION | RCC_PLLON | ((HSITRIM) << 3); // Use HSI, but enable PLL.
      d8:	0000                	unimp
      da:	0100                	addi	s0,sp,128
      dc:	5a00                	lw	s0,48(a2)
	...
	RCC->INTR  = 0x009F0000;                               // Clear PLL, CSSC, HSE, HSI and LSI ready flags.
      e6:	0001                	nop
      e8:	005f 0000 0000      	0x5f
	while((RCC->CTLR & RCC_PLLRDY) == 0);                                      // Wait till PLL is ready
      ee:	0000                	unimp
      f0:	0200                	addi	s0,sp,256
      f2:	9100                	0x9100
      f4:	0070                	addi	a2,sp,12
      f6:	0000                	unimp
      f8:	0000                	unimp
	RCC->CFGR0 = ( RCC->CFGR0 & ((uint32_t)~(RCC_SW))) | (uint32_t)RCC_SW_PLL; // Select PLL as system clock source
      fa:	0000                	unimp
	while ((RCC->CFGR0 & (uint32_t)RCC_SWS) != (uint32_t)0x08);                // Wait till PLL is used as system clock source
      fc:	0600                	addi	s0,sp,768
	RCC->CFGR0 = ( RCC->CFGR0 & ((uint32_t)~(RCC_SW))) | (uint32_t)RCC_SW_PLL; // Select PLL as system clock source
      fe:	7f00                	flw	fs0,56(a4)
     100:	7c00                	flw	fs0,56(s0)
     102:	2200                	fld	fs0,0(a2)
     104:	009f 0000 0000      	0x9f
	while ((RCC->CFGR0 & (uint32_t)RCC_SWS) != (uint32_t)0x08);                // Wait till PLL is used as system clock source
     10a:	0000                	unimp
     10c:	0100                	addi	s0,sp,128
     10e:	5a00                	lw	s0,48(a2)
	...
	RCC->APB2PCENR |=	RCC_APB2Periph_GPIOA | RCC_APB2Periph_GPIOC |
     118:	0008                	0x8
     11a:	007f                	0x7f
     11c:	007c                	addi	a5,sp,12
	RCC->APB1PCENR |=	RCC_APB1Periph_TIM2;
     11e:	2322                	fld	ft6,8(sp)
	RCC->APB2PRSTR |=  RCC_APB2Periph_TIM1;
     120:	9f01                	0x9f01
	...
	RCC->APB1PCENR |=	RCC_APB1Periph_TIM2;
     12a:	0006                	c.slli	zero,0x1
	RCC->APB2PRSTR |=  RCC_APB2Periph_TIM1;
     12c:	007f                	0x7f
	GPIOC->CFGLR &= ~(0xf<<(4*4));
     12e:	007c                	addi	a5,sp,12
     130:	9f22                	add	t5,t5,s0
	...
	RCC->APB2PRSTR &= ~RCC_APB2Periph_TIM1;
     142:	0001                	nop
     144:	0000005b          	0x5b
	TIM1->PSC = 0x0000;
     148:	0000                	unimp
     14a:	0000                	unimp
	TIM1->ATRLR = 255;
     14c:	0100                	addi	s0,sp,128
     14e:	5900                	lw	s0,48(a0)
	...
	TIM2->CCER |= TIM_CC4E | TIM_CC4P;	// Enable CH2 output, positive pol
     158:	0004                	0x4
	RCC->APB1PRSTR &= ~RCC_APB1Periph_TIM2;
     15a:	9f5b01f3          	0x9f5b01f3
	...
	GPIOC->CFGLR &= ~(0xf<<(4*4));
     166:	0001                	nop
	GPIOC->CFGLR |= (GPIO_Speed_10MHz | GPIO_CNF_OUT_OD_AF)<<(4*GPIO_PinSource4);
     168:	0059                	c.nop	22
     16a:	0000                	unimp
     16c:	0000                	unimp
     16e:	0000                	unimp
     170:	0100                	addi	s0,sp,128
	GPIOA->CFGLR &= ~(0xf<<(4*1));
     172:	5a00                	lw	s0,48(a2)
	...
     17c:	0001                	nop
     17e:	0059                	c.nop	22
	...
	GPIOA->CFGLR |= (GPIO_Speed_10MHz | GPIO_CNF_OUT_OD_AF)<<(4*GPIO_PinSource1);
     18c:	0000                	unimp
	GPIOC->CFGLR &= ~(0xf<<(4*2));
     18e:	0100                	addi	s0,sp,128
     190:	5c00                	lw	s0,56(s0)
	...
	GPIOC->CFGLR |= (GPIO_Speed_10MHz | GPIO_CNF_OUT_OD_AF)<<(4*GPIO_PinSource2);
     19a:	0004                	0x4
	GPIOC->CFGLR &= ~(0xf<<(4*1));
     19c:	9f5c01f3          	0x9f5c01f3
	...
	GPIOC->CFGLR |= (GPIO_Speed_10MHz | GPIO_CNF_OUT_OD_AF)<<(4*GPIO_PinSource1);
     1a8:	0001                	nop
     1aa:	005c                	addi	a5,sp,4
     1ac:	0000                	unimp
     1ae:	0000                	unimp
	AFIO->PCFR1 |= AFIO_PCFR1_TIM2_REMAP_PARTIALREMAP1;
     1b0:	0000                	unimp
     1b2:	0400                	addi	s0,sp,512
     1b4:	f300                	fsw	fs0,32(a4)
     1b6:	5c01                	li	s8,-32
	TIM1->PSC = 0x0000;
     1b8:	009f 0000 0000      	0x9f
	...
	TIM1->ATRLR = 255;
     1c6:	0000                	unimp
	TIM2->ATRLR = 255;
     1c8:	0100                	addi	s0,sp,128
     1ca:	5d00                	lw	s0,56(a0)
	...
	TIM1->SWEVGR |= TIM_UG;
     1d4:	0001                	nop
     1d6:	005d                	c.nop	23
     1d8:	0000                	unimp
     1da:	0000                	unimp
	TIM2->SWEVGR |= TIM_UG;
     1dc:	0000                	unimp
     1de:	0400                	addi	s0,sp,512
     1e0:	f300                	fsw	fs0,32(a4)
     1e2:	5d01                	li	s10,-32
     1e4:	009f 0000 0000      	0x9f
	...
	TIM2->CTLR1 |= TIM_ARPE;
     1f2:	0000                	unimp
     1f4:	0100                	addi	s0,sp,128
     1f6:	5e00                	lw	s0,56(a2)
	...
	TIM1->CTLR1 |= TIM_ARPE; // unnecessary?
     200:	0004                	0x4
     202:	9f5e01f3          	0x9f5e01f3
	...
	TIM1->CH1CVR = 128; //T1CH1/PC4/pin7
     20e:	0001                	nop
     210:	005e                	c.slli	zero,0x17
     212:	0000                	unimp
	TIM1->CH2CVR = 128; //T1CH2/PA1/pin1
     214:	0000                	unimp
     216:	0000                	unimp
	TIM2->CH2CVR = 128; //T2CH2/PC2/pin6*
     218:	0400                	addi	s0,sp,512
	TIM2->CH4CVR = 128; //T2CH4/PC1/pin5*
     21a:	f300                	fsw	fs0,32(a4)
	TIM1->CCER |= TIM_CC1E | TIM_CC1P;	// Enable CH1 output, positive pol
     21c:	5e01                	li	t3,-32
     21e:	009f 0000 0000      	0x9f
	...
	TIM1->CCER |= TIM_CC2E | TIM_CC2P;	// Enable CH4 output, positive pol
     22c:	0000                	unimp
     22e:	0600                	addi	s0,sp,768
     230:	7d00                	flw	fs0,56(a0)
     232:	7900                	flw	fs0,48(a0)
     234:	1c00                	addi	s0,sp,560
     236:	009f 0000 0000      	0x9f
	TIM2->CCER |= TIM_CC2E | TIM_CC2P;	// Enable CH1 output, positive pol
     23c:	0000                	unimp
     23e:	0100                	addi	s0,sp,128
     240:	5800                	lw	s0,48(s0)
	...
     24a:	0006                	c.slli	zero,0x1
	TIM2->CCER |= TIM_CC4E | TIM_CC4P;	// Enable CH2 output, positive pol
     24c:	007d                	c.nop	31
     24e:	0079                	c.nop	30
     250:	9f1c                	0x9f1c
	...
     25a:	0006                	c.slli	zero,0x1
	TIM1->CHCTLR1 |= TIM_OC1M_2 | TIM_OC1M_1;	// CH1 Mode is output, PWM1 (CC1S = 00, OC1M = 110)
     25c:	0079                	c.nop	30
     25e:	007c                	addi	a5,sp,12
	TIM1->CHCTLR1 |= TIM_OC2M_2 | TIM_OC2M_1;	// CH2 Mode is output, PWM1 (CC1S = 00, OC1M = 110)
     260:	9f1c                	0x9f1c
	...
	TIM1->CHCTLR1 |= TIM_OC1M_2 | TIM_OC1M_1;	// CH1 Mode is output, PWM1 (CC1S = 00, OC1M = 110)
     26a:	0001                	nop
     26c:	0000005b          	0x5b
	TIM1->CHCTLR1 |= TIM_OC2M_2 | TIM_OC2M_1;	// CH2 Mode is output, PWM1 (CC1S = 00, OC1M = 110)
     270:	0000                	unimp
     272:	0000                	unimp
     274:	0200                	addi	s0,sp,256
     276:	3000                	fld	fs0,32(s0)
     278:	009f 0000 0000      	0x9f
	TIM2->CHCTLR1 |= TIM_OC2M_2 | TIM_OC2M_1 | TIM_OC2PE;
     27e:	0000                	unimp
     280:	0200                	addi	s0,sp,256
     282:	3100                	fld	fs0,32(a0)
     284:	009f 0000 0000      	0x9f
     28a:	0000                	unimp
     28c:	0200                	addi	s0,sp,256
     28e:	3200                	fld	fs0,32(a2)
     290:	009f 0000 0000      	0x9f
     296:	0000                	unimp
     298:	0100                	addi	s0,sp,128
     29a:	5b00                	lw	s0,48(a4)
	...
	TIM2->CHCTLR2 |= TIM_OC4M_2 | TIM_OC4M_1 | TIM_OC4PE;
     2a4:	0006                	c.slli	zero,0x1
     2a6:	0079                	c.nop	30
     2a8:	007c                	addi	a5,sp,12
     2aa:	9f1c                	0x9f1c
	...
	TIM1->BDTR  |= TIM_MOE;	// Brake and deadband registers
     2b4:	0008                	0x8
     2b6:	0079                	c.nop	30
     2b8:	007c                	addi	a5,sp,12
     2ba:	231c                	fld	fa5,0(a4)
     2bc:	9f01                	0x9f01
	...
	TIM1->CTLR1 |= TIM_CEN;	// Enable TIM1
     2ce:	0002                	c.slli64	zero
     2d0:	9f30                	0x9f30
	...
	TIM2->CTLR1 |= TIM_CEN;	// Enable TIM2
     2da:	0001                	nop
     2dc:	0056                	c.slli	zero,0x15
     2de:	0000                	unimp
     2e0:	0000                	unimp
	SysTick->CTLR = 0;
     2e2:	0000                	unimp
     2e4:	0200                	addi	s0,sp,256
     2e6:	7200                	flw	fs0,32(a2)
	...
     2f0:	0200                	addi	s0,sp,256
	SysTick->CMP = (SYSTEM_CORE_CLOCK/8/SYSTICKHZ)-1;
     2f2:	7200                	flw	fs0,32(a2)
     2f4:	006c                	addi	a1,sp,12
     2f6:	0000                	unimp
	SysTick->CNT = 0;
     2f8:	0000                	unimp
     2fa:	0000                	unimp
	SysTick->CTLR = SYSTICK_CTLR_STE | SYSTICK_CTLR_STIE |
     2fc:	0200                	addi	s0,sp,256
     2fe:	3000                	fld	fs0,32(s0)
	RCC->CFGR0 &= ~(0x1F<<11);
     300:	009f 0000 0000      	0x9f
     306:	0000                	unimp
     308:	0200                	addi	s0,sp,256
     30a:	7200                	flw	fs0,32(a2)
	...
	GPIOA->CFGLR &= ~(0xf<<(4*GPIO_PinSource2));	// CNF = 00: Analog, MODE = 00: Input
     31c:	0100                	addi	s0,sp,128
     31e:	5e00                	lw	s0,56(a2)
	...
	RCC->APB2PRSTR |= RCC_APB2Periph_ADC1;
     328:	0004                	0x4
     32a:	9f5e01f3          	0x9f5e01f3
	...
	ADC1->RSQR1 = 0;
     336:	0006                	c.slli	zero,0x1
     338:	007d                	c.nop	31
     33a:	007c                	addi	a5,sp,12
     33c:	9f22                	add	t5,t5,s0
	...
	ADC1->SAMPTR2 &= ~ADC_SMP2;
     346:	0001                	nop
     348:	005c                	addi	a5,sp,4
     34a:	0000                	unimp
     34c:	0000                	unimp
     34e:	0000                	unimp
     350:	0300                	addi	s0,sp,384
	ADC1->SAMPTR2 |= ( ADC_SampleTime_3Cycles << (3 * ADC_Channel_0 ) );	// 0:7 => 3/9/15/30/43/57/73/241 cycles
     352:	7c00                	flw	fs0,56(s0)
     354:	9f7f                	0x9f7f
	...
	ADC1->CTLR2 |= ADC_ADON | ADC_EXTSEL;
     35e:	0001                	nop
     360:	005d                	c.nop	23
     362:	0000                	unimp
	ADC1->CTLR2 |= ADC_RSTCAL;
     364:	0000                	unimp
     366:	0000                	unimp
	while(ADC1->CTLR2 & ADC_RSTCAL);
     368:	0300                	addi	s0,sp,384
     36a:	7c00                	flw	fs0,56(s0)
	ADC1->CTLR2 |= ADC_RSTCAL;
     36c:	9f7e                	add	t5,t5,t6
	...
	while(ADC1->CTLR2 & ADC_RSTCAL);
     376:	0001                	nop
     378:	005d                	c.nop	23
     37a:	0000                	unimp
	ADC1->CTLR2 |= ADC_CAL;
     37c:	0000                	unimp
     37e:	0000                	unimp
     380:	0300                	addi	s0,sp,384
     382:	7d00                	flw	fs0,56(a0)
     384:	9f7f                	0x9f7f
	...
	while(ADC1->CTLR2 & ADC_CAL);
     38e:	0001                	nop
     390:	005e                	c.slli	zero,0x17
     392:	0000                	unimp
		Delay_Ms(( Delay >> 3 ) + 5 );
     394:	0000                	unimp
     396:	0000                	unimp
		int temp=LEDs[0].brightness;
     398:	0800                	addi	s0,sp,16
     39a:	7d00                	flw	fs0,56(a0)
	ADC1->CTLR2 |= ADC_SWSTART;
     39c:	7c00                	flw	fs0,56(s0)
     39e:	2200                	fld	fs0,0(a2)
     3a0:	009f0123          	sb	s1,2(t5) # 1002 <ch32v003fun.c.8affbd33+0x160>
	uint32_t targend = SysTick->CNT + n;
     3a4:	0000                	unimp
     3a6:	0000                	unimp
		Delay_Ms(( Delay >> 3 ) + 5 );
     3a8:	0000                	unimp
     3aa:	0600                	addi	s0,sp,768
     3ac:	7d00                	flw	fs0,56(a0)
		int temp=LEDs[0].brightness;
     3ae:	7c00                	flw	fs0,56(s0)
     3b0:	2200                	fld	fs0,0(a2)
	ADC1->CTLR2 |= ADC_SWSTART;
     3b2:	009f 0000 0000      	0x9f
	...
	while(!(ADC1->STATR & ADC_EOC));
     3c0:	0000                	unimp
     3c2:	0100                	addi	s0,sp,128
     3c4:	5a00                	lw	s0,48(a2)
	...
		Delay_Ms(( Delay >> 3 ) + 5 );
     3ce:	0001                	nop
     3d0:	0056                	c.slli	zero,0x15
     3d2:	0000                	unimp
     3d4:	0000                	unimp
     3d6:	0000                	unimp
     3d8:	0100                	addi	s0,sp,128
     3da:	5a00                	lw	s0,48(a2)
	...
     3e4:	0002                	c.slli64	zero
     3e6:	6491                	lui	s1,0x4
	...
	while( ((int32_t)( SysTick->CNT - targend )) < 0 );
     3f0:	0001                	nop
     3f2:	0056                	c.slli	zero,0x15
     3f4:	0000                	unimp
     3f6:	0000                	unimp
     3f8:	0000                	unimp
		int temp=LEDs[0].brightness;
     3fa:	0100                	addi	s0,sp,128
     3fc:	5600                	lw	s0,40(a2)
	...
			LEDs[i-1].brightness=LEDs[i].brightness;
     40e:	0001                	nop
     410:	0000005b          	0x5b
     414:	0000                	unimp
     416:	0000                	unimp
     418:	0200                	addi	s0,sp,256
     41a:	9100                	0x9100
     41c:	006c                	addi	a1,sp,12
     41e:	0000                	unimp
		for(int i=1; i<12; i++){
     420:	0000                	unimp
     422:	0000                	unimp
     424:	0100                	addi	s0,sp,128
		LEDs[11].brightness=temp;
     426:	5b00                	lw	s0,48(a4)
	...
	asm volatile( "\n\
     430:	0002                	c.slli64	zero
     432:	6891                	lui	a7,0x4
	...
     43c:	0001                	nop
     43e:	0000005b          	0x5b
     442:	0000                	unimp
     444:	0000                	unimp
     446:	0200                	addi	s0,sp,256
     448:	9100                	0x9100
     44a:	0068                	addi	a0,sp,12
     44c:	0000                	unimp
     44e:	0000                	unimp
     450:	0000                	unimp
     452:	0200                	addi	s0,sp,256
asm volatile(
     454:	7200                	flw	fs0,32(a2)
     456:	0068                	addi	a0,sp,12
     458:	0000                	unimp
     45a:	0000                	unimp
     45c:	0000                	unimp
     45e:	0100                	addi	s0,sp,128
     460:	5b00                	lw	s0,48(a4)
	...
     46a:	0002                	c.slli64	zero
     46c:	6891                	lui	a7,0x4
	...
     47e:	0001                	nop
     480:	005c                	addi	a5,sp,4
     482:	0000                	unimp
     484:	0000                	unimp
     486:	0000                	unimp
     488:	0400                	addi	s0,sp,512
     48a:	f300                	fsw	fs0,32(a4)
     48c:	5c01                	li	s8,-32
     48e:	009f 0000 0000      	0x9f
	...
	SETUP_SYSTICK_HCLK
     49c:	0000                	unimp
asm volatile(
     49e:	0100                	addi	s0,sp,128
     4a0:	5d00                	lw	s0,56(a0)
	...
	asm volatile( "1: j 1b" );
     4aa:	0004                	0x4
{
     4ac:	9f5d01f3          	0x9f5d01f3
	...
     4c0:	0001                	nop
     4c2:	005e                	c.slli	zero,0x17
	SysTick->CMP += (SYSTEM_CORE_CLOCK/8/SYSTICKHZ); //by default, Systick runs at 48/8=6MHz
     4c4:	0000                	unimp
     4c6:	0000                	unimp
     4c8:	0000                	unimp
     4ca:	0200                	addi	s0,sp,256
{
     4cc:	9100                	0x9100
     4ce:	0070                	addi	a2,sp,12
     4d0:	0000                	unimp
     4d2:	0000                	unimp
     4d4:	0000                	unimp
     4d6:	0100                	addi	s0,sp,128
     4d8:	5e00                	lw	s0,56(a2)
	...
     4e2:	0002                	c.slli64	zero
     4e4:	7091                	lui	ra,0xfffe4
	...
	SysTick->CMP += (SYSTEM_CORE_CLOCK/8/SYSTICKHZ); //by default, Systick runs at 48/8=6MHz
     4ee:	0001                	nop
     4f0:	005e                	c.slli	zero,0x17
	...
        timer->CCER &= ~channel;        //disable this channel output
     4fe:	0000                	unimp
        port->BSHR = (1<<(pin));                //set GPIO 'high'
     500:	0100                	addi	s0,sp,128
     502:	5900                	lw	s0,48(a0)
	...
        timer->CCER &= ~channel;        //disable this channel output
     50c:	0001                	nop
     50e:	005f 0000 0000      	0x5f
     514:	0000                	unimp
     516:	0200                	addi	s0,sp,256
     518:	9100                	0x9100
     51a:	006c                	addi	a1,sp,12
     51c:	0000                	unimp
     51e:	0000                	unimp
        port->CFGLR &= ~(0xf<<(4*pin)); //clear GPIO config - this appears to be necessary. 
     520:	0000                	unimp
     522:	0300                	addi	s0,sp,384
     524:	7900                	flw	fs0,48(a0)
     526:	9f02                	jalr	t5
	...
     530:	0001                	nop
     532:	005f 0000 0000      	0x5f
        port->CFGLR |= (GPIO_Speed_10MHz | GPIO_CNF_OUT_PP)<<(4*pin); //Sets output mode to GPIO, PP
     538:	0000                	unimp
     53a:	0100                	addi	s0,sp,128
     53c:	5f00                	lw	s0,56(a4)
	...
        port->BSHR = (1<<(pin));                //set GPIO 'high'
     546:	0001                	nop
        timer->CCER &= ~channel;        //disable this channel output
     548:	0059                	c.nop	22
	...
     556:	0000                	unimp
     558:	0200                	addi	s0,sp,256
     55a:	3100                	fld	fs0,32(a0)
        port->CFGLR &= ~(0xf<<(4*pin)); //clear GPIO config - this appears to be necessary. 
     55c:	009f 0000 0000      	0x9f
     562:	0000                	unimp
     564:	0200                	addi	s0,sp,256
     566:	7200                	flw	fs0,32(a2)
	...
        port->CFGLR |= (GPIO_Speed_10MHz | GPIO_CNF_OUT_PP)<<(4*pin); //Sets output mode to GPIO, PP
     570:	0200                	addi	s0,sp,256
     572:	7200                	flw	fs0,32(a2)
        port->BSHR = (1<<(pin));                //set GPIO 'high'
     574:	0060                	addi	s0,sp,12
     576:	0000                	unimp
        timer->CCER &= ~channel;        //disable this channel output
     578:	0000                	unimp
     57a:	0000                	unimp
     57c:	0200                	addi	s0,sp,256
     57e:	7200                	flw	fs0,32(a2)
	...
     590:	0200                	addi	s0,sp,256
     592:	3000                	fld	fs0,32(s0)
        port->CFGLR &= ~(0xf<<(4*pin)); //clear GPIO config - this appears to be necessary. 
     594:	009f 0000 0000      	0x9f
     59a:	0000                	unimp
        port->BSHR = (1<<(pin));                //set GPIO 'high'
     59c:	0100                	addi	s0,sp,128
     59e:	5c00                	lw	s0,56(s0)
	...
        port->CFGLR |= (GPIO_Speed_10MHz | GPIO_CNF_OUT_PP)<<(4*pin); //Sets output mode to GPIO, PP
     5a8:	0001                	nop
     5aa:	005c                	addi	a5,sp,4
     5ac:	0000                	unimp
     5ae:	0000                	unimp
     5b0:	0000                	unimp
     5b2:	0300                	addi	s0,sp,384
        port->BSHR = (1<<(pin));                //set GPIO 'high'
     5b4:	7c00                	flw	fs0,56(s0)
     5b6:	9f7f                	0x9f7f
	...
        timer->CCER &= ~channel;        //disable this channel output
     5c0:	0001                	nop
     5c2:	005c                	addi	a5,sp,4
	...
     5d0:	0000                	unimp
     5d2:	0100                	addi	s0,sp,128
        port->CFGLR &= ~(0xf<<(4*pin)); //clear GPIO config - this appears to be necessary. 
     5d4:	5a00                	lw	s0,48(a2)
	...
     5de:	0001                	nop
     5e0:	005a                	c.slli	zero,0x16
	...
        port->CFGLR |= (GPIO_Speed_10MHz | GPIO_CNF_OUT_PP)<<(4*pin); //Sets output mode to GPIO, PP
     5ee:	0000                	unimp
     5f0:	0100                	addi	s0,sp,128
     5f2:	5a00                	lw	s0,48(a2)
	...
        port->BSHR = (1<<(pin));                //set GPIO 'high'
     5fc:	0001                	nop
     5fe:	005a                	c.slli	zero,0x16
	if(++currentgroup > 4) currentgroup=0;
     600:	0000                	unimp
     602:	0000                	unimp
     604:	0000                	unimp
     606:	ea00                	fsw	fs0,16(a2)
     608:	0002                	c.slli64	zero
     60a:	f200                	fsw	fs0,32(a2)
     60c:	0002                	c.slli64	zero
     60e:	0200                	addi	s0,sp,256
     610:	3c00                	fld	fs0,56(s0)
     612:	009f 0000 0000      	0x9f
     618:	0000                	unimp
     61a:	ca00                	sw	s0,16(a2)
		pwm_setpw(	LEDs[group[currentgroup][i]].timer,
     61c:	d0000003          	lb	zero,-768(zero) # fffffd00 <__global_pointer$+0xdffff3d0>
     620:	07000003          	lb	zero,112(zero) # 70 <InterruptVector+0x70>
     624:	7a00                	flw	fs0,48(a2)
     626:	0a00                	addi	s0,sp,272
     628:	ffff                	0xffff
     62a:	9f1a                	add	t5,t5,t1
	...
     634:	03ca                	slli	t2,t2,0x12
     636:	0000                	unimp
    	switch( chl )
     638:	03d0                	addi	a2,sp,452
     63a:	0000                	unimp
     63c:	007a000f          	0x7a000f
     640:	ff0a2633          	0xff0a2633
     644:	1a1f 0523 700a      	0x700a05231a1f
	for(int i=0;i<3;i++){
     64a:	009f1e17          	auipc	t3,0x9f1
		pwm_setpw(	LEDs[group[currentgroup][i]].timer,
     64e:	0000                	unimp
     650:	0000                	unimp
     652:	0000                	unimp
     654:	f000                	fsw	fs0,32(s0)
     656:	fa000003          	lb	zero,-96(zero) # ffffffa0 <__global_pointer$+0xdffff670>
     65a:	01000003          	lb	zero,16(zero) # 10 <InterruptVector+0x10>
     65e:	5f00                	lw	s0,56(a4)
	...
				LEDs[group[currentgroup][i]].brightness
     670:	0001                	nop
     672:	005a                	c.slli	zero,0x16
    	switch( chl )
     674:	0000                	unimp
     676:	0000                	unimp
     678:	0000                	unimp
     67a:	0400                	addi	s0,sp,512
     67c:	f300                	fsw	fs0,32(a4)
     67e:	5a01                	li	s4,-32
     680:	009f 0000 0000      	0x9f
	...
	for(int i=0;i<3;i++){
     68e:	0000                	unimp
        port->CFGLR &= ~(0xf<<(4*pin)); //clear GPIO config - this appears to be necessary. 
     690:	0100                	addi	s0,sp,128
     692:	5b00                	lw	s0,48(a4)
	...
		GPIO_PWM(	LEDs[group[currentgroup][i]].port,
     69c:	0001                	nop
     69e:	0059                	c.nop	22
	for(int i=0;i<3;i++){
     6a0:	0000                	unimp
     6a2:	0000                	unimp
		GPIO_PWM(	LEDs[group[currentgroup][i]].port,
     6a4:	0000                	unimp
     6a6:	0400                	addi	s0,sp,512
     6a8:	f300                	fsw	fs0,32(a4)
     6aa:	5b01                	li	s6,-32
     6ac:	009f 0000 0000      	0x9f
	...
     6ba:	0000                	unimp
     6bc:	0200                	addi	s0,sp,256
     6be:	3000                	fld	fs0,32(s0)
        port->CFGLR &= ~(0xf<<(4*pin)); //clear GPIO config - this appears to be necessary. 
     6c0:	009f 0000 0000      	0x9f
     6c6:	0000                	unimp
     6c8:	0100                	addi	s0,sp,128
     6ca:	5800                	lw	s0,48(s0)
	...
     6d4:	0001                	nop
     6d6:	0058                	addi	a4,sp,4
	...
        port->CFGLR |= (GPIO_Speed_10MHz | GPIO_CNF_OUT_OD_AF)<<(4*pin);//Sets mode to OD_AF
     6e4:	0000                	unimp
     6e6:	0600                	addi	s0,sp,768
        timer->CCER |= channel;         //enable this channel output
     6e8:	0c00                	addi	s0,sp,528
     6ea:	7100                	flw	fs0,32(a0)
     6ec:	0002                	c.slli64	zero
     6ee:	009f 0000 0000      	0x9f
     6f4:	0000                	unimp
     6f6:	0300                	addi	s0,sp,384
     6f8:	7e00                	flw	fs0,56(a2)
     6fa:	9f7f                	0x9f7f
	...
}
     704:	7e7e0003          	lb	zero,2023(t3) # 9f1e31 <wiring.c.7604182b+0x9ef498>
     708:	009f 0000 0000      	0x9f
     70e:	0000                	unimp
     710:	0300                	addi	s0,sp,384
     712:	7e00                	flw	fs0,56(a2)
     714:	9f7f                	0x9f7f
	...
     726:	0001                	nop
     728:	0000005b          	0x5b
     72c:	0000                	unimp
     72e:	0000                	unimp
     730:	0100                	addi	s0,sp,128
     732:	5f00                	lw	s0,56(a4)
	...
	if(++currentgroup > 4) currentgroup=0;
     73c:	0002                	c.slli64	zero
     73e:	6c91                	lui	s9,0x4
	...
	    	case TIM_CC4E: timer->CH4CVR = width; break;
     748:	0001                	nop
     74a:	005f 0000 0000      	0x5f
	...
	    	case TIM_CC2E: timer->CH2CVR = width; break;
     758:	0000                	unimp
     75a:	0200                	addi	s0,sp,256
	    	case TIM_CC3E: timer->CH3CVR = width; break;
     75c:	3000                	fld	fs0,32(s0)
     75e:	009f 0000 0000      	0x9f
     764:	0000                	unimp
     766:	0100                	addi	s0,sp,128
     768:	5e00                	lw	s0,56(a2)
	...
     772:	7f7e0003          	lb	zero,2039(t3)
     776:	009f 0000 0000      	0x9f
     77c:	0000                	unimp
     77e:	0100                	addi	s0,sp,128
     780:	5e00                	lw	s0,56(a2)
	...
     792:	0001                	nop
     794:	005a                	c.slli	zero,0x16
     796:	0000                	unimp
     798:	0000                	unimp
     79a:	0000                	unimp
     79c:	0400                	addi	s0,sp,512
     79e:	f300                	fsw	fs0,32(a4)
     7a0:	5a01                	li	s4,-32
     7a2:	009f 0000 0000      	0x9f
	...
     7b0:	0000                	unimp
     7b2:	0100                	addi	s0,sp,128
     7b4:	5b00                	lw	s0,48(a4)
	...
     7be:	0001                	nop
     7c0:	0058                	addi	a4,sp,4
     7c2:	0000                	unimp
     7c4:	0000                	unimp
     7c6:	0000                	unimp
     7c8:	0100                	addi	s0,sp,128
     7ca:	5a00                	lw	s0,48(a2)
	...
     7dc:	0001                	nop
     7de:	005c                	addi	a5,sp,4
     7e0:	0000                	unimp
     7e2:	0000                	unimp
     7e4:	0000                	unimp
     7e6:	0400                	addi	s0,sp,512
     7e8:	f300                	fsw	fs0,32(a4)
     7ea:	5c01                	li	s8,-32
     7ec:	009f 0000 0000      	0x9f
	...
     7fa:	0000                	unimp
     7fc:	0100                	addi	s0,sp,128
     7fe:	5a00                	lw	s0,48(a2)
	...
     808:	0001                	nop
     80a:	005f 0000 0000      	0x5f
	...
     818:	0000                	unimp
     81a:	0100                	addi	s0,sp,128
     81c:	5a00                	lw	s0,48(a2)
	...
     826:	0004                	0x4
     828:	9f5a01f3          	0x9f5a01f3
	...
     834:	0001                	nop
     836:	005a                	c.slli	zero,0x16
	...
     844:	0000                	unimp
     846:	0100                	addi	s0,sp,128
     848:	5a00                	lw	s0,48(a2)
	...
     852:	0004                	0x4
     854:	9f5a01f3          	0x9f5a01f3
	...
     868:	0001                	nop
     86a:	005f 0000 0000      	0x5f
     870:	0000                	unimp
     872:	0200                	addi	s0,sp,256
     874:	7200                	flw	fs0,32(a2)
	...
     87e:	0100                	addi	s0,sp,128
     880:	5f00                	lw	s0,56(a4)
	...
     88a:	7c7e0003          	lb	zero,1991(t3)
     88e:	009f 0000 0000      	0x9f
     894:	0000                	unimp
     896:	0100                	addi	s0,sp,128
     898:	5e00                	lw	s0,56(a2)
	...
     8a2:	0002                	c.slli64	zero
     8a4:	0072                	c.slli	zero,0x1c
	...
     8ae:	0001                	nop
     8b0:	005f 0000 0000      	0x5f
     8b6:	0000                	unimp
     8b8:	0100                	addi	s0,sp,128
     8ba:	5e00                	lw	s0,56(a2)
	...
     8c4:	0002                	c.slli64	zero
     8c6:	0072                	c.slli	zero,0x1c
	...
     8d0:	0002                	c.slli64	zero
     8d2:	0072                	c.slli	zero,0x1c
	...
     8dc:	0001                	nop
     8de:	005f 0000 0000      	0x5f
     8e4:	0000                	unimp
     8e6:	0300                	addi	s0,sp,384
     8e8:	7f00                	flw	fs0,56(a4)
     8ea:	9f04                	0x9f04
	...
     8f4:	0001                	nop
     8f6:	005f 0000 0000      	0x5f
     8fc:	0000                	unimp
     8fe:	0100                	addi	s0,sp,128
     900:	5e00                	lw	s0,56(a2)
	...
     90a:	0002                	c.slli64	zero
     90c:	0072                	c.slli	zero,0x1c
	...
     916:	0001                	nop
     918:	005f 0000 0000      	0x5f
     91e:	0000                	unimp
     920:	0300                	addi	s0,sp,384
     922:	7e00                	flw	fs0,56(a2)
     924:	9f7c                	0x9f7c
	...
     92e:	0001                	nop
     930:	005e                	c.slli	zero,0x17
     932:	0000                	unimp
     934:	0000                	unimp
     936:	0000                	unimp
     938:	0200                	addi	s0,sp,256
     93a:	7200                	flw	fs0,32(a2)
	...
     94c:	0100                	addi	s0,sp,128
     94e:	5a00                	lw	s0,48(a2)
	...
     958:	0001                	nop
     95a:	0059                	c.nop	22
     95c:	0000                	unimp
     95e:	0000                	unimp
     960:	0000                	unimp
     962:	0100                	addi	s0,sp,128
     964:	5800                	lw	s0,48(s0)
	...
     96e:	0001                	nop
     970:	0058                	addi	a4,sp,4
     972:	0000                	unimp
     974:	0000                	unimp
     976:	0000                	unimp
     978:	0100                	addi	s0,sp,128
     97a:	5900                	lw	s0,48(a0)
	...
     984:	0001                	nop
     986:	0058                	addi	a4,sp,4
     988:	0000                	unimp
     98a:	0000                	unimp
     98c:	0000                	unimp
     98e:	0100                	addi	s0,sp,128
     990:	5e00                	lw	s0,56(a2)
	...
     99a:	0001                	nop
     99c:	0059                	c.nop	22
     99e:	0000                	unimp
     9a0:	0000                	unimp
     9a2:	0000                	unimp
     9a4:	0300                	addi	s0,sp,384
     9a6:	7900                	flw	fs0,48(a0)
     9a8:	9f7f                	0x9f7f
	...
     9b2:	0001                	nop
     9b4:	0059                	c.nop	22
     9b6:	0000                	unimp
     9b8:	0000                	unimp
     9ba:	0000                	unimp
     9bc:	0300                	addi	s0,sp,384
     9be:	7900                	flw	fs0,48(a0)
     9c0:	9f01                	0x9f01
	...
     9ca:	0001                	nop
     9cc:	0059                	c.nop	22
     9ce:	0000                	unimp
     9d0:	0000                	unimp
     9d2:	0000                	unimp
     9d4:	0100                	addi	s0,sp,128
     9d6:	5e00                	lw	s0,56(a2)
	...
     9e0:	0001                	nop
     9e2:	0059                	c.nop	22
	...
     9f0:	0000                	unimp
     9f2:	0200                	addi	s0,sp,256
     9f4:	3000                	fld	fs0,32(s0)
     9f6:	009f 0000 0000      	0x9f
     9fc:	0000                	unimp
     9fe:	0300                	addi	s0,sp,384
     a00:	9100                	0x9100
     a02:	7f9c                	flw	fa5,56(a5)
	...
     a0c:	9c720003          	lb	zero,-1593(tp) # fffff9c7 <__global_pointer$+0xdffff097>
     a10:	007f                	0x7f
     a12:	0000                	unimp
     a14:	0000                	unimp
     a16:	0000                	unimp
     a18:	0300                	addi	s0,sp,384
     a1a:	9100                	0x9100
     a1c:	7f9c                	flw	fa5,56(a5)
	...
     a26:	0001                	nop
     a28:	005f 0000 0000      	0x5f
     a2e:	0000                	unimp
     a30:	0300                	addi	s0,sp,384
     a32:	9100                	0x9100
     a34:	7f9c                	flw	fa5,56(a5)
	...
     a46:	0002                	c.slli64	zero
     a48:	9f31                	0x9f31
	...
     a52:	0001                	nop
     a54:	005a                	c.slli	zero,0x16
     a56:	0000                	unimp
     a58:	0000                	unimp
     a5a:	0000                	unimp
     a5c:	0200                	addi	s0,sp,256
     a5e:	3100                	fld	fs0,32(a0)
     a60:	009f 0000 0000      	0x9f
     a66:	0000                	unimp
     a68:	0100                	addi	s0,sp,128
     a6a:	5a00                	lw	s0,48(a2)
	...
     a74:	0001                	nop
     a76:	0000005b          	0x5b
     a7a:	0000                	unimp
     a7c:	0000                	unimp
     a7e:	0100                	addi	s0,sp,128
     a80:	5a00                	lw	s0,48(a2)
	...
     a8a:	0001                	nop
     a8c:	005a                	c.slli	zero,0x16
     a8e:	0000                	unimp
     a90:	0000                	unimp
     a92:	0000                	unimp
     a94:	0100                	addi	s0,sp,128
     a96:	5a00                	lw	s0,48(a2)
	...
     aa0:	0001                	nop
     aa2:	005a                	c.slli	zero,0x16
     aa4:	0000                	unimp
     aa6:	0000                	unimp
     aa8:	0000                	unimp
     aaa:	0100                	addi	s0,sp,128
     aac:	5a00                	lw	s0,48(a2)
	...
     ab6:	0001                	nop
     ab8:	0000005b          	0x5b
	...
     ac8:	0300                	addi	s0,sp,384
     aca:	0800                	addi	s0,sp,16
     acc:	9f20                	0x9f20
	...
     ad6:	0001                	nop
     ad8:	0058                	addi	a4,sp,4
     ada:	0000                	unimp
     adc:	0000                	unimp
     ade:	0000                	unimp
     ae0:	0300                	addi	s0,sp,384
     ae2:	0800                	addi	s0,sp,16
     ae4:	9f20                	0x9f20
	...
     aee:	0001                	nop
     af0:	0058                	addi	a4,sp,4
	...
     afe:	0000                	unimp
     b00:	0200                	addi	s0,sp,256
     b02:	3000                	fld	fs0,32(s0)
     b04:	009f 0000 0000      	0x9f
     b0a:	0000                	unimp
     b0c:	0100                	addi	s0,sp,128
     b0e:	5e00                	lw	s0,56(a2)
	...
     b18:	0001                	nop
     b1a:	005e                	c.slli	zero,0x17
     b1c:	0000                	unimp
     b1e:	0000                	unimp
     b20:	0000                	unimp
     b22:	0300                	addi	s0,sp,384
     b24:	9100                	0x9100
     b26:	7f98                	flw	fa4,56(a5)
	...
     b30:	0002                	c.slli64	zero
     b32:	9f30                	0x9f30
	...
     b3c:	98910003          	lb	zero,-1655(sp)
     b40:	007f                	0x7f
	...
     b4e:	0000                	unimp
     b50:	0200                	addi	s0,sp,256
     b52:	3000                	fld	fs0,32(s0)
     b54:	009f 0000 0000      	0x9f
     b5a:	0000                	unimp
     b5c:	0200                	addi	s0,sp,256
     b5e:	3100                	fld	fs0,32(a0)
     b60:	009f 0000 0000      	0x9f
     b66:	0000                	unimp
     b68:	0100                	addi	s0,sp,128
     b6a:	5c00                	lw	s0,56(s0)
	...
     b74:	0002                	c.slli64	zero
     b76:	9f30                	0x9f30
	...
     b80:	0001                	nop
     b82:	005c                	addi	a5,sp,4
     b84:	0000                	unimp
     b86:	0000                	unimp
     b88:	0000                	unimp
     b8a:	0100                	addi	s0,sp,128
     b8c:	5c00                	lw	s0,56(s0)
	...
     b96:	0001                	nop
     b98:	005c                	addi	a5,sp,4
     b9a:	0000                	unimp
     b9c:	0000                	unimp
     b9e:	0000                	unimp
     ba0:	0100                	addi	s0,sp,128
     ba2:	5c00                	lw	s0,56(s0)
	...
     bb4:	48910003          	lb	zero,1161(sp)
     bb8:	009f 0000 0000      	0x9f
     bbe:	0000                	unimp
     bc0:	0100                	addi	s0,sp,128
     bc2:	5e00                	lw	s0,56(a2)
	...
     bd4:	000c                	0xc
     bd6:	007d                	c.nop	31
     bd8:	ff08                	fsw	fa0,56(a4)
     bda:	081a                	slli	a6,a6,0x6
     bdc:	2975                	jal	1098 <ch32v003fun.c.8affbd33+0x1f6>
     bde:	ff08                	fsw	fa0,56(a4)
     be0:	9f1a                	add	t5,t5,t1
	...
     bf2:	0002                	c.slli64	zero
     bf4:	9f30                	0x9f30
	...
     c06:	0002                	c.slli64	zero
     c08:	9f3a                	add	t5,t5,a4
	...
     c1a:	0002                	c.slli64	zero
     c1c:	007f                	0x7f
	...
     c2e:	48910003          	lb	zero,1161(sp)
     c32:	009f 0000 0000      	0x9f
     c38:	0000                	unimp
     c3a:	0100                	addi	s0,sp,128
     c3c:	5e00                	lw	s0,56(a2)
	...
     c4e:	0002                	c.slli64	zero
     c50:	9f30                	0x9f30
	...
     c62:	0002                	c.slli64	zero
     c64:	9f3a                	add	t5,t5,a4
	...
     c76:	48910003          	lb	zero,1161(sp)
     c7a:	009f 0000 0000      	0x9f
     c80:	0000                	unimp
     c82:	0100                	addi	s0,sp,128
     c84:	5e00                	lw	s0,56(a2)
	...
     c96:	0002                	c.slli64	zero
     c98:	9f31                	0x9f31
	...
     caa:	0002                	c.slli64	zero
     cac:	9f30                	0x9f30
	...
     cbe:	0002                	c.slli64	zero
     cc0:	9f3a                	add	t5,t5,a4
	...
     cd2:	0002                	c.slli64	zero
     cd4:	007f                	0x7f
	...
     ce6:	48910003          	lb	zero,1161(sp)
     cea:	009f 0000 0000      	0x9f
     cf0:	0000                	unimp
     cf2:	0100                	addi	s0,sp,128
     cf4:	5e00                	lw	s0,56(a2)
	...
     cfe:	48910003          	lb	zero,1161(sp)
     d02:	009f 0000 0000      	0x9f
	...
     d10:	0000                	unimp
     d12:	0200                	addi	s0,sp,256
     d14:	3100                	fld	fs0,32(a0)
     d16:	009f 0000 0000      	0x9f
	...
     d24:	0000                	unimp
     d26:	0c00                	addi	s0,sp,528
     d28:	7d00                	flw	fs0,56(a0)
     d2a:	0800                	addi	s0,sp,16
     d2c:	1aff                	0x1aff
     d2e:	5808                	lw	a0,48(s0)
     d30:	0829                	addi	a6,a6,10
     d32:	1aff                	0x1aff
     d34:	009f 0000 0000      	0x9f
     d3a:	0000                	unimp
     d3c:	0c00                	addi	s0,sp,528
     d3e:	9100                	0x9100
     d40:	01947fab          	0x1947fab
     d44:	5808                	lw	a0,48(s0)
     d46:	0829                	addi	a6,a6,10
     d48:	1aff                	0x1aff
     d4a:	009f 0000 0000      	0x9f
	...
     d58:	0000                	unimp
     d5a:	0200                	addi	s0,sp,256
     d5c:	4000                	lw	s0,0(s0)
     d5e:	009f 0000 0000      	0x9f
	...
     d6c:	0000                	unimp
     d6e:	0100                	addi	s0,sp,128
     d70:	5a00                	lw	s0,48(a2)
	...
     d82:	48910003          	lb	zero,1161(sp)
     d86:	009f 0000 0000      	0x9f
     d8c:	0000                	unimp
     d8e:	0100                	addi	s0,sp,128
     d90:	5e00                	lw	s0,56(a2)
	...
     d9a:	48910003          	lb	zero,1161(sp)
     d9e:	009f 0000 0000      	0x9f
	...
     dac:	0000                	unimp
     dae:	0200                	addi	s0,sp,256
     db0:	3000                	fld	fs0,32(s0)
     db2:	009f 0000 0000      	0x9f
	...
     dc0:	0000                	unimp
     dc2:	0100                	addi	s0,sp,128
     dc4:	5c00                	lw	s0,56(s0)
	...
     dce:	0004                	0x4
     dd0:	9f5c01f3          	0x9f5c01f3
	...
     ddc:	000a                	c.slli	zero,0x2
     dde:	007a                	c.slli	zero,0x1e
     de0:	007f                	0x7f
     de2:	f31c                	fsw	fa5,32(a4)
     de4:	5c01                	li	s8,-32
     de6:	9f22                	add	t5,t5,s0
	...
     df0:	007f000b          	0x7f000b
     df4:	f320                	fsw	fs0,96(a4)
     df6:	5c01                	li	s8,-32
     df8:	7a22                	flw	fs4,40(sp)
     dfa:	2200                	fld	fs0,0(a2)
     dfc:	009f 0000 0000      	0x9f
     e02:	0000                	unimp
     e04:	0a00                	addi	s0,sp,272
     e06:	7a00                	flw	fs0,48(a2)
     e08:	7f00                	flw	fs0,56(a4)
     e0a:	1c00                	addi	s0,sp,560
     e0c:	225c01f3          	0x225c01f3
     e10:	009f 0000 0000      	0x9f
	...
     e1e:	0000                	unimp
     e20:	0100                	addi	s0,sp,128
     e22:	5a00                	lw	s0,48(a2)
	...
     e2c:	0001                	nop
     e2e:	005f 0000 0000      	0x5f
	...
     e3c:	0000                	unimp
     e3e:	0100                	addi	s0,sp,128
     e40:	5a00                	lw	s0,48(a2)
	...
     e4a:	0001                	nop
     e4c:	005a                	c.slli	zero,0x16
	...
     e5a:	0000                	unimp
     e5c:	0100                	addi	s0,sp,128
     e5e:	5b00                	lw	s0,48(a4)
	...
     e68:	0001                	nop
     e6a:	0000005b          	0x5b
	...
     e7a:	0100                	addi	s0,sp,128
     e7c:	5a00                	lw	s0,48(a2)
	...
     e86:	0001                	nop
     e88:	005a                	c.slli	zero,0x16
	...
     e96:	0000                	unimp
     e98:	0100                	addi	s0,sp,128
     e9a:	5b00                	lw	s0,48(a4)
	...
     ea4:	0001                	nop
     ea6:	0000005b          	0x5b
	...
     eb6:	0100                	addi	s0,sp,128
     eb8:	5c00                	lw	s0,56(s0)
	...
     ec2:	0004                	0x4
     ec4:	9f5c01f3          	0x9f5c01f3
	...
     ed0:	0006                	c.slli	zero,0x1
     ed2:	315c01f3          	0x315c01f3
     ed6:	9f1c                	0x9f1c
	...
     ee8:	0001                	nop
     eea:	005a                	c.slli	zero,0x16
     eec:	0000                	unimp
     eee:	0000                	unimp
     ef0:	0000                	unimp
     ef2:	0100                	addi	s0,sp,128
     ef4:	5a00                	lw	s0,48(a2)
	...
     f06:	0001                	nop
     f08:	0000005b          	0x5b
     f0c:	0000                	unimp
     f0e:	0000                	unimp
     f10:	0100                	addi	s0,sp,128
     f12:	5b00                	lw	s0,48(a4)
	...
     f24:	0001                	nop
     f26:	005a                	c.slli	zero,0x16
     f28:	0000                	unimp
     f2a:	0000                	unimp
     f2c:	0000                	unimp
     f2e:	0400                	addi	s0,sp,512
     f30:	f300                	fsw	fs0,32(a4)
     f32:	5a01                	li	s4,-32
     f34:	009f 0000 0000      	0x9f
     f3a:	0000                	unimp
     f3c:	0100                	addi	s0,sp,128
     f3e:	5a00                	lw	s0,48(a2)
	...
     f48:	0004                	0x4
     f4a:	9f5a01f3          	0x9f5a01f3
	...
     f5e:	0001                	nop
     f60:	005c                	addi	a5,sp,4
     f62:	0000                	unimp
     f64:	0000                	unimp
     f66:	0000                	unimp
     f68:	0300                	addi	s0,sp,384
     f6a:	7c00                	flw	fs0,56(s0)
     f6c:	9f7f                	0x9f7f
	...
     f76:	0001                	nop
     f78:	005c                	addi	a5,sp,4
     f7a:	0000                	unimp
     f7c:	0000                	unimp
     f7e:	0000                	unimp
     f80:	0600                	addi	s0,sp,768
     f82:	7c00                	flw	fs0,56(s0)
     f84:	7e00                	flw	fs0,56(a2)
     f86:	1c00                	addi	s0,sp,560
     f88:	009f 0000 0000      	0x9f
     f8e:	0000                	unimp
     f90:	0800                	addi	s0,sp,16
     f92:	7c00                	flw	fs0,56(s0)
     f94:	7e00                	flw	fs0,56(a2)
     f96:	1c00                	addi	s0,sp,560
     f98:	009f0123          	sb	s1,2(t5)
     f9c:	0000                	unimp
     f9e:	0000                	unimp
     fa0:	0000                	unimp
     fa2:	0300                	addi	s0,sp,384
     fa4:	7c00                	flw	fs0,56(s0)
     fa6:	9f7f                	0x9f7f
	...
     fb8:	0001                	nop
     fba:	005a                	c.slli	zero,0x16
     fbc:	0000                	unimp
     fbe:	0000                	unimp
     fc0:	0000                	unimp
     fc2:	0600                	addi	s0,sp,768
     fc4:	7a00                	flw	fs0,48(a2)
     fc6:	7e00                	flw	fs0,56(a2)
     fc8:	2200                	fld	fs0,0(a2)
     fca:	009f 0000 0000      	0x9f
     fd0:	0000                	unimp
     fd2:	0100                	addi	s0,sp,128
     fd4:	5f00                	lw	s0,56(a4)
	...
     fde:	0006                	c.slli	zero,0x1
     fe0:	007a                	c.slli	zero,0x1e
     fe2:	007e                	c.slli	zero,0x1f
     fe4:	9f22                	add	t5,t5,s0
	...
     fee:	0008                	0x8
     ff0:	007a                	c.slli	zero,0x1e
     ff2:	007e                	c.slli	zero,0x1f
     ff4:	3122                	fld	ft2,40(sp)
     ff6:	9f1c                	0x9f1c
	...
    1000:	0001                	nop
    1002:	005a                	c.slli	zero,0x16
    1004:	0000                	unimp
    1006:	0000                	unimp
    1008:	0000                	unimp
    100a:	0400                	addi	s0,sp,512
    100c:	f300                	fsw	fs0,32(a4)
    100e:	5a01                	li	s4,-32
    1010:	009f 0000 0000      	0x9f
	...
    101e:	0000                	unimp
    1020:	0100                	addi	s0,sp,128
    1022:	5b00                	lw	s0,48(a4)
	...
    102c:	0006                	c.slli	zero,0x1
    102e:	007e007b          	0x7e007b
    1032:	9f22                	add	t5,t5,s0
	...
    103c:	0001                	nop
    103e:	005d                	c.nop	23
    1040:	0000                	unimp
    1042:	0000                	unimp
    1044:	0000                	unimp
    1046:	0600                	addi	s0,sp,768
    1048:	7b00                	flw	fs0,48(a4)
    104a:	7e00                	flw	fs0,56(a2)
    104c:	2200                	fld	fs0,0(a2)
    104e:	009f 0000 0000      	0x9f
    1054:	0000                	unimp
    1056:	0800                	addi	s0,sp,16
    1058:	7b00                	flw	fs0,48(a4)
    105a:	7e00                	flw	fs0,56(a2)
    105c:	2200                	fld	fs0,0(a2)
    105e:	1c31                	addi	s8,s8,-20
    1060:	009f 0000 0000      	0x9f
    1066:	0000                	unimp
    1068:	0100                	addi	s0,sp,128
    106a:	5b00                	lw	s0,48(a4)
	...
    107c:	0001                	nop
    107e:	005a                	c.slli	zero,0x16
    1080:	0000                	unimp
    1082:	0000                	unimp
    1084:	0000                	unimp
    1086:	0100                	addi	s0,sp,128
    1088:	5800                	lw	s0,48(s0)
	...
    1092:	0001                	nop
    1094:	0058                	addi	a4,sp,4
	...
    10a2:	0000                	unimp
    10a4:	0100                	addi	s0,sp,128
    10a6:	5b00                	lw	s0,48(a4)
	...
    10b0:	0004                	0x4
    10b2:	9f5b01f3          	0x9f5b01f3
	...
    10be:	0001                	nop
    10c0:	0000005b          	0x5b
    10c4:	0000                	unimp
    10c6:	0000                	unimp
    10c8:	0700                	addi	s0,sp,896
    10ca:	f300                	fsw	fs0,32(a4)
    10cc:	5b01                	li	s6,-32
    10ce:	ff08                	fsw	fa0,56(a4)
    10d0:	9f1a                	add	t5,t5,t1
	...
    10da:	0001                	nop
    10dc:	0000005b          	0x5b
	...
    10ec:	0100                	addi	s0,sp,128
    10ee:	5a00                	lw	s0,48(a2)
	...
    10f8:	0001                	nop
    10fa:	0058                	addi	a4,sp,4
	...
    1108:	0000                	unimp
    110a:	0100                	addi	s0,sp,128
    110c:	5a00                	lw	s0,48(a2)
	...
    1116:	0001                	nop
    1118:	0058                	addi	a4,sp,4
    111a:	0000                	unimp
    111c:	0000                	unimp
    111e:	0000                	unimp
    1120:	0300                	addi	s0,sp,384
    1122:	7800                	flw	fs0,48(s0)
    1124:	9f01                	0x9f01
	...
    112e:	0004                	0x4
    1130:	9f5a01f3          	0x9f5a01f3
	...
    1144:	0001                	nop
    1146:	0000005b          	0x5b
    114a:	0000                	unimp
    114c:	0000                	unimp
    114e:	0100                	addi	s0,sp,128
    1150:	5900                	lw	s0,48(a0)
	...
    115a:	0004                	0x4
    115c:	9f5b01f3          	0x9f5b01f3
	...
    1170:	017a0003          	lb	zero,23(s4)
    1174:	009f 0000 0000      	0x9f
    117a:	0000                	unimp
    117c:	0700                	addi	s0,sp,896
    117e:	7800                	flw	fs0,48(s0)
    1180:	2000                	fld	fs0,0(s0)
    1182:	007f                	0x7f
    1184:	9f22                	add	t5,t5,s0
	...
    118e:	00780007          	0x780007
    1192:	7f20                	flw	fs0,120(a4)
    1194:	2200                	fld	fs0,0(a2)
    1196:	009f 0000 0000      	0x9f
    119c:	0000                	unimp
    119e:	0700                	addi	s0,sp,896
    11a0:	7800                	flw	fs0,48(s0)
    11a2:	2000                	fld	fs0,0(s0)
    11a4:	007a                	c.slli	zero,0x1e
    11a6:	9f22                	add	t5,t5,s0
	...
    11b8:	0001                	nop
    11ba:	0059                	c.nop	22
    11bc:	0000                	unimp
    11be:	0000                	unimp
    11c0:	0000                	unimp
    11c2:	0100                	addi	s0,sp,128
    11c4:	5900                	lw	s0,48(a0)
	...
    11d6:	0001                	nop
    11d8:	0058                	addi	a4,sp,4
    11da:	0000                	unimp
    11dc:	0000                	unimp
    11de:	0000                	unimp
    11e0:	0300                	addi	s0,sp,384
    11e2:	7800                	flw	fs0,48(s0)
    11e4:	9f01                	0x9f01
	...
    11ee:	01780003          	lb	zero,23(a6)
    11f2:	009f 0000 0000      	0x9f
	...
    1200:	0000                	unimp
    1202:	0100                	addi	s0,sp,128
    1204:	5800                	lw	s0,48(s0)
	...
    120e:	01780003          	lb	zero,23(a6)
    1212:	009f 0000 0000      	0x9f
    1218:	0000                	unimp
    121a:	0400                	addi	s0,sp,512
    121c:	f300                	fsw	fs0,32(a4)
    121e:	5a01                	li	s4,-32
    1220:	009f 0000 0000      	0x9f
	...
    122e:	0000                	unimp
    1230:	0100                	addi	s0,sp,128
    1232:	5c00                	lw	s0,56(s0)
	...
    123c:	0006                	c.slli	zero,0x1
    123e:	007c                	addi	a5,sp,12
    1240:	007f                	0x7f
    1242:	9f1c                	0x9f1c
	...
    124c:	0008                	0x8
    124e:	007c                	addi	a5,sp,12
    1250:	007f                	0x7f
    1252:	231c                	fld	fa5,0(a4)
    1254:	9f01                	0x9f01
	...
    1266:	0001                	nop
    1268:	005a                	c.slli	zero,0x16
    126a:	0000                	unimp
    126c:	0000                	unimp
    126e:	0000                	unimp
    1270:	0600                	addi	s0,sp,768
    1272:	7a00                	flw	fs0,48(a2)
    1274:	7f00                	flw	fs0,56(a4)
    1276:	2200                	fld	fs0,0(a2)
    1278:	009f 0000 0000      	0x9f
    127e:	0000                	unimp
    1280:	0800                	addi	s0,sp,16
    1282:	7a00                	flw	fs0,48(a2)
    1284:	7f00                	flw	fs0,56(a4)
    1286:	2200                	fld	fs0,0(a2)
    1288:	009f0123          	sb	s1,2(t5)
    128c:	0000                	unimp
    128e:	0000                	unimp
    1290:	0000                	unimp
    1292:	0600                	addi	s0,sp,768
    1294:	7a00                	flw	fs0,48(a2)
    1296:	7f00                	flw	fs0,56(a4)
    1298:	2200                	fld	fs0,0(a2)
    129a:	009f 0000 0000      	0x9f
	...
    12a8:	0000                	unimp
    12aa:	0100                	addi	s0,sp,128
    12ac:	5b00                	lw	s0,48(a4)
	...
    12b6:	0006                	c.slli	zero,0x1
    12b8:	007f007b          	0x7f007b
    12bc:	9f22                	add	t5,t5,s0
	...
    12c6:	0008                	0x8
    12c8:	007f007b          	0x7f007b
    12cc:	2322                	fld	ft6,8(sp)
    12ce:	9f01                	0x9f01
	...
    12d8:	0006                	c.slli	zero,0x1
    12da:	007f007b          	0x7f007b
    12de:	9f22                	add	t5,t5,s0
	...
    12f0:	0001                	nop
    12f2:	005a                	c.slli	zero,0x16
    12f4:	0000                	unimp
    12f6:	0000                	unimp
    12f8:	0000                	unimp
    12fa:	0400                	addi	s0,sp,512
    12fc:	f300                	fsw	fs0,32(a4)
    12fe:	5a01                	li	s4,-32
    1300:	009f 0000 0000      	0x9f
    1306:	0000                	unimp
    1308:	0100                	addi	s0,sp,128
    130a:	5a00                	lw	s0,48(a2)
	...
    1314:	0004                	0x4
    1316:	9f5a01f3          	0x9f5a01f3
	...
    132a:	0001                	nop
    132c:	005c                	addi	a5,sp,4
    132e:	0000                	unimp
    1330:	0000                	unimp
    1332:	0000                	unimp
    1334:	0600                	addi	s0,sp,768
    1336:	7c00                	flw	fs0,56(s0)
    1338:	7e00                	flw	fs0,56(a2)
    133a:	1c00                	addi	s0,sp,560
    133c:	009f 0000 0000      	0x9f
    1342:	0000                	unimp
    1344:	0800                	addi	s0,sp,16
    1346:	7c00                	flw	fs0,56(s0)
    1348:	7e00                	flw	fs0,56(a2)
    134a:	1c00                	addi	s0,sp,560
    134c:	009f0123          	sb	s1,2(t5)
    1350:	0000                	unimp
    1352:	0000                	unimp
    1354:	0000                	unimp
    1356:	0600                	addi	s0,sp,768
    1358:	7c00                	flw	fs0,56(s0)
    135a:	7e00                	flw	fs0,56(a2)
    135c:	1c00                	addi	s0,sp,560
    135e:	009f 0000 0000      	0x9f
	...
    136c:	0000                	unimp
    136e:	0100                	addi	s0,sp,128
    1370:	5a00                	lw	s0,48(a2)
	...
    137a:	0006                	c.slli	zero,0x1
    137c:	007a                	c.slli	zero,0x1e
    137e:	007e                	c.slli	zero,0x1f
    1380:	9f22                	add	t5,t5,s0
	...
    138a:	0001                	nop
    138c:	005f 0000 0000      	0x5f
    1392:	0000                	unimp
    1394:	0800                	addi	s0,sp,16
    1396:	7a00                	flw	fs0,48(a2)
    1398:	7e00                	flw	fs0,56(a2)
    139a:	2200                	fld	fs0,0(a2)
    139c:	1c31                	addi	s8,s8,-20
    139e:	009f 0000 0000      	0x9f
    13a4:	0000                	unimp
    13a6:	0900                	addi	s0,sp,144
    13a8:	7e00                	flw	fs0,56(a2)
    13aa:	f300                	fsw	fs0,32(a4)
    13ac:	5a01                	li	s4,-32
    13ae:	3122                	fld	ft2,40(sp)
    13b0:	9f1c                	0x9f1c
	...
    13ba:	0006                	c.slli	zero,0x1
    13bc:	007a                	c.slli	zero,0x1e
    13be:	007e                	c.slli	zero,0x1f
    13c0:	9f22                	add	t5,t5,s0
	...
    13ca:	01f30007          	0x1f30007
    13ce:	7e5a                	flw	ft8,180(sp)
    13d0:	2200                	fld	fs0,0(a2)
    13d2:	009f 0000 0000      	0x9f
	...
    13e0:	0000                	unimp
    13e2:	0100                	addi	s0,sp,128
    13e4:	5b00                	lw	s0,48(a4)
	...
    13ee:	0006                	c.slli	zero,0x1
    13f0:	007e007b          	0x7e007b
    13f4:	9f22                	add	t5,t5,s0
	...
    13fe:	0008                	0x8
    1400:	007e007b          	0x7e007b
    1404:	3122                	fld	ft2,40(sp)
    1406:	9f1c                	0x9f1c
	...
    1410:	0006                	c.slli	zero,0x1
    1412:	007e007b          	0x7e007b
    1416:	9f22                	add	t5,t5,s0
	...
    1428:	0001                	nop
    142a:	005a                	c.slli	zero,0x16
    142c:	0000                	unimp
    142e:	0000                	unimp
    1430:	0000                	unimp
    1432:	0400                	addi	s0,sp,512
    1434:	f300                	fsw	fs0,32(a4)
    1436:	5a01                	li	s4,-32
    1438:	009f 0000 0000      	0x9f
    143e:	0000                	unimp
    1440:	0100                	addi	s0,sp,128
    1442:	5a00                	lw	s0,48(a2)
	...
    144c:	0001                	nop
    144e:	005d                	c.nop	23
    1450:	0000                	unimp
    1452:	0000                	unimp
    1454:	0000                	unimp
    1456:	0100                	addi	s0,sp,128
    1458:	5a00                	lw	s0,48(a2)
	...
    146a:	0001                	nop
    146c:	0000005b          	0x5b
    1470:	0000                	unimp
    1472:	0000                	unimp
    1474:	0400                	addi	s0,sp,512
    1476:	f300                	fsw	fs0,32(a4)
    1478:	5b01                	li	s6,-32
    147a:	009f 0000 0000      	0x9f
    1480:	0000                	unimp
    1482:	0100                	addi	s0,sp,128
    1484:	5b00                	lw	s0,48(a4)
	...
    148e:	0001                	nop
    1490:	005e                	c.slli	zero,0x17
    1492:	0000                	unimp
    1494:	0000                	unimp
    1496:	0000                	unimp
    1498:	0400                	addi	s0,sp,512
    149a:	f300                	fsw	fs0,32(a4)
    149c:	5b01                	li	s6,-32
    149e:	009f 0000 0000      	0x9f
    14a4:	0000                	unimp
    14a6:	0100                	addi	s0,sp,128
    14a8:	5b00                	lw	s0,48(a4)
	...
    14ba:	0001                	nop
    14bc:	005c                	addi	a5,sp,4
    14be:	0000                	unimp
    14c0:	0000                	unimp
    14c2:	0000                	unimp
    14c4:	0400                	addi	s0,sp,512
    14c6:	f300                	fsw	fs0,32(a4)
    14c8:	5c01                	li	s8,-32
    14ca:	009f 0000 0000      	0x9f
    14d0:	0000                	unimp
    14d2:	0100                	addi	s0,sp,128
    14d4:	5c00                	lw	s0,56(s0)
	...
    14de:	0004                	0x4
    14e0:	9f5c01f3          	0x9f5c01f3
	...
    14ec:	0001                	nop
    14ee:	005f 0000 0000      	0x5f
    14f4:	0000                	unimp
    14f6:	0400                	addi	s0,sp,512
    14f8:	f300                	fsw	fs0,32(a4)
    14fa:	5c01                	li	s8,-32
    14fc:	009f 0000 0000      	0x9f
    1502:	0000                	unimp
    1504:	0100                	addi	s0,sp,128
    1506:	5c00                	lw	s0,56(s0)
	...
    1510:	0001                	nop
    1512:	005f 0000 0000      	0x5f
	...
    1520:	0000                	unimp
    1522:	0100                	addi	s0,sp,128
    1524:	5a00                	lw	s0,48(a2)
	...
    152e:	0004                	0x4
    1530:	9f5a01f3          	0x9f5a01f3
	...
    153c:	0001                	nop
    153e:	005a                	c.slli	zero,0x16
    1540:	0000                	unimp
    1542:	0000                	unimp
    1544:	0000                	unimp
    1546:	0100                	addi	s0,sp,128
    1548:	5d00                	lw	s0,56(a0)
	...
    1552:	0001                	nop
    1554:	005a                	c.slli	zero,0x16
	...
    1562:	0000                	unimp
    1564:	0100                	addi	s0,sp,128
    1566:	5b00                	lw	s0,48(a4)
	...
    1570:	0004                	0x4
    1572:	9f5b01f3          	0x9f5b01f3
	...
    157e:	0001                	nop
    1580:	0000005b          	0x5b
    1584:	0000                	unimp
    1586:	0000                	unimp
    1588:	0100                	addi	s0,sp,128
    158a:	5e00                	lw	s0,56(a2)
	...
    1594:	0004                	0x4
    1596:	9f5b01f3          	0x9f5b01f3
	...
    15a2:	0001                	nop
    15a4:	0000005b          	0x5b
	...
    15b4:	0100                	addi	s0,sp,128
    15b6:	5c00                	lw	s0,56(s0)
	...
    15c0:	0001                	nop
    15c2:	005f 0000 0000      	0x5f
    15c8:	0000                	unimp
    15ca:	0600                	addi	s0,sp,768
    15cc:	7f00                	flw	fs0,56(a4)
    15ce:	7c00                	flw	fs0,56(s0)
    15d0:	1c00                	addi	s0,sp,560
    15d2:	009f 0000 0000      	0x9f
    15d8:	0000                	unimp
    15da:	0800                	addi	s0,sp,16
    15dc:	7f00                	flw	fs0,56(a4)
    15de:	7c00                	flw	fs0,56(s0)
    15e0:	1c00                	addi	s0,sp,560
    15e2:	009f0123          	sb	s1,2(t5)
    15e6:	0000                	unimp
    15e8:	0000                	unimp
    15ea:	0000                	unimp
    15ec:	0600                	addi	s0,sp,768
    15ee:	7f00                	flw	fs0,56(a4)
    15f0:	7c00                	flw	fs0,56(s0)
    15f2:	1c00                	addi	s0,sp,560
    15f4:	009f 0000 0000      	0x9f
    15fa:	0000                	unimp
    15fc:	0100                	addi	s0,sp,128
    15fe:	5c00                	lw	s0,56(s0)
	...
    1608:	0001                	nop
    160a:	005f 0000 0000      	0x5f
	...
    1618:	0000                	unimp
    161a:	0100                	addi	s0,sp,128
    161c:	5b00                	lw	s0,48(a4)
	...
    1626:	0001                	nop
    1628:	005e                	c.slli	zero,0x17
    162a:	0000                	unimp
    162c:	0000                	unimp
    162e:	0000                	unimp
    1630:	0100                	addi	s0,sp,128
    1632:	5b00                	lw	s0,48(a4)
	...
    1644:	0001                	nop
    1646:	005a                	c.slli	zero,0x16
    1648:	0000                	unimp
    164a:	0000                	unimp
    164c:	0000                	unimp
    164e:	0100                	addi	s0,sp,128
    1650:	5d00                	lw	s0,56(a0)
	...
    165a:	0001                	nop
    165c:	005a                	c.slli	zero,0x16
	...
    166a:	0000                	unimp
    166c:	0800                	addi	s0,sp,16
    166e:	7d00                	flw	fs0,56(a0)
    1670:	7c00                	flw	fs0,56(s0)
    1672:	2200                	fld	fs0,0(a2)
    1674:	009f0123          	sb	s1,2(t5)
    1678:	0000                	unimp
    167a:	0000                	unimp
    167c:	0000                	unimp
    167e:	0600                	addi	s0,sp,768
    1680:	7d00                	flw	fs0,56(a0)
    1682:	7c00                	flw	fs0,56(s0)
    1684:	2200                	fld	fs0,0(a2)
    1686:	009f 0000 0000      	0x9f
	...
    1694:	0000                	unimp
    1696:	0800                	addi	s0,sp,16
    1698:	7e00                	flw	fs0,56(a2)
    169a:	7c00                	flw	fs0,56(s0)
    169c:	2200                	fld	fs0,0(a2)
    169e:	009f0123          	sb	s1,2(t5)
    16a2:	0000                	unimp
    16a4:	0000                	unimp
    16a6:	0000                	unimp
    16a8:	0600                	addi	s0,sp,768
    16aa:	7e00                	flw	fs0,56(a2)
    16ac:	7c00                	flw	fs0,56(s0)
    16ae:	2200                	fld	fs0,0(a2)
    16b0:	009f 0000 0000      	0x9f
	...
    16be:	0000                	unimp
    16c0:	0100                	addi	s0,sp,128
    16c2:	5a00                	lw	s0,48(a2)
	...
    16cc:	0004                	0x4
    16ce:	9f5a01f3          	0x9f5a01f3
	...
    16e2:	0001                	nop
    16e4:	0000005b          	0x5b
    16e8:	0000                	unimp
    16ea:	0000                	unimp
    16ec:	0100                	addi	s0,sp,128
    16ee:	5b00                	lw	s0,48(a4)
	...
    1700:	0001                	nop
    1702:	005c                	addi	a5,sp,4
    1704:	0000                	unimp
    1706:	0000                	unimp
    1708:	0000                	unimp
    170a:	0400                	addi	s0,sp,512
    170c:	f300                	fsw	fs0,32(a4)
    170e:	5c01                	li	s8,-32
    1710:	009f 0000 0000      	0x9f
	...
    171e:	0000                	unimp
    1720:	0100                	addi	s0,sp,128
    1722:	5a00                	lw	s0,48(a2)
	...
    1734:	0001                	nop
    1736:	005a                	c.slli	zero,0x16
    1738:	0000                	unimp
    173a:	0000                	unimp
    173c:	0000                	unimp
    173e:	0100                	addi	s0,sp,128
    1740:	5900                	lw	s0,48(a0)
	...
    174a:	0004                	0x4
    174c:	9f5a01f3          	0x9f5a01f3
	...
    1760:	0001                	nop
    1762:	0000005b          	0x5b
    1766:	0000                	unimp
    1768:	0000                	unimp
    176a:	0100                	addi	s0,sp,128
    176c:	5800                	lw	s0,48(s0)
	...
    1776:	0004                	0x4
    1778:	9f5b01f3          	0x9f5b01f3
	...
    178c:	0001                	nop
    178e:	005a                	c.slli	zero,0x16
	...
    179c:	0000                	unimp
    179e:	0100                	addi	s0,sp,128
    17a0:	5a00                	lw	s0,48(a2)
	...
    17aa:	b8910003          	lb	zero,-1143(sp)
    17ae:	00000077          	0x77
    17b2:	0000                	unimp
    17b4:	0000                	unimp
    17b6:	0300                	addi	s0,sp,384
    17b8:	9100                	0x9100
    17ba:	77b8                	flw	fa4,104(a5)
	...
    17c4:	0004                	0x4
    17c6:	9f5a01f3          	0x9f5a01f3
	...
    17d2:	0001                	nop
    17d4:	0058                	addi	a4,sp,4
    17d6:	0000                	unimp
    17d8:	0000                	unimp
    17da:	0000                	unimp
    17dc:	0300                	addi	s0,sp,384
    17de:	9100                	0x9100
    17e0:	77b8                	flw	fa4,104(a5)
	...
    17ea:	0001                	nop
    17ec:	0058                	addi	a4,sp,4
    17ee:	0000                	unimp
    17f0:	0000                	unimp
    17f2:	0000                	unimp
    17f4:	0100                	addi	s0,sp,128
    17f6:	5700                	lw	s0,40(a4)
	...
    1800:	0001                	nop
    1802:	0058                	addi	a4,sp,4
	...
    1810:	0000                	unimp
    1812:	0100                	addi	s0,sp,128
    1814:	5b00                	lw	s0,48(a4)
	...
    181e:	0002                	c.slli64	zero
    1820:	0072                	c.slli	zero,0x1c
	...
    182a:	0004                	0x4
    182c:	9f5b01f3          	0x9f5b01f3
	...
    1838:	0002                	c.slli64	zero
    183a:	0072                	c.slli	zero,0x1c
	...
    1844:	0004                	0x4
    1846:	9f5b01f3          	0x9f5b01f3
	...
    1852:	0002                	c.slli64	zero
    1854:	0072                	c.slli	zero,0x1c
	...
    185e:	0004                	0x4
    1860:	9f5b01f3          	0x9f5b01f3
	...
    1874:	0001                	nop
    1876:	0056                	c.slli	zero,0x15
    1878:	0000                	unimp
    187a:	0000                	unimp
    187c:	0000                	unimp
    187e:	0300                	addi	s0,sp,384
    1880:	9100                	0x9100
    1882:	77c0                	flw	fs0,44(a5)
	...
    188c:	0001                	nop
    188e:	005a                	c.slli	zero,0x16
    1890:	0000                	unimp
    1892:	0000                	unimp
    1894:	0000                	unimp
    1896:	0100                	addi	s0,sp,128
    1898:	5600                	lw	s0,40(a2)
	...
    18a2:	0001                	nop
    18a4:	0056                	c.slli	zero,0x15
	...
    18b2:	0000                	unimp
    18b4:	0200                	addi	s0,sp,256
    18b6:	3000                	fld	fs0,32(s0)
    18b8:	009f 0000 0000      	0x9f
    18be:	0000                	unimp
    18c0:	0100                	addi	s0,sp,128
    18c2:	5900                	lw	s0,48(a0)
	...
    18cc:	0001                	nop
    18ce:	0059                	c.nop	22
    18d0:	0000                	unimp
    18d2:	0000                	unimp
    18d4:	0000                	unimp
    18d6:	0300                	addi	s0,sp,384
    18d8:	7900                	flw	fs0,48(a0)
    18da:	9f7f                	0x9f7f
	...
    18e4:	0001                	nop
    18e6:	0059                	c.nop	22
	...
    18f4:	0000                	unimp
    18f6:	0100                	addi	s0,sp,128
    18f8:	5b00                	lw	s0,48(a4)
	...
    1902:	0001                	nop
    1904:	005d                	c.nop	23
    1906:	0000                	unimp
    1908:	0000                	unimp
    190a:	0000                	unimp
    190c:	0300                	addi	s0,sp,384
    190e:	7c00                	flw	fs0,56(s0)
    1910:	9f7f                	0x9f7f
	...
    191a:	0001                	nop
    191c:	0000005b          	0x5b
    1920:	0000                	unimp
    1922:	0000                	unimp
    1924:	0100                	addi	s0,sp,128
    1926:	5500                	lw	s0,40(a0)
	...
    1930:	0001                	nop
    1932:	005d                	c.nop	23
    1934:	0000                	unimp
    1936:	0000                	unimp
    1938:	0000                	unimp
    193a:	0100                	addi	s0,sp,128
    193c:	5800                	lw	s0,48(s0)
	...
    194e:	0001                	nop
    1950:	0055                	c.nop	21
    1952:	0000                	unimp
    1954:	0000                	unimp
    1956:	0000                	unimp
    1958:	0100                	addi	s0,sp,128
    195a:	5500                	lw	s0,40(a0)
	...
    1964:	0001                	nop
    1966:	0055                	c.nop	21
    1968:	0000                	unimp
    196a:	0000                	unimp
    196c:	0000                	unimp
    196e:	0100                	addi	s0,sp,128
    1970:	5800                	lw	s0,48(s0)
	...
    197a:	0001                	nop
    197c:	0055                	c.nop	21
    197e:	0000                	unimp
    1980:	0000                	unimp
    1982:	0000                	unimp
    1984:	0100                	addi	s0,sp,128
    1986:	5c00                	lw	s0,56(s0)
	...
    1990:	0001                	nop
    1992:	0058                	addi	a4,sp,4
    1994:	0000                	unimp
    1996:	0000                	unimp
    1998:	0000                	unimp
    199a:	0100                	addi	s0,sp,128
    199c:	5800                	lw	s0,48(s0)
	...
    19a6:	0001                	nop
    19a8:	0058                	addi	a4,sp,4
    19aa:	0000                	unimp
    19ac:	0000                	unimp
    19ae:	0000                	unimp
    19b0:	0100                	addi	s0,sp,128
    19b2:	5700                	lw	s0,40(a4)
	...
    19c4:	0001                	nop
    19c6:	005f 0000 0000      	0x5f
    19cc:	0000                	unimp
    19ce:	0100                	addi	s0,sp,128
    19d0:	5f00                	lw	s0,56(a4)
	...
    19da:	0001                	nop
    19dc:	005f 0000 0000      	0x5f
    19e2:	0000                	unimp
    19e4:	0100                	addi	s0,sp,128
    19e6:	5c00                	lw	s0,56(s0)
	...
    19f0:	0001                	nop
    19f2:	005c                	addi	a5,sp,4
    19f4:	0000                	unimp
    19f6:	0000                	unimp
    19f8:	0000                	unimp
    19fa:	1600                	addi	s0,sp,800
    19fc:	7500                	flw	fs0,40(a0)
    19fe:	1200                	addi	s0,sp,288
    1a00:	4b40                	lw	s0,20(a4)
    1a02:	2224                	fld	fs1,64(a2)
    1a04:	007c                	addi	a5,sp,12
    1a06:	1416                	slli	s0,s0,0x25
    1a08:	4b40                	lw	s0,20(a4)
    1a0a:	2224                	fld	fs1,64(a2)
    1a0c:	0001282b          	0x1282b
    1a10:	1316                	slli	t1,t1,0x25
    1a12:	009f 0000 0000      	0x9f
    1a18:	0000                	unimp
    1a1a:	0100                	addi	s0,sp,128
    1a1c:	5f00                	lw	s0,56(a4)
	...
    1a26:	0002                	c.slli64	zero
    1a28:	9f31                	0x9f31
	...
    1a32:	0001                	nop
    1a34:	005c                	addi	a5,sp,4
    1a36:	0000                	unimp
    1a38:	0000                	unimp
    1a3a:	0000                	unimp
    1a3c:	0100                	addi	s0,sp,128
    1a3e:	5c00                	lw	s0,56(s0)
	...
    1a48:	0001                	nop
    1a4a:	005c                	addi	a5,sp,4
    1a4c:	0000                	unimp
    1a4e:	0000                	unimp
    1a50:	0000                	unimp
    1a52:	0200                	addi	s0,sp,256
    1a54:	3100                	fld	fs0,32(a0)
    1a56:	009f 0000 0000      	0x9f
    1a5c:	0000                	unimp
    1a5e:	0100                	addi	s0,sp,128
    1a60:	5c00                	lw	s0,56(s0)
	...
    1a6a:	0001                	nop
    1a6c:	0000005b          	0x5b
    1a70:	0000                	unimp
    1a72:	0000                	unimp
    1a74:	0100                	addi	s0,sp,128
    1a76:	5b00                	lw	s0,48(a4)
	...
    1a80:	0001                	nop
    1a82:	005c                	addi	a5,sp,4
    1a84:	0000                	unimp
    1a86:	0000                	unimp
    1a88:	0000                	unimp
    1a8a:	0300                	addi	s0,sp,384
    1a8c:	7c00                	flw	fs0,56(s0)
    1a8e:	9f01                	0x9f01
	...
    1aa0:	0001                	nop
    1aa2:	005a                	c.slli	zero,0x16
    1aa4:	0000                	unimp
    1aa6:	0000                	unimp
    1aa8:	0000                	unimp
    1aaa:	0100                	addi	s0,sp,128
    1aac:	5a00                	lw	s0,48(a2)
	...
    1ab6:	0001                	nop
    1ab8:	005a                	c.slli	zero,0x16
    1aba:	0000                	unimp
    1abc:	0000                	unimp
    1abe:	0000                	unimp
    1ac0:	0100                	addi	s0,sp,128
    1ac2:	5f00                	lw	s0,56(a4)
	...
    1acc:	0001                	nop
    1ace:	005f 0000 0000      	0x5f
    1ad4:	0000                	unimp
    1ad6:	0300                	addi	s0,sp,384
    1ad8:	9100                	0x9100
    1ada:	77b8                	flw	fa4,104(a5)
	...
    1ae4:	0001                	nop
    1ae6:	005f 0000 0000      	0x5f
    1aec:	0000                	unimp
    1aee:	0100                	addi	s0,sp,128
    1af0:	5f00                	lw	s0,56(a4)
	...
    1afa:	c4910003          	lb	zero,-951(sp)
    1afe:	00000077          	0x77
    1b02:	0000                	unimp
    1b04:	0000                	unimp
    1b06:	0100                	addi	s0,sp,128
    1b08:	5f00                	lw	s0,56(a4)
	...
    1b12:	0001                	nop
    1b14:	005a                	c.slli	zero,0x16
    1b16:	0000                	unimp
    1b18:	0000                	unimp
    1b1a:	0000                	unimp
    1b1c:	0200                	addi	s0,sp,256
    1b1e:	3100                	fld	fs0,32(a0)
    1b20:	009f 0000 0000      	0x9f
    1b26:	0000                	unimp
    1b28:	0100                	addi	s0,sp,128
    1b2a:	5f00                	lw	s0,56(a4)
	...
    1b34:	0001                	nop
    1b36:	005f 0000 0000      	0x5f
    1b3c:	0000                	unimp
    1b3e:	0100                	addi	s0,sp,128
    1b40:	5f00                	lw	s0,56(a4)
	...
    1b4a:	0002                	c.slli64	zero
    1b4c:	9f31                	0x9f31
	...
    1b56:	0001                	nop
    1b58:	005f 0000 0000      	0x5f
	...
    1b66:	0000                	unimp
    1b68:	0100                	addi	s0,sp,128
    1b6a:	5d00                	lw	s0,56(a0)
	...
    1b74:	c0910003          	lb	zero,-1015(sp)
    1b78:	00000077          	0x77
    1b7c:	0000                	unimp
    1b7e:	0000                	unimp
    1b80:	0100                	addi	s0,sp,128
    1b82:	5d00                	lw	s0,56(a0)
	...
    1b8c:	c8910003          	lb	zero,-887(sp)
    1b90:	00000077          	0x77
    1b94:	0000                	unimp
    1b96:	0000                	unimp
    1b98:	0100                	addi	s0,sp,128
    1b9a:	5d00                	lw	s0,56(a0)
	...
    1ba4:	0001                	nop
    1ba6:	005d                	c.nop	23
	...
    1bb4:	0000                	unimp
    1bb6:	0200                	addi	s0,sp,256
    1bb8:	3000                	fld	fs0,32(s0)
    1bba:	009f 0000 0000      	0x9f
    1bc0:	0000                	unimp
    1bc2:	0100                	addi	s0,sp,128
    1bc4:	5500                	lw	s0,40(a0)
	...
    1bce:	cc910003          	lb	zero,-823(sp)
    1bd2:	00000077          	0x77
    1bd6:	0000                	unimp
    1bd8:	0000                	unimp
    1bda:	0100                	addi	s0,sp,128
    1bdc:	5500                	lw	s0,40(a0)
	...
    1be6:	0002                	c.slli64	zero
    1be8:	9f30                	0x9f30
	...
    1bf2:	0001                	nop
    1bf4:	0055                	c.nop	21
    1bf6:	0000                	unimp
    1bf8:	0000                	unimp
    1bfa:	0000                	unimp
    1bfc:	0200                	addi	s0,sp,256
    1bfe:	3000                	fld	fs0,32(s0)
    1c00:	009f 0000 0000      	0x9f
    1c06:	0000                	unimp
    1c08:	0100                	addi	s0,sp,128
    1c0a:	5500                	lw	s0,40(a0)
	...
    1c14:	0002                	c.slli64	zero
    1c16:	9f30                	0x9f30
	...
    1c20:	0001                	nop
    1c22:	0055                	c.nop	21
	...
    1c30:	0000                	unimp
    1c32:	0200                	addi	s0,sp,256
    1c34:	3000                	fld	fs0,32(s0)
    1c36:	009f 0000 0000      	0x9f
	...
    1c44:	0000                	unimp
    1c46:	0100                	addi	s0,sp,128
    1c48:	5c00                	lw	s0,56(s0)
	...
    1c52:	bc910003          	lb	zero,-1079(sp)
    1c56:	00000077          	0x77
    1c5a:	0000                	unimp
    1c5c:	0000                	unimp
    1c5e:	0300                	addi	s0,sp,384
    1c60:	9100                	0x9100
    1c62:	77bc                	flw	fa5,104(a5)
	...
    1c74:	0001                	nop
    1c76:	005a                	c.slli	zero,0x16
    1c78:	0000                	unimp
    1c7a:	0000                	unimp
    1c7c:	0000                	unimp
    1c7e:	0100                	addi	s0,sp,128
    1c80:	5a00                	lw	s0,48(a2)
	...
    1c92:	0001                	nop
    1c94:	005a                	c.slli	zero,0x16
    1c96:	0000                	unimp
    1c98:	0000                	unimp
    1c9a:	0000                	unimp
    1c9c:	0400                	addi	s0,sp,512
    1c9e:	f300                	fsw	fs0,32(a4)
    1ca0:	5a01                	li	s4,-32
    1ca2:	009f 0000 0000      	0x9f
    1ca8:	0000                	unimp
    1caa:	0100                	addi	s0,sp,128
    1cac:	5a00                	lw	s0,48(a2)
	...
    1cb6:	0001                	nop
    1cb8:	005a                	c.slli	zero,0x16
	...
    1cc6:	0000                	unimp
    1cc8:	0100                	addi	s0,sp,128
    1cca:	5b00                	lw	s0,48(a4)
	...
    1cd4:	0001                	nop
    1cd6:	0058                	addi	a4,sp,4
    1cd8:	0000                	unimp
    1cda:	0000                	unimp
    1cdc:	0000                	unimp
    1cde:	0100                	addi	s0,sp,128
    1ce0:	5b00                	lw	s0,48(a4)
	...
    1cea:	0004                	0x4
    1cec:	9f5b01f3          	0x9f5b01f3
	...
    1cf8:	0001                	nop
    1cfa:	0058                	addi	a4,sp,4
    1cfc:	0000                	unimp
    1cfe:	0000                	unimp
    1d00:	0000                	unimp
    1d02:	0400                	addi	s0,sp,512
    1d04:	f300                	fsw	fs0,32(a4)
    1d06:	5b01                	li	s6,-32
    1d08:	009f 0000 0000      	0x9f
	...
    1d16:	0000                	unimp
    1d18:	0100                	addi	s0,sp,128
    1d1a:	5800                	lw	s0,48(s0)
	...
    1d2c:	0001                	nop
    1d2e:	005a                	c.slli	zero,0x16
    1d30:	0000                	unimp
    1d32:	0000                	unimp
    1d34:	0000                	unimp
    1d36:	0100                	addi	s0,sp,128
    1d38:	5f00                	lw	s0,56(a4)
	...
    1d42:	017f0003          	lb	zero,23(t5)
    1d46:	009f 0000 0000      	0x9f
    1d4c:	0000                	unimp
    1d4e:	0100                	addi	s0,sp,128
    1d50:	5f00                	lw	s0,56(a4)
	...
    1d62:	0019                	c.nop	6
    1d64:	0078                	addi	a4,sp,12
    1d66:	0294                	addi	a3,sp,320
    1d68:	1438                	addi	a4,sp,552
    1d6a:	1f14                	addi	a3,sp,944
    1d6c:	0a241023          	sh	sp,160(s0) # 310031b4 <__global_pointer$+0x11002884>
    1d70:	ffff                	0xffff
    1d72:	171a                	slli	a4,a4,0x26
    1d74:	0a16                	slli	s4,s4,0x5
    1d76:	ffff                	0xffff
    1d78:	161a                	slli	a2,a2,0x26
    1d7a:	2125                	jal	21a2 <main_pwm.c.a2cb4005+0x3c6>
    1d7c:	009f 0000 0000      	0x9f
	...
    1d8a:	0000                	unimp
    1d8c:	0100                	addi	s0,sp,128
    1d8e:	5e00                	lw	s0,56(a2)
	...
    1d98:	0001                	nop
    1d9a:	005e                	c.slli	zero,0x17
	...
    1da8:	0000                	unimp
    1daa:	0100                	addi	s0,sp,128
    1dac:	5800                	lw	s0,48(s0)
	...
    1dbe:	0001                	nop
    1dc0:	005a                	c.slli	zero,0x16
    1dc2:	0000                	unimp
    1dc4:	0000                	unimp
    1dc6:	0000                	unimp
    1dc8:	0100                	addi	s0,sp,128
    1dca:	5f00                	lw	s0,56(a4)
	...
    1dd4:	027f0003          	lb	zero,39(t5)
    1dd8:	009f 0000 0000      	0x9f
    1dde:	0000                	unimp
    1de0:	0100                	addi	s0,sp,128
    1de2:	5f00                	lw	s0,56(a4)
	...
    1df4:	0001                	nop
    1df6:	005c                	addi	a5,sp,4
	...
    1e04:	0000                	unimp
    1e06:	0100                	addi	s0,sp,128
    1e08:	5e00                	lw	s0,56(a2)
	...
    1e12:	0001                	nop
    1e14:	005e                	c.slli	zero,0x17
	...
    1e22:	0000                	unimp
    1e24:	0100                	addi	s0,sp,128
    1e26:	5800                	lw	s0,48(s0)
	...
    1e30:	0001                	nop
    1e32:	0058                	addi	a4,sp,4
	...
    1e40:	0000                	unimp
    1e42:	0100                	addi	s0,sp,128
    1e44:	5a00                	lw	s0,48(a2)
	...
    1e4e:	0001                	nop
    1e50:	005f 0000 0000      	0x5f
    1e56:	0000                	unimp
    1e58:	0100                	addi	s0,sp,128
    1e5a:	5f00                	lw	s0,56(a4)
	...
    1e6c:	0001                	nop
    1e6e:	005d                	c.nop	23
    1e70:	0000                	unimp
    1e72:	0000                	unimp
    1e74:	0000                	unimp
    1e76:	0100                	addi	s0,sp,128
    1e78:	5d00                	lw	s0,56(a0)
	...
    1e8a:	0001                	nop
    1e8c:	005e                	c.slli	zero,0x17
    1e8e:	0000                	unimp
    1e90:	0000                	unimp
    1e92:	0000                	unimp
    1e94:	0100                	addi	s0,sp,128
    1e96:	5e00                	lw	s0,56(a2)
	...
    1ea0:	0001                	nop
    1ea2:	005e                	c.slli	zero,0x17
	...
    1eb0:	0000                	unimp
    1eb2:	0100                	addi	s0,sp,128
    1eb4:	5a00                	lw	s0,48(a2)
	...
    1ebe:	0001                	nop
    1ec0:	0059                	c.nop	22
    1ec2:	0000                	unimp
    1ec4:	0000                	unimp
    1ec6:	0000                	unimp
    1ec8:	0400                	addi	s0,sp,512
    1eca:	f300                	fsw	fs0,32(a4)
    1ecc:	5a01                	li	s4,-32
    1ece:	009f 0000 0000      	0x9f
	...
    1edc:	0000                	unimp
    1ede:	0100                	addi	s0,sp,128
    1ee0:	5800                	lw	s0,48(s0)
	...
    1eea:	7f7a0003          	lb	zero,2039(s4)
    1eee:	009f 0000 0000      	0x9f
	...
    1efc:	0000                	unimp
    1efe:	0100                	addi	s0,sp,128
    1f00:	5a00                	lw	s0,48(a2)
	...
    1f0a:	0004                	0x4
    1f0c:	9f5a01f3          	0x9f5a01f3
	...
    1f18:	0001                	nop
    1f1a:	005a                	c.slli	zero,0x16
    1f1c:	0000                	unimp
    1f1e:	0000                	unimp
    1f20:	0000                	unimp
    1f22:	0400                	addi	s0,sp,512
    1f24:	f300                	fsw	fs0,32(a4)
    1f26:	5a01                	li	s4,-32
    1f28:	009f 0000 0000      	0x9f
	...
    1f36:	0000                	unimp
    1f38:	0400                	addi	s0,sp,512
    1f3a:	0a00                	addi	s0,sp,272
    1f3c:	3e80                	fld	fs0,56(a3)
    1f3e:	009f 0000 0000      	0x9f
    1f44:	0000                	unimp
    1f46:	0300                	addi	s0,sp,384
    1f48:	7f00                	flw	fs0,56(a4)
    1f4a:	9f7f                	0x9f7f
	...
    1f54:	7e7f0003          	lb	zero,2023(t5)
    1f58:	009f 0000 0000      	0x9f
    1f5e:	0000                	unimp
    1f60:	0300                	addi	s0,sp,384
    1f62:	7f00                	flw	fs0,56(a4)
    1f64:	9f7f                	0x9f7f
	...
    1f6e:	04f8                	addi	a4,sp,588
    1f70:	0000                	unimp
    1f72:	0548                	addi	a0,sp,644
    1f74:	0000                	unimp
    1f76:	0002                	c.slli64	zero
    1f78:	9f40                	0x9f40
	...
    1f82:	04f8                	addi	a4,sp,588
    1f84:	0000                	unimp
    1f86:	0548                	addi	a0,sp,644
    1f88:	0000                	unimp
    1f8a:	0006                	c.slli	zero,0x1
    1f8c:	000c                	0xc
    1f8e:	012c                	addi	a1,sp,136
    1f90:	9f40                	0x9f40
	...
    1f9a:	04f8                	addi	a4,sp,588
    1f9c:	0000                	unimp
    1f9e:	0548                	addi	a0,sp,644
    1fa0:	0000                	unimp
    1fa2:	0002                	c.slli64	zero
    1fa4:	9f31                	0x9f31
	...
    1fae:	04f8                	addi	a4,sp,588
    1fb0:	0000                	unimp
    1fb2:	0548                	addi	a0,sp,644
    1fb4:	0000                	unimp
    1fb6:	0006                	c.slli	zero,0x1
    1fb8:	000c                	0xc
    1fba:	0108                	addi	a0,sp,128
    1fbc:	9f40                	0x9f40
	...
    1fc6:	0548                	addi	a0,sp,644
    1fc8:	0000                	unimp
    1fca:	0578                	addi	a4,sp,652
    1fcc:	0000                	unimp
    1fce:	0004                	0x4
    1fd0:	000a                	c.slli	zero,0x2
    1fd2:	9f10                	0x9f10
	...
    1fdc:	0548                	addi	a0,sp,644
    1fde:	0000                	unimp
    1fe0:	0578                	addi	a4,sp,652
    1fe2:	0000                	unimp
    1fe4:	0004                	0x4
    1fe6:	4a40                	lw	s0,20(a2)
    1fe8:	9f24                	0x9f24
	...
    1ff2:	0548                	addi	a0,sp,644
    1ff4:	0000                	unimp
    1ff6:	0578                	addi	a4,sp,652
    1ff8:	0000                	unimp
    1ffa:	0002                	c.slli64	zero
    1ffc:	9f31                	0x9f31
	...
    2006:	0548                	addi	a0,sp,644
    2008:	0000                	unimp
    200a:	0578                	addi	a4,sp,652
    200c:	0000                	unimp
    200e:	0006                	c.slli	zero,0x1
    2010:	000c                	0xc
    2012:	0110                	addi	a2,sp,128
    2014:	9f40                	0x9f40
	...
    201e:	0578                	addi	a4,sp,652
    2020:	0000                	unimp
    2022:	05b8                	addi	a4,sp,712
    2024:	0000                	unimp
    2026:	0002                	c.slli64	zero
    2028:	9f40                	0x9f40
	...
    2032:	0578                	addi	a4,sp,652
    2034:	0000                	unimp
    2036:	05b8                	addi	a4,sp,712
    2038:	0000                	unimp
    203a:	0004                	0x4
    203c:	4a40                	lw	s0,20(a2)
    203e:	9f24                	0x9f24
	...
    2048:	0578                	addi	a4,sp,652
    204a:	0000                	unimp
    204c:	05b8                	addi	a4,sp,712
    204e:	0000                	unimp
    2050:	0002                	c.slli64	zero
    2052:	9f32                	add	t5,t5,a2
	...
    205c:	0578                	addi	a4,sp,652
    205e:	0000                	unimp
    2060:	05b8                	addi	a4,sp,712
    2062:	0000                	unimp
    2064:	0006                	c.slli	zero,0x1
    2066:	000c                	0xc
    2068:	0110                	addi	a2,sp,128
    206a:	9f40                	0x9f40
	...
    2074:	05b8                	addi	a4,sp,712
    2076:	0000                	unimp
    2078:	0600                	addi	s0,sp,768
    207a:	0000                	unimp
    207c:	0002                	c.slli64	zero
    207e:	9f31                	0x9f31
	...
    2088:	05b8                	addi	a4,sp,712
    208a:	0000                	unimp
    208c:	0600                	addi	s0,sp,768
    208e:	0000                	unimp
    2090:	0006                	c.slli	zero,0x1
    2092:	000c                	0xc
    2094:	012c                	addi	a1,sp,136
    2096:	9f40                	0x9f40
	...
    20a0:	05b8                	addi	a4,sp,712
    20a2:	0000                	unimp
    20a4:	0600                	addi	s0,sp,768
    20a6:	0000                	unimp
    20a8:	0002                	c.slli64	zero
    20aa:	9f34                	0x9f34
	...
    20b4:	05b8                	addi	a4,sp,712
    20b6:	0000                	unimp
    20b8:	0600                	addi	s0,sp,768
    20ba:	0000                	unimp
    20bc:	0006                	c.slli	zero,0x1
    20be:	000c                	0xc
    20c0:	0110                	addi	a2,sp,128
    20c2:	9f40                	0x9f40
	...
    20cc:	064c                	addi	a1,sp,772
    20ce:	0000                	unimp
    20d0:	0690                	addi	a2,sp,832
    20d2:	0000                	unimp
    20d4:	0001                	nop
    20d6:	405c                	lw	a5,4(s0)
    20d8:	64000007          	0x64000007
    20dc:	01000007          	0x1000007
    20e0:	5c00                	lw	s0,56(s0)
	...
    20ea:	0674                	addi	a3,sp,780
    20ec:	0000                	unimp
    20ee:	0684                	addi	s1,sp,832
    20f0:	0000                	unimp
    20f2:	0006                	c.slli	zero,0x1
    20f4:	007d                	c.nop	31
    20f6:	ff08                	fsw	fa0,56(a4)
    20f8:	9f1a                	add	t5,t5,t1
    20fa:	0740                	addi	s0,sp,900
    20fc:	0000                	unimp
    20fe:	0764                	addi	s1,sp,908
    2100:	0000                	unimp
    2102:	0006                	c.slli	zero,0x1
    2104:	007d                	c.nop	31
    2106:	ff08                	fsw	fa0,56(a4)
    2108:	9f1a                	add	t5,t5,t1
	...
    2112:	0674                	addi	a3,sp,780
    2114:	0000                	unimp
    2116:	0684                	addi	s1,sp,832
    2118:	0000                	unimp
    211a:	0001                	nop
    211c:	405f 0007 6400      	0x64000007405f
    2122:	01000007          	0x1000007
    2126:	5f00                	lw	s0,56(a4)
	...
    2130:	0674                	addi	a3,sp,780
    2132:	0000                	unimp
    2134:	0684                	addi	s1,sp,832
    2136:	0000                	unimp
    2138:	0001                	nop
    213a:	0007405b          	0x7405b
    213e:	6400                	flw	fs0,8(s0)
    2140:	01000007          	0x1000007
    2144:	5b00                	lw	s0,48(a4)
	...
    214e:	0698                	addi	a4,sp,832
    2150:	0000                	unimp
    2152:	06a4                	addi	s1,sp,840
    2154:	0000                	unimp
    2156:	0001                	nop
    2158:	a45c                	fsd	fa5,136(s0)
    215a:	0006                	c.slli	zero,0x1
    215c:	fc00                	fsw	fs0,56(s0)
    215e:	0006                	c.slli	zero,0x1
    2160:	0300                	addi	s0,sp,384
    2162:	7c00                	flw	fs0,56(s0)
    2164:	9f7f                	0x9f7f
    2166:	06fc                	addi	a5,sp,844
    2168:	0000                	unimp
    216a:	0724                	addi	s1,sp,904
    216c:	0000                	unimp
    216e:	0001                	nop
    2170:	005c                	addi	a5,sp,4
    2172:	0000                	unimp
    2174:	0000                	unimp
    2176:	0000                	unimp
    2178:	c000                	sw	s0,0(s0)
    217a:	0006                	c.slli	zero,0x1
    217c:	f000                	fsw	fs0,32(s0)
    217e:	0006                	c.slli	zero,0x1
    2180:	0100                	addi	s0,sp,128
    2182:	5500                	lw	s0,40(a0)
	...
    218c:	06c0                	addi	s0,sp,836
    218e:	0000                	unimp
    2190:	06fc                	addi	a5,sp,844
    2192:	0000                	unimp
    2194:	0001                	nop
    2196:	0056                	c.slli	zero,0x15
    2198:	0000                	unimp
    219a:	0000                	unimp
    219c:	0000                	unimp
    219e:	c000                	sw	s0,0(s0)
    21a0:	0006                	c.slli	zero,0x1
    21a2:	c800                	sw	s0,16(s0)
    21a4:	0006                	c.slli	zero,0x1
    21a6:	0100                	addi	s0,sp,128
    21a8:	5f00                	lw	s0,56(a4)
	...
    21b2:	06b0                	addi	a2,sp,840
    21b4:	0000                	unimp
    21b6:	06fc                	addi	a5,sp,844
    21b8:	0000                	unimp
    21ba:	0001                	nop
    21bc:	0000005b          	0x5b
    21c0:	0000                	unimp
    21c2:	0000                	unimp
	...

Disassembly of section .debug_aranges:

00000000 <.debug_aranges>:
	asm volatile( "\n\
   0:	00f4                	addi	a3,sp,76
   2:	0000                	unimp
   4:	0002                	c.slli64	zero
   6:	0000                	unimp
   8:	0000                	unimp
   a:	0004                	0x4
	...
  28:	00c4                	addi	s1,sp,68
  2a:	0000                	unimp
  2c:	0368                	addi	a0,sp,396
	...
  3e:	0000                	unimp
  40:	042c                	addi	a1,sp,520
  42:	0000                	unimp
  44:	007e                	c.slli	zero,0x1f
  46:	0000                	unimp
  48:	04aa                	slli	s1,s1,0xa
  4a:	0000                	unimp
  4c:	0002                	c.slli64	zero
	...
	RCC->CTLR  = RCC_HSION | RCC_PLLON | ((HSITRIM) << 3); // Use HSI, but enable PLL.
  da:	0000                	unimp
  dc:	009c                	addi	a5,sp,64
	...
	RCC->INTR  = 0x009F0000;                               // Clear PLL, CSSC, HSE, HSI and LSI ready flags.
  e6:	0000                	unimp
  e8:	04ac                	addi	a1,sp,584
  ea:	0000                	unimp
	while((RCC->CTLR & RCC_PLLRDY) == 0);                                      // Wait till PLL is ready
  ec:	02b8                	addi	a4,sp,328
	...
  f6:	0000                	unimp
  f8:	001c                	0x1c
	RCC->CFGR0 = ( RCC->CFGR0 & ((uint32_t)~(RCC_SW))) | (uint32_t)RCC_SW_PLL; // Select PLL as system clock source
  fa:	0000                	unimp
	while ((RCC->CFGR0 & (uint32_t)RCC_SWS) != (uint32_t)0x08);                // Wait till PLL is used as system clock source
  fc:	0002                	c.slli64	zero
	RCC->CFGR0 = ( RCC->CFGR0 & ((uint32_t)~(RCC_SW))) | (uint32_t)RCC_SW_PLL; // Select PLL as system clock source
  fe:	00003057          	0x3057
 102:	0004                	0x4
 104:	0000                	unimp
	while ((RCC->CFGR0 & (uint32_t)RCC_SWS) != (uint32_t)0x08);                // Wait till PLL is used as system clock source
 106:	0000                	unimp
 108:	00a0                	addi	s0,sp,72
 10a:	0000                	unimp
 10c:	0024                	addi	s1,sp,8
	...

Disassembly of section .debug_ranges:

00000000 <.debug_ranges>:
	asm volatile( "\n\
   0:	0001                	nop
   2:	0000                	unimp
   4:	0001                	nop
   6:	0000                	unimp
   8:	0001                	nop
   a:	0000                	unimp
   c:	0001                	nop
   e:	0000                	unimp
  10:	0001                	nop
  12:	0000                	unimp
  14:	0001                	nop
  16:	0000                	unimp
  18:	0001                	nop
  1a:	0000                	unimp
  1c:	0001                	nop
	...
  26:	0000                	unimp
  28:	0001                	nop
  2a:	0000                	unimp
  2c:	0001                	nop
  2e:	0000                	unimp
  30:	0001                	nop
  32:	0000                	unimp
  34:	0001                	nop
	...
  3e:	0000                	unimp
  40:	00c4                	addi	s1,sp,68
  42:	0000                	unimp
  44:	00c4                	addi	s1,sp,68
  46:	0000                	unimp
  48:	00cc                	addi	a1,sp,68
  4a:	0000                	unimp
  4c:	0112                	slli	sp,sp,0x4
	...
  56:	0000                	unimp
  58:	0394                	addi	a3,sp,448
  5a:	0000                	unimp
  5c:	03b2                	slli	t2,t2,0xc
  5e:	0000                	unimp
  60:	03b2                	slli	t2,t2,0xc
  62:	0000                	unimp
  64:	03fe                	slli	t2,t2,0x1f
  66:	0000                	unimp
  68:	0400                	addi	s0,sp,512
  6a:	0000                	unimp
  6c:	042a                	slli	s0,s0,0xa
	...
  76:	0000                	unimp
  78:	039c                	addi	a5,sp,448
  7a:	0000                	unimp
  7c:	03a4                	addi	s1,sp,456
  7e:	0000                	unimp
  80:	03b2                	slli	t2,t2,0xc
  82:	0000                	unimp
  84:	03ca                	slli	t2,t2,0x12
	...
  8e:	0000                	unimp
  90:	03a4                	addi	s1,sp,456
  92:	0000                	unimp
  94:	03a8                	addi	a0,sp,456
  96:	0000                	unimp
  98:	03ca                	slli	t2,t2,0x12
  9a:	0000                	unimp
  9c:	03ce                	slli	t2,t2,0x13
  9e:	0000                	unimp
  a0:	03d4                	addi	a3,sp,452
  a2:	0000                	unimp
  a4:	03d6                	slli	t2,t2,0x15
  a6:	0000                	unimp
  a8:	03d8                	addi	a4,sp,452
  aa:	0000                	unimp
  ac:	03fa                	slli	t2,t2,0x1e
	...
  b6:	0000                	unimp
  b8:	0400                	addi	s0,sp,512
  ba:	0000                	unimp
  bc:	0402                	c.slli64	s0
  be:	0000                	unimp
  c0:	0406                	slli	s0,s0,0x1
  c2:	0000                	unimp
int main() {
  c4:	0426                	slli	s0,s0,0x9
	...
	RCC->CFGR0 = RCC_HPRE_DIV1 | RCC_PLLSRC_HSI_Mul2;      // PLLCLK = HSI * 2 = 48 MHz; HCLK = SYSCLK = APB1
  ce:	0000                	unimp
	RCC->CTLR  = RCC_HSION | RCC_PLLON | ((HSITRIM) << 3); // Use HSI, but enable PLL.
  d0:	0001                	nop
  d2:	0000                	unimp
	RCC->CFGR0 = RCC_HPRE_DIV1 | RCC_PLLSRC_HSI_Mul2;      // PLLCLK = HSI * 2 = 48 MHz; HCLK = SYSCLK = APB1
  d4:	0001                	nop
  d6:	0000                	unimp
	RCC->CTLR  = RCC_HSION | RCC_PLLON | ((HSITRIM) << 3); // Use HSI, but enable PLL.
  d8:	0001                	nop
  da:	0000                	unimp
  dc:	0001                	nop
	...
	RCC->INTR  = 0x009F0000;                               // Clear PLL, CSSC, HSE, HSI and LSI ready flags.
  e6:	0000                	unimp
  e8:	0001                	nop
  ea:	0000                	unimp
	while((RCC->CTLR & RCC_PLLRDY) == 0);                                      // Wait till PLL is ready
  ec:	0001                	nop
  ee:	0000                	unimp
  f0:	0001                	nop
  f2:	0000                	unimp
  f4:	0001                	nop
	...
	RCC->CFGR0 = ( RCC->CFGR0 & ((uint32_t)~(RCC_SW))) | (uint32_t)RCC_SW_PLL; // Select PLL as system clock source
  fe:	0000                	unimp
 100:	0001                	nop
 102:	0000                	unimp
 104:	0001                	nop
	while ((RCC->CFGR0 & (uint32_t)RCC_SWS) != (uint32_t)0x08);                // Wait till PLL is used as system clock source
 106:	0000                	unimp
 108:	0001                	nop
 10a:	0000                	unimp
 10c:	0001                	nop
 10e:	0000                	unimp
 110:	0001                	nop
	RCC->APB2PCENR |=	RCC_APB2Periph_GPIOA | RCC_APB2Periph_GPIOC |
 112:	0000                	unimp
 114:	0001                	nop
 116:	0000                	unimp
 118:	0001                	nop
 11a:	0000                	unimp
 11c:	0001                	nop
	RCC->APB1PCENR |=	RCC_APB1Periph_TIM2;
 11e:	0000                	unimp
	RCC->APB2PRSTR |=  RCC_APB2Periph_TIM1;
 120:	0001                	nop
 122:	0000                	unimp
	RCC->APB2PRSTR &= ~RCC_APB2Periph_TIM1;
 124:	0001                	nop
	RCC->APB1PCENR |=	RCC_APB1Periph_TIM2;
 126:	0000                	unimp
 128:	0001                	nop
 12a:	0000                	unimp
	RCC->APB2PRSTR |=  RCC_APB2Periph_TIM1;
 12c:	0001                	nop
	GPIOC->CFGLR &= ~(0xf<<(4*4));
 12e:	0000                	unimp
 130:	0001                	nop
 132:	0000                	unimp
	RCC->APB2PRSTR |=  RCC_APB2Periph_TIM1;
 134:	0001                	nop
	...
	GPIOC->CFGLR &= ~(0xf<<(4*2));
 13e:	0000                	unimp
 140:	0001                	nop
	RCC->APB2PRSTR &= ~RCC_APB2Periph_TIM1;
 142:	0000                	unimp
 144:	0001                	nop
	RCC->APB1PRSTR |=  RCC_APB1Periph_TIM2;
 146:	0000                	unimp
	TIM1->PSC = 0x0000;
 148:	0001                	nop
 14a:	0000                	unimp
	TIM1->ATRLR = 255;
 14c:	0001                	nop
 14e:	0000                	unimp
	RCC->APB1PRSTR |=  RCC_APB1Periph_TIM2;
 150:	0001                	nop
 152:	0000                	unimp
 154:	0001                	nop
	RCC->APB1PRSTR &= ~RCC_APB1Periph_TIM2;
 156:	0000                	unimp
	TIM2->CCER |= TIM_CC4E | TIM_CC4P;	// Enable CH2 output, positive pol
 158:	0001                	nop
	RCC->APB1PRSTR &= ~RCC_APB1Periph_TIM2;
 15a:	0000                	unimp
 15c:	0001                	nop
	GPIOC->CFGLR &= ~(0xf<<(4*4));
 15e:	0000                	unimp
 160:	0001                	nop
 162:	0000                	unimp
 164:	0001                	nop
	...
	GPIOC->CFGLR |= (GPIO_Speed_10MHz | GPIO_CNF_OUT_OD_AF)<<(4*GPIO_PinSource4);
 16e:	0000                	unimp
 170:	0001                	nop
	GPIOA->CFGLR &= ~(0xf<<(4*1));
 172:	0000                	unimp
 174:	0001                	nop
	GPIOC->CFGLR |= (GPIO_Speed_10MHz | GPIO_CNF_OUT_OD_AF)<<(4*GPIO_PinSource2);
 176:	0000                	unimp
 178:	0001                	nop
	GPIOA->CFGLR &= ~(0xf<<(4*1));
 17a:	0000                	unimp
 17c:	0001                	nop
	...
	GPIOA->CFGLR |= (GPIO_Speed_10MHz | GPIO_CNF_OUT_OD_AF)<<(4*GPIO_PinSource1);
 186:	0000                	unimp
 188:	0001                	nop
 18a:	0000                	unimp
 18c:	0001                	nop
	GPIOC->CFGLR &= ~(0xf<<(4*2));
 18e:	0000                	unimp
 190:	0001                	nop
 192:	0000                	unimp
 194:	0001                	nop
	GPIOC->CFGLR |= (GPIO_Speed_10MHz | GPIO_CNF_OUT_OD_AF)<<(4*GPIO_PinSource2);
 196:	0000                	unimp
 198:	0001                	nop
 19a:	0000                	unimp
	GPIOC->CFGLR &= ~(0xf<<(4*1));
 19c:	0001                	nop
	...
 1a6:	0000                	unimp
	GPIOC->CFGLR |= (GPIO_Speed_10MHz | GPIO_CNF_OUT_OD_AF)<<(4*GPIO_PinSource1);
 1a8:	0001                	nop
 1aa:	0000                	unimp
 1ac:	0001                	nop
 1ae:	0000                	unimp
	AFIO->PCFR1 |= AFIO_PCFR1_TIM2_REMAP_PARTIALREMAP1;
 1b0:	0001                	nop
 1b2:	0000                	unimp
 1b4:	0001                	nop
	...
	TIM2->PSC = 0x0000;
 1be:	0000                	unimp
 1c0:	0001                	nop
 1c2:	0000                	unimp
	TIM1->ATRLR = 255;
 1c4:	0001                	nop
 1c6:	0000                	unimp
	TIM2->ATRLR = 255;
 1c8:	0001                	nop
 1ca:	0000                	unimp
	TIM1->SWEVGR |= TIM_UG;
 1cc:	0001                	nop
	...
 1d6:	0000                	unimp
 1d8:	0001                	nop
 1da:	0000                	unimp
	TIM2->SWEVGR |= TIM_UG;
 1dc:	0001                	nop
 1de:	0000                	unimp
 1e0:	0001                	nop
 1e2:	0000                	unimp
 1e4:	0001                	nop
 1e6:	0000                	unimp
 1e8:	0001                	nop
 1ea:	0000                	unimp
	TIM2->CTLR1 |= TIM_ARPE;
 1ec:	0001                	nop
 1ee:	0000                	unimp
 1f0:	0001                	nop
 1f2:	0000                	unimp
 1f4:	0001                	nop
	...
	TIM1->CTLR1 |= TIM_ARPE; // unnecessary?
 1fe:	0000                	unimp
 200:	0001                	nop
 202:	0000                	unimp
 204:	0001                	nop
 206:	0000                	unimp
 208:	0001                	nop
 20a:	0000                	unimp
	TIM1->CH1CVR = 128; //T1CH1/PC4/pin7
 20c:	0001                	nop
	...
	TIM1->CH2CVR = 128; //T1CH2/PA1/pin1
 216:	0000                	unimp
	TIM2->CH2CVR = 128; //T2CH2/PC2/pin6*
 218:	04f8                	addi	a4,sp,588
	TIM2->CH4CVR = 128; //T2CH4/PC1/pin5*
 21a:	0000                	unimp
	TIM1->CCER |= TIM_CC1E | TIM_CC1P;	// Enable CH1 output, positive pol
 21c:	0504                	addi	s1,sp,640
 21e:	0000                	unimp
 220:	0508                	addi	a0,sp,640
 222:	0000                	unimp
 224:	0528                	addi	a0,sp,648
 226:	0000                	unimp
 228:	0530                	addi	a2,sp,648
 22a:	0000                	unimp
	TIM1->CCER |= TIM_CC2E | TIM_CC2P;	// Enable CH4 output, positive pol
 22c:	0548                	addi	a0,sp,644
	...
 236:	0000                	unimp
 238:	0504                	addi	s1,sp,640
 23a:	0000                	unimp
	TIM2->CCER |= TIM_CC2E | TIM_CC2P;	// Enable CH1 output, positive pol
 23c:	0508                	addi	a0,sp,640
 23e:	0000                	unimp
 240:	0528                	addi	a0,sp,648
 242:	0000                	unimp
 244:	0530                	addi	a2,sp,648
 246:	0000                	unimp
 248:	0548                	addi	a0,sp,644
 24a:	0000                	unimp
	TIM2->CCER |= TIM_CC4E | TIM_CC4P;	// Enable CH2 output, positive pol
 24c:	0578                	addi	a4,sp,652
	...
 256:	0000                	unimp
 258:	061c                	addi	a5,sp,768
 25a:	0000                	unimp
	TIM1->CHCTLR1 |= TIM_OC1M_2 | TIM_OC1M_1;	// CH1 Mode is output, PWM1 (CC1S = 00, OC1M = 110)
 25c:	068c                	addi	a1,sp,832
 25e:	0000                	unimp
	TIM1->CHCTLR1 |= TIM_OC2M_2 | TIM_OC2M_1;	// CH2 Mode is output, PWM1 (CC1S = 00, OC1M = 110)
 260:	0740                	addi	s0,sp,900
	TIM1->CHCTLR1 |= TIM_OC1M_2 | TIM_OC1M_1;	// CH1 Mode is output, PWM1 (CC1S = 00, OC1M = 110)
 262:	0000                	unimp
 264:	0764                	addi	s1,sp,908
	...
	TIM1->CHCTLR1 |= TIM_OC2M_2 | TIM_OC2M_1;	// CH2 Mode is output, PWM1 (CC1S = 00, OC1M = 110)
 26e:	0000                	unimp
 270:	0638                	addi	a4,sp,776
 272:	0000                	unimp
 274:	0648                	addi	a0,sp,772
 276:	0000                	unimp
 278:	0674                	addi	a3,sp,780
 27a:	0000                	unimp
 27c:	0684                	addi	s1,sp,832
	TIM2->CHCTLR1 |= TIM_OC2M_2 | TIM_OC2M_1 | TIM_OC2PE;
 27e:	0000                	unimp
 280:	0740                	addi	s0,sp,900
 282:	0000                	unimp
 284:	0764                	addi	s1,sp,908
	...
 28e:	0000                	unimp
 290:	0690                	addi	a2,sp,832
 292:	0000                	unimp
 294:	0698                	addi	a4,sp,832
 296:	0000                	unimp
 298:	06c0                	addi	s0,sp,836
 29a:	0000                	unimp
	TIM2->CHCTLR2 |= TIM_OC4M_2 | TIM_OC4M_1 | TIM_OC4PE;
 29c:	06fc                	addi	a5,sp,844
	...
 2a6:	0000                	unimp
 2a8:	0001                	nop
 2aa:	0000                	unimp
 2ac:	0001                	nop
 2ae:	0000                	unimp
 2b0:	0001                	nop
	TIM1->BDTR  |= TIM_MOE;	// Brake and deadband registers
 2b2:	0000                	unimp
 2b4:	0001                	nop
 2b6:	0000                	unimp
 2b8:	0001                	nop
 2ba:	0000                	unimp
 2bc:	0001                	nop
 2be:	0000                	unimp
 2c0:	00c4                	addi	s1,sp,68
	TIM1->CTLR1 |= TIM_CEN;	// Enable TIM1
 2c2:	0000                	unimp
 2c4:	042c                	addi	a1,sp,520
 2c6:	0000                	unimp
 2c8:	0001                	nop
 2ca:	0000                	unimp
 2cc:	0001                	nop
 2ce:	0000                	unimp
 2d0:	0001                	nop
	TIM2->CTLR1 |= TIM_CEN;	// Enable TIM2
 2d2:	0000                	unimp
 2d4:	0001                	nop
 2d6:	0000                	unimp
 2d8:	042c                	addi	a1,sp,520
 2da:	0000                	unimp
 2dc:	04aa                	slli	s1,s1,0xa
 2de:	0000                	unimp
 2e0:	04aa                	slli	s1,s1,0xa
	SysTick->CTLR = 0;
 2e2:	0000                	unimp
 2e4:	04ac                	addi	a1,sp,584
 2e6:	0000                	unimp
 2e8:	0001                	nop
 2ea:	0000                	unimp
 2ec:	0001                	nop
 2ee:	0000                	unimp
 2f0:	0001                	nop
	SysTick->CMP = (SYSTEM_CORE_CLOCK/8/SYSTICKHZ)-1;
 2f2:	0000                	unimp
 2f4:	0001                	nop
 2f6:	0000                	unimp
	SysTick->CNT = 0;
 2f8:	0001                	nop
 2fa:	0000                	unimp
	SysTick->CTLR = SYSTICK_CTLR_STE | SYSTICK_CTLR_STIE |
 2fc:	0001                	nop
 2fe:	0000                	unimp
	RCC->CFGR0 &= ~(0x1F<<11);
 300:	0001                	nop
 302:	0000                	unimp
 304:	0001                	nop
 306:	0000                	unimp
 308:	0001                	nop
 30a:	0000                	unimp
	RCC->APB2PCENR |= RCC_APB2Periph_GPIOA | RCC_APB2Periph_ADC1;
 30c:	0001                	nop
 30e:	0000                	unimp
 310:	0001                	nop
 312:	0000                	unimp
	GPIOA->CFGLR &= ~(0xf<<(4*GPIO_PinSource2));	// CNF = 00: Analog, MODE = 00: Input
 314:	0001                	nop
 316:	0000                	unimp
 318:	0001                	nop
 31a:	0000                	unimp
 31c:	0001                	nop
 31e:	0000                	unimp
	RCC->APB2PRSTR |= RCC_APB2Periph_ADC1;
 320:	0001                	nop
	ADC1->CTLR2 |= ADC_ADON | ADC_EXTSEL;
 322:	0000                	unimp
 324:	0001                	nop
 326:	0000                	unimp
	RCC->APB2PRSTR |= RCC_APB2Periph_ADC1;
 328:	0001                	nop
 32a:	0000                	unimp
 32c:	0001                	nop
	RCC->APB2PRSTR &= ~RCC_APB2Periph_ADC1;
 32e:	0000                	unimp
 330:	0001                	nop
 332:	0000                	unimp
 334:	0001                	nop
	ADC1->RSQR1 = 0;
 336:	0000                	unimp
 338:	0001                	nop
 33a:	0000                	unimp
 33c:	0001                	nop
	ADC1->RSQR2 = 0;
 33e:	0000                	unimp
 340:	0001                	nop
	ADC1->RSQR3 = ADC_Channel_0;	// 0-9 for 8 ext inputs and two internals
 342:	0000                	unimp
 344:	0001                	nop
	ADC1->SAMPTR2 &= ~ADC_SMP2;
 346:	0000                	unimp
 348:	0001                	nop
 34a:	0000                	unimp
 34c:	0001                	nop
 34e:	0000                	unimp
 350:	0001                	nop
	ADC1->SAMPTR2 |= ( ADC_SampleTime_3Cycles << (3 * ADC_Channel_0 ) );	// 0:7 => 3/9/15/30/43/57/73/241 cycles
 352:	0000                	unimp
 354:	0001                	nop
 356:	0000                	unimp
 358:	0001                	nop
	ADC1->CTLR2 |= ADC_ADON | ADC_EXTSEL;
 35a:	0000                	unimp
 35c:	0001                	nop
 35e:	0000                	unimp
 360:	0001                	nop
 362:	0000                	unimp
	ADC1->CTLR2 |= ADC_RSTCAL;
 364:	0001                	nop
 366:	0000                	unimp
	while(ADC1->CTLR2 & ADC_RSTCAL);
 368:	0001                	nop
 36a:	0000                	unimp
	ADC1->CTLR2 |= ADC_RSTCAL;
 36c:	0001                	nop
 36e:	0000                	unimp
 370:	0000                	unimp
 372:	0000                	unimp
	while(ADC1->CTLR2 & ADC_RSTCAL);
 374:	009c                	addi	a5,sp,64
 376:	0000                	unimp
 378:	0001                	nop
 37a:	0000                	unimp
	ADC1->CTLR2 |= ADC_CAL;
 37c:	0001                	nop
 37e:	0000                	unimp
 380:	04ac                	addi	a1,sp,584
 382:	0000                	unimp
 384:	0764                	addi	s1,sp,908
	...

Disassembly of section .debug_line:

00000000 <.debug_line>:
	asm volatile( "\n\
       0:	000027af          	amoadd.w	a5,zero,(zero)
       4:	005d0003          	lb	zero,5(s10)
       8:	0000                	unimp
       a:	0101                	addi	sp,sp,0
       c:	000d0efb          	0xd0efb
      10:	0101                	addi	sp,sp,0
      12:	0101                	addi	sp,sp,0
      14:	0000                	unimp
      16:	0100                	addi	s0,sp,128
      18:	0000                	unimp
      1a:	6301                	0x6301
      1c:	3368                	fld	fa0,224(a4)
      1e:	7632                	flw	fa2,44(sp)
      20:	3030                	fld	fa2,96(s0)
      22:	6e756633          	0x6e756633
      26:	0000                	unimp
      28:	32336863          	bltu	t1,gp,358 <main+0x294>
      2c:	3076                	fld	ft0,376(sp)
      2e:	3330                	fld	fa2,96(a4)
      30:	7566                	flw	fa0,120(sp)
      32:	2e6e                	fld	ft8,216(sp)
      34:	00010063          	beqz	sp,34 <InterruptVector+0x34>
      38:	6d00                	flw	fs0,24(a0)
      3a:	6961                	lui	s2,0x18
      3c:	2d6e                	fld	fs10,216(sp)
      3e:	7770                	flw	fa2,108(a4)
      40:	2e6d                	jal	3fa <main+0x336>
      42:	00000063          	beqz	zero,42 <InterruptVector+0x42>
      46:	6300                	flw	fs0,0(a4)
      48:	3368                	fld	fa0,224(a4)
      4a:	7632                	flw	fa2,44(sp)
      4c:	3030                	fld	fa2,96(s0)
      4e:	6e756633          	0x6e756633
      52:	682e                	flw	fa6,200(sp)
      54:	0100                	addi	s0,sp,128
      56:	0000                	unimp
      58:	623c                	flw	fa5,64(a2)
      5a:	6975                	lui	s2,0x1d
      5c:	746c                	flw	fa1,108(s0)
      5e:	692d                	lui	s2,0xb
      60:	3e6e                	fld	ft8,248(sp)
      62:	0000                	unimp
      64:	0000                	unimp
      66:	0500                	addi	s0,sp,640
      68:	0001                	nop
      6a:	0205                	addi	tp,tp,1
      6c:	0000                	unimp
      6e:	0000                	unimp
      70:	0103d703          	lhu	a4,16(t2) # 10 <InterruptVector+0x10>
      74:	0205                	addi	tp,tp,1
      76:	00090103          	lb	sp,0(s2) # b000 <wiring.c.7604182b+0x8667>
      7a:	0100                	addi	s0,sp,128
      7c:	0105                	addi	sp,sp,1
      7e:	0306                	slli	t1,t1,0x1
      80:	097f                	0x97f
      82:	0000                	unimp
      84:	0501                	addi	a0,a0,0
      86:	0304                	addi	s1,sp,384
      88:	0901                	addi	s2,s2,0
      8a:	0000                	unimp
      8c:	0501                	addi	a0,a0,0
      8e:	0602                	c.slli64	a2
      90:	00090103          	lb	sp,0(s2)
      94:	0100                	addi	s0,sp,128
      96:	00090103          	lb	sp,0(s2)
      9a:	0100                	addi	s0,sp,128
      9c:	0905                	addi	s2,s2,1
      9e:	0306                	slli	t1,t1,0x1
      a0:	0900                	addi	s0,sp,144
      a2:	0000                	unimp
      a4:	0501                	addi	a0,a0,0
      a6:	0602                	c.slli64	a2
      a8:	00090103          	lb	sp,0(s2)
      ac:	0100                	addi	s0,sp,128
      ae:	00090203          	lb	tp,0(s2)
      b2:	0100                	addi	s0,sp,128
      b4:	0905                	addi	s2,s2,1
      b6:	0306                	slli	t1,t1,0x1
      b8:	0900                	addi	s0,sp,144
      ba:	0000                	unimp
      bc:	0501                	addi	a0,a0,0
      be:	000e                	c.slli	zero,0x3
      c0:	0402                	c.slli64	s0
      c2:	0601                	addi	a2,a2,0
int main() {
      c4:	00090003          	lb	zero,0(s2)
      c8:	0100                	addi	s0,sp,128
      ca:	0705                	addi	a4,a4,1
	RCC->CFGR0 = RCC_HPRE_DIV1 | RCC_PLLSRC_HSI_Mul2;      // PLLCLK = HSI * 2 = 48 MHz; HCLK = SYSCLK = APB1
      cc:	0200                	addi	s0,sp,256
      ce:	0104                	addi	s1,sp,128
	RCC->CTLR  = RCC_HSION | RCC_PLLON | ((HSITRIM) << 3); // Use HSI, but enable PLL.
      d0:	0306                	slli	t1,t1,0x1
      d2:	0901                	addi	s2,s2,0
	RCC->CFGR0 = RCC_HPRE_DIV1 | RCC_PLLSRC_HSI_Mul2;      // PLLCLK = HSI * 2 = 48 MHz; HCLK = SYSCLK = APB1
      d4:	0000                	unimp
      d6:	0501                	addi	a0,a0,0
	RCC->CTLR  = RCC_HSION | RCC_PLLON | ((HSITRIM) << 3); // Use HSI, but enable PLL.
      d8:	0002                	c.slli64	zero
      da:	0402                	c.slli64	s0
      dc:	0301                	addi	t1,t1,0
	FLASH->ACTLR = FLASH_ACTLR_LATENCY_1;                  // 1 Cycle Latency
      de:	097f                	0x97f
      e0:	0000                	unimp
      e2:	0601                	addi	a2,a2,0
      e4:	00090603          	lb	a2,0(s2)
	RCC->INTR  = 0x009F0000;                               // Clear PLL, CSSC, HSE, HSI and LSI ready flags.
      e8:	0100                	addi	s0,sp,128
      ea:	1005                	c.nop	-31
	while((RCC->CTLR & RCC_PLLRDY) == 0);                                      // Wait till PLL is ready
      ec:	0306                	slli	t1,t1,0x1
      ee:	0900                	addi	s0,sp,144
      f0:	0000                	unimp
      f2:	0501                	addi	a0,a0,0
      f4:	0602                	c.slli64	a2
      f6:	00090103          	lb	sp,0(s2)
	RCC->CFGR0 = ( RCC->CFGR0 & ((uint32_t)~(RCC_SW))) | (uint32_t)RCC_SW_PLL; // Select PLL as system clock source
      fa:	0100                	addi	s0,sp,128
	while ((RCC->CFGR0 & (uint32_t)RCC_SWS) != (uint32_t)0x08);                // Wait till PLL is used as system clock source
      fc:	1405                	addi	s0,s0,-31
	RCC->CFGR0 = ( RCC->CFGR0 & ((uint32_t)~(RCC_SW))) | (uint32_t)RCC_SW_PLL; // Select PLL as system clock source
      fe:	0306                	slli	t1,t1,0x1
     100:	0900                	addi	s0,sp,144
     102:	0000                	unimp
     104:	0501                	addi	a0,a0,0
	while ((RCC->CFGR0 & (uint32_t)RCC_SWS) != (uint32_t)0x08);                // Wait till PLL is used as system clock source
     106:	0301                	addi	t1,t1,0
     108:	0901                	addi	s2,s2,0
     10a:	0000                	unimp
     10c:	0501                	addi	a0,a0,0
     10e:	79030603          	lb	a2,1936(t1)
	RCC->APB2PCENR |=	RCC_APB2Periph_GPIOA | RCC_APB2Periph_GPIOC |
     112:	0009                	c.nop	2
     114:	0100                	addi	s0,sp,128
     116:	2e05                	jal	446 <handle_reset+0x1a>
     118:	0306                	slli	t1,t1,0x1
     11a:	0900                	addi	s0,sp,144
     11c:	0000                	unimp
	RCC->APB1PCENR |=	RCC_APB1Periph_TIM2;
     11e:	0501                	addi	a0,a0,0
	RCC->APB2PRSTR |=  RCC_APB2Periph_TIM1;
     120:	0305                	addi	t1,t1,1
     122:	0900                	addi	s0,sp,144
	RCC->APB2PRSTR &= ~RCC_APB2Periph_TIM1;
     124:	0000                	unimp
	RCC->APB1PCENR |=	RCC_APB1Periph_TIM2;
     126:	0501                	addi	a0,a0,0
     128:	04020003          	lb	zero,64(tp) # 40 <InterruptVector+0x40>
	RCC->APB2PRSTR |=  RCC_APB2Periph_TIM1;
     12c:	0602                	c.slli64	a2
	GPIOC->CFGLR &= ~(0xf<<(4*4));
     12e:	00090303          	lb	t1,0(s2)
     132:	0100                	addi	s0,sp,128
	RCC->APB2PRSTR |=  RCC_APB2Periph_TIM1;
     134:	1005                	c.nop	-31
     136:	0200                	addi	s0,sp,256
	RCC->APB2PRSTR &= ~RCC_APB2Periph_TIM1;
     138:	0204                	addi	s1,sp,256
     13a:	0306                	slli	t1,t1,0x1
     13c:	0900                	addi	s0,sp,144
	GPIOC->CFGLR &= ~(0xf<<(4*2));
     13e:	0000                	unimp
     140:	0501                	addi	a0,a0,0
	RCC->APB2PRSTR &= ~RCC_APB2Periph_TIM1;
     142:	04020017          	auipc	zero,0x4020
	RCC->APB1PRSTR |=  RCC_APB1Periph_TIM2;
     146:	0302                	c.slli64	t1
	TIM1->PSC = 0x0000;
     148:	0900                	addi	s0,sp,144
     14a:	0000                	unimp
	TIM1->ATRLR = 255;
     14c:	0501                	addi	a0,a0,0
     14e:	0018                	0x18
	RCC->APB1PRSTR |=  RCC_APB1Periph_TIM2;
     150:	0402                	c.slli64	s0
     152:	0302                	c.slli64	t1
     154:	097c                	addi	a5,sp,156
	RCC->APB1PRSTR &= ~RCC_APB1Periph_TIM2;
     156:	0000                	unimp
	TIM2->CCER |= TIM_CC4E | TIM_CC4P;	// Enable CH2 output, positive pol
     158:	0501                	addi	a0,a0,0
	RCC->APB1PRSTR &= ~RCC_APB1Periph_TIM2;
     15a:	0014                	0x14
     15c:	0402                	c.slli64	s0
	GPIOC->CFGLR &= ~(0xf<<(4*4));
     15e:	0302                	c.slli64	t1
     160:	0904                	addi	s1,sp,144
     162:	0000                	unimp
     164:	0501                	addi	a0,a0,0
     166:	04020017          	auipc	zero,0x4020
	GPIOC->CFGLR |= (GPIO_Speed_10MHz | GPIO_CNF_OUT_OD_AF)<<(4*GPIO_PinSource4);
     16a:	0602                	c.slli64	a2
     16c:	00097c03          	0x97c03
     170:	0100                	addi	s0,sp,128
	GPIOA->CFGLR &= ~(0xf<<(4*1));
     172:	0009                	c.nop	2
     174:	0000                	unimp
	GPIOC->CFGLR |= (GPIO_Speed_10MHz | GPIO_CNF_OUT_OD_AF)<<(4*GPIO_PinSource2);
     176:	0101                	addi	sp,sp,0
     178:	0105                	addi	sp,sp,1
	GPIOA->CFGLR &= ~(0xf<<(4*1));
     17a:	0500                	addi	s0,sp,640
     17c:	0002                	c.slli64	zero
     17e:	0000                	unimp
     180:	0300                	addi	s0,sp,384
	GPIOA->CFGLR |= (GPIO_Speed_10MHz | GPIO_CNF_OUT_OD_AF)<<(4*GPIO_PinSource1);
     182:	03b8                	addi	a4,sp,456
     184:	0501                	addi	a0,a0,0
     186:	0302                	c.slli64	t1
     188:	0901                	addi	s2,s2,0
     18a:	0000                	unimp
     18c:	0301                	addi	t1,t1,0
	GPIOC->CFGLR &= ~(0xf<<(4*2));
     18e:	0901                	addi	s2,s2,0
     190:	0000                	unimp
     192:	0301                	addi	t1,t1,0
     194:	0901                	addi	s2,s2,0
	GPIOC->CFGLR |= (GPIO_Speed_10MHz | GPIO_CNF_OUT_OD_AF)<<(4*GPIO_PinSource2);
     196:	0000                	unimp
     198:	0301                	addi	t1,t1,0
     19a:	0901                	addi	s2,s2,0
	GPIOC->CFGLR &= ~(0xf<<(4*1));
     19c:	0000                	unimp
	AFIO->PCFR1 |= AFIO_PCFR1_TIM2_REMAP_PARTIALREMAP1;
     19e:	0501                	addi	a0,a0,0
     1a0:	0601                	addi	a2,a2,0
	GPIOC->CFGLR &= ~(0xf<<(4*1));
     1a2:	00097c03          	0x97c03
     1a6:	0100                	addi	s0,sp,128
	GPIOC->CFGLR |= (GPIO_Speed_10MHz | GPIO_CNF_OUT_OD_AF)<<(4*GPIO_PinSource1);
     1a8:	00090003          	lb	zero,0(s2)
     1ac:	0100                	addi	s0,sp,128
     1ae:	0605                	addi	a2,a2,1
	AFIO->PCFR1 |= AFIO_PCFR1_TIM2_REMAP_PARTIALREMAP1;
     1b0:	00090203          	lb	tp,0(s2)
     1b4:	0100                	addi	s0,sp,128
     1b6:	0405                	addi	s0,s0,1
	TIM1->PSC = 0x0000;
     1b8:	00090203          	lb	tp,0(s2)
	TIM2->PSC = 0x0000;
     1bc:	0100                	addi	s0,sp,128
     1be:	0205                	addi	tp,tp,1
     1c0:	0306                	slli	t1,t1,0x1
     1c2:	0901                	addi	s2,s2,0
	TIM1->ATRLR = 255;
     1c4:	0000                	unimp
     1c6:	0501                	addi	a0,a0,0
	TIM2->ATRLR = 255;
     1c8:	0604                	addi	s1,sp,768
     1ca:	00090003          	lb	zero,0(s2)
	TIM1->SWEVGR |= TIM_UG;
     1ce:	0100                	addi	s0,sp,128
     1d0:	0c05                	addi	s8,s8,1
     1d2:	00090203          	lb	tp,0(s2)
     1d6:	0100                	addi	s0,sp,128
     1d8:	0205                	addi	tp,tp,1
     1da:	0306                	slli	t1,t1,0x1
	TIM2->SWEVGR |= TIM_UG;
     1dc:	0902                	c.slli64	s2
     1de:	0000                	unimp
     1e0:	0501                	addi	a0,a0,0
     1e2:	0608                	addi	a0,sp,768
     1e4:	00090003          	lb	zero,0(s2)
     1e8:	0100                	addi	s0,sp,128
     1ea:	1005                	c.nop	-31
	TIM2->CTLR1 |= TIM_ARPE;
     1ec:	00090103          	lb	sp,0(s2)
     1f0:	0100                	addi	s0,sp,128
     1f2:	0f05                	addi	t5,t5,1
     1f4:	0200                	addi	s0,sp,256
     1f6:	0104                	addi	s1,sp,128
     1f8:	0306                	slli	t1,t1,0x1
     1fa:	0902                	c.slli64	s2
	TIM1->CTLR1 |= TIM_ARPE; // unnecessary?
     1fc:	0000                	unimp
     1fe:	0501                	addi	a0,a0,0
     200:	0002                	c.slli64	zero
     202:	0402                	c.slli64	s0
     204:	0601                	addi	a2,a2,0
     206:	00090003          	lb	zero,0(s2)
     20a:	0100                	addi	s0,sp,128
	TIM1->CH1CVR = 128; //T1CH1/PC4/pin7
     20c:	0306                	slli	t1,t1,0x1
     20e:	00000903          	lb	s2,0(zero) # 0 <InterruptVector>
     212:	0501                	addi	a0,a0,0
	TIM1->CH2CVR = 128; //T1CH2/PA1/pin1
     214:	0606                	slli	a2,a2,0x1
     216:	00090003          	lb	zero,0(s2)
	TIM2->CH4CVR = 128; //T2CH4/PC1/pin5*
     21a:	0100                	addi	s0,sp,128
	TIM1->CCER |= TIM_CC1E | TIM_CC1P;	// Enable CH1 output, positive pol
     21c:	0205                	addi	tp,tp,1
     21e:	0306                	slli	t1,t1,0x1
     220:	0901                	addi	s2,s2,0
     222:	0000                	unimp
     224:	0501                	addi	a0,a0,0
     226:	0604                	addi	s1,sp,768
     228:	00090003          	lb	zero,0(s2)
	TIM1->CCER |= TIM_CC2E | TIM_CC2P;	// Enable CH4 output, positive pol
     22c:	0100                	addi	s0,sp,128
     22e:	1505                	addi	a0,a0,-31
     230:	00090103          	lb	sp,0(s2)
     234:	0100                	addi	s0,sp,128
     236:	0405                	addi	s0,s0,1
     238:	0306                	slli	t1,t1,0x1
     23a:	0901                	addi	s2,s2,0
	TIM2->CCER |= TIM_CC2E | TIM_CC2P;	// Enable CH1 output, positive pol
     23c:	0000                	unimp
     23e:	0501                	addi	a0,a0,0
     240:	0615                	addi	a2,a2,5
     242:	00090003          	lb	zero,0(s2)
     246:	0100                	addi	s0,sp,128
     248:	2a05                	jal	378 <main+0x2b4>
     24a:	0306                	slli	t1,t1,0x1
	TIM2->CCER |= TIM_CC4E | TIM_CC4P;	// Enable CH2 output, positive pol
     24c:	097f                	0x97f
     24e:	0000                	unimp
     250:	0501                	addi	a0,a0,0
     252:	0900030f          	0x900030f
     256:	0000                	unimp
     258:	0501                	addi	a0,a0,0
     25a:	060d                	addi	a2,a2,3
	TIM1->CHCTLR1 |= TIM_OC1M_2 | TIM_OC1M_1;	// CH1 Mode is output, PWM1 (CC1S = 00, OC1M = 110)
     25c:	00090103          	lb	sp,0(s2)
	TIM1->CHCTLR1 |= TIM_OC2M_2 | TIM_OC2M_1;	// CH2 Mode is output, PWM1 (CC1S = 00, OC1M = 110)
     260:	0100                	addi	s0,sp,128
	TIM1->CHCTLR1 |= TIM_OC1M_2 | TIM_OC1M_1;	// CH1 Mode is output, PWM1 (CC1S = 00, OC1M = 110)
     262:	1505                	addi	a0,a0,-31
     264:	00097f03          	0x97f03
     268:	0100                	addi	s0,sp,128
     26a:	0405                	addi	s0,s0,1
     26c:	0306                	slli	t1,t1,0x1
	TIM1->CHCTLR1 |= TIM_OC2M_2 | TIM_OC2M_1;	// CH2 Mode is output, PWM1 (CC1S = 00, OC1M = 110)
     26e:	0901                	addi	s2,s2,0
     270:	0000                	unimp
     272:	0501                	addi	a0,a0,0
     274:	0615                	addi	a2,a2,5
     276:	00090003          	lb	zero,0(s2)
     27a:	0100                	addi	s0,sp,128
     27c:	2a05                	jal	3ac <main+0x2e8>
	TIM2->CHCTLR1 |= TIM_OC2M_2 | TIM_OC2M_1 | TIM_OC2PE;
     27e:	0306                	slli	t1,t1,0x1
     280:	097f                	0x97f
     282:	0000                	unimp
     284:	0501                	addi	a0,a0,0
     286:	0900030f          	0x900030f
     28a:	0000                	unimp
     28c:	0501                	addi	a0,a0,0
     28e:	060d                	addi	a2,a2,3
     290:	00090103          	lb	sp,0(s2)
     294:	0100                	addi	s0,sp,128
     296:	1505                	addi	a0,a0,-31
     298:	00097f03          	0x97f03
	TIM2->CHCTLR2 |= TIM_OC4M_2 | TIM_OC4M_1 | TIM_OC4PE;
     29c:	0100                	addi	s0,sp,128
     29e:	0405                	addi	s0,s0,1
	TIM1->BDTR  |= TIM_MOE;	// Brake and deadband registers
     2a0:	0200                	addi	s0,sp,256
	TIM2->CHCTLR2 |= TIM_OC4M_2 | TIM_OC4M_1 | TIM_OC4PE;
     2a2:	0404                	addi	s1,sp,512
     2a4:	0306                	slli	t1,t1,0x1
     2a6:	0901                	addi	s2,s2,0
     2a8:	0000                	unimp
     2aa:	0501                	addi	a0,a0,0
     2ac:	0015                	c.nop	5
     2ae:	0402                	c.slli64	s0
     2b0:	0604                	addi	s1,sp,768
	TIM1->BDTR  |= TIM_MOE;	// Brake and deadband registers
     2b2:	00090003          	lb	zero,0(s2)
     2b6:	0100                	addi	s0,sp,128
     2b8:	2a05                	jal	3e8 <main+0x324>
     2ba:	0200                	addi	s0,sp,256
     2bc:	0404                	addi	s1,sp,512
     2be:	0306                	slli	t1,t1,0x1
     2c0:	097f                	0x97f
	TIM1->CTLR1 |= TIM_CEN;	// Enable TIM1
     2c2:	0000                	unimp
     2c4:	0501                	addi	a0,a0,0
     2c6:	0402000f          	0x402000f
     2ca:	0304                	addi	s1,sp,384
     2cc:	0900                	addi	s0,sp,144
     2ce:	0000                	unimp
     2d0:	0501                	addi	a0,a0,0
	TIM2->CTLR1 |= TIM_CEN;	// Enable TIM2
     2d2:	0601                	addi	a2,a2,0
     2d4:	00090503          	lb	a0,0(s2)
     2d8:	0100                	addi	s0,sp,128
     2da:	0405                	addi	s0,s0,1
     2dc:	00096e03          	0x96e03
     2e0:	0100                	addi	s0,sp,128
	SysTick->CTLR = 0;
     2e2:	0305                	addi	t1,t1,1
     2e4:	0200                	addi	s0,sp,256
     2e6:	0304                	addi	s1,sp,384
     2e8:	0306                	slli	t1,t1,0x1
     2ea:	0909                	addi	s2,s2,2
     2ec:	0000                	unimp
     2ee:	0501                	addi	a0,a0,0
     2f0:	0012                	c.slli	zero,0x4
	SysTick->CMP = (SYSTEM_CORE_CLOCK/8/SYSTICKHZ)-1;
     2f2:	0402                	c.slli64	s0
     2f4:	00030603          	lb	a2,0(t1)
	SysTick->CNT = 0;
     2f8:	0009                	c.nop	2
     2fa:	0100                	addi	s0,sp,128
	SysTick->CTLR = SYSTICK_CTLR_STE | SYSTICK_CTLR_STIE |
     2fc:	1005                	c.nop	-31
     2fe:	0200                	addi	s0,sp,256
	RCC->CFGR0 &= ~(0x1F<<11);
     300:	0304                	addi	s1,sp,384
     302:	00090003          	lb	zero,0(s2)
     306:	0100                	addi	s0,sp,128
     308:	1605                	addi	a2,a2,-31
     30a:	0200                	addi	s0,sp,256
	RCC->APB2PCENR |= RCC_APB2Periph_GPIOA | RCC_APB2Periph_ADC1;
     30c:	0304                	addi	s1,sp,384
     30e:	0306                	slli	t1,t1,0x1
     310:	097f                	0x97f
     312:	0000                	unimp
	GPIOA->CFGLR &= ~(0xf<<(4*GPIO_PinSource2));	// CNF = 00: Analog, MODE = 00: Input
     314:	0901                	addi	s2,s2,0
     316:	0000                	unimp
     318:	0100                	addi	s0,sp,128
     31a:	0501                	addi	a0,a0,0
     31c:	0001                	nop
     31e:	0205                	addi	tp,tp,1
	RCC->APB2PRSTR |= RCC_APB2Periph_ADC1;
     320:	0000                	unimp
	ADC1->CTLR2 |= ADC_ADON | ADC_EXTSEL;
     322:	0000                	unimp
     324:	01038e03          	lb	t3,16(t2)
	RCC->APB2PRSTR |= RCC_APB2Periph_ADC1;
     328:	0205                	addi	tp,tp,1
     32a:	00090b03          	lb	s6,0(s2)
	RCC->APB2PRSTR &= ~RCC_APB2Periph_ADC1;
     32e:	0100                	addi	s0,sp,128
     330:	0105                	addi	sp,sp,1
     332:	0306                	slli	t1,t1,0x1
     334:	0975                	addi	s2,s2,29
	ADC1->RSQR1 = 0;
     336:	0000                	unimp
     338:	0501                	addi	a0,a0,0
     33a:	0306                	slli	t1,t1,0x1
     33c:	0904                	addi	s1,sp,144
	ADC1->RSQR2 = 0;
     33e:	0000                	unimp
     340:	0501                	addi	a0,a0,0
	ADC1->RSQR3 = ADC_Channel_0;	// 0-9 for 8 ext inputs and two internals
     342:	0301                	addi	t1,t1,0
     344:	097c                	addi	a5,sp,156
	ADC1->SAMPTR2 &= ~ADC_SMP2;
     346:	0000                	unimp
     348:	0501                	addi	a0,a0,0
     34a:	0305                	addi	t1,t1,1
     34c:	0000090b          	0x90b
     350:	0501                	addi	a0,a0,0
	ADC1->SAMPTR2 |= ( ADC_SampleTime_3Cycles << (3 * ADC_Channel_0 ) );	// 0:7 => 3/9/15/30/43/57/73/241 cycles
     352:	0310                	addi	a2,sp,384
     354:	0900                	addi	s0,sp,144
     356:	0000                	unimp
     358:	0501                	addi	a0,a0,0
	ADC1->CTLR2 |= ADC_ADON | ADC_EXTSEL;
     35a:	01030603          	lb	a2,16(t1)
     35e:	0009                	c.nop	2
     360:	0100                	addi	s0,sp,128
     362:	00090103          	lb	sp,0(s2)
	ADC1->CTLR2 |= ADC_RSTCAL;
     366:	0100                	addi	s0,sp,128
	while(ADC1->CTLR2 & ADC_RSTCAL);
     368:	0c05                	addi	s8,s8,1
     36a:	0306                	slli	t1,t1,0x1
	ADC1->CTLR2 |= ADC_RSTCAL;
     36c:	097f                	0x97f
     36e:	0000                	unimp
     370:	0501                	addi	a0,a0,0
     372:	0309                	addi	t1,t1,2
	while(ADC1->CTLR2 & ADC_RSTCAL);
     374:	0901                	addi	s2,s2,0
     376:	0000                	unimp
     378:	0501                	addi	a0,a0,0
     37a:	030c                	addi	a1,sp,384
	ADC1->CTLR2 |= ADC_CAL;
     37c:	097f                	0x97f
     37e:	0000                	unimp
     380:	0501                	addi	a0,a0,0
     382:	0306                	slli	t1,t1,0x1
     384:	0978                	addi	a4,sp,156
     386:	0000                	unimp
	while(ADC1->CTLR2 & ADC_CAL);
     388:	0501                	addi	a0,a0,0
     38a:	0310                	addi	a2,sp,384
     38c:	0000090f          	0x90f
     390:	0501                	addi	a0,a0,0
     392:	0315                	addi	t1,t1,5
		Delay_Ms(( Delay >> 3 ) + 5 );
     394:	097f                	0x97f
     396:	0000                	unimp
		int temp=LEDs[0].brightness;
     398:	0501                	addi	a0,a0,0
     39a:	0602                	c.slli64	a2
	ADC1->CTLR2 |= ADC_SWSTART;
     39c:	00097f03          	0x97f03
     3a0:	0100                	addi	s0,sp,128
     3a2:	0305                	addi	t1,t1,1
	uint32_t targend = SysTick->CNT + n;
     3a4:	00090103          	lb	sp,0(s2)
		Delay_Ms(( Delay >> 3 ) + 5 );
     3a8:	0100                	addi	s0,sp,128
     3aa:	1505                	addi	a0,a0,-31
     3ac:	0306                	slli	t1,t1,0x1
		int temp=LEDs[0].brightness;
     3ae:	0900                	addi	s0,sp,144
     3b0:	0000                	unimp
	ADC1->CTLR2 |= ADC_SWSTART;
     3b2:	0501                	addi	a0,a0,0
     3b4:	01030603          	lb	a2,16(t1)
     3b8:	0009                	c.nop	2
     3ba:	0100                	addi	s0,sp,128
     3bc:	1005                	c.nop	-31
	while(!(ADC1->STATR & ADC_EOC));
     3be:	0306                	slli	t1,t1,0x1
     3c0:	0900                	addi	s0,sp,144
     3c2:	0000                	unimp
     3c4:	0501                	addi	a0,a0,0
	return ADC1->RDATAR;
     3c6:	0324                	addi	s1,sp,392
     3c8:	0900                	addi	s0,sp,144
     3ca:	0000                	unimp
     3cc:	0501                	addi	a0,a0,0
		Delay_Ms(( Delay >> 3 ) + 5 );
     3ce:	0310                	addi	a2,sp,384
     3d0:	0900                	addi	s0,sp,144
     3d2:	0000                	unimp
     3d4:	0501                	addi	a0,a0,0
     3d6:	030c                	addi	a1,sp,384
     3d8:	0900                	addi	s0,sp,144
     3da:	0000                	unimp
     3dc:	0501                	addi	a0,a0,0
     3de:	0310                	addi	a2,sp,384
     3e0:	0900                	addi	s0,sp,144
     3e2:	0000                	unimp
     3e4:	0501                	addi	a0,a0,0
     3e6:	0309                	addi	t1,t1,2
     3e8:	0901                	addi	s2,s2,0
     3ea:	0000                	unimp
     3ec:	0501                	addi	a0,a0,0
     3ee:	0310                	addi	a2,sp,384
	while( ((int32_t)( SysTick->CNT - targend )) < 0 );
     3f0:	097f                	0x97f
     3f2:	0000                	unimp
     3f4:	0501                	addi	a0,a0,0
     3f6:	01030603          	lb	a2,16(t1)
		int temp=LEDs[0].brightness;
     3fa:	0009                	c.nop	2
     3fc:	0100                	addi	s0,sp,128
		for(int i=1; i<12; i++){
     3fe:	0905                	addi	s2,s2,1
     400:	0306                	slli	t1,t1,0x1
		int temp=LEDs[0].brightness;
     402:	0900                	addi	s0,sp,144
     404:	0000                	unimp
			LEDs[i-1].brightness=LEDs[i].brightness;
     406:	0501                	addi	a0,a0,0
     408:	0302                	c.slli64	t1
     40a:	0901                	addi	s2,s2,0
     40c:	0000                	unimp
     40e:	0501                	addi	a0,a0,0
     410:	0309                	addi	t1,t1,2
     412:	097f                	0x97f
     414:	0000                	unimp
     416:	0501                	addi	a0,a0,0
     418:	060a                	slli	a2,a2,0x2
     41a:	00090103          	lb	sp,0(s2)
     41e:	0100                	addi	s0,sp,128
		for(int i=1; i<12; i++){
     420:	0205                	addi	tp,tp,1
     422:	0306                	slli	t1,t1,0x1
     424:	0900                	addi	s0,sp,144
		LEDs[11].brightness=temp;
     426:	0000                	unimp
     428:	0601                	addi	a2,a2,0
	while(1){
     42a:	00090203          	lb	tp,0(s2)
	asm volatile( "\n\
     42e:	0100                	addi	s0,sp,128
     430:	0505                	addi	a0,a0,1
     432:	0306                	slli	t1,t1,0x1
     434:	0900                	addi	s0,sp,144
     436:	0000                	unimp
     438:	0501                	addi	a0,a0,0
     43a:	01030603          	lb	a2,16(t1)
     43e:	0009                	c.nop	2
     440:	0100                	addi	s0,sp,128
     442:	1005                	c.nop	-31
     444:	0306                	slli	t1,t1,0x1
     446:	0900                	addi	s0,sp,144
     448:	0000                	unimp
     44a:	0501                	addi	a0,a0,0
     44c:	030c                	addi	a1,sp,384
     44e:	0900                	addi	s0,sp,144
     450:	0000                	unimp
     452:	0501                	addi	a0,a0,0
asm volatile(
     454:	0602                	c.slli64	a2
     456:	00090203          	lb	tp,0(s2)
     45a:	0100                	addi	s0,sp,128
     45c:	0605                	addi	a2,a2,1
     45e:	0306                	slli	t1,t1,0x1
     460:	0904                	addi	s1,sp,144
     462:	0000                	unimp
     464:	0501                	addi	a0,a0,0
     466:	0316                	slli	t1,t1,0x5
     468:	0901                	addi	s2,s2,0
     46a:	0000                	unimp
     46c:	0501                	addi	a0,a0,0
     46e:	030d                	addi	t1,t1,3
     470:	0000097b          	0x97b
     474:	0501                	addi	a0,a0,0
     476:	0602                	c.slli64	a2
     478:	00090403          	lb	s0,0(s2)
     47c:	0100                	addi	s0,sp,128
     47e:	00090103          	lb	sp,0(s2)
     482:	0100                	addi	s0,sp,128
     484:	1605                	addi	a2,a2,-31
     486:	0306                	slli	t1,t1,0x1
     488:	0900                	addi	s0,sp,144
     48a:	0000                	unimp
     48c:	0501                	addi	a0,a0,0
     48e:	0309                	addi	t1,t1,2
     490:	0900                	addi	s0,sp,144
     492:	0000                	unimp
     494:	0501                	addi	a0,a0,0
	SETUP_SYSTICK_HCLK
     496:	060e                	slli	a2,a2,0x3
     498:	00090003          	lb	zero,0(s2)
     49c:	0100                	addi	s0,sp,128
asm volatile(
     49e:	0205                	addi	tp,tp,1
     4a0:	0306                	slli	t1,t1,0x1
     4a2:	0900                	addi	s0,sp,144
     4a4:	0000                	unimp
     4a6:	0501                	addi	a0,a0,0
     4a8:	0301                	addi	t1,t1,0
	asm volatile( "1: j 1b" );
     4aa:	00000907          	0x907
{
     4ae:	0501                	addi	a0,a0,0
     4b0:	0302                	c.slli64	t1
     4b2:	0000096f          	jal	s2,4b2 <SysTick_Handler+0x6>
	SysTick->CMP += (SYSTEM_CORE_CLOCK/8/SYSTICKHZ); //by default, Systick runs at 48/8=6MHz
     4b6:	0501                	addi	a0,a0,0
{
     4b8:	0310                	addi	a2,sp,384
     4ba:	097e                	slli	s2,s2,0x1f
	SysTick->CMP += (SYSTEM_CORE_CLOCK/8/SYSTICKHZ); //by default, Systick runs at 48/8=6MHz
     4bc:	0000                	unimp
     4be:	0501                	addi	a0,a0,0
{
     4c0:	0d030603          	lb	a2,208(t1)
	SysTick->CMP += (SYSTEM_CORE_CLOCK/8/SYSTICKHZ); //by default, Systick runs at 48/8=6MHz
     4c4:	0009                	c.nop	2
     4c6:	0100                	addi	s0,sp,128
     4c8:	1505                	addi	a0,a0,-31
     4ca:	0306                	slli	t1,t1,0x1
{
     4cc:	0901                	addi	s2,s2,0
     4ce:	0000                	unimp
     4d0:	0501                	addi	a0,a0,0
     4d2:	0308                	addi	a0,sp,384
     4d4:	097f                	0x97f
     4d6:	0000                	unimp
     4d8:	0501                	addi	a0,a0,0
     4da:	01030603          	lb	a2,16(t1)
     4de:	0009                	c.nop	2
     4e0:	0100                	addi	s0,sp,128
     4e2:	1c05                	addi	s8,s8,-31
     4e4:	0306                	slli	t1,t1,0x1
     4e6:	097e                	slli	s2,s2,0x1f
     4e8:	0000                	unimp
     4ea:	0501                	addi	a0,a0,0
	SysTick->CMP += (SYSTEM_CORE_CLOCK/8/SYSTICKHZ); //by default, Systick runs at 48/8=6MHz
     4ec:	030d                	addi	t1,t1,3
     4ee:	0902                	c.slli64	s2
     4f0:	0000                	unimp
     4f2:	0501                	addi	a0,a0,0
	SysTick->SR = 0;
     4f4:	01030603          	lb	a2,16(t1)
        timer->CCER &= ~channel;        //disable this channel output
     4f8:	0009                	c.nop	2
     4fa:	0100                	addi	s0,sp,128
     4fc:	1305                	addi	t1,t1,-31
     4fe:	0306                	slli	t1,t1,0x1
        port->BSHR = (1<<(pin));                //set GPIO 'high'
     500:	0900                	addi	s0,sp,144
     502:	0000                	unimp
        timer->CCER &= ~channel;        //disable this channel output
     504:	0501                	addi	a0,a0,0
     506:	7d03061b          	0x7d03061b
     50a:	0009                	c.nop	2
     50c:	0100                	addi	s0,sp,128
     50e:	0009                	c.nop	2
     510:	0000                	unimp
     512:	0101                	addi	sp,sp,0
     514:	0204                	addi	s1,sp,256
     516:	0c05                	addi	s8,s8,1
     518:	0500                	addi	s0,sp,640
     51a:	c402                	sw	zero,8(sp)
     51c:	0000                	unimp
     51e:	0300                	addi	s0,sp,384
        port->CFGLR &= ~(0xf<<(4*pin)); //clear GPIO config - this appears to be necessary. 
     520:	05010387          	0x5010387
     524:	0302                	c.slli64	t1
     526:	0901                	addi	s2,s2,0
        timer->CCER &= ~channel;        //disable this channel output
     528:	0000                	unimp
     52a:	0401                	addi	s0,s0,0
     52c:	0301                	addi	t1,t1,0
     52e:	03b1                	addi	t2,t2,12
        port->CFGLR &= ~(0xf<<(4*pin)); //clear GPIO config - this appears to be necessary. 
     530:	0009                	c.nop	2
     532:	0100                	addi	s0,sp,128
     534:	0204                	addi	s1,sp,256
     536:	0c05                	addi	s8,s8,1
        port->CFGLR |= (GPIO_Speed_10MHz | GPIO_CNF_OUT_PP)<<(4*pin); //Sets output mode to GPIO, PP
     538:	0306                	slli	t1,t1,0x1
     53a:	7cce                	flw	fs9,240(sp)
     53c:	0009                	c.nop	2
     53e:	0100                	addi	s0,sp,128
     540:	0104                	addi	s1,sp,128
     542:	0d05                	addi	s10,s10,1
        port->BSHR = (1<<(pin));                //set GPIO 'high'
     544:	0903b203          	0x903b203
        timer->CCER &= ~channel;        //disable this channel output
     548:	0008                	0x8
     54a:	0301                	addi	t1,t1,0
     54c:	0901                	addi	s2,s2,0
     54e:	0004                	0x4
     550:	0301                	addi	t1,t1,0
     552:	097f                	0x97f
     554:	0004                	0x4
     556:	0501                	addi	a0,a0,0
     558:	0602                	c.slli64	a2
     55a:	04090103          	lb	sp,64(s2)
        port->CFGLR &= ~(0xf<<(4*pin)); //clear GPIO config - this appears to be necessary. 
     55e:	0100                	addi	s0,sp,128
     560:	0d05                	addi	s10,s10,1
     562:	0306                	slli	t1,t1,0x1
     564:	0900                	addi	s0,sp,144
     566:	0000                	unimp
        port->CFGLR |= (GPIO_Speed_10MHz | GPIO_CNF_OUT_PP)<<(4*pin); //Sets output mode to GPIO, PP
     568:	0501                	addi	a0,a0,0
     56a:	0602                	c.slli64	a2
     56c:	06090103          	lb	sp,96(s2)
     570:	0100                	addi	s0,sp,128
     572:	0f05                	addi	t5,t5,1
        port->BSHR = (1<<(pin));                //set GPIO 'high'
     574:	0306                	slli	t1,t1,0x1
     576:	0900                	addi	s0,sp,144
        timer->CCER &= ~channel;        //disable this channel output
     578:	0000                	unimp
     57a:	0501                	addi	a0,a0,0
     57c:	0602                	c.slli64	a2
     57e:	08090103          	lb	sp,128(s2)
     582:	0100                	addi	s0,sp,128
     584:	0d05                	addi	s10,s10,1
     586:	0306                	slli	t1,t1,0x1
     588:	0900                	addi	s0,sp,144
     58a:	0000                	unimp
     58c:	0501                	addi	a0,a0,0
     58e:	0602                	c.slli64	a2
     590:	06090303          	lb	t1,96(s2)
        port->CFGLR &= ~(0xf<<(4*pin)); //clear GPIO config - this appears to be necessary. 
     594:	0100                	addi	s0,sp,128
     596:	1305                	addi	t1,t1,-31
     598:	0306                	slli	t1,t1,0x1
     59a:	0900                	addi	s0,sp,144
        port->BSHR = (1<<(pin));                //set GPIO 'high'
     59c:	0000                	unimp
     59e:	0501                	addi	a0,a0,0
        port->CFGLR &= ~(0xf<<(4*pin)); //clear GPIO config - this appears to be necessary. 
     5a0:	030c                	addi	a1,sp,384
     5a2:	0900                	addi	s0,sp,144
     5a4:	0004                	0x4
     5a6:	0501                	addi	a0,a0,0
        port->CFGLR |= (GPIO_Speed_10MHz | GPIO_CNF_OUT_PP)<<(4*pin); //Sets output mode to GPIO, PP
     5a8:	0626                	slli	a2,a2,0x9
     5aa:	04090003          	lb	zero,64(s2)
     5ae:	0100                	addi	s0,sp,128
     5b0:	0705                	addi	a4,a4,1
     5b2:	00090003          	lb	zero,0(s2)
        port->BSHR = (1<<(pin));                //set GPIO 'high'
     5b6:	0100                	addi	s0,sp,128
        timer->CCER &= ~channel;        //disable this channel output
     5b8:	0c05                	addi	s8,s8,1
     5ba:	0306                	slli	t1,t1,0x1
     5bc:	0900                	addi	s0,sp,144
     5be:	0000                	unimp
     5c0:	0501                	addi	a0,a0,0
     5c2:	09000313          	li	t1,144
     5c6:	0002                	c.slli64	zero
     5c8:	0501                	addi	a0,a0,0
     5ca:	09000307          	0x9000307
     5ce:	0002                	c.slli64	zero
     5d0:	0501                	addi	a0,a0,0
     5d2:	0602                	c.slli64	a2
        port->CFGLR &= ~(0xf<<(4*pin)); //clear GPIO config - this appears to be necessary. 
     5d4:	02090103          	lb	sp,32(s2)
     5d8:	0100                	addi	s0,sp,128
     5da:	1405                	addi	s0,s0,-31
     5dc:	0306                	slli	t1,t1,0x1
     5de:	0900                	addi	s0,sp,144
     5e0:	0000                	unimp
     5e2:	0501                	addi	a0,a0,0
     5e4:	0308                	addi	a0,sp,384
     5e6:	0901                	addi	s2,s2,0
        port->CFGLR |= (GPIO_Speed_10MHz | GPIO_CNF_OUT_PP)<<(4*pin); //Sets output mode to GPIO, PP
     5e8:	0002                	c.slli64	zero
     5ea:	0501                	addi	a0,a0,0
     5ec:	031c                	addi	a5,sp,384
     5ee:	097f                	0x97f
     5f0:	0002                	c.slli64	zero
     5f2:	0501                	addi	a0,a0,0
     5f4:	0335                	addi	t1,t1,13
     5f6:	0900                	addi	s0,sp,144
        port->BSHR = (1<<(pin));                //set GPIO 'high'
     5f8:	0002                	c.slli64	zero
     5fa:	0501                	addi	a0,a0,0
     5fc:	030d                	addi	t1,t1,3
     5fe:	0900                	addi	s0,sp,144
	if(++currentgroup > 4) currentgroup=0;
     600:	0004                	0x4
     602:	0501                	addi	a0,a0,0
     604:	0602                	c.slli64	a2
     606:	02090103          	lb	sp,32(s2)
     60a:	0100                	addi	s0,sp,128
     60c:	0d05                	addi	s10,s10,1
     60e:	0306                	slli	t1,t1,0x1
     610:	0900                	addi	s0,sp,144
     612:	0000                	unimp
     614:	0501                	addi	a0,a0,0
     616:	063c                	addi	a5,sp,776
     618:	04090003          	lb	zero,64(s2)
		pwm_setpw(	LEDs[group[currentgroup][i]].timer,
     61c:	0100                	addi	s0,sp,128
     61e:	0805                	addi	a6,a6,1
     620:	00090003          	lb	zero,0(s2)
     624:	0100                	addi	s0,sp,128
     626:	0d05                	addi	s10,s10,1
     628:	0306                	slli	t1,t1,0x1
     62a:	0900                	addi	s0,sp,144
     62c:	0000                	unimp
     62e:	0501                	addi	a0,a0,0
     630:	0315                	addi	t1,t1,5
     632:	0900                	addi	s0,sp,144
     634:	0002                	c.slli64	zero
     636:	0501                	addi	a0,a0,0
    	switch( chl )
     638:	0308                	addi	a0,sp,384
     63a:	0900                	addi	s0,sp,144
     63c:	0002                	c.slli64	zero
     63e:	0401                	addi	s0,s0,0
     640:	0502                	c.slli64	a0
     642:	0602                	c.slli64	a2
     644:	097cc803          	lbu	a6,151(s9) # 4097 <wiring.c.7604182b+0x16fe>
	for(int i=0;i<3;i++){
     648:	0004                	0x4
     64a:	0301                	addi	t1,t1,0
		pwm_setpw(	LEDs[group[currentgroup][i]].timer,
     64c:	7dde                	flw	fs11,244(sp)
     64e:	0009                	c.nop	2
     650:	0100                	addi	s0,sp,128
     652:	1105                	addi	sp,sp,-31
     654:	0306                	slli	t1,t1,0x1
     656:	0900                	addi	s0,sp,144
     658:	0000                	unimp
     65a:	0501                	addi	a0,a0,0
     65c:	0602                	c.slli64	a2
     65e:	0c090203          	lb	tp,192(s2)
     662:	0100                	addi	s0,sp,128
				LEDs[group[currentgroup][i]].brightness
     664:	1105                	addi	sp,sp,-31
     666:	0306                	slli	t1,t1,0x1
		pwm_setpw(	LEDs[group[currentgroup][i]].timer,
     668:	0900                	addi	s0,sp,144
     66a:	0000                	unimp
     66c:	0301                	addi	t1,t1,0
     66e:	00020903          	lb	s2,0(tp) # 0 <InterruptVector>
				LEDs[group[currentgroup][i]].brightness
     672:	0301                	addi	t1,t1,0
    	switch( chl )
     674:	0901                	addi	s2,s2,0
     676:	0004                	0x4
     678:	0301                	addi	t1,t1,0
     67a:	097c                	addi	a5,sp,156
     67c:	0002                	c.slli64	zero
     67e:	0501                	addi	a0,a0,0
     680:	0602                	c.slli64	a2
     682:	06090303          	lb	t1,96(s2)
	for(int i=0;i<3;i++){
     686:	0100                	addi	s0,sp,128
     688:	1105                	addi	sp,sp,-31
     68a:	0306                	slli	t1,t1,0x1
	for(int i=0;i<3;i++){
     68c:	0900                	addi	s0,sp,144
     68e:	0000                	unimp
        port->CFGLR &= ~(0xf<<(4*pin)); //clear GPIO config - this appears to be necessary. 
     690:	0501                	addi	a0,a0,0
     692:	0908030f          	0x908030f
        port->CFGLR |= (GPIO_Speed_10MHz | GPIO_CNF_OUT_OD_AF)<<(4*pin);//Sets mode to OD_AF
     696:	0002                	c.slli64	zero
		GPIO_PWM(	LEDs[group[currentgroup][i]].port,
     698:	0501                	addi	a0,a0,0
     69a:	0311                	addi	t1,t1,4
     69c:	0978                	addi	a4,sp,156
     69e:	0006                	c.slli	zero,0x1
	for(int i=0;i<3;i++){
     6a0:	0501                	addi	a0,a0,0
     6a2:	0602                	c.slli64	a2
		GPIO_PWM(	LEDs[group[currentgroup][i]].port,
     6a4:	04090103          	lb	sp,64(s2)
     6a8:	0100                	addi	s0,sp,128
     6aa:	1105                	addi	sp,sp,-31
     6ac:	0306                	slli	t1,t1,0x1
     6ae:	0900                	addi	s0,sp,144
     6b0:	0000                	unimp
     6b2:	0501                	addi	a0,a0,0
     6b4:	090d030f          	0x90d030f
     6b8:	0006                	c.slli	zero,0x1
     6ba:	0501                	addi	a0,a0,0
     6bc:	0311                	addi	t1,t1,4
     6be:	00040973          	0x40973
        port->CFGLR &= ~(0xf<<(4*pin)); //clear GPIO config - this appears to be necessary. 
     6c2:	0501                	addi	a0,a0,0
     6c4:	0602                	c.slli64	a2
     6c6:	04090103          	lb	sp,64(s2)
     6ca:	0100                	addi	s0,sp,128
     6cc:	1105                	addi	sp,sp,-31
     6ce:	0306                	slli	t1,t1,0x1
     6d0:	0900                	addi	s0,sp,144
     6d2:	0000                	unimp
     6d4:	0501                	addi	a0,a0,0
     6d6:	030c                	addi	a1,sp,384
        port->CFGLR |= (GPIO_Speed_10MHz | GPIO_CNF_OUT_OD_AF)<<(4*pin);//Sets mode to OD_AF
     6d8:	0918                	addi	a4,sp,144
     6da:	0002                	c.slli64	zero
     6dc:	0501                	addi	a0,a0,0
     6de:	030e                	slli	t1,t1,0x3
     6e0:	00040903          	lb	s2,0(s0)
     6e4:	0501                	addi	a0,a0,0
     6e6:	0311                	addi	t1,t1,4
        timer->CCER |= channel;         //enable this channel output
     6e8:	0965                	addi	s2,s2,25
     6ea:	0004                	0x4
     6ec:	0501                	addi	a0,a0,0
     6ee:	0602                	c.slli64	a2
     6f0:	06090103          	lb	sp,96(s2)
     6f4:	0100                	addi	s0,sp,128
     6f6:	1105                	addi	sp,sp,-31
     6f8:	0306                	slli	t1,t1,0x1
     6fa:	0900                	addi	s0,sp,144
	for(int i=0;i<3;i++){
     6fc:	0000                	unimp
     6fe:	0501                	addi	a0,a0,0
     700:	030d                	addi	t1,t1,3
     702:	0932                	slli	s2,s2,0xc
}
     704:	0002                	c.slli64	zero
     706:	0501                	addi	a0,a0,0
     708:	0311                	addi	t1,t1,4
     70a:	094e                	slli	s2,s2,0x13
     70c:	0002                	c.slli64	zero
     70e:	0501                	addi	a0,a0,0
     710:	0602                	c.slli64	a2
     712:	04090503          	lb	a0,64(s2)
     716:	0100                	addi	s0,sp,128
     718:	0f05                	addi	t5,t5,1
     71a:	0306                	slli	t1,t1,0x1
     71c:	0900                	addi	s0,sp,144
     71e:	0000                	unimp
     720:	0501                	addi	a0,a0,0
     722:	0602                	c.slli64	a2
     724:	0a090103          	lb	sp,160(s2)
     728:	0100                	addi	s0,sp,128
     72a:	0f05                	addi	t5,t5,1
     72c:	0306                	slli	t1,t1,0x1
     72e:	0900                	addi	s0,sp,144
     730:	0000                	unimp
     732:	0501                	addi	a0,a0,0
     734:	0602                	c.slli64	a2
     736:	0a090203          	lb	tp,160(s2)
	if(++currentgroup > 4) currentgroup=0;
     73a:	0100                	addi	s0,sp,128
     73c:	0f05                	addi	t5,t5,1
     73e:	0306                	slli	t1,t1,0x1
    	switch( chl )
     740:	0900                	addi	s0,sp,144
     742:	0000                	unimp
	    	case TIM_CC4E: timer->CH4CVR = width; break;
     744:	0301                	addi	t1,t1,0
     746:	0904                	addi	s1,sp,144
     748:	0004                	0x4
     74a:	0301                	addi	t1,t1,0
	    	case TIM_CC1E: timer->CH1CVR = width; break;
     74c:	097c                	addi	a5,sp,156
     74e:	0004                	0x4
     750:	0501                	addi	a0,a0,0
     752:	0602                	c.slli64	a2
	    	case TIM_CC2E: timer->CH2CVR = width; break;
     754:	08090103          	lb	sp,128(s2)
     758:	0100                	addi	s0,sp,128
     75a:	0f05                	addi	t5,t5,1
	    	case TIM_CC3E: timer->CH3CVR = width; break;
     75c:	0306                	slli	t1,t1,0x1
     75e:	0900                	addi	s0,sp,144
     760:	0000                	unimp
     762:	0501                	addi	a0,a0,0
     764:	0602                	c.slli64	a2
     766:	0c090203          	lb	tp,192(s2)
     76a:	0100                	addi	s0,sp,128
     76c:	0f05                	addi	t5,t5,1
     76e:	0306                	slli	t1,t1,0x1
     770:	0900                	addi	s0,sp,144
     772:	0000                	unimp
     774:	0501                	addi	a0,a0,0
     776:	0602                	c.slli64	a2
     778:	08090103          	lb	sp,128(s2)
     77c:	0100                	addi	s0,sp,128
     77e:	0f05                	addi	t5,t5,1
     780:	0306                	slli	t1,t1,0x1
     782:	0900                	addi	s0,sp,144
     784:	0000                	unimp
     786:	0501                	addi	a0,a0,0
     788:	0602                	c.slli64	a2
     78a:	06090203          	lb	tp,96(s2)
     78e:	0100                	addi	s0,sp,128
     790:	0f05                	addi	t5,t5,1
     792:	0306                	slli	t1,t1,0x1
     794:	0900                	addi	s0,sp,144
     796:	0000                	unimp
     798:	0501                	addi	a0,a0,0
     79a:	030e                	slli	t1,t1,0x3
     79c:	0904                	addi	s1,sp,144
     79e:	0002                	c.slli64	zero
     7a0:	0501                	addi	a0,a0,0
     7a2:	097c030f          	0x97c030f
     7a6:	0004                	0x4
     7a8:	0501                	addi	a0,a0,0
     7aa:	0602                	c.slli64	a2
     7ac:	06090103          	lb	sp,96(s2)
     7b0:	0100                	addi	s0,sp,128
     7b2:	0f05                	addi	t5,t5,1
     7b4:	0306                	slli	t1,t1,0x1
     7b6:	0900                	addi	s0,sp,144
     7b8:	0000                	unimp
     7ba:	0501                	addi	a0,a0,0
     7bc:	0602                	c.slli64	a2
     7be:	08090303          	lb	t1,128(s2)
     7c2:	0100                	addi	s0,sp,128
     7c4:	0e05                	addi	t3,t3,1
     7c6:	0306                	slli	t1,t1,0x1
     7c8:	0900                	addi	s0,sp,144
     7ca:	0000                	unimp
     7cc:	0501                	addi	a0,a0,0
     7ce:	0602                	c.slli64	a2
     7d0:	08090503          	lb	a0,128(s2)
     7d4:	0100                	addi	s0,sp,128
     7d6:	0c05                	addi	s8,s8,1
     7d8:	0306                	slli	t1,t1,0x1
     7da:	0900                	addi	s0,sp,144
     7dc:	0000                	unimp
     7de:	0501                	addi	a0,a0,0
     7e0:	0602                	c.slli64	a2
     7e2:	04090103          	lb	sp,64(s2)
     7e6:	0100                	addi	s0,sp,128
     7e8:	0c05                	addi	s8,s8,1
     7ea:	0306                	slli	t1,t1,0x1
     7ec:	0900                	addi	s0,sp,144
     7ee:	0000                	unimp
     7f0:	0501                	addi	a0,a0,0
     7f2:	0602                	c.slli64	a2
     7f4:	08090203          	lb	tp,128(s2)
     7f8:	0100                	addi	s0,sp,128
     7fa:	0e05                	addi	t3,t3,1
     7fc:	0306                	slli	t1,t1,0x1
     7fe:	0900                	addi	s0,sp,144
     800:	0000                	unimp
     802:	0501                	addi	a0,a0,0
     804:	0602                	c.slli64	a2
     806:	04090103          	lb	sp,64(s2)
     80a:	0100                	addi	s0,sp,128
     80c:	0e05                	addi	t3,t3,1
     80e:	0306                	slli	t1,t1,0x1
     810:	0900                	addi	s0,sp,144
     812:	0000                	unimp
     814:	0501                	addi	a0,a0,0
     816:	0602                	c.slli64	a2
     818:	04090403          	lb	s0,64(s2)
     81c:	0100                	addi	s0,sp,128
     81e:	0f05                	addi	t5,t5,1
     820:	0306                	slli	t1,t1,0x1
     822:	0900                	addi	s0,sp,144
     824:	0000                	unimp
     826:	0501                	addi	a0,a0,0
     828:	0602                	c.slli64	a2
     82a:	10090103          	lb	sp,256(s2)
     82e:	0100                	addi	s0,sp,128
     830:	0f05                	addi	t5,t5,1
     832:	0306                	slli	t1,t1,0x1
     834:	0900                	addi	s0,sp,144
     836:	0000                	unimp
     838:	0501                	addi	a0,a0,0
     83a:	0602                	c.slli64	a2
     83c:	10090403          	lb	s0,256(s2)
     840:	0100                	addi	s0,sp,128
     842:	0e05                	addi	t3,t3,1
     844:	0306                	slli	t1,t1,0x1
     846:	0900                	addi	s0,sp,144
     848:	0000                	unimp
     84a:	0501                	addi	a0,a0,0
     84c:	0602                	c.slli64	a2
     84e:	10090103          	lb	sp,256(s2)
     852:	0100                	addi	s0,sp,128
     854:	0e05                	addi	t3,t3,1
     856:	0306                	slli	t1,t1,0x1
     858:	0900                	addi	s0,sp,144
     85a:	0000                	unimp
     85c:	0501                	addi	a0,a0,0
     85e:	0602                	c.slli64	a2
     860:	10090303          	lb	t1,256(s2)
     864:	0100                	addi	s0,sp,128
     866:	0f05                	addi	t5,t5,1
     868:	0306                	slli	t1,t1,0x1
     86a:	0900                	addi	s0,sp,144
     86c:	0000                	unimp
     86e:	0501                	addi	a0,a0,0
     870:	0602                	c.slli64	a2
     872:	08090103          	lb	sp,128(s2)
     876:	0100                	addi	s0,sp,128
     878:	0f05                	addi	t5,t5,1
     87a:	0306                	slli	t1,t1,0x1
     87c:	0900                	addi	s0,sp,144
     87e:	0000                	unimp
     880:	0501                	addi	a0,a0,0
     882:	0602                	c.slli64	a2
     884:	04090103          	lb	sp,64(s2)
     888:	0100                	addi	s0,sp,128
     88a:	0f05                	addi	t5,t5,1
     88c:	0306                	slli	t1,t1,0x1
     88e:	0900                	addi	s0,sp,144
     890:	0000                	unimp
     892:	0501                	addi	a0,a0,0
     894:	0602                	c.slli64	a2
     896:	02090103          	lb	sp,32(s2)
     89a:	0100                	addi	s0,sp,128
     89c:	0f05                	addi	t5,t5,1
     89e:	0306                	slli	t1,t1,0x1
     8a0:	0900                	addi	s0,sp,144
     8a2:	0000                	unimp
     8a4:	0501                	addi	a0,a0,0
     8a6:	0602                	c.slli64	a2
     8a8:	02090403          	lb	s0,32(s2)
     8ac:	0100                	addi	s0,sp,128
     8ae:	0d05                	addi	s10,s10,1
     8b0:	0306                	slli	t1,t1,0x1
     8b2:	0900                	addi	s0,sp,144
     8b4:	0000                	unimp
     8b6:	0501                	addi	a0,a0,0
     8b8:	0602                	c.slli64	a2
     8ba:	10090103          	lb	sp,256(s2)
     8be:	0100                	addi	s0,sp,128
     8c0:	0d05                	addi	s10,s10,1
     8c2:	0306                	slli	t1,t1,0x1
     8c4:	0900                	addi	s0,sp,144
     8c6:	0000                	unimp
     8c8:	0501                	addi	a0,a0,0
     8ca:	0602                	c.slli64	a2
     8cc:	10090103          	lb	sp,256(s2)
     8d0:	0100                	addi	s0,sp,128
     8d2:	0d05                	addi	s10,s10,1
     8d4:	0306                	slli	t1,t1,0x1
     8d6:	0900                	addi	s0,sp,144
     8d8:	0000                	unimp
     8da:	0501                	addi	a0,a0,0
     8dc:	0602                	c.slli64	a2
     8de:	10090103          	lb	sp,256(s2)
     8e2:	0100                	addi	s0,sp,128
     8e4:	0d05                	addi	s10,s10,1
     8e6:	0306                	slli	t1,t1,0x1
     8e8:	0900                	addi	s0,sp,144
     8ea:	0000                	unimp
     8ec:	0501                	addi	a0,a0,0
     8ee:	0602                	c.slli64	a2
     8f0:	10090203          	lb	tp,256(s2)
     8f4:	0100                	addi	s0,sp,128
     8f6:	1005                	c.nop	-31
     8f8:	0306                	slli	t1,t1,0x1
     8fa:	0900                	addi	s0,sp,144
     8fc:	0000                	unimp
     8fe:	0301                	addi	t1,t1,0
     900:	0901                	addi	s2,s2,0
     902:	0004                	0x4
     904:	0301                	addi	t1,t1,0
     906:	097f                	0x97f
     908:	0002                	c.slli64	zero
     90a:	0501                	addi	a0,a0,0
     90c:	0602                	c.slli64	a2
     90e:	0c090103          	lb	sp,192(s2)
     912:	0100                	addi	s0,sp,128
     914:	1005                	c.nop	-31
     916:	0306                	slli	t1,t1,0x1
     918:	0900                	addi	s0,sp,144
     91a:	0000                	unimp
     91c:	0501                	addi	a0,a0,0
     91e:	0602                	c.slli64	a2
     920:	10090103          	lb	sp,256(s2)
     924:	0100                	addi	s0,sp,128
     926:	1005                	c.nop	-31
     928:	0306                	slli	t1,t1,0x1
     92a:	0900                	addi	s0,sp,144
     92c:	0000                	unimp
     92e:	0501                	addi	a0,a0,0
     930:	0602                	c.slli64	a2
     932:	1e090103          	lb	sp,480(s2)
     936:	0100                	addi	s0,sp,128
     938:	1005                	c.nop	-31
     93a:	0306                	slli	t1,t1,0x1
     93c:	0900                	addi	s0,sp,144
     93e:	0000                	unimp
     940:	0501                	addi	a0,a0,0
     942:	030e                	slli	t1,t1,0x3
     944:	0904                	addi	s1,sp,144
     946:	0004                	0x4
     948:	0501                	addi	a0,a0,0
     94a:	0310                	addi	a2,sp,384
     94c:	097c                	addi	a5,sp,156
     94e:	0002                	c.slli64	zero
     950:	0501                	addi	a0,a0,0
     952:	0602                	c.slli64	a2
     954:	10090403          	lb	s0,256(s2)
     958:	0100                	addi	s0,sp,128
     95a:	0e05                	addi	t3,t3,1
     95c:	0306                	slli	t1,t1,0x1
     95e:	0900                	addi	s0,sp,144
     960:	0000                	unimp
     962:	0501                	addi	a0,a0,0
     964:	0602                	c.slli64	a2
     966:	10090103          	lb	sp,256(s2)
     96a:	0100                	addi	s0,sp,128
     96c:	0e05                	addi	t3,t3,1
     96e:	0306                	slli	t1,t1,0x1
     970:	0900                	addi	s0,sp,144
     972:	0000                	unimp
     974:	0501                	addi	a0,a0,0
     976:	0602                	c.slli64	a2
     978:	10090103          	lb	sp,256(s2)
     97c:	0100                	addi	s0,sp,128
     97e:	0e05                	addi	t3,t3,1
     980:	0306                	slli	t1,t1,0x1
     982:	0900                	addi	s0,sp,144
     984:	0000                	unimp
     986:	0501                	addi	a0,a0,0
     988:	0602                	c.slli64	a2
     98a:	0901de03          	lhu	t3,144(gp) # 200009c0 <__global_pointer$+0x90>
     98e:	0010                	0x10
     990:	0301                	addi	t1,t1,0
     992:	7ef0                	flw	fa2,124(a3)
     994:	0009                	c.nop	2
     996:	0100                	addi	s0,sp,128
     998:	1005                	c.nop	-31
     99a:	0306                	slli	t1,t1,0x1
     99c:	0900                	addi	s0,sp,144
     99e:	0000                	unimp
     9a0:	0501                	addi	a0,a0,0
     9a2:	0602                	c.slli64	a2
     9a4:	08090303          	lb	t1,128(s2)
     9a8:	0100                	addi	s0,sp,128
     9aa:	0304                	addi	s1,sp,384
     9ac:	0305                	addi	t1,t1,1
     9ae:	0921ab03          	lw	s6,146(gp) # 200009c2 <__global_pointer$+0x92>
     9b2:	0000                	unimp
     9b4:	0501                	addi	a0,a0,0
     9b6:	00030627          	0x30627
     9ba:	0009                	c.nop	2
     9bc:	0100                	addi	s0,sp,128
     9be:	0204                	addi	s1,sp,256
     9c0:	0205                	addi	tp,tp,1
     9c2:	0306                	slli	t1,t1,0x1
     9c4:	5ed8                	lw	a4,60(a3)
     9c6:	0809                	addi	a6,a6,2
     9c8:	0100                	addi	s0,sp,128
     9ca:	0f05                	addi	t5,t5,1
     9cc:	0306                	slli	t1,t1,0x1
     9ce:	0900                	addi	s0,sp,144
     9d0:	0000                	unimp
     9d2:	0501                	addi	a0,a0,0
     9d4:	0602                	c.slli64	a2
     9d6:	06090303          	lb	t1,96(s2)
     9da:	0100                	addi	s0,sp,128
     9dc:	0f05                	addi	t5,t5,1
     9de:	0306                	slli	t1,t1,0x1
     9e0:	0900                	addi	s0,sp,144
     9e2:	0000                	unimp
     9e4:	0501                	addi	a0,a0,0
     9e6:	0602                	c.slli64	a2
     9e8:	04090303          	lb	t1,64(s2)
     9ec:	0100                	addi	s0,sp,128
     9ee:	1005                	c.nop	-31
     9f0:	0306                	slli	t1,t1,0x1
     9f2:	0900                	addi	s0,sp,144
     9f4:	0000                	unimp
     9f6:	0501                	addi	a0,a0,0
     9f8:	0602                	c.slli64	a2
     9fa:	09018503          	lb	a0,144(gp) # 200009c0 <__global_pointer$+0x90>
     9fe:	0004                	0x4
     a00:	0301                	addi	t1,t1,0
     a02:	00000947          	fmsub.s	fs2,ft0,ft0,ft0,rne
     a06:	0501                	addi	a0,a0,0
     a08:	060d                	addi	a2,a2,3
     a0a:	00090003          	lb	zero,0(s2)
     a0e:	0100                	addi	s0,sp,128
     a10:	0205                	addi	tp,tp,1
     a12:	0306                	slli	t1,t1,0x1
     a14:	000c0903          	lb	s2,0(s8)
     a18:	0501                	addi	a0,a0,0
     a1a:	0611                	addi	a2,a2,4
     a1c:	00090003          	lb	zero,0(s2)
     a20:	0100                	addi	s0,sp,128
     a22:	0205                	addi	tp,tp,1
     a24:	0306                	slli	t1,t1,0x1
     a26:	00080903          	lb	s2,0(a6)
     a2a:	0501                	addi	a0,a0,0
     a2c:	0003060f          	0x3060f
     a30:	0009                	c.nop	2
     a32:	0100                	addi	s0,sp,128
     a34:	0205                	addi	tp,tp,1
     a36:	0306                	slli	t1,t1,0x1
     a38:	000c0903          	lb	s2,0(s8)
     a3c:	0501                	addi	a0,a0,0
     a3e:	0611                	addi	a2,a2,4
     a40:	00090003          	lb	zero,0(s2)
     a44:	0100                	addi	s0,sp,128
     a46:	0e05                	addi	t3,t3,1
     a48:	02090d03          	lb	s10,32(s2)
     a4c:	0100                	addi	s0,sp,128
     a4e:	1105                	addi	sp,sp,-31
     a50:	06097303          	0x6097303
     a54:	0100                	addi	s0,sp,128
     a56:	0205                	addi	tp,tp,1
     a58:	0306                	slli	t1,t1,0x1
     a5a:	0901                	addi	s2,s2,0
     a5c:	0006                	c.slli	zero,0x1
     a5e:	0501                	addi	a0,a0,0
     a60:	0611                	addi	a2,a2,4
     a62:	00090003          	lb	zero,0(s2)
     a66:	0100                	addi	s0,sp,128
     a68:	0205                	addi	tp,tp,1
     a6a:	0306                	slli	t1,t1,0x1
     a6c:	00080903          	lb	s2,0(a6)
     a70:	0501                	addi	a0,a0,0
     a72:	060e                	slli	a2,a2,0x3
     a74:	00090003          	lb	zero,0(s2)
     a78:	0100                	addi	s0,sp,128
     a7a:	0205                	addi	tp,tp,1
     a7c:	0306                	slli	t1,t1,0x1
     a7e:	0901                	addi	s2,s2,0
     a80:	0008                	0x8
     a82:	0501                	addi	a0,a0,0
     a84:	060e                	slli	a2,a2,0x3
     a86:	00090003          	lb	zero,0(s2)
     a8a:	0100                	addi	s0,sp,128
     a8c:	0205                	addi	tp,tp,1
     a8e:	0306                	slli	t1,t1,0x1
     a90:	0901                	addi	s2,s2,0
     a92:	0004                	0x4
     a94:	0501                	addi	a0,a0,0
     a96:	060e                	slli	a2,a2,0x3
     a98:	00090003          	lb	zero,0(s2)
     a9c:	0100                	addi	s0,sp,128
     a9e:	0205                	addi	tp,tp,1
     aa0:	0306                	slli	t1,t1,0x1
     aa2:	00040903          	lb	s2,0(s0)
     aa6:	0501                	addi	a0,a0,0
     aa8:	0610                	addi	a2,sp,768
     aaa:	00090003          	lb	zero,0(s2)
     aae:	0100                	addi	s0,sp,128
     ab0:	0205                	addi	tp,tp,1
     ab2:	0306                	slli	t1,t1,0x1
     ab4:	0901                	addi	s2,s2,0
     ab6:	000c                	0xc
     ab8:	0501                	addi	a0,a0,0
     aba:	0610                	addi	a2,sp,768
     abc:	00090003          	lb	zero,0(s2)
     ac0:	0100                	addi	s0,sp,128
     ac2:	0205                	addi	tp,tp,1
     ac4:	0306                	slli	t1,t1,0x1
     ac6:	00080903          	lb	s2,0(a6)
     aca:	0501                	addi	a0,a0,0
     acc:	060e                	slli	a2,a2,0x3
     ace:	00090003          	lb	zero,0(s2)
     ad2:	0100                	addi	s0,sp,128
     ad4:	0205                	addi	tp,tp,1
     ad6:	0306                	slli	t1,t1,0x1
     ad8:	000a0903          	lb	s2,0(s4)
     adc:	0501                	addi	a0,a0,0
     ade:	060e                	slli	a2,a2,0x3
     ae0:	00090003          	lb	zero,0(s2)
     ae4:	0100                	addi	s0,sp,128
     ae6:	0c05                	addi	s8,s8,1
     ae8:	04090103          	lb	sp,64(s2)
     aec:	0100                	addi	s0,sp,128
     aee:	0e05                	addi	t3,t3,1
     af0:	04097f03          	0x4097f03
     af4:	0100                	addi	s0,sp,128
     af6:	0205                	addi	tp,tp,1
     af8:	0306                	slli	t1,t1,0x1
     afa:	0901                	addi	s2,s2,0
     afc:	0008                	0x8
     afe:	0501                	addi	a0,a0,0
     b00:	0321                	addi	t1,t1,8
     b02:	0900                	addi	s0,sp,144
     b04:	0000                	unimp
     b06:	0501                	addi	a0,a0,0
     b08:	09000307          	0x9000307
     b0c:	0000                	unimp
     b0e:	0501                	addi	a0,a0,0
     b10:	060c                	addi	a1,sp,768
     b12:	00090003          	lb	zero,0(s2)
     b16:	0100                	addi	s0,sp,128
     b18:	1405                	addi	s0,s0,-31
     b1a:	04090003          	lb	zero,64(s2)
     b1e:	0100                	addi	s0,sp,128
     b20:	0705                	addi	a4,a4,1
     b22:	02090003          	lb	zero,32(s2)
     b26:	0100                	addi	s0,sp,128
     b28:	0205                	addi	tp,tp,1
     b2a:	0306                	slli	t1,t1,0x1
     b2c:	00020903          	lb	s2,0(tp) # 0 <InterruptVector>
     b30:	0501                	addi	a0,a0,0
     b32:	060e                	slli	a2,a2,0x3
     b34:	00090003          	lb	zero,0(s2)
     b38:	0100                	addi	s0,sp,128
     b3a:	0205                	addi	tp,tp,1
     b3c:	0306                	slli	t1,t1,0x1
     b3e:	0901                	addi	s2,s2,0
     b40:	000c                	0xc
     b42:	0501                	addi	a0,a0,0
     b44:	060c                	addi	a1,sp,768
     b46:	00090003          	lb	zero,0(s2)
     b4a:	0100                	addi	s0,sp,128
     b4c:	1e05                	addi	t3,t3,-31
     b4e:	0306                	slli	t1,t1,0x1
     b50:	0900                	addi	s0,sp,144
     b52:	0004                	0x4
     b54:	0501                	addi	a0,a0,0
     b56:	09000307          	0x9000307
     b5a:	0000                	unimp
     b5c:	0501                	addi	a0,a0,0
     b5e:	060c                	addi	a1,sp,768
     b60:	00090003          	lb	zero,0(s2)
     b64:	0100                	addi	s0,sp,128
     b66:	1405                	addi	s0,s0,-31
     b68:	04090003          	lb	zero,64(s2)
     b6c:	0100                	addi	s0,sp,128
     b6e:	0705                	addi	a4,a4,1
     b70:	02090003          	lb	zero,32(s2)
     b74:	0100                	addi	s0,sp,128
     b76:	0305                	addi	t1,t1,1
     b78:	02091f03          	lh	t5,32(s2)
     b7c:	0100                	addi	s0,sp,128
     b7e:	1305                	addi	t1,t1,-31
     b80:	04090103          	lb	sp,64(s2)
     b84:	0100                	addi	s0,sp,128
     b86:	0e05                	addi	t3,t3,1
     b88:	04096b03          	0x4096b03
     b8c:	0100                	addi	s0,sp,128
     b8e:	0104                	addi	s1,sp,128
     b90:	1c05                	addi	s8,s8,-31
     b92:	0904da03          	lhu	s4,144(s1) # 4090 <wiring.c.7604182b+0x16f7>
     b96:	0008                	0x8
     b98:	0401                	addi	s0,s0,0
     b9a:	0502                	c.slli64	a0
     b9c:	7bba0303          	lb	t1,1979(s4)
     ba0:	0409                	addi	s0,s0,2
     ba2:	0100                	addi	s0,sp,128
     ba4:	1305                	addi	t1,t1,-31
     ba6:	06090103          	lb	sp,96(s2)
     baa:	0100                	addi	s0,sp,128
     bac:	0205                	addi	tp,tp,1
     bae:	0306                	slli	t1,t1,0x1
     bb0:	097d                	addi	s2,s2,31
     bb2:	0004                	0x4
     bb4:	0501                	addi	a0,a0,0
     bb6:	09010303          	lb	t1,144(sp)
     bba:	0000                	unimp
     bbc:	0501                	addi	a0,a0,0
     bbe:	0302                	c.slli64	t1
     bc0:	096d                	addi	s2,s2,27
     bc2:	0000                	unimp
     bc4:	0501                	addi	a0,a0,0
     bc6:	060e                	slli	a2,a2,0x3
     bc8:	00090003          	lb	zero,0(s2)
     bcc:	0100                	addi	s0,sp,128
     bce:	0205                	addi	tp,tp,1
     bd0:	0306                	slli	t1,t1,0x1
     bd2:	000c0903          	lb	s2,0(s8)
     bd6:	0501                	addi	a0,a0,0
     bd8:	0321                	addi	t1,t1,8
     bda:	0900                	addi	s0,sp,144
     bdc:	0000                	unimp
     bde:	0501                	addi	a0,a0,0
     be0:	09000307          	0x9000307
     be4:	0000                	unimp
     be6:	0501                	addi	a0,a0,0
     be8:	060e                	slli	a2,a2,0x3
     bea:	00090003          	lb	zero,0(s2)
     bee:	0100                	addi	s0,sp,128
     bf0:	1605                	addi	a2,a2,-31
     bf2:	04090003          	lb	zero,64(s2)
     bf6:	0100                	addi	s0,sp,128
     bf8:	0705                	addi	a4,a4,1
     bfa:	02090003          	lb	zero,32(s2)
     bfe:	0100                	addi	s0,sp,128
     c00:	0205                	addi	tp,tp,1
     c02:	0306                	slli	t1,t1,0x1
     c04:	00020903          	lb	s2,0(tp) # 0 <InterruptVector>
     c08:	0501                	addi	a0,a0,0
     c0a:	060d                	addi	a2,a2,3
     c0c:	00090003          	lb	zero,0(s2)
     c10:	0100                	addi	s0,sp,128
     c12:	0305                	addi	t1,t1,1
     c14:	0306                	slli	t1,t1,0x1
     c16:	090e                	slli	s2,s2,0x3
     c18:	0004                	0x4
     c1a:	0401                	addi	s0,s0,0
     c1c:	0501                	addi	a0,a0,0
     c1e:	0302                	c.slli64	t1
     c20:	04c6                	slli	s1,s1,0x11
     c22:	0009                	c.nop	2
     c24:	0100                	addi	s0,sp,128
     c26:	1c05                	addi	s8,s8,-31
     c28:	0306                	slli	t1,t1,0x1
     c2a:	0900                	addi	s0,sp,144
     c2c:	0000                	unimp
     c2e:	0401                	addi	s0,s0,0
     c30:	0502                	c.slli64	a0
     c32:	7bba0303          	lb	t1,1979(s4)
     c36:	0409                	addi	s0,s0,2
     c38:	0100                	addi	s0,sp,128
     c3a:	0104                	addi	s1,sp,128
     c3c:	1c05                	addi	s8,s8,-31
     c3e:	0904c603          	lbu	a2,144(s1)
     c42:	0006                	c.slli	zero,0x1
     c44:	0401                	addi	s0,s0,0
     c46:	0502                	c.slli64	a0
     c48:	7bba0303          	lb	t1,1979(s4)
     c4c:	0209                	addi	tp,tp,2
     c4e:	0100                	addi	s0,sp,128
     c50:	0104                	addi	s1,sp,128
     c52:	0b05                	addi	s6,s6,1
     c54:	0904c603          	lbu	a2,144(s1)
     c58:	0002                	c.slli64	zero
     c5a:	0501                	addi	a0,a0,0
     c5c:	0602                	c.slli64	a2
     c5e:	18090103          	lb	sp,384(s2)
     c62:	0100                	addi	s0,sp,128
     c64:	3405                	jal	684 <SysTick_Handler+0x1d8>
     c66:	00090003          	lb	zero,0(s2)
     c6a:	0100                	addi	s0,sp,128
     c6c:	0705                	addi	a4,a4,1
     c6e:	00090003          	lb	zero,0(s2)
     c72:	0100                	addi	s0,sp,128
     c74:	1c05                	addi	s8,s8,-31
     c76:	0306                	slli	t1,t1,0x1
     c78:	0900                	addi	s0,sp,144
     c7a:	0000                	unimp
     c7c:	0501                	addi	a0,a0,0
     c7e:	0322                	slli	t1,t1,0x8
     c80:	0900                	addi	s0,sp,144
     c82:	0004                	0x4
     c84:	0501                	addi	a0,a0,0
     c86:	09000307          	0x9000307
     c8a:	0002                	c.slli64	zero
     c8c:	0401                	addi	s0,s0,0
     c8e:	0502                	c.slli64	a0
     c90:	ba030603          	lb	a2,-1120(t1)
     c94:	0004097b          	0x4097b
     c98:	0501                	addi	a0,a0,0
     c9a:	00030613          	mv	a2,t1
     c9e:	0009                	c.nop	2
     ca0:	0100                	addi	s0,sp,128
     ca2:	0b05                	addi	s6,s6,1
     ca4:	04090103          	lb	sp,64(s2)
     ca8:	0100                	addi	s0,sp,128
     caa:	0305                	addi	t1,t1,1
     cac:	02090003          	lb	zero,32(s2)
     cb0:	0100                	addi	s0,sp,128
     cb2:	1305                	addi	t1,t1,-31
     cb4:	02097f03          	0x2097f03
     cb8:	0100                	addi	s0,sp,128
     cba:	0305                	addi	t1,t1,1
     cbc:	0306                	slli	t1,t1,0x1
     cbe:	0901                	addi	s2,s2,0
     cc0:	0004                	0x4
     cc2:	0501                	addi	a0,a0,0
     cc4:	09000307          	0x9000307
     cc8:	0000                	unimp
     cca:	0501                	addi	a0,a0,0
     ccc:	0310                	addi	a2,sp,384
     cce:	0900                	addi	s0,sp,144
     cd0:	0000                	unimp
     cd2:	0501                	addi	a0,a0,0
     cd4:	0004                	0x4
     cd6:	0402                	c.slli64	s0
     cd8:	09010303          	lb	t1,144(sp)
     cdc:	0000                	unimp
     cde:	0501                	addi	a0,a0,0
     ce0:	0020                	addi	s0,sp,8
     ce2:	0402                	c.slli64	s0
     ce4:	00030603          	lb	a2,0(t1)
     ce8:	0009                	c.nop	2
     cea:	0100                	addi	s0,sp,128
     cec:	1805                	addi	a6,a6,-31
     cee:	0200                	addi	s0,sp,256
     cf0:	0304                	addi	s1,sp,384
     cf2:	0e090003          	lb	zero,224(s2)
     cf6:	0100                	addi	s0,sp,128
     cf8:	2005                	jal	d18 <_data_lma+0x5a8>
     cfa:	0200                	addi	s0,sp,256
     cfc:	0304                	addi	s1,sp,384
     cfe:	02090003          	lb	zero,32(s2)
     d02:	0100                	addi	s0,sp,128
     d04:	1805                	addi	a6,a6,-31
     d06:	0200                	addi	s0,sp,256
     d08:	0304                	addi	s1,sp,384
     d0a:	04090003          	lb	zero,64(s2)
     d0e:	0100                	addi	s0,sp,128
     d10:	1605                	addi	a2,a2,-31
     d12:	0200                	addi	s0,sp,256
     d14:	0304                	addi	s1,sp,384
     d16:	0306                	slli	t1,t1,0x1
     d18:	097f                	0x97f
     d1a:	0006                	c.slli	zero,0x1
     d1c:	0501                	addi	a0,a0,0
     d1e:	04020017          	auipc	zero,0x4020
     d22:	00030603          	lb	a2,0(t1)
     d26:	0009                	c.nop	2
     d28:	0100                	addi	s0,sp,128
     d2a:	1005                	c.nop	-31
     d2c:	0200                	addi	s0,sp,256
     d2e:	0304                	addi	s1,sp,384
     d30:	0306                	slli	t1,t1,0x1
     d32:	0900                	addi	s0,sp,144
     d34:	0002                	c.slli64	zero
     d36:	0501                	addi	a0,a0,0
     d38:	04020003          	lb	zero,64(tp) # 40 <InterruptVector+0x40>
     d3c:	00030603          	lb	a2,0(t1)
     d40:	0009                	c.nop	2
     d42:	0100                	addi	s0,sp,128
     d44:	0306                	slli	t1,t1,0x1
     d46:	00040903          	lb	s2,0(s0)
     d4a:	0501                	addi	a0,a0,0
     d4c:	0616                	slli	a2,a2,0x5
     d4e:	00090003          	lb	zero,0(s2)
     d52:	0100                	addi	s0,sp,128
     d54:	0705                	addi	a4,a4,1
     d56:	0306                	slli	t1,t1,0x1
     d58:	0979                	addi	s2,s2,30
     d5a:	0004                	0x4
     d5c:	0901                	addi	s2,s2,0
     d5e:	0002                	c.slli64	zero
     d60:	0100                	addi	s0,sp,128
     d62:	0501                	addi	a0,a0,0
     d64:	0005                	c.nop	1
     d66:	0205                	addi	tp,tp,1
     d68:	0000                	unimp
     d6a:	0000                	unimp
     d6c:	01079803          	lh	a6,16(a5)
     d70:	00090003          	lb	zero,0(s2)
     d74:	0100                	addi	s0,sp,128
     d76:	0705                	addi	a4,a4,1
     d78:	00090203          	lb	tp,0(s2)
     d7c:	0100                	addi	s0,sp,128
     d7e:	0605                	addi	a2,a2,1
     d80:	00090103          	lb	sp,0(s2)
     d84:	0100                	addi	s0,sp,128
     d86:	0705                	addi	a4,a4,1
     d88:	00090203          	lb	tp,0(s2)
     d8c:	0100                	addi	s0,sp,128
     d8e:	00090203          	lb	tp,0(s2)
     d92:	0100                	addi	s0,sp,128
     d94:	0c05                	addi	s8,s8,1
     d96:	00090303          	lb	t1,0(s2)
     d9a:	0100                	addi	s0,sp,128
     d9c:	1605                	addi	a2,a2,-31
     d9e:	00090003          	lb	zero,0(s2)
     da2:	0100                	addi	s0,sp,128
     da4:	0805                	addi	a6,a6,1
     da6:	00090003          	lb	zero,0(s2)
     daa:	0100                	addi	s0,sp,128
     dac:	1005                	c.nop	-31
     dae:	00090703          	lb	a4,0(s2)
     db2:	0100                	addi	s0,sp,128
     db4:	0c05                	addi	s8,s8,1
     db6:	00090303          	lb	t1,0(s2)
     dba:	0100                	addi	s0,sp,128
     dbc:	1505                	addi	a0,a0,-31
     dbe:	00090203          	lb	tp,0(s2)
     dc2:	0100                	addi	s0,sp,128
     dc4:	0c05                	addi	s8,s8,1
     dc6:	00097e03          	0x97e03
     dca:	0100                	addi	s0,sp,128
     dcc:	1505                	addi	a0,a0,-31
     dce:	00090203          	lb	tp,0(s2)
     dd2:	0100                	addi	s0,sp,128
     dd4:	0505                	addi	a0,a0,1
     dd6:	00097f03          	0x97f03
     dda:	0100                	addi	s0,sp,128
     ddc:	1005                	c.nop	-31
     dde:	00090303          	lb	t1,0(s2)
     de2:	0100                	addi	s0,sp,128
     de4:	0c05                	addi	s8,s8,1
     de6:	00090003          	lb	zero,0(s2)
     dea:	0100                	addi	s0,sp,128
     dec:	1005                	c.nop	-31
     dee:	00090003          	lb	zero,0(s2)
     df2:	0100                	addi	s0,sp,128
     df4:	0805                	addi	a6,a6,1
     df6:	00097e03          	0x97e03
     dfa:	0100                	addi	s0,sp,128
     dfc:	1505                	addi	a0,a0,-31
     dfe:	00090003          	lb	zero,0(s2)
     e02:	0100                	addi	s0,sp,128
     e04:	1e05                	addi	t3,t3,-31
     e06:	00090503          	lb	a0,0(s2)
     e0a:	0100                	addi	s0,sp,128
     e0c:	1405                	addi	s0,s0,-31
     e0e:	00090003          	lb	zero,0(s2)
     e12:	0100                	addi	s0,sp,128
     e14:	0d05                	addi	s10,s10,1
     e16:	00090003          	lb	zero,0(s2)
     e1a:	0100                	addi	s0,sp,128
     e1c:	0c05                	addi	s8,s8,1
     e1e:	00090103          	lb	sp,0(s2)
     e22:	0100                	addi	s0,sp,128
     e24:	0905                	addi	s2,s2,1
     e26:	00090303          	lb	t1,0(s2)
     e2a:	0100                	addi	s0,sp,128
     e2c:	0c05                	addi	s8,s8,1
     e2e:	00097d03          	0x97d03
     e32:	0100                	addi	s0,sp,128
     e34:	0605                	addi	a2,a2,1
     e36:	00096f03          	0x96f03
     e3a:	0100                	addi	s0,sp,128
     e3c:	0105                	addi	sp,sp,1
     e3e:	00091703          	lh	a4,0(s2)
     e42:	0100                	addi	s0,sp,128
     e44:	0009                	c.nop	2
     e46:	0000                	unimp
     e48:	0101                	addi	sp,sp,0
     e4a:	0105                	addi	sp,sp,1
     e4c:	0500                	addi	s0,sp,640
     e4e:	0002                	c.slli64	zero
     e50:	0000                	unimp
     e52:	0300                	addi	s0,sp,384
     e54:	0114                	addi	a3,sp,128
     e56:	0205                	addi	tp,tp,1
     e58:	00090103          	lb	sp,0(s2)
     e5c:	0100                	addi	s0,sp,128
     e5e:	0105                	addi	sp,sp,1
     e60:	0306                	slli	t1,t1,0x1
     e62:	097f                	0x97f
     e64:	0000                	unimp
     e66:	0301                	addi	t1,t1,0
     e68:	0900                	addi	s0,sp,144
     e6a:	0000                	unimp
     e6c:	0501                	addi	a0,a0,0
     e6e:	0302                	c.slli64	t1
     e70:	0901                	addi	s2,s2,0
     e72:	0000                	unimp
     e74:	0601                	addi	a2,a2,0
     e76:	00090103          	lb	sp,0(s2)
     e7a:	0100                	addi	s0,sp,128
     e7c:	0105                	addi	sp,sp,1
     e7e:	0306                	slli	t1,t1,0x1
     e80:	0901                	addi	s2,s2,0
     e82:	0000                	unimp
     e84:	0901                	addi	s2,s2,0
     e86:	0000                	unimp
     e88:	0100                	addi	s0,sp,128
     e8a:	0501                	addi	a0,a0,0
     e8c:	0001                	nop
     e8e:	0205                	addi	tp,tp,1
     e90:	042c                	addi	a1,sp,520
     e92:	0000                	unimp
     e94:	0105fe03          	0x105fe03
     e98:	0205                	addi	tp,tp,1
     e9a:	00090103          	lb	sp,0(s2)
     e9e:	0100                	addi	s0,sp,128
     ea0:	0105                	addi	sp,sp,1
     ea2:	28091403          	lh	s0,640(s2)
     ea6:	0100                	addi	s0,sp,128
     ea8:	0205                	addi	tp,tp,1
     eaa:	42091b03          	lh	s6,1056(s2)
     eae:	0100                	addi	s0,sp,128
     eb0:	0105                	addi	sp,sp,1
     eb2:	08090303          	lb	t1,128(s2)
     eb6:	0100                	addi	s0,sp,128
     eb8:	0c09                	addi	s8,s8,2
     eba:	0000                	unimp
     ebc:	0101                	addi	sp,sp,0
     ebe:	0105                	addi	sp,sp,1
     ec0:	0006                	c.slli	zero,0x1
     ec2:	0205                	addi	tp,tp,1
     ec4:	04aa                	slli	s1,s1,0xa
     ec6:	0000                	unimp
     ec8:	0106b403          	0x106b403
     ecc:	0306                	slli	t1,t1,0x1
     ece:	00097ef3          	csrrci	t4,ustatus,18
     ed2:	0100                	addi	s0,sp,128
     ed4:	0205                	addi	tp,tp,1
     ed6:	00090203          	lb	tp,0(s2)
     eda:	0100                	addi	s0,sp,128
     edc:	0209                	addi	tp,tp,2
     ede:	0000                	unimp
     ee0:	0101                	addi	sp,sp,0
     ee2:	0105                	addi	sp,sp,1
     ee4:	0006                	c.slli	zero,0x1
     ee6:	0205                	addi	tp,tp,1
     ee8:	0000                	unimp
     eea:	0000                	unimp
     eec:	0105aa03          	lw	s4,16(a1)
     ef0:	1e05                	addi	t3,t3,-31
     ef2:	0306                	slli	t1,t1,0x1
     ef4:	7bc6                	flw	fs7,112(sp)
     ef6:	0009                	c.nop	2
     ef8:	0100                	addi	s0,sp,128
     efa:	2005                	jal	f1a <ch32v003fun.c.8affbd33+0x78>
     efc:	00090003          	lb	zero,0(s2)
     f00:	0100                	addi	s0,sp,128
     f02:	3205                	jal	822 <_data_lma+0xb2>
     f04:	00090003          	lb	zero,0(s2)
     f08:	0100                	addi	s0,sp,128
     f0a:	1e05                	addi	t3,t3,-31
     f0c:	0306                	slli	t1,t1,0x1
     f0e:	0900                	addi	s0,sp,144
     f10:	0000                	unimp
     f12:	0501                	addi	a0,a0,0
     f14:	0039                	c.nop	14
     f16:	0402                	c.slli64	s0
     f18:	0601                	addi	a2,a2,0
     f1a:	00090003          	lb	zero,0(s2)
     f1e:	0100                	addi	s0,sp,128
     f20:	3205                	jal	840 <_data_lma+0xd0>
     f22:	0200                	addi	s0,sp,256
     f24:	0104                	addi	s1,sp,128
     f26:	0306                	slli	t1,t1,0x1
     f28:	0900                	addi	s0,sp,144
     f2a:	0000                	unimp
     f2c:	0501                	addi	a0,a0,0
     f2e:	0042                	c.slli	zero,0x10
     f30:	0402                	c.slli64	s0
     f32:	0604                	addi	s1,sp,768
     f34:	00090003          	lb	zero,0(s2)
     f38:	0100                	addi	s0,sp,128
     f3a:	4e05                	li	t3,1
     f3c:	0200                	addi	s0,sp,256
     f3e:	0404                	addi	s1,sp,512
     f40:	0306                	slli	t1,t1,0x1
     f42:	0900                	addi	s0,sp,144
     f44:	0000                	unimp
     f46:	0501                	addi	a0,a0,0
     f48:	0041                	c.nop	16
     f4a:	0402                	c.slli64	s0
     f4c:	00030603          	lb	a2,0(t1)
     f50:	0009                	c.nop	2
     f52:	0100                	addi	s0,sp,128
     f54:	3d05                	jal	d84 <_data_lma+0x614>
     f56:	0200                	addi	s0,sp,256
     f58:	0304                	addi	s1,sp,384
     f5a:	00090003          	lb	zero,0(s2)
     f5e:	0100                	addi	s0,sp,128
     f60:	3e05                	jal	a90 <_data_lma+0x320>
     f62:	0200                	addi	s0,sp,256
     f64:	0304                	addi	s1,sp,384
     f66:	0306                	slli	t1,t1,0x1
     f68:	0900                	addi	s0,sp,144
     f6a:	0000                	unimp
     f6c:	0901                	addi	s2,s2,0
     f6e:	0000                	unimp
     f70:	0100                	addi	s0,sp,128
     f72:	0501                	addi	a0,a0,0
     f74:	0001                	nop
     f76:	0205                	addi	tp,tp,1
     f78:	0000                	unimp
     f7a:	0000                	unimp
     f7c:	05011a03          	lh	s4,80(sp)
     f80:	0302                	c.slli64	t1
     f82:	0901                	addi	s2,s2,0
     f84:	0000                	unimp
     f86:	0301                	addi	t1,t1,0
     f88:	0901                	addi	s2,s2,0
     f8a:	0000                	unimp
     f8c:	0501                	addi	a0,a0,0
     f8e:	0601                	addi	a2,a2,0
     f90:	00097e03          	0x97e03
     f94:	0100                	addi	s0,sp,128
     f96:	0205                	addi	tp,tp,1
     f98:	00090203          	lb	tp,0(s2)
     f9c:	0100                	addi	s0,sp,128
     f9e:	0105                	addi	sp,sp,1
     fa0:	00097e03          	0x97e03
     fa4:	0100                	addi	s0,sp,128
     fa6:	00090003          	lb	zero,0(s2)
     faa:	0100                	addi	s0,sp,128
     fac:	0205                	addi	tp,tp,1
     fae:	00090203          	lb	tp,0(s2)
     fb2:	0100                	addi	s0,sp,128
     fb4:	0306                	slli	t1,t1,0x1
     fb6:	0901                	addi	s2,s2,0
     fb8:	0000                	unimp
     fba:	0501                	addi	a0,a0,0
     fbc:	0606                	slli	a2,a2,0x1
     fbe:	0903f603          	0x903f603
     fc2:	0000                	unimp
     fc4:	0501                	addi	a0,a0,0
     fc6:	030d                	addi	t1,t1,3
     fc8:	0901                	addi	s2,s2,0
     fca:	0000                	unimp
     fcc:	0501                	addi	a0,a0,0
     fce:	0312                	slli	t1,t1,0x4
     fd0:	0900                	addi	s0,sp,144
     fd2:	0000                	unimp
     fd4:	0501                	addi	a0,a0,0
     fd6:	030c                	addi	a1,sp,384
     fd8:	0900                	addi	s0,sp,144
     fda:	0000                	unimp
     fdc:	0501                	addi	a0,a0,0
     fde:	0308                	addi	a0,sp,384
     fe0:	0900                	addi	s0,sp,144
     fe2:	0000                	unimp
     fe4:	0501                	addi	a0,a0,0
     fe6:	0301                	addi	t1,t1,0
     fe8:	7c8c                	flw	fa1,56(s1)
     fea:	0009                	c.nop	2
     fec:	0100                	addi	s0,sp,128
     fee:	0605                	addi	a2,a2,1
     ff0:	0903f603          	0x903f603
     ff4:	0000                	unimp
     ff6:	0501                	addi	a0,a0,0
     ff8:	030a                	slli	t1,t1,0x2
     ffa:	0902                	c.slli64	s2
     ffc:	0000                	unimp
     ffe:	0501                	addi	a0,a0,0
    1000:	0312                	slli	t1,t1,0x4
    1002:	097c                	addi	a5,sp,156
    1004:	0000                	unimp
    1006:	0501                	addi	a0,a0,0
    1008:	030a                	slli	t1,t1,0x2
    100a:	0904                	addi	s1,sp,144
    100c:	0000                	unimp
    100e:	0501                	addi	a0,a0,0
    1010:	0305                	addi	t1,t1,1
    1012:	00d8                	addi	a4,sp,68
    1014:	0009                	c.nop	2
    1016:	0100                	addi	s0,sp,128
    1018:	0705                	addi	a4,a4,1
    101a:	097faf03          	lw	t5,151(t6)
    101e:	0000                	unimp
    1020:	0301                	addi	t1,t1,0
    1022:	00000903          	lb	s2,0(zero) # 0 <InterruptVector>
    1026:	0501                	addi	a0,a0,0
    1028:	030c                	addi	a1,sp,384
    102a:	097d                	addi	s2,s2,31
    102c:	0000                	unimp
    102e:	0501                	addi	a0,a0,0
    1030:	0306                	slli	t1,t1,0x1
    1032:	0900                	addi	s0,sp,144
    1034:	0000                	unimp
    1036:	0501                	addi	a0,a0,0
    1038:	031c                	addi	a5,sp,384
    103a:	00000903          	lb	s2,0(zero) # 0 <InterruptVector>
    103e:	0501                	addi	a0,a0,0
    1040:	09000307          	0x9000307
    1044:	0000                	unimp
    1046:	0501                	addi	a0,a0,0
    1048:	0308                	addi	a0,sp,384
    104a:	00000903          	lb	s2,0(zero) # 0 <InterruptVector>
    104e:	0501                	addi	a0,a0,0
    1050:	030a                	slli	t1,t1,0x2
    1052:	097e                	slli	s2,s2,0x1f
    1054:	0000                	unimp
    1056:	0501                	addi	a0,a0,0
    1058:	0315                	addi	t1,t1,5
    105a:	0901                	addi	s2,s2,0
    105c:	0000                	unimp
    105e:	0501                	addi	a0,a0,0
    1060:	030d                	addi	t1,t1,3
    1062:	0901                	addi	s2,s2,0
    1064:	0000                	unimp
    1066:	0501                	addi	a0,a0,0
    1068:	0315                	addi	t1,t1,5
    106a:	097f                	0x97f
    106c:	0000                	unimp
    106e:	0501                	addi	a0,a0,0
    1070:	0308                	addi	a0,sp,384
    1072:	0901                	addi	s2,s2,0
    1074:	0000                	unimp
    1076:	0501                	addi	a0,a0,0
    1078:	0315                	addi	t1,t1,5
    107a:	097f                	0x97f
    107c:	0000                	unimp
    107e:	0501                	addi	a0,a0,0
    1080:	030c                	addi	a1,sp,384
    1082:	0900                	addi	s0,sp,144
    1084:	0000                	unimp
    1086:	0501                	addi	a0,a0,0
    1088:	0308                	addi	a0,sp,384
    108a:	0901                	addi	s2,s2,0
    108c:	0000                	unimp
    108e:	0501                	addi	a0,a0,0
    1090:	0315                	addi	t1,t1,5
    1092:	097e                	slli	s2,s2,0x1f
    1094:	0000                	unimp
    1096:	0501                	addi	a0,a0,0
    1098:	030a                	slli	t1,t1,0x2
    109a:	0900                	addi	s0,sp,144
    109c:	0000                	unimp
    109e:	0501                	addi	a0,a0,0
    10a0:	09070307          	0x9070307
    10a4:	0000                	unimp
    10a6:	0501                	addi	a0,a0,0
    10a8:	0309                	addi	t1,t1,2
    10aa:	0972                	slli	s2,s2,0x1c
    10ac:	0000                	unimp
    10ae:	0501                	addi	a0,a0,0
    10b0:	090e0307          	0x90e0307
    10b4:	0000                	unimp
    10b6:	0301                	addi	t1,t1,0
    10b8:	0902                	c.slli64	s2
    10ba:	0000                	unimp
    10bc:	0301                	addi	t1,t1,0
    10be:	097f                	0x97f
    10c0:	0000                	unimp
    10c2:	0501                	addi	a0,a0,0
    10c4:	030d                	addi	t1,t1,3
    10c6:	0901                	addi	s2,s2,0
    10c8:	0000                	unimp
    10ca:	0501                	addi	a0,a0,0
    10cc:	09000307          	0x9000307
    10d0:	0000                	unimp
    10d2:	0501                	addi	a0,a0,0
    10d4:	0304                	addi	s1,sp,384
    10d6:	00000903          	lb	s2,0(zero) # 0 <InterruptVector>
    10da:	0501                	addi	a0,a0,0
    10dc:	030c                	addi	a1,sp,384
    10de:	093d                	addi	s2,s2,15
    10e0:	0000                	unimp
    10e2:	0501                	addi	a0,a0,0
    10e4:	0309                	addi	t1,t1,2
    10e6:	7fae                	flw	ft11,232(sp)
    10e8:	0009                	c.nop	2
    10ea:	0100                	addi	s0,sp,128
    10ec:	0405                	addi	s0,s0,1
    10ee:	00091503          	lh	a0,0(s2)
    10f2:	0100                	addi	s0,sp,128
    10f4:	0a05                	addi	s4,s4,1
    10f6:	00092403          	lw	s0,0(s2)
    10fa:	0100                	addi	s0,sp,128
    10fc:	0c05                	addi	s8,s8,1
    10fe:	00090103          	lb	sp,0(s2)
    1102:	0100                	addi	s0,sp,128
    1104:	0905                	addi	s2,s2,1
    1106:	00090103          	lb	sp,0(s2)
    110a:	0100                	addi	s0,sp,128
    110c:	0c05                	addi	s8,s8,1
    110e:	00097f03          	0x97f03
    1112:	0100                	addi	s0,sp,128
    1114:	0905                	addi	s2,s2,1
    1116:	00090103          	lb	sp,0(s2)
    111a:	0100                	addi	s0,sp,128
    111c:	0d05                	addi	s10,s10,1
    111e:	00090103          	lb	sp,0(s2)
    1122:	0100                	addi	s0,sp,128
    1124:	1705                	addi	a4,a4,-31
    1126:	00095f03          	lhu	t5,0(s2)
    112a:	0100                	addi	s0,sp,128
    112c:	0805                	addi	a6,a6,1
    112e:	00097f03          	0x97f03
    1132:	0100                	addi	s0,sp,128
    1134:	0d05                	addi	s10,s10,1
    1136:	00090103          	lb	sp,0(s2)
    113a:	0100                	addi	s0,sp,128
    113c:	0c05                	addi	s8,s8,1
    113e:	00090803          	lb	a6,0(s2)
    1142:	0100                	addi	s0,sp,128
    1144:	00090b03          	lb	s6,0(s2)
    1148:	0100                	addi	s0,sp,128
    114a:	00090103          	lb	sp,0(s2)
    114e:	0100                	addi	s0,sp,128
    1150:	00092303          	lw	t1,0(s2)
    1154:	0100                	addi	s0,sp,128
    1156:	0905                	addi	s2,s2,1
    1158:	00094b03          	lbu	s6,0(s2)
    115c:	0100                	addi	s0,sp,128
    115e:	1705                	addi	a4,a4,-31
    1160:	00097e03          	0x97e03
    1164:	0100                	addi	s0,sp,128
    1166:	0d05                	addi	s10,s10,1
    1168:	00090f03          	lb	t5,0(s2)
    116c:	0100                	addi	s0,sp,128
    116e:	1705                	addi	a4,a4,-31
    1170:	00097103          	0x97103
    1174:	0100                	addi	s0,sp,128
    1176:	0c05                	addi	s8,s8,1
    1178:	00091303          	lh	t1,0(s2)
    117c:	0100                	addi	s0,sp,128
    117e:	1205                	addi	tp,tp,-31
    1180:	00090503          	lb	a0,0(s2)
    1184:	0100                	addi	s0,sp,128
    1186:	0b05                	addi	s6,s6,1
    1188:	00090003          	lb	zero,0(s2)
    118c:	0100                	addi	s0,sp,128
    118e:	1205                	addi	tp,tp,-31
    1190:	00090003          	lb	zero,0(s2)
    1194:	0100                	addi	s0,sp,128
    1196:	0c05                	addi	s8,s8,1
    1198:	00090103          	lb	sp,0(s2)
    119c:	0100                	addi	s0,sp,128
    119e:	0b05                	addi	s6,s6,1
    11a0:	00097f03          	0x97f03
    11a4:	0100                	addi	s0,sp,128
    11a6:	0c05                	addi	s8,s8,1
    11a8:	00090103          	lb	sp,0(s2)
    11ac:	0100                	addi	s0,sp,128
    11ae:	0d05                	addi	s10,s10,1
    11b0:	00090b03          	lb	s6,0(s2)
    11b4:	0100                	addi	s0,sp,128
    11b6:	0009                	c.nop	2
    11b8:	0000                	unimp
    11ba:	0101                	addi	sp,sp,0
    11bc:	2b05                	jal	16ec <ch32v003fun.c.8affbd33+0x84a>
    11be:	0500                	addi	s0,sp,640
    11c0:	0002                	c.slli64	zero
    11c2:	0000                	unimp
    11c4:	0300                	addi	s0,sp,384
    11c6:	00f2                	slli	ra,ra,0x1c
    11c8:	0501                	addi	a0,a0,0
    11ca:	032d                	addi	t1,t1,11
    11cc:	0900                	addi	s0,sp,144
    11ce:	0000                	unimp
    11d0:	0501                	addi	a0,a0,0
    11d2:	0346                	slli	t1,t1,0x11
    11d4:	0900                	addi	s0,sp,144
    11d6:	0000                	unimp
    11d8:	0501                	addi	a0,a0,0
    11da:	063c                	addi	a5,sp,776
    11dc:	00090003          	lb	zero,0(s2)
    11e0:	0100                	addi	s0,sp,128
    11e2:	4d05                	li	s10,1
    11e4:	0200                	addi	s0,sp,256
    11e6:	0104                	addi	s1,sp,128
    11e8:	0306                	slli	t1,t1,0x1
    11ea:	0900                	addi	s0,sp,144
    11ec:	0000                	unimp
    11ee:	0501                	addi	a0,a0,0
    11f0:	0046                	c.slli	zero,0x11
    11f2:	0402                	c.slli64	s0
    11f4:	0601                	addi	a2,a2,0
    11f6:	00090003          	lb	zero,0(s2)
    11fa:	0100                	addi	s0,sp,128
    11fc:	6205                	lui	tp,0x1
    11fe:	0200                	addi	s0,sp,256
    1200:	0404                	addi	s1,sp,512
    1202:	0306                	slli	t1,t1,0x1
    1204:	0900                	addi	s0,sp,144
    1206:	0000                	unimp
    1208:	0501                	addi	a0,a0,0
    120a:	0402006f          	j	2124a <wiring.c.7604182b+0x1e8b1>
    120e:	0604                	addi	s1,sp,768
    1210:	00090003          	lb	zero,0(s2)
    1214:	0100                	addi	s0,sp,128
    1216:	5a05                	li	s4,-31
    1218:	0200                	addi	s0,sp,256
    121a:	0304                	addi	s1,sp,384
    121c:	0306                	slli	t1,t1,0x1
    121e:	0900                	addi	s0,sp,144
    1220:	0000                	unimp
    1222:	0501                	addi	a0,a0,0
    1224:	005d                	c.nop	23
    1226:	0402                	c.slli64	s0
    1228:	00030603          	lb	a2,0(t1)
    122c:	0009                	c.nop	2
    122e:	0100                	addi	s0,sp,128
    1230:	5005                	c.li	zero,-31
    1232:	0200                	addi	s0,sp,256
    1234:	0304                	addi	s1,sp,384
    1236:	0306                	slli	t1,t1,0x1
    1238:	0900                	addi	s0,sp,144
    123a:	0000                	unimp
    123c:	0501                	addi	a0,a0,0
    123e:	0056                	c.slli	zero,0x15
    1240:	0402                	c.slli64	s0
    1242:	00030603          	lb	a2,0(t1)
    1246:	0009                	c.nop	2
    1248:	0100                	addi	s0,sp,128
    124a:	0009                	c.nop	2
    124c:	0000                	unimp
    124e:	0101                	addi	sp,sp,0
    1250:	2605                	jal	1570 <ch32v003fun.c.8affbd33+0x6ce>
    1252:	0500                	addi	s0,sp,640
    1254:	0002                	c.slli64	zero
    1256:	0000                	unimp
    1258:	0300                	addi	s0,sp,384
    125a:	050100f3          	0x50100f3
    125e:	0328                	addi	a0,sp,392
    1260:	0900                	addi	s0,sp,144
    1262:	0000                	unimp
    1264:	0501                	addi	a0,a0,0
    1266:	0402002f          	0x402002f
    126a:	0301                	addi	t1,t1,0
    126c:	0900                	addi	s0,sp,144
    126e:	0000                	unimp
    1270:	0501                	addi	a0,a0,0
    1272:	04020033          	0x4020033
    1276:	0601                	addi	a2,a2,0
    1278:	00090003          	lb	zero,0(s2)
    127c:	0100                	addi	s0,sp,128
    127e:	3205                	jal	b9e <_data_lma+0x42e>
    1280:	0200                	addi	s0,sp,256
    1282:	0104                	addi	s1,sp,128
    1284:	00090003          	lb	zero,0(s2)
    1288:	0100                	addi	s0,sp,128
    128a:	2805                	jal	12ba <ch32v003fun.c.8affbd33+0x418>
    128c:	0200                	addi	s0,sp,256
    128e:	0104                	addi	s1,sp,128
    1290:	00090003          	lb	zero,0(s2)
    1294:	0100                	addi	s0,sp,128
    1296:	4305                	li	t1,1
    1298:	0200                	addi	s0,sp,256
    129a:	0304                	addi	s1,sp,384
    129c:	0306                	slli	t1,t1,0x1
    129e:	0900                	addi	s0,sp,144
    12a0:	0000                	unimp
    12a2:	0501                	addi	a0,a0,0
    12a4:	004d                	c.nop	19
    12a6:	0402                	c.slli64	s0
    12a8:	00030603          	lb	a2,0(t1)
    12ac:	0009                	c.nop	2
    12ae:	0100                	addi	s0,sp,128
    12b0:	4105                	li	sp,1
    12b2:	0200                	addi	s0,sp,256
    12b4:	0204                	addi	s1,sp,256
    12b6:	0306                	slli	t1,t1,0x1
    12b8:	0900                	addi	s0,sp,144
    12ba:	0000                	unimp
    12bc:	0501                	addi	a0,a0,0
    12be:	0038                	addi	a4,sp,8
    12c0:	0402                	c.slli64	s0
    12c2:	0302                	c.slli64	t1
    12c4:	0900                	addi	s0,sp,144
    12c6:	0000                	unimp
    12c8:	0501                	addi	a0,a0,0
    12ca:	0039                	c.nop	14
    12cc:	0402                	c.slli64	s0
    12ce:	0602                	c.slli64	a2
    12d0:	00090003          	lb	zero,0(s2)
    12d4:	0100                	addi	s0,sp,128
    12d6:	3e05                	jal	e06 <_data_lma+0x696>
    12d8:	0200                	addi	s0,sp,256
    12da:	0204                	addi	s1,sp,256
    12dc:	00090003          	lb	zero,0(s2)
    12e0:	0100                	addi	s0,sp,128
    12e2:	0009                	c.nop	2
    12e4:	0000                	unimp
    12e6:	0101                	addi	sp,sp,0
    12e8:	3105                	jal	f08 <ch32v003fun.c.8affbd33+0x66>
    12ea:	0500                	addi	s0,sp,640
    12ec:	0002                	c.slli64	zero
    12ee:	0000                	unimp
    12f0:	0300                	addi	s0,sp,384
    12f2:	00f4                	addi	a3,sp,76
    12f4:	0501                	addi	a0,a0,0
    12f6:	09000333          	0x9000333
    12fa:	0000                	unimp
    12fc:	0501                	addi	a0,a0,0
    12fe:	003a                	c.slli	zero,0xe
    1300:	0402                	c.slli64	s0
    1302:	0301                	addi	t1,t1,0
    1304:	0900                	addi	s0,sp,144
    1306:	0000                	unimp
    1308:	0501                	addi	a0,a0,0
    130a:	04020033          	0x4020033
    130e:	0601                	addi	a2,a2,0
    1310:	00090003          	lb	zero,0(s2)
    1314:	0100                	addi	s0,sp,128
    1316:	4305                	li	t1,1
    1318:	0200                	addi	s0,sp,256
    131a:	0204                	addi	s1,sp,256
    131c:	00090003          	lb	zero,0(s2)
    1320:	0100                	addi	s0,sp,128
    1322:	4205                	li	tp,1
    1324:	0200                	addi	s0,sp,256
    1326:	0204                	addi	s1,sp,256
    1328:	00090003          	lb	zero,0(s2)
    132c:	0100                	addi	s0,sp,128
    132e:	3c05                	jal	d5e <_data_lma+0x5ee>
    1330:	0200                	addi	s0,sp,256
    1332:	0204                	addi	s1,sp,256
    1334:	00090003          	lb	zero,0(s2)
    1338:	0100                	addi	s0,sp,128
    133a:	6205                	lui	tp,0x1
    133c:	00090003          	lb	zero,0(s2)
    1340:	0100                	addi	s0,sp,128
    1342:	5605                	li	a2,-31
    1344:	0200                	addi	s0,sp,256
    1346:	0404                	addi	s1,sp,512
    1348:	0306                	slli	t1,t1,0x1
    134a:	0900                	addi	s0,sp,144
    134c:	0000                	unimp
    134e:	0501                	addi	a0,a0,0
    1350:	0048                	addi	a0,sp,4
    1352:	0402                	c.slli64	s0
    1354:	0304                	addi	s1,sp,384
    1356:	0900                	addi	s0,sp,144
    1358:	0000                	unimp
    135a:	0501                	addi	a0,a0,0
    135c:	004e                	c.slli	zero,0x13
    135e:	0402                	c.slli64	s0
    1360:	0604                	addi	s1,sp,768
    1362:	00090003          	lb	zero,0(s2)
    1366:	0100                	addi	s0,sp,128
    1368:	5305                	li	t1,-31
    136a:	0200                	addi	s0,sp,256
    136c:	0404                	addi	s1,sp,512
    136e:	00090003          	lb	zero,0(s2)
    1372:	0100                	addi	s0,sp,128
    1374:	0009                	c.nop	2
    1376:	0000                	unimp
    1378:	0101                	addi	sp,sp,0
    137a:	0105                	addi	sp,sp,1
    137c:	0500                	addi	s0,sp,640
    137e:	0002                	c.slli64	zero
    1380:	0000                	unimp
    1382:	0300                	addi	s0,sp,384
    1384:	00f6                	slli	ra,ra,0x1d
    1386:	0501                	addi	a0,a0,0
    1388:	0302                	c.slli64	t1
    138a:	0901                	addi	s2,s2,0
    138c:	0000                	unimp
    138e:	0501                	addi	a0,a0,0
    1390:	0009                	c.nop	2
    1392:	0402                	c.slli64	s0
    1394:	0301                	addi	t1,t1,0
    1396:	0900                	addi	s0,sp,144
    1398:	0000                	unimp
    139a:	0501                	addi	a0,a0,0
    139c:	000d                	c.nop	3
    139e:	0402                	c.slli64	s0
    13a0:	0601                	addi	a2,a2,0
    13a2:	00090003          	lb	zero,0(s2)
    13a6:	0100                	addi	s0,sp,128
    13a8:	0205                	addi	tp,tp,1
    13aa:	0200                	addi	s0,sp,256
    13ac:	0104                	addi	s1,sp,128
    13ae:	00090003          	lb	zero,0(s2)
    13b2:	0100                	addi	s0,sp,128
    13b4:	1005                	c.nop	-31
    13b6:	0200                	addi	s0,sp,256
    13b8:	0204                	addi	s1,sp,256
    13ba:	00090003          	lb	zero,0(s2)
    13be:	0100                	addi	s0,sp,128
    13c0:	0205                	addi	tp,tp,1
    13c2:	0306                	slli	t1,t1,0x1
    13c4:	0901                	addi	s2,s2,0
    13c6:	0000                	unimp
    13c8:	0501                	addi	a0,a0,0
    13ca:	0601                	addi	a2,a2,0
    13cc:	00090103          	lb	sp,0(s2)
    13d0:	0100                	addi	s0,sp,128
    13d2:	2005                	jal	13f2 <ch32v003fun.c.8affbd33+0x550>
    13d4:	0200                	addi	s0,sp,256
    13d6:	0304                	addi	s1,sp,384
    13d8:	0306                	slli	t1,t1,0x1
    13da:	097e                	slli	s2,s2,0x1f
    13dc:	0000                	unimp
    13de:	0501                	addi	a0,a0,0
    13e0:	04020017          	auipc	zero,0x4020
    13e4:	09000303          	lb	t1,144(zero) # 90 <InterruptVector+0x90>
    13e8:	0000                	unimp
    13ea:	0501                	addi	a0,a0,0
    13ec:	0018                	0x18
    13ee:	0402                	c.slli64	s0
    13f0:	00030603          	lb	a2,0(t1)
    13f4:	0009                	c.nop	2
    13f6:	0100                	addi	s0,sp,128
    13f8:	1d05                	addi	s10,s10,-31
    13fa:	0200                	addi	s0,sp,256
    13fc:	0304                	addi	s1,sp,384
    13fe:	00090003          	lb	zero,0(s2)
    1402:	0100                	addi	s0,sp,128
    1404:	0009                	c.nop	2
    1406:	0000                	unimp
    1408:	0101                	addi	sp,sp,0
    140a:	0105                	addi	sp,sp,1
    140c:	0500                	addi	s0,sp,640
    140e:	0002                	c.slli64	zero
    1410:	0000                	unimp
    1412:	0300                	addi	s0,sp,384
    1414:	050100fb          	0x50100fb
    1418:	0302                	c.slli64	t1
    141a:	0901                	addi	s2,s2,0
    141c:	0000                	unimp
    141e:	0301                	addi	t1,t1,0
    1420:	0901                	addi	s2,s2,0
    1422:	0000                	unimp
    1424:	0501                	addi	a0,a0,0
    1426:	0605                	addi	a2,a2,1
    1428:	00090003          	lb	zero,0(s2)
    142c:	0100                	addi	s0,sp,128
    142e:	0805                	addi	a6,a6,1
    1430:	00090003          	lb	zero,0(s2)
    1434:	0100                	addi	s0,sp,128
    1436:	0905                	addi	s2,s2,1
    1438:	0200                	addi	s0,sp,256
    143a:	0104                	addi	s1,sp,128
    143c:	0306                	slli	t1,t1,0x1
    143e:	0901                	addi	s2,s2,0
    1440:	0000                	unimp
    1442:	0501                	addi	a0,a0,0
    1444:	0402000f          	0x402000f
    1448:	0601                	addi	a2,a2,0
    144a:	00090003          	lb	zero,0(s2)
    144e:	0100                	addi	s0,sp,128
    1450:	0205                	addi	tp,tp,1
    1452:	0200                	addi	s0,sp,256
    1454:	0104                	addi	s1,sp,128
    1456:	00090003          	lb	zero,0(s2)
    145a:	0100                	addi	s0,sp,128
    145c:	0c05                	addi	s8,s8,1
    145e:	0200                	addi	s0,sp,256
    1460:	0204                	addi	s1,sp,256
    1462:	00090003          	lb	zero,0(s2)
    1466:	0100                	addi	s0,sp,128
    1468:	1205                	addi	tp,tp,-31
    146a:	0200                	addi	s0,sp,256
    146c:	0304                	addi	s1,sp,384
    146e:	00090003          	lb	zero,0(s2)
    1472:	0100                	addi	s0,sp,128
    1474:	1705                	addi	a4,a4,-31
    1476:	0200                	addi	s0,sp,256
    1478:	0404                	addi	s1,sp,512
    147a:	00090003          	lb	zero,0(s2)
    147e:	0100                	addi	s0,sp,128
    1480:	0205                	addi	tp,tp,1
    1482:	0306                	slli	t1,t1,0x1
    1484:	0901                	addi	s2,s2,0
    1486:	0000                	unimp
    1488:	0501                	addi	a0,a0,0
    148a:	060c                	addi	a1,sp,768
    148c:	00090003          	lb	zero,0(s2)
    1490:	0100                	addi	s0,sp,128
    1492:	1305                	addi	t1,t1,-31
    1494:	00097e03          	0x97e03
    1498:	0100                	addi	s0,sp,128
    149a:	0105                	addi	sp,sp,1
    149c:	00090303          	lb	t1,0(s2)
    14a0:	0100                	addi	s0,sp,128
    14a2:	0009                	c.nop	2
    14a4:	0000                	unimp
    14a6:	0101                	addi	sp,sp,0
    14a8:	0105                	addi	sp,sp,1
    14aa:	0500                	addi	s0,sp,640
    14ac:	0002                	c.slli64	zero
    14ae:	0000                	unimp
    14b0:	0300                	addi	s0,sp,384
    14b2:	0601029b          	0x601029b
    14b6:	00090003          	lb	zero,0(s2)
    14ba:	0100                	addi	s0,sp,128
    14bc:	0205                	addi	tp,tp,1
    14be:	0306                	slli	t1,t1,0x1
    14c0:	0901                	addi	s2,s2,0
    14c2:	0000                	unimp
    14c4:	0301                	addi	t1,t1,0
    14c6:	0901                	addi	s2,s2,0
    14c8:	0000                	unimp
    14ca:	0501                	addi	a0,a0,0
    14cc:	0605                	addi	a2,a2,1
    14ce:	00090003          	lb	zero,0(s2)
    14d2:	0100                	addi	s0,sp,128
    14d4:	0a05                	addi	s4,s4,1
    14d6:	0306                	slli	t1,t1,0x1
    14d8:	0900                	addi	s0,sp,144
    14da:	0000                	unimp
    14dc:	0501                	addi	a0,a0,0
    14de:	061d                	addi	a2,a2,7
    14e0:	00090003          	lb	zero,0(s2)
    14e4:	0100                	addi	s0,sp,128
    14e6:	1b05                	addi	s6,s6,-31
    14e8:	00090003          	lb	zero,0(s2)
    14ec:	0100                	addi	s0,sp,128
    14ee:	0105                	addi	sp,sp,1
    14f0:	00090303          	lb	t1,0(s2)
    14f4:	0100                	addi	s0,sp,128
    14f6:	2d05                	jal	1b26 <ch32v003fun.c.8affbd33+0xc84>
    14f8:	0200                	addi	s0,sp,256
    14fa:	0304                	addi	s1,sp,384
    14fc:	0306                	slli	t1,t1,0x1
    14fe:	097e                	slli	s2,s2,0x1f
    1500:	0000                	unimp
    1502:	0501                	addi	a0,a0,0
    1504:	0029                	c.nop	10
    1506:	0402                	c.slli64	s0
    1508:	09000303          	lb	t1,144(zero) # 90 <InterruptVector+0x90>
    150c:	0000                	unimp
    150e:	0501                	addi	a0,a0,0
    1510:	002a                	c.slli	zero,0xa
    1512:	0402                	c.slli64	s0
    1514:	00030603          	lb	a2,0(t1)
    1518:	0009                	c.nop	2
    151a:	0100                	addi	s0,sp,128
    151c:	0905                	addi	s2,s2,1
    151e:	0200                	addi	s0,sp,256
    1520:	0104                	addi	s1,sp,128
    1522:	0306                	slli	t1,t1,0x1
    1524:	0900                	addi	s0,sp,144
    1526:	0000                	unimp
    1528:	0501                	addi	a0,a0,0
    152a:	0002                	c.slli64	zero
    152c:	0402                	c.slli64	s0
    152e:	0601                	addi	a2,a2,0
    1530:	00090003          	lb	zero,0(s2)
    1534:	0100                	addi	s0,sp,128
    1536:	0c05                	addi	s8,s8,1
    1538:	0200                	addi	s0,sp,256
    153a:	0204                	addi	s1,sp,256
    153c:	00090003          	lb	zero,0(s2)
    1540:	0100                	addi	s0,sp,128
    1542:	0009                	c.nop	2
    1544:	0000                	unimp
    1546:	0101                	addi	sp,sp,0
    1548:	0105                	addi	sp,sp,1
    154a:	0500                	addi	s0,sp,640
    154c:	0002                	c.slli64	zero
    154e:	0000                	unimp
    1550:	0300                	addi	s0,sp,384
    1552:	02ac                	addi	a1,sp,328
    1554:	0501                	addi	a0,a0,0
    1556:	0302                	c.slli64	t1
    1558:	0901                	addi	s2,s2,0
    155a:	0000                	unimp
    155c:	0501                	addi	a0,a0,0
    155e:	0601                	addi	a2,a2,0
    1560:	00097f03          	0x97f03
    1564:	0100                	addi	s0,sp,128
    1566:	1905                	addi	s2,s2,-31
    1568:	00090103          	lb	sp,0(s2)
    156c:	0100                	addi	s0,sp,128
    156e:	0205                	addi	tp,tp,1
    1570:	0306                	slli	t1,t1,0x1
    1572:	0978                	addi	a4,sp,156
    1574:	0000                	unimp
    1576:	0301                	addi	t1,t1,0
    1578:	0901                	addi	s2,s2,0
    157a:	0000                	unimp
    157c:	0301                	addi	t1,t1,0
    157e:	0901                	addi	s2,s2,0
    1580:	0000                	unimp
    1582:	0501                	addi	a0,a0,0
    1584:	0308                	addi	a0,sp,384
    1586:	0900                	addi	s0,sp,144
    1588:	0000                	unimp
    158a:	0501                	addi	a0,a0,0
    158c:	0609                	addi	a2,a2,2
    158e:	00090103          	lb	sp,0(s2)
    1592:	0100                	addi	s0,sp,128
    1594:	0e05                	addi	t3,t3,1
    1596:	0306                	slli	t1,t1,0x1
    1598:	097f                	0x97f
    159a:	0000                	unimp
    159c:	0501                	addi	a0,a0,0
    159e:	00030613          	mv	a2,t1
    15a2:	0009                	c.nop	2
    15a4:	0100                	addi	s0,sp,128
    15a6:	1105                	addi	sp,sp,-31
    15a8:	00090003          	lb	zero,0(s2)
    15ac:	0100                	addi	s0,sp,128
    15ae:	0105                	addi	sp,sp,1
    15b0:	00090703          	lb	a4,0(s2)
    15b4:	0100                	addi	s0,sp,128
    15b6:	0009                	c.nop	2
    15b8:	0000                	unimp
    15ba:	0101                	addi	sp,sp,0
    15bc:	0105                	addi	sp,sp,1
    15be:	0500                	addi	s0,sp,640
    15c0:	0002                	c.slli64	zero
    15c2:	0000                	unimp
    15c4:	0300                	addi	s0,sp,384
    15c6:	02b1                	addi	t0,t0,12
    15c8:	0501                	addi	a0,a0,0
    15ca:	0302                	c.slli64	t1
    15cc:	0901                	addi	s2,s2,0
    15ce:	0000                	unimp
    15d0:	0301                	addi	t1,t1,0
    15d2:	0901                	addi	s2,s2,0
    15d4:	0000                	unimp
    15d6:	0301                	addi	t1,t1,0
    15d8:	0901                	addi	s2,s2,0
    15da:	0000                	unimp
    15dc:	0501                	addi	a0,a0,0
    15de:	0601                	addi	a2,a2,0
    15e0:	00097d03          	0x97d03
    15e4:	0100                	addi	s0,sp,128
    15e6:	0905                	addi	s2,s2,1
    15e8:	0200                	addi	s0,sp,256
    15ea:	0104                	addi	s1,sp,128
    15ec:	0306                	slli	t1,t1,0x1
    15ee:	00000903          	lb	s2,0(zero) # 0 <InterruptVector>
    15f2:	0501                	addi	a0,a0,0
    15f4:	0002                	c.slli64	zero
    15f6:	0402                	c.slli64	s0
    15f8:	0601                	addi	a2,a2,0
    15fa:	00090003          	lb	zero,0(s2)
    15fe:	0100                	addi	s0,sp,128
    1600:	0306                	slli	t1,t1,0x1
    1602:	0901                	addi	s2,s2,0
    1604:	0000                	unimp
    1606:	0501                	addi	a0,a0,0
    1608:	0601                	addi	a2,a2,0
    160a:	00090103          	lb	sp,0(s2)
    160e:	0100                	addi	s0,sp,128
    1610:	1105                	addi	sp,sp,-31
    1612:	0200                	addi	s0,sp,256
    1614:	0204                	addi	s1,sp,256
    1616:	0306                	slli	t1,t1,0x1
    1618:	097e                	slli	s2,s2,0x1f
    161a:	0000                	unimp
    161c:	0501                	addi	a0,a0,0
    161e:	0018                	0x18
    1620:	0402                	c.slli64	s0
    1622:	0602                	c.slli64	a2
    1624:	00090003          	lb	zero,0(s2)
    1628:	0100                	addi	s0,sp,128
    162a:	1605                	addi	a2,a2,-31
    162c:	0200                	addi	s0,sp,256
    162e:	0204                	addi	s1,sp,256
    1630:	00090003          	lb	zero,0(s2)
    1634:	0100                	addi	s0,sp,128
    1636:	0c05                	addi	s8,s8,1
    1638:	0200                	addi	s0,sp,256
    163a:	0204                	addi	s1,sp,256
    163c:	0306                	slli	t1,t1,0x1
    163e:	0900                	addi	s0,sp,144
    1640:	0000                	unimp
    1642:	0901                	addi	s2,s2,0
    1644:	0000                	unimp
    1646:	0100                	addi	s0,sp,128
    1648:	0501                	addi	a0,a0,0
    164a:	0001                	nop
    164c:	0205                	addi	tp,tp,1
    164e:	0000                	unimp
    1650:	0000                	unimp
    1652:	0102b903          	0x102b903
    1656:	0205                	addi	tp,tp,1
    1658:	00090103          	lb	sp,0(s2)
    165c:	0100                	addi	s0,sp,128
    165e:	00090103          	lb	sp,0(s2)
    1662:	0100                	addi	s0,sp,128
    1664:	0105                	addi	sp,sp,1
    1666:	0306                	slli	t1,t1,0x1
    1668:	097e                	slli	s2,s2,0x1f
    166a:	0000                	unimp
    166c:	0501                	addi	a0,a0,0
    166e:	0009                	c.nop	2
    1670:	0402                	c.slli64	s0
    1672:	0601                	addi	a2,a2,0
    1674:	00090203          	lb	tp,0(s2)
    1678:	0100                	addi	s0,sp,128
    167a:	0205                	addi	tp,tp,1
    167c:	0200                	addi	s0,sp,256
    167e:	0104                	addi	s1,sp,128
    1680:	0306                	slli	t1,t1,0x1
    1682:	0900                	addi	s0,sp,144
    1684:	0000                	unimp
    1686:	0501                	addi	a0,a0,0
    1688:	000e                	c.slli	zero,0x3
    168a:	0402                	c.slli64	s0
    168c:	0302                	c.slli64	t1
    168e:	0900                	addi	s0,sp,144
    1690:	0000                	unimp
    1692:	0501                	addi	a0,a0,0
    1694:	0402000b          	0x402000b
    1698:	0302                	c.slli64	t1
    169a:	0900                	addi	s0,sp,144
    169c:	0000                	unimp
    169e:	0501                	addi	a0,a0,0
    16a0:	0014                	0x14
    16a2:	0402                	c.slli64	s0
    16a4:	0302                	c.slli64	t1
    16a6:	0900                	addi	s0,sp,144
    16a8:	0000                	unimp
    16aa:	0501                	addi	a0,a0,0
    16ac:	000e                	c.slli	zero,0x3
    16ae:	0402                	c.slli64	s0
    16b0:	0302                	c.slli64	t1
    16b2:	0900                	addi	s0,sp,144
    16b4:	0000                	unimp
    16b6:	0501                	addi	a0,a0,0
    16b8:	0014                	0x14
    16ba:	0402                	c.slli64	s0
    16bc:	0302                	c.slli64	t1
    16be:	0900                	addi	s0,sp,144
    16c0:	0000                	unimp
    16c2:	0501                	addi	a0,a0,0
    16c4:	0402000b          	0x402000b
    16c8:	0302                	c.slli64	t1
    16ca:	0900                	addi	s0,sp,144
    16cc:	0000                	unimp
    16ce:	0501                	addi	a0,a0,0
    16d0:	0602                	c.slli64	a2
    16d2:	00090103          	lb	sp,0(s2)
    16d6:	0100                	addi	s0,sp,128
    16d8:	1305                	addi	t1,t1,-31
    16da:	0306                	slli	t1,t1,0x1
    16dc:	0900                	addi	s0,sp,144
    16de:	0000                	unimp
    16e0:	0501                	addi	a0,a0,0
    16e2:	0301                	addi	t1,t1,0
    16e4:	0901                	addi	s2,s2,0
    16e6:	0000                	unimp
    16e8:	0501                	addi	a0,a0,0
    16ea:	097f0313          	addi	t1,t5,151
    16ee:	0000                	unimp
    16f0:	0901                	addi	s2,s2,0
    16f2:	0000                	unimp
    16f4:	0100                	addi	s0,sp,128
    16f6:	0501                	addi	a0,a0,0
    16f8:	0001                	nop
    16fa:	0205                	addi	tp,tp,1
    16fc:	0000                	unimp
    16fe:	0000                	unimp
    1700:	0102c103          	lbu	sp,16(t0)
    1704:	0205                	addi	tp,tp,1
    1706:	00090103          	lb	sp,0(s2)
    170a:	0100                	addi	s0,sp,128
    170c:	00090103          	lb	sp,0(s2)
    1710:	0100                	addi	s0,sp,128
    1712:	00090203          	lb	tp,0(s2)
    1716:	0100                	addi	s0,sp,128
    1718:	0105                	addi	sp,sp,1
    171a:	0306                	slli	t1,t1,0x1
    171c:	097c                	addi	a5,sp,156
    171e:	0000                	unimp
    1720:	0501                	addi	a0,a0,0
    1722:	0305                	addi	t1,t1,1
    1724:	0904                	addi	s1,sp,144
    1726:	0000                	unimp
    1728:	0501                	addi	a0,a0,0
    172a:	0602                	c.slli64	a2
    172c:	00090103          	lb	sp,0(s2)
    1730:	0100                	addi	s0,sp,128
    1732:	1f05                	addi	t5,t5,-31
    1734:	0306                	slli	t1,t1,0x1
    1736:	0900                	addi	s0,sp,144
    1738:	0000                	unimp
    173a:	0501                	addi	a0,a0,0
    173c:	09000327          	0x9000327
    1740:	0000                	unimp
    1742:	0501                	addi	a0,a0,0
    1744:	031f 0900 0000      	0x900031f
    174a:	0501                	addi	a0,a0,0
    174c:	09000327          	0x9000327
    1750:	0000                	unimp
    1752:	0501                	addi	a0,a0,0
    1754:	0305                	addi	t1,t1,1
    1756:	0900                	addi	s0,sp,144
    1758:	0000                	unimp
    175a:	0501                	addi	a0,a0,0
    175c:	0402002b          	0x402002b
    1760:	0601                	addi	a2,a2,0
    1762:	00090003          	lb	zero,0(s2)
    1766:	0100                	addi	s0,sp,128
    1768:	3205                	jal	1088 <ch32v003fun.c.8affbd33+0x1e6>
    176a:	0200                	addi	s0,sp,256
    176c:	0104                	addi	s1,sp,128
    176e:	0306                	slli	t1,t1,0x1
    1770:	0900                	addi	s0,sp,144
    1772:	0000                	unimp
    1774:	0501                	addi	a0,a0,0
    1776:	0602                	c.slli64	a2
    1778:	00090203          	lb	tp,0(s2)
    177c:	0100                	addi	s0,sp,128
    177e:	0505                	addi	a0,a0,1
    1780:	0306                	slli	t1,t1,0x1
    1782:	0900                	addi	s0,sp,144
    1784:	0000                	unimp
    1786:	0501                	addi	a0,a0,0
    1788:	0609                	addi	a2,a2,2
    178a:	00090303          	lb	t1,0(s2)
    178e:	0100                	addi	s0,sp,128
    1790:	0d05                	addi	s10,s10,1
    1792:	00090003          	lb	zero,0(s2)
    1796:	0100                	addi	s0,sp,128
    1798:	0e05                	addi	t3,t3,1
    179a:	0306                	slli	t1,t1,0x1
    179c:	0900                	addi	s0,sp,144
    179e:	0000                	unimp
    17a0:	0501                	addi	a0,a0,0
    17a2:	031a                	slli	t1,t1,0x6
    17a4:	0900                	addi	s0,sp,144
    17a6:	0000                	unimp
    17a8:	0501                	addi	a0,a0,0
    17aa:	09000317          	auipc	t1,0x9000
    17ae:	0000                	unimp
    17b0:	0501                	addi	a0,a0,0
    17b2:	0612                	slli	a2,a2,0x4
    17b4:	00097e03          	0x97e03
    17b8:	0100                	addi	s0,sp,128
    17ba:	1905                	addi	s2,s2,-31
    17bc:	0306                	slli	t1,t1,0x1
    17be:	0900                	addi	s0,sp,144
    17c0:	0000                	unimp
    17c2:	0501                	addi	a0,a0,0
    17c4:	09000317          	auipc	t1,0x9000
    17c8:	0000                	unimp
    17ca:	0501                	addi	a0,a0,0
    17cc:	060d                	addi	a2,a2,3
    17ce:	00090003          	lb	zero,0(s2)
    17d2:	0100                	addi	s0,sp,128
    17d4:	0a05                	addi	s4,s4,1
    17d6:	00090003          	lb	zero,0(s2)
    17da:	0100                	addi	s0,sp,128
    17dc:	0305                	addi	t1,t1,1
    17de:	0306                	slli	t1,t1,0x1
    17e0:	0900                	addi	s0,sp,144
    17e2:	0000                	unimp
    17e4:	0501                	addi	a0,a0,0
    17e6:	0305                	addi	t1,t1,1
    17e8:	097f                	0x97f
    17ea:	0000                	unimp
    17ec:	0501                	addi	a0,a0,0
    17ee:	0301                	addi	t1,t1,0
    17f0:	00000907          	0x907
    17f4:	0501                	addi	a0,a0,0
    17f6:	0305                	addi	t1,t1,1
    17f8:	0979                	addi	s2,s2,30
    17fa:	0000                	unimp
    17fc:	0901                	addi	s2,s2,0
    17fe:	0000                	unimp
    1800:	0100                	addi	s0,sp,128
    1802:	0501                	addi	a0,a0,0
    1804:	0001                	nop
    1806:	0205                	addi	tp,tp,1
    1808:	0000                	unimp
    180a:	0000                	unimp
    180c:	0102d103          	lhu	sp,16(t0)
    1810:	0205                	addi	tp,tp,1
    1812:	00090103          	lb	sp,0(s2)
    1816:	0100                	addi	s0,sp,128
    1818:	00090103          	lb	sp,0(s2)
    181c:	0100                	addi	s0,sp,128
    181e:	00090103          	lb	sp,0(s2)
    1822:	0100                	addi	s0,sp,128
    1824:	0905                	addi	s2,s2,1
    1826:	0200                	addi	s0,sp,256
    1828:	0104                	addi	s1,sp,128
    182a:	00090003          	lb	zero,0(s2)
    182e:	0100                	addi	s0,sp,128
    1830:	0205                	addi	tp,tp,1
    1832:	0200                	addi	s0,sp,256
    1834:	0104                	addi	s1,sp,128
    1836:	0306                	slli	t1,t1,0x1
    1838:	0900                	addi	s0,sp,144
    183a:	0000                	unimp
    183c:	0501                	addi	a0,a0,0
    183e:	000e                	c.slli	zero,0x3
    1840:	0402                	c.slli64	s0
    1842:	0302                	c.slli64	t1
    1844:	0900                	addi	s0,sp,144
    1846:	0000                	unimp
    1848:	0501                	addi	a0,a0,0
    184a:	0402000b          	0x402000b
    184e:	0302                	c.slli64	t1
    1850:	0900                	addi	s0,sp,144
    1852:	0000                	unimp
    1854:	0501                	addi	a0,a0,0
    1856:	0020                	addi	s0,sp,8
    1858:	0402                	c.slli64	s0
    185a:	00030603          	lb	a2,0(t1) # 90017c4 <wiring.c.7604182b+0x8ffee2b>
    185e:	0009                	c.nop	2
    1860:	0100                	addi	s0,sp,128
    1862:	1705                	addi	a4,a4,-31
    1864:	0200                	addi	s0,sp,256
    1866:	0304                	addi	s1,sp,384
    1868:	00090003          	lb	zero,0(s2)
    186c:	0100                	addi	s0,sp,128
    186e:	1805                	addi	a6,a6,-31
    1870:	0200                	addi	s0,sp,256
    1872:	0304                	addi	s1,sp,384
    1874:	0306                	slli	t1,t1,0x1
    1876:	0900                	addi	s0,sp,144
    1878:	0000                	unimp
    187a:	0501                	addi	a0,a0,0
    187c:	09010317          	auipc	t1,0x9010
    1880:	0000                	unimp
    1882:	0501                	addi	a0,a0,0
    1884:	0301                	addi	t1,t1,0
    1886:	0901                	addi	s2,s2,0
    1888:	0000                	unimp
    188a:	0901                	addi	s2,s2,0
    188c:	0000                	unimp
    188e:	0100                	addi	s0,sp,128
    1890:	0501                	addi	a0,a0,0
    1892:	0029                	c.nop	10
    1894:	0205                	addi	tp,tp,1
    1896:	0000                	unimp
    1898:	0000                	unimp
    189a:	0100f103          	0x100f103
    189e:	2b05                	jal	1dce <ch32v003fun.c.8affbd33+0xf2c>
    18a0:	00090003          	lb	zero,0(s2)
    18a4:	0100                	addi	s0,sp,128
    18a6:	2905                	jal	1cd6 <ch32v003fun.c.8affbd33+0xe34>
    18a8:	0306                	slli	t1,t1,0x1
    18aa:	0900                	addi	s0,sp,144
    18ac:	0000                	unimp
    18ae:	0501                	addi	a0,a0,0
    18b0:	0900033b          	0x900033b
    18b4:	0000                	unimp
    18b6:	0501                	addi	a0,a0,0
    18b8:	0329                	addi	t1,t1,10
    18ba:	0900                	addi	s0,sp,144
    18bc:	0000                	unimp
    18be:	0501                	addi	a0,a0,0
    18c0:	0900033b          	0x900033b
    18c4:	0000                	unimp
    18c6:	0501                	addi	a0,a0,0
    18c8:	0329                	addi	t1,t1,10
    18ca:	0900                	addi	s0,sp,144
    18cc:	0000                	unimp
    18ce:	0301                	addi	t1,t1,0
    18d0:	0900                	addi	s0,sp,144
    18d2:	0000                	unimp
    18d4:	0501                	addi	a0,a0,0
    18d6:	0900033b          	0x900033b
    18da:	0000                	unimp
    18dc:	0501                	addi	a0,a0,0
    18de:	064c                	addi	a1,sp,772
    18e0:	00090003          	lb	zero,0(s2)
    18e4:	0100                	addi	s0,sp,128
    18e6:	5b05                	li	s6,-31
    18e8:	0306                	slli	t1,t1,0x1
    18ea:	0900                	addi	s0,sp,144
    18ec:	0000                	unimp
    18ee:	0501                	addi	a0,a0,0
    18f0:	0058                	addi	a4,sp,4
    18f2:	0402                	c.slli64	s0
    18f4:	0301                	addi	t1,t1,0
    18f6:	0900                	addi	s0,sp,144
    18f8:	0000                	unimp
    18fa:	0501                	addi	a0,a0,0
    18fc:	005f 0402 0304      	0x3040402005f
    1902:	0900                	addi	s0,sp,144
    1904:	0000                	unimp
    1906:	0901                	addi	s2,s2,0
    1908:	0000                	unimp
    190a:	0100                	addi	s0,sp,128
    190c:	0501                	addi	a0,a0,0
    190e:	0001                	nop
    1910:	0205                	addi	tp,tp,1
    1912:	0000                	unimp
    1914:	0000                	unimp
    1916:	0101a003          	lw	zero,16(gp) # 20000940 <__global_pointer$+0x10>
    191a:	0205                	addi	tp,tp,1
    191c:	00090103          	lb	sp,0(s2)
    1920:	0100                	addi	s0,sp,128
    1922:	00090103          	lb	sp,0(s2)
    1926:	0100                	addi	s0,sp,128
    1928:	00090103          	lb	sp,0(s2)
    192c:	0100                	addi	s0,sp,128
    192e:	0105                	addi	sp,sp,1
    1930:	0306                	slli	t1,t1,0x1
    1932:	097d                	addi	s2,s2,31
    1934:	0000                	unimp
    1936:	0501                	addi	a0,a0,0
    1938:	0309                	addi	t1,t1,2
    193a:	00000903          	lb	s2,0(zero) # 0 <InterruptVector>
    193e:	0501                	addi	a0,a0,0
    1940:	0301                	addi	t1,t1,0
    1942:	097d                	addi	s2,s2,31
    1944:	0000                	unimp
    1946:	0501                	addi	a0,a0,0
    1948:	0309                	addi	t1,t1,2
    194a:	00000903          	lb	s2,0(zero) # 0 <InterruptVector>
    194e:	0501                	addi	a0,a0,0
    1950:	0602                	c.slli64	a2
    1952:	00090103          	lb	sp,0(s2)
    1956:	0100                	addi	s0,sp,128
    1958:	00090303          	lb	t1,0(s2)
    195c:	0100                	addi	s0,sp,128
    195e:	0805                	addi	a6,a6,1
    1960:	0306                	slli	t1,t1,0x1
    1962:	0900                	addi	s0,sp,144
    1964:	0000                	unimp
    1966:	0501                	addi	a0,a0,0
    1968:	09010303          	lb	t1,144(sp)
    196c:	0000                	unimp
    196e:	0501                	addi	a0,a0,0
    1970:	000c                	0xc
    1972:	0402                	c.slli64	s0
    1974:	0601                	addi	a2,a2,0
    1976:	00097f03          	0x97f03
    197a:	0100                	addi	s0,sp,128
    197c:	0d05                	addi	s10,s10,1
    197e:	0200                	addi	s0,sp,256
    1980:	0104                	addi	s1,sp,128
    1982:	0306                	slli	t1,t1,0x1
    1984:	0900                	addi	s0,sp,144
    1986:	0000                	unimp
    1988:	0501                	addi	a0,a0,0
    198a:	0002                	c.slli64	zero
    198c:	0402                	c.slli64	s0
    198e:	0301                	addi	t1,t1,0
    1990:	0900                	addi	s0,sp,144
    1992:	0000                	unimp
    1994:	0501                	addi	a0,a0,0
    1996:	0015                	c.nop	5
    1998:	0402                	c.slli64	s0
    199a:	09000303          	lb	t1,144(zero) # 90 <InterruptVector+0x90>
    199e:	0000                	unimp
    19a0:	0501                	addi	a0,a0,0
    19a2:	0011                	c.nop	4
    19a4:	0402                	c.slli64	s0
    19a6:	09000303          	lb	t1,144(zero) # 90 <InterruptVector+0x90>
    19aa:	0000                	unimp
    19ac:	0501                	addi	a0,a0,0
    19ae:	09020313          	addi	t1,tp,144 # 1090 <ch32v003fun.c.8affbd33+0x1ee>
    19b2:	0000                	unimp
    19b4:	0501                	addi	a0,a0,0
    19b6:	0301                	addi	t1,t1,0
    19b8:	00dd                	addi	ra,ra,23
    19ba:	0009                	c.nop	2
    19bc:	0100                	addi	s0,sp,128
    19be:	0305                	addi	t1,t1,1
    19c0:	0200                	addi	s0,sp,256
    19c2:	0404                	addi	s1,sp,512
    19c4:	0306                	slli	t1,t1,0x1
    19c6:	7fa2                	flw	ft11,40(sp)
    19c8:	0009                	c.nop	2
    19ca:	0100                	addi	s0,sp,128
    19cc:	2905                	jal	1dfc <main_pwm.c.a2cb4005+0x20>
    19ce:	0200                	addi	s0,sp,256
    19d0:	0404                	addi	s1,sp,512
    19d2:	0306                	slli	t1,t1,0x1
    19d4:	0900                	addi	s0,sp,144
    19d6:	0000                	unimp
    19d8:	0501                	addi	a0,a0,0
    19da:	04020003          	lb	zero,64(tp) # 40 <InterruptVector+0x40>
    19de:	0304                	addi	s1,sp,384
    19e0:	0900                	addi	s0,sp,144
    19e2:	0000                	unimp
    19e4:	0501                	addi	a0,a0,0
    19e6:	0029                	c.nop	10
    19e8:	0402                	c.slli64	s0
    19ea:	0304                	addi	s1,sp,384
    19ec:	0900                	addi	s0,sp,144
    19ee:	0000                	unimp
    19f0:	0501                	addi	a0,a0,0
    19f2:	002c                	addi	a1,sp,8
    19f4:	0402                	c.slli64	s0
    19f6:	0304                	addi	s1,sp,384
    19f8:	0900                	addi	s0,sp,144
    19fa:	0000                	unimp
    19fc:	0501                	addi	a0,a0,0
    19fe:	0029                	c.nop	10
    1a00:	0402                	c.slli64	s0
    1a02:	0304                	addi	s1,sp,384
    1a04:	0900                	addi	s0,sp,144
    1a06:	0000                	unimp
    1a08:	0501                	addi	a0,a0,0
    1a0a:	001a                	c.slli	zero,0x6
    1a0c:	0402                	c.slli64	s0
    1a0e:	0604                	addi	s1,sp,768
    1a10:	00097f03          	0x97f03
    1a14:	0100                	addi	s0,sp,128
    1a16:	0305                	addi	t1,t1,1
    1a18:	00090703          	lb	a4,0(s2)
    1a1c:	0100                	addi	s0,sp,128
    1a1e:	0805                	addi	a6,a6,1
    1a20:	0306                	slli	t1,t1,0x1
    1a22:	0900                	addi	s0,sp,144
    1a24:	0000                	unimp
    1a26:	0501                	addi	a0,a0,0
    1a28:	09000313          	li	t1,144
    1a2c:	0000                	unimp
    1a2e:	0501                	addi	a0,a0,0
    1a30:	0306                	slli	t1,t1,0x1
    1a32:	0900                	addi	s0,sp,144
    1a34:	0000                	unimp
    1a36:	0501                	addi	a0,a0,0
    1a38:	0604                	addi	s1,sp,768
    1a3a:	00090103          	lb	sp,0(s2)
    1a3e:	0100                	addi	s0,sp,128
    1a40:	0705                	addi	a4,a4,1
    1a42:	0306                	slli	t1,t1,0x1
    1a44:	0900                	addi	s0,sp,144
    1a46:	0000                	unimp
    1a48:	0501                	addi	a0,a0,0
    1a4a:	0306                	slli	t1,t1,0x1
    1a4c:	090a                	slli	s2,s2,0x2
    1a4e:	0000                	unimp
    1a50:	0501                	addi	a0,a0,0
    1a52:	7903060b          	0x7903060b
    1a56:	0009                	c.nop	2
    1a58:	0100                	addi	s0,sp,128
    1a5a:	0c05                	addi	s8,s8,1
    1a5c:	0306                	slli	t1,t1,0x1
    1a5e:	0900                	addi	s0,sp,144
    1a60:	0000                	unimp
    1a62:	0501                	addi	a0,a0,0
    1a64:	0306                	slli	t1,t1,0x1
    1a66:	00000907          	0x907
    1a6a:	0501                	addi	a0,a0,0
    1a6c:	0608                	addi	a0,sp,768
    1a6e:	00097403          	0x97403
    1a72:	0100                	addi	s0,sp,128
    1a74:	0b05                	addi	s6,s6,1
    1a76:	0306                	slli	t1,t1,0x1
    1a78:	0900                	addi	s0,sp,144
    1a7a:	0000                	unimp
    1a7c:	0501                	addi	a0,a0,0
    1a7e:	0308                	addi	a0,sp,384
    1a80:	0900                	addi	s0,sp,144
    1a82:	0000                	unimp
    1a84:	0501                	addi	a0,a0,0
    1a86:	0319                	addi	t1,t1,6
    1a88:	00000913          	li	s2,0
    1a8c:	0501                	addi	a0,a0,0
    1a8e:	0315                	addi	t1,t1,5
    1a90:	0900                	addi	s0,sp,144
    1a92:	0000                	unimp
    1a94:	0501                	addi	a0,a0,0
    1a96:	030e                	slli	t1,t1,0x3
    1a98:	0900                	addi	s0,sp,144
    1a9a:	0000                	unimp
    1a9c:	0501                	addi	a0,a0,0
    1a9e:	0305                	addi	t1,t1,1
    1aa0:	0900                	addi	s0,sp,144
    1aa2:	0000                	unimp
    1aa4:	0501                	addi	a0,a0,0
    1aa6:	0608                	addi	a0,sp,768
    1aa8:	00090103          	lb	sp,0(s2)
    1aac:	0100                	addi	s0,sp,128
    1aae:	0b05                	addi	s6,s6,1
    1ab0:	0306                	slli	t1,t1,0x1
    1ab2:	0900                	addi	s0,sp,144
    1ab4:	0000                	unimp
    1ab6:	0501                	addi	a0,a0,0
    1ab8:	0308                	addi	a0,sp,384
    1aba:	0900                	addi	s0,sp,144
    1abc:	0000                	unimp
    1abe:	0501                	addi	a0,a0,0
    1ac0:	0602                	c.slli64	a2
    1ac2:	00090f03          	lb	t5,0(s2)
    1ac6:	0100                	addi	s0,sp,128
    1ac8:	0805                	addi	a6,a6,1
    1aca:	0306                	slli	t1,t1,0x1
    1acc:	0900                	addi	s0,sp,144
    1ace:	0000                	unimp
    1ad0:	0501                	addi	a0,a0,0
    1ad2:	0900030f          	0x900030f
    1ad6:	0000                	unimp
    1ad8:	0501                	addi	a0,a0,0
    1ada:	0305                	addi	t1,t1,1
    1adc:	0900                	addi	s0,sp,144
    1ade:	0000                	unimp
    1ae0:	0501                	addi	a0,a0,0
    1ae2:	0306                	slli	t1,t1,0x1
    1ae4:	0904                	addi	s1,sp,144
    1ae6:	0000                	unimp
    1ae8:	0501                	addi	a0,a0,0
    1aea:	0602                	c.slli64	a2
    1aec:	00090003          	lb	zero,0(s2)
    1af0:	0100                	addi	s0,sp,128
    1af2:	0605                	addi	a2,a2,1
    1af4:	0306                	slli	t1,t1,0x1
    1af6:	0900                	addi	s0,sp,144
    1af8:	0000                	unimp
    1afa:	0501                	addi	a0,a0,0
    1afc:	030e                	slli	t1,t1,0x3
    1afe:	00000903          	lb	s2,0(zero) # 0 <InterruptVector>
    1b02:	0501                	addi	a0,a0,0
    1b04:	0305                	addi	t1,t1,1
    1b06:	097d                	addi	s2,s2,31
    1b08:	0000                	unimp
    1b0a:	0501                	addi	a0,a0,0
    1b0c:	030e                	slli	t1,t1,0x3
    1b0e:	00000903          	lb	s2,0(zero) # 0 <InterruptVector>
    1b12:	0501                	addi	a0,a0,0
    1b14:	0305                	addi	t1,t1,1
    1b16:	097d                	addi	s2,s2,31
    1b18:	0000                	unimp
    1b1a:	0501                	addi	a0,a0,0
    1b1c:	01030603          	lb	a2,16(t1) # 901188c <wiring.c.7604182b+0x900eef3>
    1b20:	0009                	c.nop	2
    1b22:	0100                	addi	s0,sp,128
    1b24:	00090103          	lb	sp,0(s2)
    1b28:	0100                	addi	s0,sp,128
    1b2a:	0705                	addi	a4,a4,1
    1b2c:	0306                	slli	t1,t1,0x1
    1b2e:	0900                	addi	s0,sp,144
    1b30:	0000                	unimp
    1b32:	0501                	addi	a0,a0,0
    1b34:	0305                	addi	t1,t1,1
    1b36:	0900                	addi	s0,sp,144
    1b38:	0000                	unimp
    1b3a:	0501                	addi	a0,a0,0
    1b3c:	0308                	addi	a0,sp,384
    1b3e:	097f                	0x97f
    1b40:	0000                	unimp
    1b42:	0501                	addi	a0,a0,0
    1b44:	0602                	c.slli64	a2
    1b46:	00090303          	lb	t1,0(s2)
    1b4a:	0100                	addi	s0,sp,128
    1b4c:	00090303          	lb	t1,0(s2)
    1b50:	0100                	addi	s0,sp,128
    1b52:	0b05                	addi	s6,s6,1
    1b54:	0306                	slli	t1,t1,0x1
    1b56:	00000907          	0x907
    1b5a:	0501                	addi	a0,a0,0
    1b5c:	09220307          	0x9220307
    1b60:	0000                	unimp
    1b62:	0501                	addi	a0,a0,0
    1b64:	0306                	slli	t1,t1,0x1
    1b66:	0954                	addi	a3,sp,148
    1b68:	0000                	unimp
    1b6a:	0501                	addi	a0,a0,0
    1b6c:	090a030b          	0x90a030b
    1b70:	0000                	unimp
    1b72:	0501                	addi	a0,a0,0
    1b74:	0602                	c.slli64	a2
    1b76:	00097c03          	0x97c03
    1b7a:	0100                	addi	s0,sp,128
    1b7c:	0305                	addi	t1,t1,1
    1b7e:	00090203          	lb	tp,0(s2)
    1b82:	0100                	addi	s0,sp,128
    1b84:	0805                	addi	a6,a6,1
    1b86:	0306                	slli	t1,t1,0x1
    1b88:	0900                	addi	s0,sp,144
    1b8a:	0000                	unimp
    1b8c:	0501                	addi	a0,a0,0
    1b8e:	0306                	slli	t1,t1,0x1
    1b90:	0900                	addi	s0,sp,144
    1b92:	0000                	unimp
    1b94:	0501                	addi	a0,a0,0
    1b96:	031e                	slli	t1,t1,0x7
    1b98:	00000903          	lb	s2,0(zero) # 0 <InterruptVector>
    1b9c:	0501                	addi	a0,a0,0
    1b9e:	0604                	addi	s1,sp,768
    1ba0:	00097f03          	0x97f03
    1ba4:	0100                	addi	s0,sp,128
    1ba6:	00090103          	lb	sp,0(s2)
    1baa:	0100                	addi	s0,sp,128
    1bac:	1e05                	addi	t3,t3,-31
    1bae:	0306                	slli	t1,t1,0x1
    1bb0:	0900                	addi	s0,sp,144
    1bb2:	0000                	unimp
    1bb4:	0501                	addi	a0,a0,0
    1bb6:	0604                	addi	s1,sp,768
    1bb8:	00090103          	lb	sp,0(s2)
    1bbc:	0100                	addi	s0,sp,128
    1bbe:	0705                	addi	a4,a4,1
    1bc0:	0306                	slli	t1,t1,0x1
    1bc2:	0900                	addi	s0,sp,144
    1bc4:	0000                	unimp
    1bc6:	0501                	addi	a0,a0,0
    1bc8:	0605                	addi	a2,a2,1
    1bca:	00090103          	lb	sp,0(s2)
    1bce:	0100                	addi	s0,sp,128
    1bd0:	00090103          	lb	sp,0(s2)
    1bd4:	0100                	addi	s0,sp,128
    1bd6:	0a05                	addi	s4,s4,1
    1bd8:	0306                	slli	t1,t1,0x1
    1bda:	0900                	addi	s0,sp,144
    1bdc:	0000                	unimp
    1bde:	0501                	addi	a0,a0,0
    1be0:	0308                	addi	a0,sp,384
    1be2:	0900                	addi	s0,sp,144
    1be4:	0000                	unimp
    1be6:	0501                	addi	a0,a0,0
    1be8:	05030603          	lb	a2,80(t1)
    1bec:	0009                	c.nop	2
    1bee:	0100                	addi	s0,sp,128
    1bf0:	0705                	addi	a4,a4,1
    1bf2:	0306                	slli	t1,t1,0x1
    1bf4:	0900                	addi	s0,sp,144
    1bf6:	0000                	unimp
    1bf8:	0501                	addi	a0,a0,0
    1bfa:	0306                	slli	t1,t1,0x1
    1bfc:	0900                	addi	s0,sp,144
    1bfe:	0000                	unimp
    1c00:	0501                	addi	a0,a0,0
    1c02:	0604                	addi	s1,sp,768
    1c04:	00090103          	lb	sp,0(s2)
    1c08:	0100                	addi	s0,sp,128
    1c0a:	0f05                	addi	t5,t5,1
    1c0c:	0306                	slli	t1,t1,0x1
    1c0e:	0900                	addi	s0,sp,144
    1c10:	0000                	unimp
    1c12:	0501                	addi	a0,a0,0
    1c14:	0306                	slli	t1,t1,0x1
    1c16:	0900                	addi	s0,sp,144
    1c18:	0000                	unimp
    1c1a:	0501                	addi	a0,a0,0
    1c1c:	0604                	addi	s1,sp,768
    1c1e:	00090103          	lb	sp,0(s2)
    1c22:	0100                	addi	s0,sp,128
    1c24:	0705                	addi	a4,a4,1
    1c26:	0306                	slli	t1,t1,0x1
    1c28:	0900                	addi	s0,sp,144
    1c2a:	0000                	unimp
    1c2c:	0501                	addi	a0,a0,0
    1c2e:	0605                	addi	a2,a2,1
    1c30:	00090103          	lb	sp,0(s2)
    1c34:	0100                	addi	s0,sp,128
    1c36:	00090103          	lb	sp,0(s2)
    1c3a:	0100                	addi	s0,sp,128
    1c3c:	0705                	addi	a4,a4,1
    1c3e:	0306                	slli	t1,t1,0x1
    1c40:	0900                	addi	s0,sp,144
    1c42:	0000                	unimp
    1c44:	0501                	addi	a0,a0,0
    1c46:	0605                	addi	a2,a2,1
    1c48:	00090103          	lb	sp,0(s2)
    1c4c:	0100                	addi	s0,sp,128
    1c4e:	00090103          	lb	sp,0(s2)
    1c52:	0100                	addi	s0,sp,128
    1c54:	0905                	addi	s2,s2,1
    1c56:	0306                	slli	t1,t1,0x1
    1c58:	097f                	0x97f
    1c5a:	0000                	unimp
    1c5c:	0501                	addi	a0,a0,0
    1c5e:	09140307          	0x9140307
    1c62:	0000                	unimp
    1c64:	0501                	addi	a0,a0,0
    1c66:	060a                	slli	a2,a2,0x2
    1c68:	097faf03          	lw	t5,151(t6)
    1c6c:	0000                	unimp
    1c6e:	0501                	addi	a0,a0,0
    1c70:	0606                	slli	a2,a2,0x1
    1c72:	00090303          	lb	t1,0(s2)
    1c76:	0100                	addi	s0,sp,128
    1c78:	0d05                	addi	s10,s10,1
    1c7a:	00097d03          	0x97d03
    1c7e:	0100                	addi	s0,sp,128
    1c80:	0405                	addi	s0,s0,1
    1c82:	0306                	slli	t1,t1,0x1
    1c84:	0905                	addi	s2,s2,1
    1c86:	0000                	unimp
    1c88:	0501                	addi	a0,a0,0
    1c8a:	0003060b          	0x3060b
    1c8e:	0009                	c.nop	2
    1c90:	0100                	addi	s0,sp,128
    1c92:	0405                	addi	s0,s0,1
    1c94:	0306                	slli	t1,t1,0x1
    1c96:	0901                	addi	s2,s2,0
    1c98:	0000                	unimp
    1c9a:	0501                	addi	a0,a0,0
    1c9c:	7f030607          	0x7f030607
    1ca0:	0009                	c.nop	2
    1ca2:	0100                	addi	s0,sp,128
    1ca4:	0a05                	addi	s4,s4,1
    1ca6:	00090103          	lb	sp,0(s2)
    1caa:	0100                	addi	s0,sp,128
    1cac:	0205                	addi	tp,tp,1
    1cae:	00096e03          	0x96e03
    1cb2:	0100                	addi	s0,sp,128
    1cb4:	0305                	addi	t1,t1,1
    1cb6:	0306                	slli	t1,t1,0x1
    1cb8:	0000091b          	0x91b
    1cbc:	0501                	addi	a0,a0,0
    1cbe:	0608                	addi	a0,sp,768
    1cc0:	00090003          	lb	zero,0(s2)
    1cc4:	0100                	addi	s0,sp,128
    1cc6:	1305                	addi	t1,t1,-31
    1cc8:	00090003          	lb	zero,0(s2)
    1ccc:	0100                	addi	s0,sp,128
    1cce:	0605                	addi	a2,a2,1
    1cd0:	00090003          	lb	zero,0(s2)
    1cd4:	0100                	addi	s0,sp,128
    1cd6:	0405                	addi	s0,s0,1
    1cd8:	0306                	slli	t1,t1,0x1
    1cda:	0901                	addi	s2,s2,0
    1cdc:	0000                	unimp
    1cde:	0501                	addi	a0,a0,0
    1ce0:	00030607          	0x30607
    1ce4:	0009                	c.nop	2
    1ce6:	0100                	addi	s0,sp,128
    1ce8:	0605                	addi	a2,a2,1
    1cea:	00090a03          	lb	s4,0(s2)
    1cee:	0100                	addi	s0,sp,128
    1cf0:	0b05                	addi	s6,s6,1
    1cf2:	0306                	slli	t1,t1,0x1
    1cf4:	0979                	addi	s2,s2,30
    1cf6:	0000                	unimp
    1cf8:	0501                	addi	a0,a0,0
    1cfa:	060c                	addi	a1,sp,768
    1cfc:	00090003          	lb	zero,0(s2)
    1d00:	0100                	addi	s0,sp,128
    1d02:	0605                	addi	a2,a2,1
    1d04:	00090703          	lb	a4,0(s2)
    1d08:	0100                	addi	s0,sp,128
    1d0a:	0a05                	addi	s4,s4,1
    1d0c:	0306                	slli	t1,t1,0x1
    1d0e:	097a                	slli	s2,s2,0x1e
    1d10:	0000                	unimp
    1d12:	0501                	addi	a0,a0,0
    1d14:	0606                	slli	a2,a2,0x1
    1d16:	00090303          	lb	t1,0(s2)
    1d1a:	0100                	addi	s0,sp,128
    1d1c:	0d05                	addi	s10,s10,1
    1d1e:	00097d03          	0x97d03
    1d22:	0100                	addi	s0,sp,128
    1d24:	0405                	addi	s0,s0,1
    1d26:	0306                	slli	t1,t1,0x1
    1d28:	0905                	addi	s2,s2,1
    1d2a:	0000                	unimp
    1d2c:	0501                	addi	a0,a0,0
    1d2e:	0003060b          	0x3060b
    1d32:	0009                	c.nop	2
    1d34:	0100                	addi	s0,sp,128
    1d36:	0405                	addi	s0,s0,1
    1d38:	0306                	slli	t1,t1,0x1
    1d3a:	0901                	addi	s2,s2,0
    1d3c:	0000                	unimp
    1d3e:	0501                	addi	a0,a0,0
    1d40:	7f030607          	0x7f030607
    1d44:	0009                	c.nop	2
    1d46:	0100                	addi	s0,sp,128
    1d48:	0a05                	addi	s4,s4,1
    1d4a:	00090103          	lb	sp,0(s2)
    1d4e:	0100                	addi	s0,sp,128
    1d50:	0b05                	addi	s6,s6,1
    1d52:	0306                	slli	t1,t1,0x1
    1d54:	091a                	slli	s2,s2,0x6
    1d56:	0000                	unimp
    1d58:	0501                	addi	a0,a0,0
    1d5a:	060d                	addi	a2,a2,3
    1d5c:	00090003          	lb	zero,0(s2)
    1d60:	0100                	addi	s0,sp,128
    1d62:	0405                	addi	s0,s0,1
    1d64:	0306                	slli	t1,t1,0x1
    1d66:	090d                	addi	s2,s2,3
    1d68:	0000                	unimp
    1d6a:	0501                	addi	a0,a0,0
    1d6c:	0606                	slli	a2,a2,0x1
    1d6e:	00090003          	lb	zero,0(s2)
    1d72:	0100                	addi	s0,sp,128
    1d74:	0405                	addi	s0,s0,1
    1d76:	0306                	slli	t1,t1,0x1
    1d78:	0901                	addi	s2,s2,0
    1d7a:	0000                	unimp
    1d7c:	0301                	addi	t1,t1,0
    1d7e:	0901                	addi	s2,s2,0
    1d80:	0000                	unimp
    1d82:	0501                	addi	a0,a0,0
    1d84:	09040303          	lb	t1,144(s0)
    1d88:	0000                	unimp
    1d8a:	0501                	addi	a0,a0,0
    1d8c:	0609                	addi	a2,a2,2
    1d8e:	00090003          	lb	zero,0(s2)
    1d92:	0100                	addi	s0,sp,128
    1d94:	1905                	addi	s2,s2,-31
    1d96:	0200                	addi	s0,sp,256
    1d98:	0104                	addi	s1,sp,128
    1d9a:	0306                	slli	t1,t1,0x1
    1d9c:	0900                	addi	s0,sp,144
    1d9e:	0000                	unimp
    1da0:	0501                	addi	a0,a0,0
    1da2:	001a                	c.slli	zero,0x6
    1da4:	0402                	c.slli64	s0
    1da6:	0601                	addi	a2,a2,0
    1da8:	00090003          	lb	zero,0(s2)
    1dac:	0100                	addi	s0,sp,128
    1dae:	0305                	addi	t1,t1,1
    1db0:	0200                	addi	s0,sp,256
    1db2:	0104                	addi	s1,sp,128
    1db4:	00090003          	lb	zero,0(s2)
    1db8:	0100                	addi	s0,sp,128
    1dba:	2a05                	jal	1eea <main_pwm.c.a2cb4005+0x10e>
    1dbc:	0200                	addi	s0,sp,256
    1dbe:	0304                	addi	s1,sp,384
    1dc0:	00090003          	lb	zero,0(s2)
    1dc4:	0100                	addi	s0,sp,128
    1dc6:	1e05                	addi	t3,t3,-31
    1dc8:	0200                	addi	s0,sp,256
    1dca:	0304                	addi	s1,sp,384
    1dcc:	00090003          	lb	zero,0(s2)
    1dd0:	0100                	addi	s0,sp,128
    1dd2:	0305                	addi	t1,t1,1
    1dd4:	0306                	slli	t1,t1,0x1
    1dd6:	0901                	addi	s2,s2,0
    1dd8:	0000                	unimp
    1dda:	0501                	addi	a0,a0,0
    1ddc:	0304                	addi	s1,sp,384
    1dde:	0901                	addi	s2,s2,0
    1de0:	0000                	unimp
    1de2:	0501                	addi	a0,a0,0
    1de4:	060a                	slli	a2,a2,0x2
    1de6:	00090003          	lb	zero,0(s2)
    1dea:	0100                	addi	s0,sp,128
    1dec:	0605                	addi	a2,a2,1
    1dee:	00090003          	lb	zero,0(s2)
    1df2:	0100                	addi	s0,sp,128
    1df4:	0405                	addi	s0,s0,1
    1df6:	0306                	slli	t1,t1,0x1
    1df8:	0901                	addi	s2,s2,0
    1dfa:	0000                	unimp
    1dfc:	0301                	addi	t1,t1,0
    1dfe:	0901                	addi	s2,s2,0
    1e00:	0000                	unimp
    1e02:	0501                	addi	a0,a0,0
    1e04:	04020033          	0x4020033
    1e08:	0304                	addi	s1,sp,384
    1e0a:	097c                	addi	a5,sp,156
    1e0c:	0000                	unimp
    1e0e:	0501                	addi	a0,a0,0
    1e10:	0402002f          	0x402002f
    1e14:	0304                	addi	s1,sp,384
    1e16:	0900                	addi	s0,sp,144
    1e18:	0000                	unimp
    1e1a:	0501                	addi	a0,a0,0
    1e1c:	0030                	addi	a2,sp,8
    1e1e:	0402                	c.slli64	s0
    1e20:	0604                	addi	s1,sp,768
    1e22:	00090003          	lb	zero,0(s2)
    1e26:	0100                	addi	s0,sp,128
    1e28:	0305                	addi	t1,t1,1
    1e2a:	00090003          	lb	zero,0(s2)
    1e2e:	0100                	addi	s0,sp,128
    1e30:	1005                	c.nop	-31
    1e32:	0200                	addi	s0,sp,256
    1e34:	0104                	addi	s1,sp,128
    1e36:	0306                	slli	t1,t1,0x1
    1e38:	00000907          	0x907
    1e3c:	0501                	addi	a0,a0,0
    1e3e:	04020003          	lb	zero,64(tp) # 40 <InterruptVector+0x40>
    1e42:	0601                	addi	a2,a2,0
    1e44:	00090003          	lb	zero,0(s2)
    1e48:	0100                	addi	s0,sp,128
    1e4a:	1a05                	addi	s4,s4,-31
    1e4c:	0200                	addi	s0,sp,256
    1e4e:	0304                	addi	s1,sp,384
    1e50:	00090003          	lb	zero,0(s2)
    1e54:	0100                	addi	s0,sp,128
    1e56:	2405                	jal	2076 <main_pwm.c.a2cb4005+0x29a>
    1e58:	0200                	addi	s0,sp,256
    1e5a:	0304                	addi	s1,sp,384
    1e5c:	00090003          	lb	zero,0(s2)
    1e60:	0100                	addi	s0,sp,128
    1e62:	1605                	addi	a2,a2,-31
    1e64:	0200                	addi	s0,sp,256
    1e66:	0304                	addi	s1,sp,384
    1e68:	00090003          	lb	zero,0(s2)
    1e6c:	0100                	addi	s0,sp,128
    1e6e:	0305                	addi	t1,t1,1
    1e70:	0306                	slli	t1,t1,0x1
    1e72:	0901                	addi	s2,s2,0
    1e74:	0000                	unimp
    1e76:	0301                	addi	t1,t1,0
    1e78:	0901                	addi	s2,s2,0
    1e7a:	0000                	unimp
    1e7c:	0501                	addi	a0,a0,0
    1e7e:	01030607          	0x1030607
    1e82:	0009                	c.nop	2
    1e84:	0100                	addi	s0,sp,128
    1e86:	0505                	addi	a0,a0,1
    1e88:	00097f03          	0x97f03
    1e8c:	0100                	addi	s0,sp,128
    1e8e:	0305                	addi	t1,t1,1
    1e90:	0306                	slli	t1,t1,0x1
    1e92:	0901                	addi	s2,s2,0
    1e94:	0000                	unimp
    1e96:	0901                	addi	s2,s2,0
    1e98:	0000                	unimp
    1e9a:	0100                	addi	s0,sp,128
    1e9c:	0501                	addi	a0,a0,0
    1e9e:	0001                	nop
    1ea0:	0205                	addi	tp,tp,1
    1ea2:	0000                	unimp
    1ea4:	0000                	unimp
    1ea6:	01028903          	lb	s2,16(t0)
    1eaa:	0805                	addi	a6,a6,1
    1eac:	0306                	slli	t1,t1,0x1
    1eae:	0902                	c.slli64	s2
    1eb0:	0000                	unimp
    1eb2:	0501                	addi	a0,a0,0
    1eb4:	0301                	addi	t1,t1,0
    1eb6:	097e                	slli	s2,s2,0x1f
    1eb8:	0000                	unimp
    1eba:	0501                	addi	a0,a0,0
    1ebc:	0602                	c.slli64	a2
    1ebe:	00090203          	lb	tp,0(s2)
    1ec2:	0100                	addi	s0,sp,128
    1ec4:	0505                	addi	a0,a0,1
    1ec6:	0306                	slli	t1,t1,0x1
    1ec8:	0900                	addi	s0,sp,144
    1eca:	0000                	unimp
    1ecc:	0501                	addi	a0,a0,0
    1ece:	0602                	c.slli64	a2
    1ed0:	00090303          	lb	t1,0(s2)
    1ed4:	0100                	addi	s0,sp,128
    1ed6:	0605                	addi	a2,a2,1
    1ed8:	0306                	slli	t1,t1,0x1
    1eda:	0900                	addi	s0,sp,144
    1edc:	0000                	unimp
    1ede:	0501                	addi	a0,a0,0
    1ee0:	0602                	c.slli64	a2
    1ee2:	00090103          	lb	sp,0(s2)
    1ee6:	0100                	addi	s0,sp,128
    1ee8:	0505                	addi	a0,a0,1
    1eea:	0306                	slli	t1,t1,0x1
    1eec:	0900                	addi	s0,sp,144
    1eee:	0000                	unimp
    1ef0:	0501                	addi	a0,a0,0
    1ef2:	000e                	c.slli	zero,0x3
    1ef4:	0402                	c.slli64	s0
    1ef6:	0302                	c.slli64	t1
    1ef8:	0900                	addi	s0,sp,144
    1efa:	0000                	unimp
    1efc:	0501                	addi	a0,a0,0
    1efe:	0009                	c.nop	2
    1f00:	0402                	c.slli64	s0
    1f02:	0302                	c.slli64	t1
    1f04:	0900                	addi	s0,sp,144
    1f06:	0000                	unimp
    1f08:	0501                	addi	a0,a0,0
    1f0a:	0602                	c.slli64	a2
    1f0c:	00090103          	lb	sp,0(s2)
    1f10:	0100                	addi	s0,sp,128
    1f12:	0805                	addi	a6,a6,1
    1f14:	0306                	slli	t1,t1,0x1
    1f16:	0900                	addi	s0,sp,144
    1f18:	0000                	unimp
    1f1a:	0501                	addi	a0,a0,0
    1f1c:	0305                	addi	t1,t1,1
    1f1e:	0900                	addi	s0,sp,144
    1f20:	0000                	unimp
    1f22:	0501                	addi	a0,a0,0
    1f24:	0602                	c.slli64	a2
    1f26:	00090103          	lb	sp,0(s2)
    1f2a:	0100                	addi	s0,sp,128
    1f2c:	0805                	addi	a6,a6,1
    1f2e:	0306                	slli	t1,t1,0x1
    1f30:	0900                	addi	s0,sp,144
    1f32:	0000                	unimp
    1f34:	0501                	addi	a0,a0,0
    1f36:	0305                	addi	t1,t1,1
    1f38:	0900                	addi	s0,sp,144
    1f3a:	0000                	unimp
    1f3c:	0501                	addi	a0,a0,0
    1f3e:	060d                	addi	a2,a2,3
    1f40:	00090003          	lb	zero,0(s2)
    1f44:	0100                	addi	s0,sp,128
    1f46:	0205                	addi	tp,tp,1
    1f48:	097ef303          	0x97ef303
    1f4c:	0000                	unimp
    1f4e:	0301                	addi	t1,t1,0
    1f50:	0901                	addi	s2,s2,0
    1f52:	0000                	unimp
    1f54:	0501                	addi	a0,a0,0
    1f56:	0608                	addi	a0,sp,768
    1f58:	00090003          	lb	zero,0(s2)
    1f5c:	0100                	addi	s0,sp,128
    1f5e:	0c05                	addi	s8,s8,1
    1f60:	0306                	slli	t1,t1,0x1
    1f62:	0900                	addi	s0,sp,144
    1f64:	0000                	unimp
    1f66:	0501                	addi	a0,a0,0
    1f68:	0602                	c.slli64	a2
    1f6a:	00090003          	lb	zero,0(s2)
    1f6e:	0100                	addi	s0,sp,128
    1f70:	0f05                	addi	t5,t5,1
    1f72:	00090003          	lb	zero,0(s2)
    1f76:	0100                	addi	s0,sp,128
    1f78:	0205                	addi	tp,tp,1
    1f7a:	0306                	slli	t1,t1,0x1
    1f7c:	0901                	addi	s2,s2,0
    1f7e:	0000                	unimp
    1f80:	0501                	addi	a0,a0,0
    1f82:	061a                	slli	a2,a2,0x6
    1f84:	00090003          	lb	zero,0(s2)
    1f88:	0100                	addi	s0,sp,128
    1f8a:	2e05                	jal	22ba <main_pwm.c.a2cb4005+0x4de>
    1f8c:	0306                	slli	t1,t1,0x1
    1f8e:	097f                	0x97f
    1f90:	0000                	unimp
    1f92:	0501                	addi	a0,a0,0
    1f94:	031c                	addi	a5,sp,384
    1f96:	0900                	addi	s0,sp,144
    1f98:	0000                	unimp
    1f9a:	0501                	addi	a0,a0,0
    1f9c:	0629                	addi	a2,a2,10
    1f9e:	00090003          	lb	zero,0(s2)
    1fa2:	0100                	addi	s0,sp,128
    1fa4:	2305                	jal	24c4 <main_pwm.c.a2cb4005+0x6e8>
    1fa6:	00090003          	lb	zero,0(s2)
    1faa:	0100                	addi	s0,sp,128
    1fac:	1f05                	addi	t5,t5,-31
    1fae:	00090003          	lb	zero,0(s2)
    1fb2:	0100                	addi	s0,sp,128
    1fb4:	2705                	jal	26d4 <main_pwm.c.a2cb4005+0x8f8>
    1fb6:	00090003          	lb	zero,0(s2)
    1fba:	0100                	addi	s0,sp,128
    1fbc:	1f05                	addi	t5,t5,-31
    1fbe:	00090003          	lb	zero,0(s2)
    1fc2:	0100                	addi	s0,sp,128
    1fc4:	0205                	addi	tp,tp,1
    1fc6:	0306                	slli	t1,t1,0x1
    1fc8:	018d                	addi	gp,gp,3
    1fca:	0009                	c.nop	2
    1fcc:	0100                	addi	s0,sp,128
    1fce:	0805                	addi	a6,a6,1
    1fd0:	0306                	slli	t1,t1,0x1
    1fd2:	0900                	addi	s0,sp,144
    1fd4:	0000                	unimp
    1fd6:	0501                	addi	a0,a0,0
    1fd8:	0305                	addi	t1,t1,1
    1fda:	0900                	addi	s0,sp,144
    1fdc:	0000                	unimp
    1fde:	0501                	addi	a0,a0,0
    1fe0:	0602                	c.slli64	a2
    1fe2:	00090103          	lb	sp,0(s2)
    1fe6:	0100                	addi	s0,sp,128
    1fe8:	0805                	addi	a6,a6,1
    1fea:	0306                	slli	t1,t1,0x1
    1fec:	0900                	addi	s0,sp,144
    1fee:	0000                	unimp
    1ff0:	0501                	addi	a0,a0,0
    1ff2:	0305                	addi	t1,t1,1
    1ff4:	0900                	addi	s0,sp,144
    1ff6:	0000                	unimp
    1ff8:	0501                	addi	a0,a0,0
    1ffa:	060d                	addi	a2,a2,3
    1ffc:	00090003          	lb	zero,0(s2)
    2000:	0100                	addi	s0,sp,128
    2002:	0205                	addi	tp,tp,1
    2004:	097ef803          	0x97ef803
    2008:	0000                	unimp
    200a:	0501                	addi	a0,a0,0
    200c:	0634                	addi	a3,sp,776
    200e:	00090103          	lb	sp,0(s2)
    2012:	0100                	addi	s0,sp,128
    2014:	2905                	jal	2444 <main_pwm.c.a2cb4005+0x668>
    2016:	00090003          	lb	zero,0(s2)
    201a:	0100                	addi	s0,sp,128
    201c:	0b05                	addi	s6,s6,1
    201e:	00090003          	lb	zero,0(s2)
    2022:	0100                	addi	s0,sp,128
    2024:	1005                	c.nop	-31
    2026:	00090003          	lb	zero,0(s2)
    202a:	0100                	addi	s0,sp,128
    202c:	2905                	jal	245c <main_pwm.c.a2cb4005+0x680>
    202e:	00097f03          	0x97f03
    2032:	0100                	addi	s0,sp,128
    2034:	3405                	jal	1a54 <ch32v003fun.c.8affbd33+0xbb2>
    2036:	00090003          	lb	zero,0(s2)
    203a:	0100                	addi	s0,sp,128
    203c:	0b05                	addi	s6,s6,1
    203e:	00090003          	lb	zero,0(s2)
    2042:	0100                	addi	s0,sp,128
    2044:	1e05                	addi	t3,t3,-31
    2046:	00090003          	lb	zero,0(s2)
    204a:	0100                	addi	s0,sp,128
    204c:	00090103          	lb	sp,0(s2)
    2050:	0100                	addi	s0,sp,128
    2052:	0b05                	addi	s6,s6,1
    2054:	00097f03          	0x97f03
    2058:	0100                	addi	s0,sp,128
    205a:	0205                	addi	tp,tp,1
    205c:	0306                	slli	t1,t1,0x1
    205e:	0901                	addi	s2,s2,0
    2060:	0000                	unimp
    2062:	0501                	addi	a0,a0,0
    2064:	0003060b          	0x3060b
    2068:	0009                	c.nop	2
    206a:	0100                	addi	s0,sp,128
    206c:	0205                	addi	tp,tp,1
    206e:	0306                	slli	t1,t1,0x1
    2070:	0901                	addi	s2,s2,0
    2072:	0000                	unimp
    2074:	0501                	addi	a0,a0,0
    2076:	0608                	addi	a0,sp,768
    2078:	00090003          	lb	zero,0(s2)
    207c:	0100                	addi	s0,sp,128
    207e:	0d05                	addi	s10,s10,1
    2080:	0306                	slli	t1,t1,0x1
    2082:	0900                	addi	s0,sp,144
    2084:	0000                	unimp
    2086:	0501                	addi	a0,a0,0
    2088:	0602                	c.slli64	a2
    208a:	00090003          	lb	zero,0(s2)
    208e:	0100                	addi	s0,sp,128
    2090:	1005                	c.nop	-31
    2092:	00090003          	lb	zero,0(s2)
    2096:	0100                	addi	s0,sp,128
    2098:	0205                	addi	tp,tp,1
    209a:	0306                	slli	t1,t1,0x1
    209c:	0901                	addi	s2,s2,0
    209e:	0000                	unimp
    20a0:	0501                	addi	a0,a0,0
    20a2:	061a                	slli	a2,a2,0x6
    20a4:	00090003          	lb	zero,0(s2)
    20a8:	0100                	addi	s0,sp,128
    20aa:	2f05                	jal	27da <main_pwm.c.a2cb4005+0x9fe>
    20ac:	0306                	slli	t1,t1,0x1
    20ae:	097f                	0x97f
    20b0:	0000                	unimp
    20b2:	0501                	addi	a0,a0,0
    20b4:	031d                	addi	t1,t1,7
    20b6:	0900                	addi	s0,sp,144
    20b8:	0000                	unimp
    20ba:	0501                	addi	a0,a0,0
    20bc:	0626                	slli	a2,a2,0x9
    20be:	00090003          	lb	zero,0(s2)
    20c2:	0100                	addi	s0,sp,128
    20c4:	2005                	jal	20e4 <main_pwm.c.a2cb4005+0x308>
    20c6:	00090003          	lb	zero,0(s2)
    20ca:	0100                	addi	s0,sp,128
    20cc:	2505                	jal	26ec <main_pwm.c.a2cb4005+0x910>
    20ce:	00090003          	lb	zero,0(s2)
    20d2:	0100                	addi	s0,sp,128
    20d4:	2005                	jal	20f4 <main_pwm.c.a2cb4005+0x318>
    20d6:	00090003          	lb	zero,0(s2)
    20da:	0100                	addi	s0,sp,128
    20dc:	0205                	addi	tp,tp,1
    20de:	0306                	slli	t1,t1,0x1
    20e0:	00090187          	0x90187
    20e4:	0100                	addi	s0,sp,128
    20e6:	0805                	addi	a6,a6,1
    20e8:	0306                	slli	t1,t1,0x1
    20ea:	0900                	addi	s0,sp,144
    20ec:	0000                	unimp
    20ee:	0501                	addi	a0,a0,0
    20f0:	0305                	addi	t1,t1,1
    20f2:	0900                	addi	s0,sp,144
    20f4:	0000                	unimp
    20f6:	0501                	addi	a0,a0,0
    20f8:	0602                	c.slli64	a2
    20fa:	00090103          	lb	sp,0(s2)
    20fe:	0100                	addi	s0,sp,128
    2100:	0505                	addi	a0,a0,1
    2102:	0306                	slli	t1,t1,0x1
    2104:	0900                	addi	s0,sp,144
    2106:	0000                	unimp
    2108:	0501                	addi	a0,a0,0
    210a:	060d                	addi	a2,a2,3
    210c:	00090003          	lb	zero,0(s2)
    2110:	0100                	addi	s0,sp,128
    2112:	0205                	addi	tp,tp,1
    2114:	097efe03          	0x97efe03
    2118:	0000                	unimp
    211a:	0501                	addi	a0,a0,0
    211c:	061e                	slli	a2,a2,0x7
    211e:	00090003          	lb	zero,0(s2)
    2122:	0100                	addi	s0,sp,128
    2124:	0b05                	addi	s6,s6,1
    2126:	00090003          	lb	zero,0(s2)
    212a:	0100                	addi	s0,sp,128
    212c:	2905                	jal	255c <main_pwm.c.a2cb4005+0x780>
    212e:	00090003          	lb	zero,0(s2)
    2132:	0100                	addi	s0,sp,128
    2134:	3405                	jal	1b54 <ch32v003fun.c.8affbd33+0xcb2>
    2136:	00090003          	lb	zero,0(s2)
    213a:	0100                	addi	s0,sp,128
    213c:	0b05                	addi	s6,s6,1
    213e:	00090003          	lb	zero,0(s2)
    2142:	0100                	addi	s0,sp,128
    2144:	0205                	addi	tp,tp,1
    2146:	0306                	slli	t1,t1,0x1
    2148:	0901                	addi	s2,s2,0
    214a:	0000                	unimp
    214c:	0501                	addi	a0,a0,0
    214e:	0610                	addi	a2,sp,768
    2150:	00090003          	lb	zero,0(s2)
    2154:	0100                	addi	s0,sp,128
    2156:	2905                	jal	2586 <main_pwm.c.a2cb4005+0x7aa>
    2158:	00090003          	lb	zero,0(s2)
    215c:	0100                	addi	s0,sp,128
    215e:	3405                	jal	1b7e <ch32v003fun.c.8affbd33+0xcdc>
    2160:	00090003          	lb	zero,0(s2)
    2164:	0100                	addi	s0,sp,128
    2166:	1e05                	addi	t3,t3,-31
    2168:	00090003          	lb	zero,0(s2)
    216c:	0100                	addi	s0,sp,128
    216e:	0b05                	addi	s6,s6,1
    2170:	00090003          	lb	zero,0(s2)
    2174:	0100                	addi	s0,sp,128
    2176:	0205                	addi	tp,tp,1
    2178:	0306                	slli	t1,t1,0x1
    217a:	0901                	addi	s2,s2,0
    217c:	0000                	unimp
    217e:	0501                	addi	a0,a0,0
    2180:	0608                	addi	a0,sp,768
    2182:	00090003          	lb	zero,0(s2)
    2186:	0100                	addi	s0,sp,128
    2188:	0d05                	addi	s10,s10,1
    218a:	0306                	slli	t1,t1,0x1
    218c:	0900                	addi	s0,sp,144
    218e:	0000                	unimp
    2190:	0501                	addi	a0,a0,0
    2192:	0602                	c.slli64	a2
    2194:	00090003          	lb	zero,0(s2)
    2198:	0100                	addi	s0,sp,128
    219a:	1005                	c.nop	-31
    219c:	00090003          	lb	zero,0(s2)
    21a0:	0100                	addi	s0,sp,128
    21a2:	0205                	addi	tp,tp,1
    21a4:	0306                	slli	t1,t1,0x1
    21a6:	0901                	addi	s2,s2,0
    21a8:	0000                	unimp
    21aa:	0501                	addi	a0,a0,0
    21ac:	061a                	slli	a2,a2,0x6
    21ae:	00090003          	lb	zero,0(s2)
    21b2:	0100                	addi	s0,sp,128
    21b4:	2f05                	jal	28e4 <main_pwm.c.a2cb4005+0xb08>
    21b6:	0306                	slli	t1,t1,0x1
    21b8:	097f                	0x97f
    21ba:	0000                	unimp
    21bc:	0501                	addi	a0,a0,0
    21be:	031d                	addi	t1,t1,7
    21c0:	0900                	addi	s0,sp,144
    21c2:	0000                	unimp
    21c4:	0501                	addi	a0,a0,0
    21c6:	062a                	slli	a2,a2,0xa
    21c8:	00090003          	lb	zero,0(s2)
    21cc:	0100                	addi	s0,sp,128
    21ce:	2405                	jal	23ee <main_pwm.c.a2cb4005+0x612>
    21d0:	00090003          	lb	zero,0(s2)
    21d4:	0100                	addi	s0,sp,128
    21d6:	2005                	jal	21f6 <main_pwm.c.a2cb4005+0x41a>
    21d8:	00090003          	lb	zero,0(s2)
    21dc:	0100                	addi	s0,sp,128
    21de:	0205                	addi	tp,tp,1
    21e0:	0306                	slli	t1,t1,0x1
    21e2:	0182                	c.slli64	gp
    21e4:	0009                	c.nop	2
    21e6:	0100                	addi	s0,sp,128
    21e8:	0905                	addi	s2,s2,1
    21ea:	0306                	slli	t1,t1,0x1
    21ec:	0900                	addi	s0,sp,144
    21ee:	0000                	unimp
    21f0:	0501                	addi	a0,a0,0
    21f2:	0301                	addi	t1,t1,0
    21f4:	0901                	addi	s2,s2,0
    21f6:	0000                	unimp
    21f8:	0501                	addi	a0,a0,0
    21fa:	0309                	addi	t1,t1,2
    21fc:	097f                	0x97f
    21fe:	0000                	unimp
    2200:	0501                	addi	a0,a0,0
    2202:	0302                	c.slli64	t1
    2204:	7efe                	flw	ft9,252(sp)
    2206:	0009                	c.nop	2
    2208:	0100                	addi	s0,sp,128
    220a:	0105                	addi	sp,sp,1
    220c:	09018303          	lb	t1,144(gp) # 200009c0 <__global_pointer$+0x90>
    2210:	0000                	unimp
    2212:	0901                	addi	s2,s2,0
    2214:	0000                	unimp
    2216:	0100                	addi	s0,sp,128
    2218:	0501                	addi	a0,a0,0
    221a:	0001                	nop
    221c:	0205                	addi	tp,tp,1
    221e:	0000                	unimp
    2220:	0000                	unimp
    2222:	0102d903          	lhu	s2,16(t0)
    2226:	0205                	addi	tp,tp,1
    2228:	00090103          	lb	sp,0(s2)
    222c:	0100                	addi	s0,sp,128
    222e:	0105                	addi	sp,sp,1
    2230:	0306                	slli	t1,t1,0x1
    2232:	097f                	0x97f
    2234:	0000                	unimp
    2236:	0301                	addi	t1,t1,0
    2238:	0900                	addi	s0,sp,144
    223a:	0000                	unimp
    223c:	0501                	addi	a0,a0,0
    223e:	0901030b          	0x901030b
    2242:	0000                	unimp
    2244:	0501                	addi	a0,a0,0
    2246:	0602                	c.slli64	a2
    2248:	00090103          	lb	sp,0(s2)
    224c:	0100                	addi	s0,sp,128
    224e:	00090103          	lb	sp,0(s2)
    2252:	0100                	addi	s0,sp,128
    2254:	00090103          	lb	sp,0(s2)
    2258:	0100                	addi	s0,sp,128
    225a:	0105                	addi	sp,sp,1
    225c:	0306                	slli	t1,t1,0x1
    225e:	0901                	addi	s2,s2,0
    2260:	0000                	unimp
    2262:	0901                	addi	s2,s2,0
    2264:	0000                	unimp
    2266:	0100                	addi	s0,sp,128
    2268:	0501                	addi	a0,a0,0
    226a:	0001                	nop
    226c:	0205                	addi	tp,tp,1
    226e:	0000                	unimp
    2270:	0000                	unimp
    2272:	0105cf03          	lbu	t5,16(a1)
    2276:	0205                	addi	tp,tp,1
    2278:	00090103          	lb	sp,0(s2)
    227c:	0100                	addi	s0,sp,128
    227e:	9c09                	0x9c09
    2280:	0000                	unimp
    2282:	0101                	addi	sp,sp,0
    2284:	0105                	addi	sp,sp,1
    2286:	0006                	c.slli	zero,0x1
    2288:	0205                	addi	tp,tp,1
    228a:	0000                	unimp
    228c:	0000                	unimp
    228e:	0105fb03          	0x105fb03
    2292:	0306                	slli	t1,t1,0x1
    2294:	000901c3          	fmadd.s	ft3,fs2,ft0,ft0,rne
    2298:	0100                	addi	s0,sp,128
    229a:	0205                	addi	tp,tp,1
    229c:	00090103          	lb	sp,0(s2)
    22a0:	0100                	addi	s0,sp,128
    22a2:	00090103          	lb	sp,0(s2)
    22a6:	0100                	addi	s0,sp,128
    22a8:	0105                	addi	sp,sp,1
    22aa:	0306                	slli	t1,t1,0x1
    22ac:	097e                	slli	s2,s2,0x1f
    22ae:	0000                	unimp
    22b0:	0501                	addi	a0,a0,0
    22b2:	0902030b          	0x902030b
    22b6:	0000                	unimp
    22b8:	0501                	addi	a0,a0,0
    22ba:	04020007          	0x4020007
    22be:	0602                	c.slli64	a2
    22c0:	00090003          	lb	zero,0(s2)
    22c4:	0100                	addi	s0,sp,128
    22c6:	0b05                	addi	s6,s6,1
    22c8:	0200                	addi	s0,sp,256
    22ca:	0204                	addi	s1,sp,256
    22cc:	0306                	slli	t1,t1,0x1
    22ce:	0900                	addi	s0,sp,144
    22d0:	0000                	unimp
    22d2:	0501                	addi	a0,a0,0
    22d4:	0015                	c.nop	5
    22d6:	0402                	c.slli64	s0
    22d8:	0302                	c.slli64	t1
    22da:	0900                	addi	s0,sp,144
    22dc:	0000                	unimp
    22de:	0501                	addi	a0,a0,0
    22e0:	04020007          	0x4020007
    22e4:	0302                	c.slli64	t1
    22e6:	0900                	addi	s0,sp,144
    22e8:	0000                	unimp
    22ea:	0501                	addi	a0,a0,0
    22ec:	0602                	c.slli64	a2
    22ee:	00090103          	lb	sp,0(s2)
    22f2:	0100                	addi	s0,sp,128
    22f4:	2205                	jal	2414 <main_pwm.c.a2cb4005+0x638>
    22f6:	0306                	slli	t1,t1,0x1
    22f8:	0900                	addi	s0,sp,144
    22fa:	0000                	unimp
    22fc:	0501                	addi	a0,a0,0
    22fe:	0312                	slli	t1,t1,0x4
    2300:	0900                	addi	s0,sp,144
    2302:	0000                	unimp
    2304:	0501                	addi	a0,a0,0
    2306:	0900030b          	0x900030b
    230a:	0000                	unimp
    230c:	0501                	addi	a0,a0,0
    230e:	0602                	c.slli64	a2
    2310:	00090103          	lb	sp,0(s2)
    2314:	0100                	addi	s0,sp,128
    2316:	0905                	addi	s2,s2,1
    2318:	0306                	slli	t1,t1,0x1
    231a:	0900                	addi	s0,sp,144
    231c:	0000                	unimp
    231e:	0501                	addi	a0,a0,0
    2320:	001f 0402 0603      	0x6030402001f
    2326:	00097e03          	0x97e03
    232a:	0100                	addi	s0,sp,128
    232c:	2105                	jal	274c <main_pwm.c.a2cb4005+0x970>
    232e:	0200                	addi	s0,sp,256
    2330:	0304                	addi	s1,sp,384
    2332:	0306                	slli	t1,t1,0x1
    2334:	0900                	addi	s0,sp,144
    2336:	0000                	unimp
    2338:	0501                	addi	a0,a0,0
    233a:	0900033b          	0x900033b
    233e:	0000                	unimp
    2340:	0501                	addi	a0,a0,0
    2342:	0301                	addi	t1,t1,0
    2344:	00000903          	lb	s2,0(zero) # 0 <InterruptVector>
    2348:	0901                	addi	s2,s2,0
    234a:	0000                	unimp
    234c:	0100                	addi	s0,sp,128
    234e:	0401                	addi	s0,s0,0
    2350:	0502                	c.slli64	a0
    2352:	0001                	nop
    2354:	0205                	addi	tp,tp,1
    2356:	04ac                	addi	a1,sp,584
    2358:	0000                	unimp
    235a:	01029403          	lh	s0,16(t0)
    235e:	0205                	addi	tp,tp,1
    2360:	00090603          	lb	a2,0(s2)
    2364:	0100                	addi	s0,sp,128
    2366:	0105                	addi	sp,sp,1
    2368:	0306                	slli	t1,t1,0x1
    236a:	097a                	slli	s2,s2,0x1e
    236c:	0000                	unimp
    236e:	0501                	addi	a0,a0,0
    2370:	0906030f          	0x906030f
    2374:	0008                	0x8
    2376:	0501                	addi	a0,a0,0
    2378:	0301                	addi	t1,t1,0
    237a:	097a                	slli	s2,s2,0x1e
    237c:	0004                	0x4
    237e:	0501                	addi	a0,a0,0
    2380:	0906030f          	0x906030f
    2384:	0004                	0x4
    2386:	0501                	addi	a0,a0,0
    2388:	0301                	addi	t1,t1,0
    238a:	097a                	slli	s2,s2,0x1e
    238c:	0004                	0x4
    238e:	0501                	addi	a0,a0,0
    2390:	0906030f          	0x906030f
    2394:	0004                	0x4
    2396:	0501                	addi	a0,a0,0
    2398:	0301                	addi	t1,t1,0
    239a:	097a                	slli	s2,s2,0x1e
    239c:	0008                	0x8
    239e:	0501                	addi	a0,a0,0
    23a0:	0906030f          	0x906030f
    23a4:	0020                	addi	s0,sp,8
    23a6:	0501                	addi	a0,a0,0
    23a8:	0602                	c.slli64	a2
    23aa:	08090303          	lb	t1,128(s2)
    23ae:	0100                	addi	s0,sp,128
    23b0:	0e05                	addi	t3,t3,1
    23b2:	0306                	slli	t1,t1,0x1
    23b4:	0900                	addi	s0,sp,144
    23b6:	0000                	unimp
    23b8:	0501                	addi	a0,a0,0
    23ba:	0602                	c.slli64	a2
    23bc:	04090d03          	lb	s10,64(s2)
    23c0:	0100                	addi	s0,sp,128
    23c2:	00090303          	lb	t1,0(s2)
    23c6:	0100                	addi	s0,sp,128
    23c8:	0905                	addi	s2,s2,1
    23ca:	097f9603          	lh	a2,151(t6)
    23ce:	0000                	unimp
    23d0:	0501                	addi	a0,a0,0
    23d2:	0615                	addi	a2,a2,5
    23d4:	00090003          	lb	zero,0(s2)
    23d8:	0100                	addi	s0,sp,128
    23da:	1405                	addi	s0,s0,-31
    23dc:	08090303          	lb	t1,128(s2)
    23e0:	0100                	addi	s0,sp,128
    23e2:	1505                	addi	a0,a0,-31
    23e4:	04097d03          	0x4097d03
    23e8:	0100                	addi	s0,sp,128
    23ea:	0905                	addi	s2,s2,1
    23ec:	0306                	slli	t1,t1,0x1
    23ee:	0901                	addi	s2,s2,0
    23f0:	001c                	0x1c
    23f2:	0501                	addi	a0,a0,0
    23f4:	0615                	addi	a2,a2,5
    23f6:	00090003          	lb	zero,0(s2)
    23fa:	0100                	addi	s0,sp,128
    23fc:	08097f03          	0x8097f03
    2400:	0100                	addi	s0,sp,128
    2402:	08090103          	lb	sp,128(s2)
    2406:	0100                	addi	s0,sp,128
    2408:	0905                	addi	s2,s2,1
    240a:	0306                	slli	t1,t1,0x1
    240c:	0901                	addi	s2,s2,0
    240e:	0008                	0x8
    2410:	0501                	addi	a0,a0,0
    2412:	0615                	addi	a2,a2,5
    2414:	00090003          	lb	zero,0(s2)
    2418:	0100                	addi	s0,sp,128
    241a:	0905                	addi	s2,s2,1
    241c:	0306                	slli	t1,t1,0x1
    241e:	0901                	addi	s2,s2,0
    2420:	000c                	0xc
    2422:	0501                	addi	a0,a0,0
    2424:	0614                	addi	a3,sp,768
    2426:	00090003          	lb	zero,0(s2)
    242a:	0100                	addi	s0,sp,128
    242c:	0205                	addi	tp,tp,1
    242e:	0306                	slli	t1,t1,0x1
    2430:	00e8                	addi	a0,sp,76
    2432:	0409                	addi	s0,s0,2
    2434:	0100                	addi	s0,sp,128
    2436:	0905                	addi	s2,s2,1
    2438:	097f9503          	lh	a0,151(t6)
    243c:	0000                	unimp
    243e:	0501                	addi	a0,a0,0
    2440:	0615                	addi	a2,a2,5
    2442:	00090003          	lb	zero,0(s2)
    2446:	0100                	addi	s0,sp,128
    2448:	0905                	addi	s2,s2,1
    244a:	0306                	slli	t1,t1,0x1
    244c:	0901                	addi	s2,s2,0
    244e:	0014                	0x14
    2450:	0501                	addi	a0,a0,0
    2452:	0615                	addi	a2,a2,5
    2454:	00090003          	lb	zero,0(s2)
    2458:	0100                	addi	s0,sp,128
    245a:	0905                	addi	s2,s2,1
    245c:	0306                	slli	t1,t1,0x1
    245e:	0901                	addi	s2,s2,0
    2460:	000c                	0xc
    2462:	0501                	addi	a0,a0,0
    2464:	0615                	addi	a2,a2,5
    2466:	00090003          	lb	zero,0(s2)
    246a:	0100                	addi	s0,sp,128
    246c:	0905                	addi	s2,s2,1
    246e:	0306                	slli	t1,t1,0x1
    2470:	0901                	addi	s2,s2,0
    2472:	000c                	0xc
    2474:	0501                	addi	a0,a0,0
    2476:	0614                	addi	a3,sp,768
    2478:	00090003          	lb	zero,0(s2)
    247c:	0100                	addi	s0,sp,128
    247e:	0205                	addi	tp,tp,1
    2480:	0306                	slli	t1,t1,0x1
    2482:	00e9                	addi	ra,ra,26
    2484:	0409                	addi	s0,s0,2
    2486:	0100                	addi	s0,sp,128
    2488:	0905                	addi	s2,s2,1
    248a:	097f9403          	lh	s0,151(t6)
    248e:	0000                	unimp
    2490:	0501                	addi	a0,a0,0
    2492:	0615                	addi	a2,a2,5
    2494:	00090003          	lb	zero,0(s2)
    2498:	0100                	addi	s0,sp,128
    249a:	0905                	addi	s2,s2,1
    249c:	0306                	slli	t1,t1,0x1
    249e:	0901                	addi	s2,s2,0
    24a0:	001c                	0x1c
    24a2:	0501                	addi	a0,a0,0
    24a4:	0615                	addi	a2,a2,5
    24a6:	00090003          	lb	zero,0(s2)
    24aa:	0100                	addi	s0,sp,128
    24ac:	1405                	addi	s0,s0,-31
    24ae:	08090203          	lb	tp,128(s2)
    24b2:	0100                	addi	s0,sp,128
    24b4:	1505                	addi	a0,a0,-31
    24b6:	04097e03          	0x4097e03
    24ba:	0100                	addi	s0,sp,128
    24bc:	0905                	addi	s2,s2,1
    24be:	0306                	slli	t1,t1,0x1
    24c0:	0901                	addi	s2,s2,0
    24c2:	0008                	0x8
    24c4:	0501                	addi	a0,a0,0
    24c6:	0615                	addi	a2,a2,5
    24c8:	00090003          	lb	zero,0(s2)
    24cc:	0100                	addi	s0,sp,128
    24ce:	0905                	addi	s2,s2,1
    24d0:	0306                	slli	t1,t1,0x1
    24d2:	0901                	addi	s2,s2,0
    24d4:	000c                	0xc
    24d6:	0501                	addi	a0,a0,0
    24d8:	0614                	addi	a3,sp,768
    24da:	00090003          	lb	zero,0(s2)
    24de:	0100                	addi	s0,sp,128
    24e0:	0205                	addi	tp,tp,1
    24e2:	0306                	slli	t1,t1,0x1
    24e4:	00ea                	slli	ra,ra,0x1a
    24e6:	0409                	addi	s0,s0,2
    24e8:	0100                	addi	s0,sp,128
    24ea:	0905                	addi	s2,s2,1
    24ec:	097f9303          	lh	t1,151(t6)
    24f0:	0000                	unimp
    24f2:	0501                	addi	a0,a0,0
    24f4:	0615                	addi	a2,a2,5
    24f6:	00090003          	lb	zero,0(s2)
    24fa:	0100                	addi	s0,sp,128
    24fc:	0905                	addi	s2,s2,1
    24fe:	0306                	slli	t1,t1,0x1
    2500:	0901                	addi	s2,s2,0
    2502:	001c                	0x1c
    2504:	0501                	addi	a0,a0,0
    2506:	0615                	addi	a2,a2,5
    2508:	00090003          	lb	zero,0(s2)
    250c:	0100                	addi	s0,sp,128
    250e:	0905                	addi	s2,s2,1
    2510:	0306                	slli	t1,t1,0x1
    2512:	0901                	addi	s2,s2,0
    2514:	0014                	0x14
    2516:	0501                	addi	a0,a0,0
    2518:	0615                	addi	a2,a2,5
    251a:	00090003          	lb	zero,0(s2)
    251e:	0100                	addi	s0,sp,128
    2520:	0905                	addi	s2,s2,1
    2522:	0306                	slli	t1,t1,0x1
    2524:	0901                	addi	s2,s2,0
    2526:	0010                	0x10
    2528:	0501                	addi	a0,a0,0
    252a:	0614                	addi	a3,sp,768
    252c:	00090003          	lb	zero,0(s2)
    2530:	0100                	addi	s0,sp,128
    2532:	0205                	addi	tp,tp,1
    2534:	0306                	slli	t1,t1,0x1
    2536:	00ed                	addi	ra,ra,27
    2538:	0809                	addi	a6,a6,2
    253a:	0100                	addi	s0,sp,128
    253c:	0505                	addi	a0,a0,1
    253e:	0306                	slli	t1,t1,0x1
    2540:	0900                	addi	s0,sp,144
    2542:	0000                	unimp
    2544:	0501                	addi	a0,a0,0
    2546:	0304                	addi	s1,sp,384
    2548:	0900                	addi	s0,sp,144
    254a:	0010                	0x10
    254c:	0501                	addi	a0,a0,0
    254e:	04020003          	lb	zero,64(tp) # 40 <InterruptVector+0x40>
    2552:	09040303          	lb	t1,144(s0)
    2556:	000c                	0xc
    2558:	0501                	addi	a0,a0,0
    255a:	0026                	c.slli	zero,0x9
    255c:	0402                	c.slli64	s0
    255e:	09000303          	lb	t1,144(zero) # 90 <InterruptVector+0x90>
    2562:	0004                	0x4
    2564:	0501                	addi	a0,a0,0
    2566:	04020003          	lb	zero,64(tp) # 40 <InterruptVector+0x40>
    256a:	09000303          	lb	t1,144(zero) # 90 <InterruptVector+0x90>
    256e:	0014                	0x14
    2570:	0501                	addi	a0,a0,0
    2572:	0006                	c.slli	zero,0x1
    2574:	0402                	c.slli64	s0
    2576:	7fb30303          	lb	t1,2043(t1)
    257a:	0409                	addi	s0,s0,2
    257c:	0100                	addi	s0,sp,128
    257e:	0205                	addi	tp,tp,1
    2580:	0200                	addi	s0,sp,256
    2582:	0304                	addi	s1,sp,384
    2584:	0900cc03          	lbu	s8,144(ra) # fffe4090 <__global_pointer$+0xdffe3760>
    2588:	0010                	0x10
    258a:	0501                	addi	a0,a0,0
    258c:	04020003          	lb	zero,64(tp) # 40 <InterruptVector+0x40>
    2590:	01030603          	lb	a2,16(t1)
    2594:	0409                	addi	s0,s0,2
    2596:	0100                	addi	s0,sp,128
    2598:	2605                	jal	28b8 <main_pwm.c.a2cb4005+0xadc>
    259a:	0200                	addi	s0,sp,256
    259c:	0304                	addi	s1,sp,384
    259e:	0306                	slli	t1,t1,0x1
    25a0:	0900                	addi	s0,sp,144
    25a2:	0000                	unimp
    25a4:	0501                	addi	a0,a0,0
    25a6:	04020003          	lb	zero,64(tp) # 40 <InterruptVector+0x40>
    25aa:	09000303          	lb	t1,144(zero) # 90 <InterruptVector+0x90>
    25ae:	0008                	0x8
    25b0:	0501                	addi	a0,a0,0
    25b2:	0021                	c.nop	8
    25b4:	0402                	c.slli64	s0
    25b6:	09020303          	lb	t1,144(tp) # 90 <InterruptVector+0x90>
    25ba:	0010                	0x10
    25bc:	0501                	addi	a0,a0,0
    25be:	04020003          	lb	zero,64(tp) # 40 <InterruptVector+0x40>
    25c2:	097e0303          	lb	t1,151(t3)
    25c6:	0004                	0x4
    25c8:	0501                	addi	a0,a0,0
    25ca:	0021                	c.nop	8
    25cc:	0402                	c.slli64	s0
    25ce:	09020303          	lb	t1,144(tp) # 90 <InterruptVector+0x90>
    25d2:	0008                	0x8
    25d4:	0501                	addi	a0,a0,0
    25d6:	0006                	c.slli	zero,0x1
    25d8:	0402                	c.slli64	s0
    25da:	b1030603          	lb	a2,-1264(t1)
    25de:	097f                	0x97f
    25e0:	0004                	0x4
    25e2:	0601                	addi	a2,a2,0
    25e4:	04090003          	lb	zero,64(s2)
    25e8:	0100                	addi	s0,sp,128
    25ea:	1205                	addi	tp,tp,-31
    25ec:	0306                	slli	t1,t1,0x1
    25ee:	00cc                	addi	a1,sp,68
    25f0:	0c09                	addi	s8,s8,2
    25f2:	0100                	addi	s0,sp,128
    25f4:	1305                	addi	t1,t1,-31
    25f6:	0306                	slli	t1,t1,0x1
    25f8:	0900                	addi	s0,sp,144
    25fa:	0000                	unimp
    25fc:	0501                	addi	a0,a0,0
    25fe:	060e                	slli	a2,a2,0x3
    2600:	04090003          	lb	zero,64(s2)
    2604:	0100                	addi	s0,sp,128
    2606:	0205                	addi	tp,tp,1
    2608:	0306                	slli	t1,t1,0x1
    260a:	0900                	addi	s0,sp,144
    260c:	0000                	unimp
    260e:	0501                	addi	a0,a0,0
    2610:	030a                	slli	t1,t1,0x2
    2612:	0908                	addi	a0,sp,144
    2614:	0004                	0x4
    2616:	0501                	addi	a0,a0,0
    2618:	031d                	addi	t1,t1,7
    261a:	7fa0                	flw	fs0,120(a5)
    261c:	0409                	addi	s0,s0,2
    261e:	0100                	addi	s0,sp,128
    2620:	3f05                	jal	2550 <main_pwm.c.a2cb4005+0x774>
    2622:	04090103          	lb	sp,64(s2)
    2626:	0100                	addi	s0,sp,128
    2628:	0305                	addi	t1,t1,1
    262a:	0200                	addi	s0,sp,256
    262c:	0304                	addi	s1,sp,384
    262e:	0306                	slli	t1,t1,0x1
    2630:	00e0                	addi	s0,sp,76
    2632:	0409                	addi	s0,s0,2
    2634:	0100                	addi	s0,sp,128
    2636:	2505                	jal	2c56 <wiring.c.7604182b+0x2bd>
    2638:	0200                	addi	s0,sp,256
    263a:	0304                	addi	s1,sp,384
    263c:	0306                	slli	t1,t1,0x1
    263e:	0900                	addi	s0,sp,144
    2640:	0000                	unimp
    2642:	0501                	addi	a0,a0,0
    2644:	04020013          	addi	zero,tp,64 # 40 <InterruptVector+0x40>
    2648:	097f0303          	lb	t1,151(t5)
    264c:	0008                	0x8
    264e:	0501                	addi	a0,a0,0
    2650:	04020003          	lb	zero,64(tp) # 40 <InterruptVector+0x40>
    2654:	09010303          	lb	t1,144(sp)
    2658:	0004                	0x4
    265a:	0501                	addi	a0,a0,0
    265c:	0009                	c.nop	2
    265e:	0402                	c.slli64	s0
    2660:	9f030603          	lb	a2,-1552(t1)
    2664:	097f                	0x97f
    2666:	001c                	0x1c
    2668:	0501                	addi	a0,a0,0
    266a:	0015                	c.nop	5
    266c:	0402                	c.slli64	s0
    266e:	00030603          	lb	a2,0(t1)
    2672:	0009                	c.nop	2
    2674:	0100                	addi	s0,sp,128
    2676:	2105                	jal	2a96 <wiring.c.7604182b+0xfd>
    2678:	0200                	addi	s0,sp,256
    267a:	0304                	addi	s1,sp,384
    267c:	04090003          	lb	zero,64(s2)
    2680:	0100                	addi	s0,sp,128
    2682:	1d05                	addi	s10,s10,-31
    2684:	0200                	addi	s0,sp,256
    2686:	0304                	addi	s1,sp,384
    2688:	04090003          	lb	zero,64(s2)
    268c:	0100                	addi	s0,sp,128
    268e:	1805                	addi	a6,a6,-31
    2690:	0200                	addi	s0,sp,256
    2692:	0304                	addi	s1,sp,384
    2694:	04090003          	lb	zero,64(s2)
    2698:	0100                	addi	s0,sp,128
    269a:	1505                	addi	a0,a0,-31
    269c:	0200                	addi	s0,sp,256
    269e:	0304                	addi	s1,sp,384
    26a0:	04090003          	lb	zero,64(s2)
    26a4:	0100                	addi	s0,sp,128
    26a6:	0905                	addi	s2,s2,1
    26a8:	0200                	addi	s0,sp,256
    26aa:	0304                	addi	s1,sp,384
    26ac:	0306                	slli	t1,t1,0x1
    26ae:	0901                	addi	s2,s2,0
    26b0:	0008                	0x8
    26b2:	0501                	addi	a0,a0,0
    26b4:	0015                	c.nop	5
    26b6:	0402                	c.slli64	s0
    26b8:	00030603          	lb	a2,0(t1)
    26bc:	0009                	c.nop	2
    26be:	0100                	addi	s0,sp,128
    26c0:	3f05                	jal	25f0 <main_pwm.c.a2cb4005+0x814>
    26c2:	0200                	addi	s0,sp,256
    26c4:	0304                	addi	s1,sp,384
    26c6:	04090003          	lb	zero,64(s2)
    26ca:	0100                	addi	s0,sp,128
    26cc:	1505                	addi	a0,a0,-31
    26ce:	0200                	addi	s0,sp,256
    26d0:	0304                	addi	s1,sp,384
    26d2:	04090003          	lb	zero,64(s2)
    26d6:	0100                	addi	s0,sp,128
    26d8:	0905                	addi	s2,s2,1
    26da:	0200                	addi	s0,sp,256
    26dc:	0304                	addi	s1,sp,384
    26de:	0306                	slli	t1,t1,0x1
    26e0:	0901                	addi	s2,s2,0
    26e2:	0008                	0x8
    26e4:	0501                	addi	a0,a0,0
    26e6:	0015                	c.nop	5
    26e8:	0402                	c.slli64	s0
    26ea:	00030603          	lb	a2,0(t1)
    26ee:	0009                	c.nop	2
    26f0:	0100                	addi	s0,sp,128
    26f2:	1205                	addi	tp,tp,-31
    26f4:	0200                	addi	s0,sp,256
    26f6:	0304                	addi	s1,sp,384
    26f8:	0306                	slli	t1,t1,0x1
    26fa:	00de                	slli	ra,ra,0x17
    26fc:	1409                	addi	s0,s0,-30
    26fe:	0100                	addi	s0,sp,128
    2700:	0e05                	addi	t3,t3,1
    2702:	0200                	addi	s0,sp,256
    2704:	0304                	addi	s1,sp,384
    2706:	00090003          	lb	zero,0(s2)
    270a:	0100                	addi	s0,sp,128
    270c:	0205                	addi	tp,tp,1
    270e:	0200                	addi	s0,sp,256
    2710:	0304                	addi	s1,sp,384
    2712:	0306                	slli	t1,t1,0x1
    2714:	0900                	addi	s0,sp,144
    2716:	0000                	unimp
    2718:	0501                	addi	a0,a0,0
    271a:	0301                	addi	t1,t1,0
    271c:	0909                	addi	s2,s2,2
    271e:	0008                	0x8
    2720:	0501                	addi	a0,a0,0
    2722:	0019                	c.nop	6
    2724:	0402                	c.slli64	s0
    2726:	0601                	addi	a2,a2,0
    2728:	34096c03          	0x34096c03
    272c:	0100                	addi	s0,sp,128
    272e:	2505                	jal	2d4e <wiring.c.7604182b+0x3b5>
    2730:	0200                	addi	s0,sp,256
    2732:	0104                	addi	s1,sp,128
    2734:	0306                	slli	t1,t1,0x1
    2736:	0900                	addi	s0,sp,144
    2738:	0000                	unimp
    273a:	0501                	addi	a0,a0,0
    273c:	0306                	slli	t1,t1,0x1
    273e:	08097fb7          	lui	t6,0x8097
    2742:	0100                	addi	s0,sp,128
    2744:	1605                	addi	a2,a2,-31
    2746:	0306                	slli	t1,t1,0x1
    2748:	0905                	addi	s2,s2,1
    274a:	0004                	0x4
    274c:	0501                	addi	a0,a0,0
    274e:	0624                	addi	s1,sp,776
    2750:	00090003          	lb	zero,0(s2)
    2754:	0100                	addi	s0,sp,128
    2756:	2d05                	jal	2d86 <wiring.c.7604182b+0x3ed>
    2758:	0306                	slli	t1,t1,0x1
    275a:	0900                	addi	s0,sp,144
    275c:	0004                	0x4
    275e:	0501                	addi	a0,a0,0
    2760:	0316                	slli	t1,t1,0x5
    2762:	097d                	addi	s2,s2,31
    2764:	0004                	0x4
    2766:	0501                	addi	a0,a0,0
    2768:	0624                	addi	s1,sp,776
    276a:	00090003          	lb	zero,0(s2)
    276e:	0100                	addi	s0,sp,128
    2770:	2d05                	jal	2da0 <wiring.c.7604182b+0x407>
    2772:	0306                	slli	t1,t1,0x1
    2774:	0900                	addi	s0,sp,144
    2776:	0004                	0x4
    2778:	0501                	addi	a0,a0,0
    277a:	0316                	slli	t1,t1,0x5
    277c:	0901                	addi	s2,s2,0
    277e:	0004                	0x4
    2780:	0501                	addi	a0,a0,0
    2782:	0624                	addi	s1,sp,776
    2784:	00090003          	lb	zero,0(s2)
    2788:	0100                	addi	s0,sp,128
    278a:	2d05                	jal	2dba <wiring.c.7604182b+0x421>
    278c:	0306                	slli	t1,t1,0x1
    278e:	0900                	addi	s0,sp,144
    2790:	0004                	0x4
    2792:	0501                	addi	a0,a0,0
    2794:	0316                	slli	t1,t1,0x5
    2796:	0901                	addi	s2,s2,0
    2798:	0004                	0x4
    279a:	0501                	addi	a0,a0,0
    279c:	0624                	addi	s1,sp,776
    279e:	00090003          	lb	zero,0(s2)
    27a2:	0100                	addi	s0,sp,128
    27a4:	2d05                	jal	2dd4 <wiring.c.7604182b+0x43b>
    27a6:	0306                	slli	t1,t1,0x1
    27a8:	0900                	addi	s0,sp,144
    27aa:	0004                	0x4
    27ac:	0901                	addi	s2,s2,0
    27ae:	0004                	0x4
    27b0:	0100                	addi	s0,sp,128
    27b2:	0401                	addi	s0,s0,0
    27b4:	0001                	nop
    27b6:	0400                	addi	s0,sp,512
    27b8:	fe00                	fsw	fs0,56(a2)
    27ba:	0000                	unimp
    27bc:	0100                	addi	s0,sp,128
    27be:	0101                	addi	sp,sp,0
    27c0:	f2f6                	fsw	ft9,100(sp)
    27c2:	000d                	c.nop	3
    27c4:	0101                	addi	sp,sp,0
    27c6:	0101                	addi	sp,sp,0
    27c8:	0000                	unimp
    27ca:	0100                	addi	s0,sp,128
    27cc:	0000                	unimp
    27ce:	6301                	0x6301
    27d0:	3368                	fld	fa0,224(a4)
    27d2:	7632                	flw	fa2,44(sp)
    27d4:	3030                	fld	fa2,96(s0)
    27d6:	6e756633          	0x6e756633
    27da:	2f00                	fld	fs0,24(a4)
    27dc:	7375                	lui	t1,0xffffd
    27de:	2f72                	fld	ft10,280(sp)
    27e0:	6e69                	lui	t3,0x1a
    27e2:	64756c63          	bltu	a0,t2,2e3a <wiring.c.7604182b+0x4a1>
    27e6:	2f65                	jal	2f9e <wiring.c.7604182b+0x605>
    27e8:	656e                	flw	fa0,216(sp)
    27ea:	62696c77          	0x62696c77
    27ee:	63616d2f          	0x63616d2f
    27f2:	6968                	flw	fa0,84(a0)
    27f4:	656e                	flw	fa0,216(sp)
    27f6:	2f00                	fld	fs0,24(a4)
    27f8:	7375                	lui	t1,0xffffd
    27fa:	2f72                	fld	ft10,280(sp)
    27fc:	6e69                	lui	t3,0x1a
    27fe:	64756c63          	bltu	a0,t2,2e56 <wiring.c.7604182b+0x4bd>
    2802:	2f65                	jal	2fba <wiring.c.7604182b+0x621>
    2804:	656e                	flw	fa0,216(sp)
    2806:	62696c77          	0x62696c77
    280a:	7379732f          	0x7379732f
    280e:	2f00                	fld	fs0,24(a4)
    2810:	7375                	lui	t1,0xffffd
    2812:	2f72                	fld	ft10,280(sp)
    2814:	6e69                	lui	t3,0x1a
    2816:	64756c63          	bltu	a0,t2,2e6e <wiring.c.7604182b+0x4d5>
    281a:	2f65                	jal	2fd2 <wiring.c.7604182b+0x639>
    281c:	656e                	flw	fa0,216(sp)
    281e:	62696c77          	0x62696c77
    2822:	2f00                	fld	fs0,24(a4)
    2824:	7375                	lui	t1,0xffffd
    2826:	2f72                	fld	ft10,280(sp)
    2828:	696c                	flw	fa1,84(a0)
    282a:	2f62                	fld	ft10,24(sp)
    282c:	2f636367          	0x2f636367
    2830:	6972                	flw	fs2,28(sp)
    2832:	36766373          	csrrsi	t1,0x367,12
    2836:	2d34                	fld	fa3,88(a0)
    2838:	6e75                	lui	t3,0x1d
    283a:	776f6e6b          	0x776f6e6b
    283e:	2d6e                	fld	fs10,216(sp)
    2840:	6c65                	lui	s8,0x19
    2842:	2f66                	fld	ft10,88(sp)
    2844:	3031                	jal	2050 <main_pwm.c.a2cb4005+0x274>
    2846:	322e                	fld	ft4,232(sp)
    2848:	302e                	fld	ft0,232(sp)
    284a:	636e692f          	0x636e692f
    284e:	756c                	flw	fa1,108(a0)
    2850:	6564                	flw	fs1,76(a0)
    2852:	0000                	unimp
    2854:	645f 6665 7561      	0x75616665645f
    285a:	746c                	flw	fa1,108(s0)
    285c:	745f 7079 7365      	0x73657079745f
    2862:	682e                	flw	fa6,200(sp)
    2864:	0200                	addi	s0,sp,256
    2866:	0000                	unimp
    2868:	64647473          	csrrci	s0,0x646,8
    286c:	6665                	lui	a2,0x19
    286e:	682e                	flw	fa6,200(sp)
    2870:	0500                	addi	s0,sp,640
    2872:	0000                	unimp
    2874:	61647473          	csrrci	s0,0x616,8
    2878:	6772                	flw	fa4,28(sp)
    287a:	682e                	flw	fa6,200(sp)
    287c:	0500                	addi	s0,sp,640
    287e:	0000                	unimp
    2880:	69647473          	csrrci	s0,0x696,8
    2884:	00682e6f          	jal	t3,8488a <wiring.c.7604182b+0x81ef1>
    2888:	0004                	0x4
    288a:	5f00                	lw	s0,56(a4)
    288c:	69647473          	csrrci	s0,0x696,8
    2890:	746e                	flw	fs0,248(sp)
    2892:	682e                	flw	fa6,200(sp)
    2894:	0300                	addi	s0,sp,384
    2896:	0000                	unimp
    2898:	32336863          	bltu	t1,gp,2bc8 <wiring.c.7604182b+0x22f>
    289c:	3076                	fld	ft0,376(sp)
    289e:	3330                	fld	fa2,96(a4)
    28a0:	7566                	flw	fa0,120(sp)
    28a2:	2e6e                	fld	ft8,216(sp)
    28a4:	0068                	addi	a0,sp,12
    28a6:	0001                	nop
    28a8:	6300                	flw	fs0,0(a4)
    28aa:	3368                	fld	fa0,224(a4)
    28ac:	7632                	flw	fa2,44(sp)
    28ae:	3030                	fld	fa2,96(s0)
    28b0:	6e756633          	0x6e756633
    28b4:	632e                	flw	ft6,200(sp)
    28b6:	0100                	addi	s0,sp,128
    28b8:	0000                	unimp
    28ba:	9a00                	0x9a00
    28bc:	0000                	unimp
    28be:	0400                	addi	s0,sp,512
    28c0:	9400                	0x9400
    28c2:	0000                	unimp
    28c4:	0100                	addi	s0,sp,128
    28c6:	0101                	addi	sp,sp,0
    28c8:	f2f6                	fsw	ft9,100(sp)
    28ca:	000d                	c.nop	3
    28cc:	0101                	addi	sp,sp,0
    28ce:	0101                	addi	sp,sp,0
    28d0:	0000                	unimp
    28d2:	0100                	addi	s0,sp,128
    28d4:	0000                	unimp
    28d6:	6301                	0x6301
    28d8:	3368                	fld	fa0,224(a4)
    28da:	7632                	flw	fa2,44(sp)
    28dc:	3030                	fld	fa2,96(s0)
    28de:	6e756633          	0x6e756633
    28e2:	2f00                	fld	fs0,24(a4)
    28e4:	7375                	lui	t1,0xffffd
    28e6:	2f72                	fld	ft10,280(sp)
    28e8:	6e69                	lui	t3,0x1a
    28ea:	64756c63          	bltu	a0,t2,2f42 <wiring.c.7604182b+0x5a9>
    28ee:	2f65                	jal	30a6 <wiring.c.7604182b+0x70d>
    28f0:	656e                	flw	fa0,216(sp)
    28f2:	62696c77          	0x62696c77
    28f6:	63616d2f          	0x63616d2f
    28fa:	6968                	flw	fa0,84(a0)
    28fc:	656e                	flw	fa0,216(sp)
    28fe:	2f00                	fld	fs0,24(a4)
    2900:	7375                	lui	t1,0xffffd
    2902:	2f72                	fld	ft10,280(sp)
    2904:	6e69                	lui	t3,0x1a
    2906:	64756c63          	bltu	a0,t2,2f5e <wiring.c.7604182b+0x5c5>
    290a:	2f65                	jal	30c2 <wiring.c.7604182b+0x729>
    290c:	656e                	flw	fa0,216(sp)
    290e:	62696c77          	0x62696c77
    2912:	7379732f          	0x7379732f
    2916:	0000                	unimp
    2918:	32336863          	bltu	t1,gp,2c48 <wiring.c.7604182b+0x2af>
    291c:	3076                	fld	ft0,376(sp)
    291e:	3330                	fld	fa2,96(a4)
    2920:	7566                	flw	fa0,120(sp)
    2922:	2e6e                	fld	ft8,216(sp)
    2924:	0068                	addi	a0,sp,12
    2926:	0001                	nop
    2928:	5f00                	lw	s0,56(a4)
    292a:	6564                	flw	fs1,76(a0)
    292c:	6166                	flw	ft2,88(sp)
    292e:	6c75                	lui	s8,0x1d
    2930:	5f74                	lw	a3,124(a4)
    2932:	7974                	flw	fa3,116(a0)
    2934:	6570                	flw	fa2,76(a0)
    2936:	00682e73          	csrrs	t3,0x6,a6
    293a:	0002                	c.slli64	zero
    293c:	5f00                	lw	s0,56(a4)
    293e:	69647473          	csrrci	s0,0x696,8
    2942:	746e                	flw	fs0,248(sp)
    2944:	682e                	flw	fa6,200(sp)
    2946:	0300                	addi	s0,sp,384
    2948:	0000                	unimp
    294a:	616d                	addi	sp,sp,240
    294c:	6e69                	lui	t3,0x1a
    294e:	702d                	c.lui	zero,0xfffeb
    2950:	632e6d77          	0x632e6d77
    2954:	0000                	unimp
    2956:	0000                	unimp
    2958:	a400                	fsd	fs0,8(s0)
    295a:	0000                	unimp
    295c:	0400                	addi	s0,sp,512
    295e:	9e00                	0x9e00
    2960:	0000                	unimp
    2962:	0100                	addi	s0,sp,128
    2964:	0101                	addi	sp,sp,0
    2966:	f2f6                	fsw	ft9,100(sp)
    2968:	000d                	c.nop	3
    296a:	0101                	addi	sp,sp,0
    296c:	0101                	addi	sp,sp,0
    296e:	0000                	unimp
    2970:	0100                	addi	s0,sp,128
    2972:	0000                	unimp
    2974:	6301                	0x6301
    2976:	3368                	fld	fa0,224(a4)
    2978:	7632                	flw	fa2,44(sp)
    297a:	3030                	fld	fa2,96(s0)
    297c:	6e756633          	0x6e756633
    2980:	2f00                	fld	fs0,24(a4)
    2982:	7375                	lui	t1,0xffffd
    2984:	2f72                	fld	ft10,280(sp)
    2986:	6e69                	lui	t3,0x1a
    2988:	64756c63          	bltu	a0,t2,2fe0 <wiring.c.7604182b+0x647>
    298c:	2f65                	jal	3144 <wiring.c.7604182b+0x7ab>
    298e:	656e                	flw	fa0,216(sp)
    2990:	62696c77          	0x62696c77
    2994:	63616d2f          	0x63616d2f
    2998:	6968                	flw	fa0,84(a0)
    299a:	656e                	flw	fa0,216(sp)
    299c:	2f00                	fld	fs0,24(a4)
    299e:	7375                	lui	t1,0xffffd
    29a0:	2f72                	fld	ft10,280(sp)
    29a2:	6e69                	lui	t3,0x1a
    29a4:	64756c63          	bltu	a0,t2,2ffc <wiring.c.7604182b+0x663>
    29a8:	2f65                	jal	3160 <wiring.c.7604182b+0x7c7>
    29aa:	656e                	flw	fa0,216(sp)
    29ac:	62696c77          	0x62696c77
    29b0:	7379732f          	0x7379732f
    29b4:	0000                	unimp
    29b6:	645f 6665 7561      	0x75616665645f
    29bc:	746c                	flw	fa1,108(s0)
    29be:	745f 7079 7365      	0x73657079745f
    29c4:	682e                	flw	fa6,200(sp)
    29c6:	0200                	addi	s0,sp,256
    29c8:	0000                	unimp
    29ca:	735f 6474 6e69      	0x6e696474735f
    29d0:	2e74                	fld	fa3,216(a2)
    29d2:	0068                	addi	a0,sp,12
    29d4:	63000003          	lb	zero,1584(zero) # 630 <SysTick_Handler+0x184>
    29d8:	3368                	fld	fa0,224(a4)
    29da:	7632                	flw	fa2,44(sp)
    29dc:	3030                	fld	fa2,96(s0)
    29de:	6e756633          	0x6e756633
    29e2:	682e                	flw	fa6,200(sp)
    29e4:	0100                	addi	s0,sp,128
    29e6:	0000                	unimp
    29e8:	69726977          	0x69726977
    29ec:	676e                	flw	fa4,216(sp)
    29ee:	682e                	flw	fa6,200(sp)
    29f0:	0000                	unimp
    29f2:	0000                	unimp
    29f4:	69726977          	0x69726977
    29f8:	676e                	flw	fa4,216(sp)
    29fa:	632e                	flw	ft6,200(sp)
    29fc:	0000                	unimp
    29fe:	0000                	unimp
    2a00:	8800                	0x8800
    2a02:	0000                	unimp
    2a04:	0300                	addi	s0,sp,384
    2a06:	4200                	lw	s0,0(a2)
    2a08:	0000                	unimp
    2a0a:	0100                	addi	s0,sp,128
    2a0c:	fb01                	bnez	a4,291c <main_pwm.c.a2cb4005+0xb40>
    2a0e:	0d0e                	slli	s10,s10,0x3
    2a10:	0100                	addi	s0,sp,128
    2a12:	0101                	addi	sp,sp,0
    2a14:	0001                	nop
    2a16:	0000                	unimp
    2a18:	0001                	nop
    2a1a:	0100                	addi	s0,sp,128
    2a1c:	2e2e                	fld	ft8,200(sp)
    2a1e:	2f2e2e2f          	0x2f2e2e2f
    2a22:	2e2e                	fld	ft8,200(sp)
    2a24:	2f2e2e2f          	0x2f2e2e2f
    2a28:	2e2e                	fld	ft8,200(sp)
    2a2a:	62696c2f          	0x62696c2f
    2a2e:	2f636367          	0x2f636367
    2a32:	666e6f63          	bltu	t3,t1,30b0 <wiring.c.7604182b+0x717>
    2a36:	6769                	lui	a4,0x1a
    2a38:	7369722f          	0x7369722f
    2a3c:	00007663          	bgeu	zero,zero,2a48 <wiring.c.7604182b+0xaf>
    2a40:	756d                	lui	a0,0xffffb
    2a42:	646c                	flw	fa1,76(s0)
    2a44:	3369                	jal	27ce <main_pwm.c.a2cb4005+0x9f2>
    2a46:	532e                	lw	t1,232(sp)
    2a48:	0100                	addi	s0,sp,128
    2a4a:	0000                	unimp
    2a4c:	0000                	unimp
    2a4e:	0205                	addi	tp,tp,1
    2a50:	00a0                	addi	s0,sp,72
    2a52:	0000                	unimp
    2a54:	03012403          	lw	s0,48(sp)
    2a58:	0901                	addi	s2,s2,0
    2a5a:	0004                	0x4
    2a5c:	0301                	addi	t1,t1,0
    2a5e:	0902                	c.slli64	s2
    2a60:	0004                	0x4
    2a62:	0301                	addi	t1,t1,0
    2a64:	0901                	addi	s2,s2,0
    2a66:	0004                	0x4
    2a68:	0301                	addi	t1,t1,0
    2a6a:	0901                	addi	s2,s2,0
    2a6c:	0004                	0x4
    2a6e:	0301                	addi	t1,t1,0
    2a70:	0902                	c.slli64	s2
    2a72:	0004                	0x4
    2a74:	0301                	addi	t1,t1,0
    2a76:	0901                	addi	s2,s2,0
    2a78:	0004                	0x4
    2a7a:	0301                	addi	t1,t1,0
    2a7c:	0901                	addi	s2,s2,0
    2a7e:	0004                	0x4
    2a80:	0301                	addi	t1,t1,0
    2a82:	0901                	addi	s2,s2,0
    2a84:	0004                	0x4
    2a86:	0901                	addi	s2,s2,0
    2a88:	0004                	0x4
    2a8a:	0100                	addi	s0,sp,128
    2a8c:	01              	Address 0x0000000000002a8c is out of bounds.


Disassembly of section .debug_str:

00000000 <.debug_str>:
	asm volatile( "\n\
   0:	5f5f 6475 7669      	0x766964755f5f
   6:	00336973          	csrrsi	s2,fcsr,6
   a:	5f5f 7562 6c69      	0x6c6975625f5f
  10:	6974                	flw	fa3,84(a0)
  12:	5f6e                	lw	t5,248(sp)
  14:	656d                	lui	a0,0x1b
  16:	736d                	lui	t1,0xffffb
  18:	7465                	lui	s0,0xffff9
  1a:	5f00                	lw	s0,56(a4)
  1c:	625f 6975 746c      	0x746c6975625f
  22:	6e69                	lui	t3,0x1a
  24:	6d5f 6d65 7063      	0x70636d656d5f
  2a:	0079                	c.nop	30
  2c:	20554e47          	fmsub.s	ft8,fa0,ft5,ft4,rmm
  30:	504d4947          	fmsub.s	fs2,fs10,ft4,fa0,rmm
  34:	454c                	lw	a1,12(a0)
  36:	3120                	fld	fs0,96(a0)
  38:	2e30                	fld	fa2,88(a2)
  3a:	2e32                	fld	ft8,264(sp)
  3c:	2030                	fld	fa2,64(s0)
  3e:	6d2d                	lui	s10,0xb
  40:	7261                	lui	tp,0xffff8
  42:	723d6863          	bltu	s10,gp,772 <_data_lma+0x2>
  46:	3376                	fld	ft6,376(sp)
  48:	6532                	flw	fa0,12(sp)
  4a:	6d2d2063          	0x6d2d2063
  4e:	6261                	lui	tp,0x18
  50:	3d69                	jal	fffffeea <__global_pointer$+0xdffff5ba>
  52:	6c69                	lui	s8,0x1a
  54:	3370                	fld	fa2,224(a4)
  56:	6532                	flw	fa0,12(sp)
  58:	2d20                	fld	fs0,88(a0)
  5a:	616d                	addi	sp,sp,240
  5c:	6372                	flw	ft6,28(sp)
  5e:	3d68                	fld	fa0,248(a0)
  60:	7672                	flw	fa2,60(sp)
  62:	63653233          	0x63653233
  66:	2d20                	fld	fs0,88(a0)
  68:	616d                	addi	sp,sp,240
  6a:	6962                	flw	fs2,24(sp)
  6c:	693d                	lui	s2,0xf
  6e:	706c                	flw	fa1,100(s0)
  70:	20653233          	0x20653233
  74:	672d                	lui	a4,0xb
  76:	2d20                	fld	fs0,88(a0)
  78:	4f2d2067          	0x4f2d2067
  7c:	4f2d2073          	csrs	0x4f2,s10
  80:	662d2073          	csrs	0x662,s10
  84:	6f6e                	flw	ft10,216(sp)
  86:	6f2d                	lui	t5,0xb
  88:	6570                	flw	fa2,76(a0)
  8a:	6d6e                	flw	fs10,216(sp)
  8c:	2070                	fld	fa2,192(s0)
  8e:	662d                	lui	a2,0xb
  90:	6f6e                	flw	ft10,216(sp)
  92:	6f2d                	lui	t5,0xb
  94:	6570                	flw	fa2,76(a0)
  96:	616e                	flw	ft2,216(sp)
  98:	2d206363          	bltu	zero,s2,35e <main+0x29a>
  9c:	6e66                	flw	ft8,88(sp)
  9e:	69702d6f          	jal	s10,2f34 <wiring.c.7604182b+0x59b>
  a2:	2065                	jal	14a <main+0x86>
  a4:	662d                	lui	a2,0xb
  a6:	7566                	flw	fa0,120(sp)
  a8:	636e                	flw	ft6,216(sp)
  aa:	6974                	flw	fa3,84(a0)
  ac:	732d6e6f          	jal	t3,d67de <wiring.c.7604182b+0xd3e45>
  b0:	6365                	lui	t1,0x19
  b2:	6974                	flw	fa3,84(a0)
  b4:	20736e6f          	jal	t3,36aba <wiring.c.7604182b+0x34121>
  b8:	662d                	lui	a2,0xb
  ba:	746c                	flw	fa1,108(s0)
  bc:	6172                	flw	ft2,28(sp)
  be:	736e                	flw	ft6,248(sp)
  c0:	5f00                	lw	s0,56(a4)
  c2:	755f 6f6d 7364      	0x73646f6d755f
int main() {
  c8:	3369                	jal	fffffe52 <__global_pointer$+0xdffff522>
  ca:	3c00                	fld	fs0,56(s0)
	RCC->CFGR0 = RCC_HPRE_DIV1 | RCC_PLLSRC_HSI_Mul2;      // PLLCLK = HSI * 2 = 48 MHz; HCLK = SYSCLK = APB1
  cc:	7261                	lui	tp,0xffff8
  ce:	6974                	flw	fa3,84(a0)
	RCC->CTLR  = RCC_HSION | RCC_PLLON | ((HSITRIM) << 3); // Use HSI, but enable PLL.
  d0:	6966                	flw	fs2,88(sp)
  d2:	6c616963          	bltu	sp,t1,7a4 <_data_lma+0x34>
	RCC->CFGR0 = RCC_HPRE_DIV1 | RCC_PLLSRC_HSI_Mul2;      // PLLCLK = HSI * 2 = 48 MHz; HCLK = SYSCLK = APB1
  d6:	003e                	c.slli	zero,0xf
	RCC->CTLR  = RCC_HSION | RCC_PLLON | ((HSITRIM) << 3); // Use HSI, but enable PLL.
  d8:	5f5f 756d 736c      	0x736c756d5f5f
	FLASH->ACTLR = FLASH_ACTLR_LATENCY_1;                  // 1 Cycle Latency
  de:	3369                	jal	fffffe68 <__global_pointer$+0xdffff538>
  e0:	2f00                	fld	fs0,24(a4)
  e2:	6f68                	flw	fa0,92(a4)
  e4:	656d                	lui	a0,0x1b
	RCC->INTR  = 0x009F0000;                               // Clear PLL, CSSC, HSE, HSI and LSI ready flags.
  e6:	7264622f          	0x7264622f
  ea:	632f796f          	jal	s2,f771c <wiring.c.7604182b+0xf4d83>
	while((RCC->CTLR & RCC_PLLRDY) == 0);                                      // Wait till PLL is ready
  ee:	3368                	fld	fa0,224(a4)
  f0:	7632                	flw	fa2,44(sp)
  f2:	622d                	lui	tp,0xb
  f4:	7361                	lui	t1,0xffff8
  f6:	2f65                	jal	8ae <_data_lma+0x13e>
  f8:	7250                	flw	fa2,36(a2)
	RCC->CFGR0 = ( RCC->CFGR0 & ((uint32_t)~(RCC_SW))) | (uint32_t)RCC_SW_PLL; // Select PLL as system clock source
  fa:	63656a6f          	jal	s4,56730 <wiring.c.7604182b+0x53d97>
  fe:	7374                	flw	fa3,100(a4)
 100:	6168632f          	0x6168632f
 104:	6c72                	flw	fs8,28(sp)
	while ((RCC->CFGR0 & (uint32_t)RCC_SWS) != (uint32_t)0x08);                // Wait till PLL is used as system clock source
 106:	6569                	lui	a0,0x1a
 108:	6c70                	flw	fa2,92(s0)
 10a:	7865                	lui	a6,0xffff9
 10c:	5200                	lw	s0,32(a2)
 10e:	5345                	li	t1,-15
 110:	5245                	li	tp,-15
	RCC->APB2PCENR |=	RCC_APB2Periph_GPIOA | RCC_APB2Periph_GPIOC |
 112:	4556                	lw	a0,84(sp)
 114:	0044                	addi	s1,sp,4
 116:	4f42                	lw	t5,16(sp)
 118:	4d5f544f          	0x4d5f544f
 11c:	4b45444f          	fnmadd.d	fs0,fa0,fs4,fs1,rmm
	RCC->APB2PRSTR |=  RCC_APB2Periph_TIM1;
 120:	5945                	li	s2,-15
 122:	0052                	c.slli	zero,0x14
	RCC->APB2PRSTR &= ~RCC_APB2Periph_TIM1;
 124:	72727473          	csrrci	s0,0x727,4
	RCC->APB1PCENR |=	RCC_APB1Periph_TIM2;
 128:	00726863          	bltu	tp,t2,138 <main+0x74>
	RCC->APB2PRSTR |=  RCC_APB2Periph_TIM1;
 12c:	7265766f          	jal	a2,57852 <wiring.c.7604182b+0x54eb9>
	GPIOC->CFGLR &= ~(0xf<<(4*4));
 130:	6c66                	flw	fs8,88(sp)
 132:	7300776f          	jal	a4,7862 <wiring.c.7604182b+0x4ec9>
	RCC->APB2PRSTR |=  RCC_APB2Periph_TIM1;
 136:	7274                	flw	fa3,100(a2)
	RCC->APB2PRSTR &= ~RCC_APB2Periph_TIM1;
 138:	656c                	flw	fa1,76(a0)
 13a:	006e                	c.slli	zero,0x1b
 13c:	6f66                	flw	ft10,88(sp)
	GPIOC->CFGLR &= ~(0xf<<(4*2));
 13e:	6d72                	flw	fs10,28(sp)
 140:	7461                	lui	s0,0xffff8
	RCC->APB2PRSTR &= ~RCC_APB2Periph_TIM1;
 142:	6300                	flw	fs0,0(a4)
 144:	3368                	fld	fa0,224(a4)
	RCC->APB1PRSTR |=  RCC_APB1Periph_TIM2;
 146:	7632                	flw	fa2,44(sp)
	TIM1->PSC = 0x0000;
 148:	3030                	fld	fa2,96(s0)
 14a:	6e756633          	0x6e756633
	TIM1->ATRLR = 255;
 14e:	3368632f          	0x3368632f
	RCC->APB1PRSTR |=  RCC_APB1Periph_TIM2;
 152:	7632                	flw	fa2,44(sp)
 154:	3030                	fld	fa2,96(s0)
	RCC->APB1PRSTR &= ~RCC_APB1Periph_TIM2;
 156:	6e756633          	0x6e756633
 15a:	632e                	flw	ft6,200(sp)
 15c:	7300                	flw	fs0,32(a4)
	GPIOC->CFGLR &= ~(0xf<<(4*4));
 15e:	7274                	flw	fa3,100(a2)
 160:	636e                	flw	ft6,216(sp)
 162:	706d                	c.lui	zero,0xffffb
 164:	4100                	lw	s0,0(a0)
 166:	4344                	lw	s1,4(a4)
	GPIOC->CFGLR |= (GPIO_Speed_10MHz | GPIO_CNF_OUT_OD_AF)<<(4*GPIO_PinSource4);
 168:	7250                	flw	fa2,36(a2)
 16a:	7365                	lui	t1,0xffff9
 16c:	62615463          	bge	sp,t1,794 <_data_lma+0x24>
 170:	656c                	flw	fa1,76(a0)
	GPIOA->CFGLR &= ~(0xf<<(4*1));
 172:	6500                	flw	fs0,8(a0)
 174:	7272                	flw	ft4,60(sp)
	GPIOC->CFGLR |= (GPIO_Speed_10MHz | GPIO_CNF_OUT_OD_AF)<<(4*GPIO_PinSource2);
 176:	6f6e                	flw	ft10,216(sp)
 178:	7300                	flw	fs0,32(a4)
	GPIOA->CFGLR &= ~(0xf<<(4*1));
 17a:	7274                	flw	fa3,100(a2)
 17c:	6c6e                	flw	fs8,216(sp)
 17e:	6e65                	lui	t3,0x19
 180:	5f00                	lw	s0,56(a4)
	GPIOA->CFGLR |= (GPIO_Speed_10MHz | GPIO_CNF_OUT_OD_AF)<<(4*GPIO_PinSource1);
 182:	695f 746e 3233      	0x3233746e695f
 188:	745f 7400 7261      	0x72617400745f
	GPIOC->CFGLR &= ~(0xf<<(4*2));
 18e:	646e6567          	0x646e6567
 192:	5300                	lw	s0,32(a4)
 194:	7379                	lui	t1,0xffffe
	GPIOC->CFGLR |= (GPIO_Speed_10MHz | GPIO_CNF_OUT_OD_AF)<<(4*GPIO_PinSource2);
 196:	6574                	flw	fa3,76(a0)
 198:	496d                	li	s2,27
 19a:	696e                	flw	fs2,216(sp)
	GPIOC->CFGLR &= ~(0xf<<(4*1));
 19c:	3274                	fld	fa3,224(a2)
	AFIO->PCFR1 |= AFIO_PCFR1_TIM2_REMAP_PARTIALREMAP1;
 19e:	4834                	lw	a3,80(s0)
 1a0:	75004953          	0x75004953
	GPIOC->CFGLR &= ~(0xf<<(4*1));
 1a4:	736e                	flw	ft6,248(sp)
 1a6:	6769                	lui	a4,0x1a
	GPIOC->CFGLR |= (GPIO_Speed_10MHz | GPIO_CNF_OUT_OD_AF)<<(4*GPIO_PinSource1);
 1a8:	7000                	flw	fs0,32(s0)
 1aa:	7475                	lui	s0,0xffffd
 1ac:	72616863          	bltu	sp,t1,8dc <_data_lma+0x16c>
	AFIO->PCFR1 |= AFIO_PCFR1_TIM2_REMAP_PARTIALREMAP1;
 1b0:	4100                	lw	s0,0(a0)
 1b2:	4250                	lw	a2,4(a2)
 1b4:	5032                	0x5032
 1b6:	524e4543          	fmadd.d	fa0,ft8,ft4,fa0,rmm
	TIM1->PSC = 0x0000;
 1ba:	4900                	lw	s0,16(a0)
	TIM2->PSC = 0x0000;
 1bc:	444e                	lw	s0,208(sp)
 1be:	0052                	c.slli	zero,0x14
 1c0:	696d                	lui	s2,0x1b
 1c2:	696e                	flw	fs2,216(sp)
	TIM1->ATRLR = 255;
 1c4:	765f 6e73 7270      	0x72706e73765f
	TIM2->ATRLR = 255;
 1ca:	6e69                	lui	t3,0x1a
	TIM1->SWEVGR |= TIM_UG;
 1cc:	6674                	flw	fa3,76(a2)
 1ce:	4700                	lw	s0,8(a4)
 1d0:	4950                	lw	a2,20(a0)
 1d2:	70535f4f          	fnmadd.s	ft10,ft6,ft5,fa4,unknown
 1d6:	6565                	lui	a0,0x19
 1d8:	5f64                	lw	s1,124(a4)
 1da:	4d32                	lw	s10,12(sp)
	TIM2->SWEVGR |= TIM_UG;
 1dc:	7a48                	flw	fa0,52(a2)
 1de:	6d00                	flw	fs0,24(a0)
 1e0:	6e69                	lui	t3,0x1a
 1e2:	5f69                	li	t5,-6
 1e4:	7469                	lui	s0,0xffffa
 1e6:	5700616f          	jal	sp,6756 <wiring.c.7604182b+0x3dbd>
 1ea:	6961                	lui	s2,0x18
	TIM2->CTLR1 |= TIM_ARPE;
 1ec:	4674                	lw	a3,76(a2)
 1ee:	6544726f          	jal	tp,47842 <wiring.c.7604182b+0x44ea9>
 1f2:	7562                	flw	fa0,56(sp)
 1f4:	72656767          	0x72656767
 1f8:	6f54                	flw	fa3,28(a4)
 1fa:	7441                	lui	s0,0xffff0
	TIM1->CTLR1 |= TIM_ARPE; // unnecessary?
 1fc:	6174                	flw	fa3,68(a0)
 1fe:	73006863          	bltu	zero,a6,92e <_data_lma+0x1be>
 202:	7274                	flw	fa3,100(a2)
 204:	00797063          	bgeu	s2,t2,204 <main+0x140>
 208:	6e49                	lui	t3,0x12
 20a:	6574                	flw	fa3,76(a0)
	TIM1->CH1CVR = 128; //T1CH1/PC4/pin7
 20c:	7272                	flw	ft4,60(sp)
 20e:	7075                	c.lui	zero,0xffffd
 210:	5674                	lw	a3,108(a2)
 212:	6365                	lui	t1,0x19
	TIM1->CH2CVR = 128; //T1CH2/PA1/pin1
 214:	6f74                	flw	fa3,92(a4)
 216:	4472                	lw	s0,28(sp)
	TIM2->CH2CVR = 128; //T2CH2/PC2/pin6*
 218:	6665                	lui	a2,0x19
	TIM2->CH4CVR = 128; //T2CH4/PC1/pin5*
 21a:	7561                	lui	a0,0xffff8
	TIM1->CCER |= TIM_CC1E | TIM_CC1P;	// Enable CH1 output, positive pol
 21c:	746c                	flw	fa1,108(s0)
 21e:	4100                	lw	s0,0(a0)
 220:	4250                	lw	a2,4(a2)
 222:	5031                	c.li	zero,-20
 224:	5352                	lw	t1,52(sp)
 226:	5254                	lw	a3,36(a2)
 228:	4900                	lw	s0,16(a0)
 22a:	544e                	lw	s0,240(sp)
	TIM1->CCER |= TIM_CC2E | TIM_CC2P;	// Enable CH4 output, positive pol
 22c:	0052                	c.slli	zero,0x14
 22e:	66696873          	csrrsi	a6,0x666,18
 232:	0074                	addi	a3,sp,12
 234:	656d                	lui	a0,0x1b
 236:	6d6d                	lui	s10,0x1b
 238:	0065766f          	jal	a2,5723e <wiring.c.7604182b+0x548a5>
	TIM2->CCER |= TIM_CC2E | TIM_CC2P;	// Enable CH1 output, positive pol
 23c:	4c474643          	0x4c474643
 240:	0052                	c.slli	zero,0x14
 242:	696d                	lui	s2,0x1b
 244:	696e                	flw	fs2,216(sp)
 246:	705f 6461 5300      	0x53006461705f
	TIM2->CCER |= TIM_CC4E | TIM_CC4P;	// Enable CH2 output, positive pol
 24c:	7465                	lui	s0,0xffff9
 24e:	7075                	c.lui	zero,0xffffd
 250:	4155                	li	sp,21
 252:	5452                	lw	s0,52(sp)
 254:	4700                	lw	s0,8(a4)
 256:	4950                	lw	a2,20(a0)
 258:	70535f4f          	fnmadd.s	ft10,ft6,ft5,fa4,unknown
	TIM1->CHCTLR1 |= TIM_OC1M_2 | TIM_OC1M_1;	// CH1 Mode is output, PWM1 (CC1S = 00, OC1M = 110)
 25c:	6565                	lui	a0,0x19
 25e:	5f64                	lw	s1,124(a4)
	TIM1->CHCTLR1 |= TIM_OC2M_2 | TIM_OC2M_1;	// CH2 Mode is output, PWM1 (CC1S = 00, OC1M = 110)
 260:	3031                	jal	fffffa6c <__global_pointer$+0xdffff13c>
	TIM1->CHCTLR1 |= TIM_OC1M_2 | TIM_OC1M_1;	// CH1 Mode is output, PWM1 (CC1S = 00, OC1M = 110)
 262:	484d                	li	a6,19
 264:	007a                	c.slli	zero,0x1e
 266:	6175                	addi	sp,sp,368
 268:	7472                	flw	fs0,60(sp)
 26a:	5242                	lw	tp,48(sp)
 26c:	0052                	c.slli	zero,0x14
	TIM1->CHCTLR1 |= TIM_OC2M_2 | TIM_OC2M_1;	// CH2 Mode is output, PWM1 (CC1S = 00, OC1M = 110)
 26e:	6f6c                	flw	fa1,92(a4)
 270:	676e                	flw	fa4,216(sp)
 272:	6c20                	flw	fs0,88(s0)
 274:	20676e6f          	jal	t3,7647a <wiring.c.7604182b+0x73ae1>
 278:	6e75                	lui	t3,0x1d
 27a:	6e676973          	csrrsi	s2,0x6e6,14
	TIM2->CHCTLR1 |= TIM_OC2M_2 | TIM_OC2M_1 | TIM_OC2PE;
 27e:	6465                	lui	s0,0x19
 280:	6920                	flw	fs0,80(a0)
 282:	746e                	flw	fs0,248(sp)
 284:	6d00                	flw	fs0,24(a0)
 286:	6e69                	lui	t3,0x1a
 288:	5f69                	li	t5,-6
 28a:	72706e73          	csrrsi	t3,0x727,0
 28e:	6e69                	lui	t3,0x1a
 290:	6674                	flw	fa3,76(a2)
 292:	7300                	flw	fs0,32(a4)
 294:	7274                	flw	fa3,100(a2)
 296:	636e                	flw	ft6,216(sp)
 298:	7970                	flw	fa2,116(a0)
 29a:	4400                	lw	s0,8(s0)
	TIM2->CHCTLR2 |= TIM_OC4M_2 | TIM_OC4M_1 | TIM_OC4PE;
 29c:	6c65                	lui	s8,0x19
 29e:	7961                	lui	s2,0xffff8
	TIM1->BDTR  |= TIM_MOE;	// Brake and deadband registers
 2a0:	54737953          	0x54737953
	TIM2->CHCTLR2 |= TIM_OC4M_2 | TIM_OC4M_1 | TIM_OC4PE;
 2a4:	6369                	lui	t1,0x1a
 2a6:	5f5f006b          	0x5f5f006b
 2aa:	7570                	flw	fa2,108(a0)
 2ac:	7374                	flw	fa3,100(a4)
 2ae:	755f 7261 0074      	0x747261755f
	TIM1->BDTR  |= TIM_MOE;	// Brake and deadband registers
 2b4:	5f5f 6975 746e      	0x746e69755f5f
 2ba:	3631                	jal	fffffdc6 <__global_pointer$+0xdffff496>
 2bc:	745f 7000 616c      	0x616c7000745f
	TIM1->CTLR1 |= TIM_CEN;	// Enable TIM1
 2c2:	76006563          	bltu	zero,zero,a2c <_data_lma+0x2bc>
 2c6:	6c61                	lui	s8,0x18
 2c8:	6575                	lui	a0,0x1d
 2ca:	5f00                	lw	s0,56(a4)
 2cc:	675f 756e 5f63      	0x5f63756e675f
	TIM2->CTLR1 |= TIM_CEN;	// Enable TIM2
 2d2:	6176                	flw	ft2,92(sp)
 2d4:	6c5f 7369 0074      	0x7473696c5f
 2da:	6572                	flw	fa0,28(sp)
 2dc:	5f74                	lw	a3,124(a4)
 2de:	74617473          	csrrci	s0,0x746,2
	SysTick->CTLR = 0;
 2e2:	7375                	lui	t1,0xffffd
 2e4:	7500                	flw	fs0,40(a0)
 2e6:	7070                	flw	fa2,100(s0)
 2e8:	7265                	lui	tp,0xffff9
 2ea:	65736163          	bltu	t1,s7,92c <_data_lma+0x1bc>
 2ee:	7300                	flw	fs0,32(a4)
 2f0:	7a69                	lui	s4,0xffffa
	SysTick->CMP = (SYSTEM_CORE_CLOCK/8/SYSTICKHZ)-1;
 2f2:	5f65                	li	t5,-7
 2f4:	0074                	addi	a3,sp,12
 2f6:	4454554f          	0x4454554f
	SysTick->CNT = 0;
 2fa:	0052                	c.slli	zero,0x14
	SysTick->CTLR = SYSTICK_CTLR_STE | SYSTICK_CTLR_STIE |
 2fc:	5348                	lw	a0,36(a4)
 2fe:	4245                	li	tp,17
	RCC->CFGR0 &= ~(0x1F<<11);
 300:	5059                	c.li	zero,-10
 302:	4600                	lw	s0,8(a2)
 304:	414c                	lw	a1,4(a0)
 306:	545f4853          	0x545f4853
 30a:	7079                	c.lui	zero,0xffffe
	RCC->APB2PCENR |= RCC_APB2Periph_GPIOA | RCC_APB2Periph_ADC1;
 30c:	4465                	li	s0,25
 30e:	6665                	lui	a2,0x19
 310:	6d00                	flw	fs0,24(a0)
 312:	6e69                	lui	t3,0x1a
	GPIOA->CFGLR &= ~(0xf<<(4*GPIO_PinSource2));	// CNF = 00: Analog, MODE = 00: Input
 314:	5f69                	li	t5,-6
 316:	7070                	flw	fa2,100(s0)
 318:	6972                	flw	fs2,28(sp)
 31a:	746e                	flw	fs0,248(sp)
 31c:	0066                	c.slli	zero,0x19
 31e:	4352                	lw	t1,20(sp)
	RCC->APB2PRSTR |= RCC_APB2Periph_ADC1;
 320:	79545f43          	fmadd.s	ft10,fs0,fs5,fa5,unknown
	ADC1->CTLR2 |= ADC_ADON | ADC_EXTSEL;
 324:	6570                	flw	fa2,76(a0)
 326:	6544                	flw	fs1,12(a0)
	RCC->APB2PRSTR |= RCC_APB2Periph_ADC1;
 328:	0066                	c.slli	zero,0x19
 32a:	4341                	li	t1,16
 32c:	4c54                	lw	a3,28(s0)
	RCC->APB2PRSTR &= ~RCC_APB2Periph_ADC1;
 32e:	0052                	c.slli	zero,0x14
 330:	7774                	flw	fa3,108(a4)
 332:	7961776f          	jal	a4,17ac8 <wiring.c.7604182b+0x1512f>
	ADC1->RSQR1 = 0;
 336:	735f 7274 7473      	0x74737274735f
 33c:	0072                	c.slli	zero,0x1c
	ADC1->RSQR2 = 0;
 33e:	5342                	lw	t1,48(sp)
 340:	5248                	lw	a0,36(a2)
	ADC1->RSQR3 = ADC_Channel_0;	// 0-9 for 8 ext inputs and two internals
 342:	5500                	lw	s0,40(a0)
 344:	54524153          	0x54524153
	ADC1->SAMPTR2 &= ~ADC_SMP2;
 348:	545f 7079 4465      	0x44657079545f
 34e:	6665                	lui	a2,0x19
 350:	6d00                	flw	fs0,24(a0)
	ADC1->SAMPTR2 |= ( ADC_SampleTime_3Cycles << (3 * ADC_Channel_0 ) );	// 0:7 => 3/9/15/30/43/57/73/241 cycles
 352:	6d65                	lui	s10,0x19
 354:	00726863          	bltu	tp,t2,364 <main+0x2a0>
 358:	696d                	lui	s2,0x1b
	ADC1->CTLR2 |= ADC_ADON | ADC_EXTSEL;
 35a:	696e                	flw	fs2,216(sp)
 35c:	765f 7070 6972      	0x69727070765f
 362:	746e                	flw	fs0,248(sp)
	ADC1->CTLR2 |= ADC_RSTCAL;
 364:	0066                	c.slli	zero,0x19
 366:	74737953          	0x74737953
	while(ADC1->CTLR2 & ADC_RSTCAL);
 36a:	6d65                	lui	s10,0x19
	ADC1->CTLR2 |= ADC_RSTCAL;
 36c:	6e49                	lui	t3,0x12
 36e:	7469                	lui	s0,0xffffa
 370:	5348                	lw	a0,36(a4)
 372:	5045                	c.li	zero,-15
	while(ADC1->CTLR2 & ADC_RSTCAL);
 374:	4c4c                	lw	a1,28(s0)
 376:	6c00                	flw	fs0,24(s0)
 378:	20676e6f          	jal	t3,7657e <wiring.c.7604182b+0x73be5>
	ADC1->CTLR2 |= ADC_CAL;
 37c:	6f6c                	flw	fa1,92(a4)
 37e:	676e                	flw	fa4,216(sp)
 380:	6920                	flw	fs0,80(a0)
 382:	746e                	flw	fs0,248(sp)
 384:	7000                	flw	fs0,32(s0)
 386:	7562                	flw	fa0,56(sp)
	while(ADC1->CTLR2 & ADC_CAL);
 388:	6666                	flw	fa2,88(sp)
 38a:	7265                	lui	tp,0xffff9
 38c:	7000                	flw	fs0,32(s0)
 38e:	6461                	lui	s0,0x18
 390:	635f 6168 0072      	0x726168635f
		Delay_Ms(( Delay >> 3 ) + 5 );
 396:	6964                	flw	fs1,84(a0)
		int temp=LEDs[0].brightness;
 398:	00746967          	0x746967
	ADC1->CTLR2 |= ADC_SWSTART;
 39c:	6168                	flw	fa0,68(a0)
 39e:	646e                	flw	fs0,216(sp)
 3a0:	656c                	flw	fa1,76(a0)
 3a2:	725f 7365 7465      	0x74657365725f
		Delay_Ms(( Delay >> 3 ) + 5 );
 3a8:	7300                	flw	fs0,32(a4)
 3aa:	7a69                	lui	s4,0xffffa
 3ac:	0065                	c.nop	25
		int temp=LEDs[0].brightness;
 3ae:	4841                	li	a6,16
 3b0:	5042                	0x5042
	ADC1->CTLR2 |= ADC_SWSTART;
 3b2:	524e4543          	fmadd.d	fa0,ft8,ft4,fa0,rmm
 3b6:	4300                	lw	s0,0(a4)
 3b8:	4746                	lw	a4,80(sp)
 3ba:	3052                	fld	ft0,304(sp)
 3bc:	5f00                	lw	s0,56(a4)
	while(!(ADC1->STATR & ADC_EOC));
 3be:	7570                	flw	fa2,108(a0)
 3c0:	7374                	flw	fa3,100(a4)
 3c2:	7000                	flw	fs0,32(s0)
 3c4:	6461                	lui	s0,0x18
	return ADC1->RDATAR;
 3c6:	745f 006f 7267      	0x7267006f745f
	uint32_t targend = SysTick->CNT + n;
 3cc:	4100776f          	jal	a4,77dc <wiring.c.7604182b+0x4e43>
		Delay_Ms(( Delay >> 3 ) + 5 );
 3d0:	4250                	lw	a2,4(a2)
 3d2:	5031                	c.li	zero,-20
 3d4:	524e4543          	fmadd.d	fa0,ft8,ft4,fa0,rmm
 3d8:	6100                	flw	fs0,0(a0)
 3da:	6772                	flw	fa4,28(sp)
 3dc:	79530073          	0x79530073
 3e0:	63695473          	csrrwi	s0,0x636,18
 3e4:	79545f6b          	0x79545f6b
 3e8:	6570                	flw	fa2,76(a0)
 3ea:	6c00                	flw	fs0,24(s0)
 3ec:	20676e6f          	jal	t3,765f2 <wiring.c.7604182b+0x73c59>
	while( ((int32_t)( SysTick->CNT - targend )) < 0 );
 3f0:	6f64                	flw	fs1,92(a4)
 3f2:	6275                	lui	tp,0x1d
 3f4:	656c                	flw	fa1,76(a0)
 3f6:	5f00                	lw	s0,56(a4)
 3f8:	74697277          	0x74697277
		int temp=LEDs[0].brightness;
 3fc:	0065                	c.nop	25
		for(int i=1; i<12; i++){
 3fe:	524c5443          	fmadd.d	fs0,fs8,ft4,fa0,unknown
		int temp=LEDs[0].brightness;
 402:	5f5f0033          	0x5f5f0033
			LEDs[i-1].brightness=LEDs[i].brightness;
 406:	6975                	lui	s2,0x1d
 408:	746e                	flw	fs0,248(sp)
 40a:	7470                	flw	fa2,108(s0)
 40c:	5f72                	lw	t5,60(sp)
 40e:	0074                	addi	a3,sp,12
 410:	74737953          	0x74737953
 414:	6d65                	lui	s10,0x19
 416:	6e49                	lui	t3,0x12
 418:	7469                	lui	s0,0xffffa
 41a:	5348                	lw	a0,36(a4)
 41c:	0045                	c.nop	17
 41e:	5352                	lw	t1,52(sp)
		for(int i=1; i<12; i++){
 420:	5354                	lw	a3,36(a4)
 422:	00524b43          	fmadd.s	fs6,ft4,ft5,ft0,rmm
		LEDs[11].brightness=temp;
 426:	63727473          	csrrci	s0,0x637,4
	while(1){
 42a:	7268                	flw	fa0,100(a2)
	asm volatile( "\n\
 42c:	5200                	lw	s0,32(a2)
 42e:	5345                	li	t1,-15
 430:	5245                	li	tp,-15
 432:	4556                	lw	a0,84(sp)
 434:	3044                	fld	fs1,160(s0)
 436:	5200                	lw	s0,32(a2)
 438:	5345                	li	t1,-15
 43a:	5245                	li	tp,-15
 43c:	4556                	lw	a0,84(sp)
 43e:	3144                	fld	fs1,160(a0)
 440:	5200                	lw	s0,32(a2)
 442:	5345                	li	t1,-15
 444:	5245                	li	tp,-15
 446:	4556                	lw	a0,84(sp)
 448:	3244                	fld	fs1,160(a2)
 44a:	5200                	lw	s0,32(a2)
 44c:	5345                	li	t1,-15
 44e:	5245                	li	tp,-15
 450:	4556                	lw	a0,84(sp)
 452:	3344                	fld	fs1,160(a4)
asm volatile(
 454:	5200                	lw	s0,32(a2)
 456:	5345                	li	t1,-15
 458:	5245                	li	tp,-15
 45a:	4556                	lw	a0,84(sp)
 45c:	3444                	fld	fs1,168(s0)
 45e:	5200                	lw	s0,32(a2)
 460:	5345                	li	t1,-15
 462:	5245                	li	tp,-15
 464:	4556                	lw	a0,84(sp)
 466:	3544                	fld	fs1,168(a0)
 468:	5200                	lw	s0,32(a2)
 46a:	5345                	li	t1,-15
 46c:	5245                	li	tp,-15
 46e:	4556                	lw	a0,84(sp)
 470:	3644                	fld	fs1,168(a2)
 472:	7300                	flw	fs0,32(a4)
 474:	6f68                	flw	fa0,92(a4)
 476:	7472                	flw	fs0,60(sp)
 478:	6920                	flw	fs0,80(a0)
 47a:	746e                	flw	fs0,248(sp)
 47c:	5300                	lw	s0,32(a4)
 47e:	7465                	lui	s0,0xffff9
 480:	7075                	c.lui	zero,0xffffd
 482:	6544                	flw	fs1,12(a0)
 484:	7562                	flw	fa0,56(sp)
 486:	69725067          	0x69725067
 48a:	746e                	flw	fs0,248(sp)
 48c:	0066                	c.slli	zero,0x19
 48e:	5041                	c.li	zero,-16
 490:	4142                	lw	sp,16(sp)
 492:	4248                	lw	a0,4(a2)
 494:	7250                	flw	fa2,36(a2)
	SETUP_SYSTICK_HCLK
 496:	7365                	lui	t1,0xffff9
 498:	62615463          	bge	sp,t1,ac0 <_data_lma+0x350>
 49c:	656c                	flw	fa1,76(a0)
asm volatile(
 49e:	6e00                	flw	fs0,24(a2)
 4a0:	6765                	lui	a4,0x19
 4a2:	7461                	lui	s0,0xffff8
 4a4:	7669                	lui	a2,0xffffa
 4a6:	0065                	c.nop	25
 4a8:	656d                	lui	a0,0x1b
	asm volatile( "1: j 1b" );
 4aa:	306d                	jal	fffffd54 <__global_pointer$+0xdffff424>
{
 4ac:	6d00                	flw	fs0,24(a0)
 4ae:	6d65                	lui	s10,0x19
 4b0:	00706d63          	bltu	zero,t2,4ca <SysTick_Handler+0x1e>
	SysTick->CMP += (SYSTEM_CORE_CLOCK/8/SYSTICKHZ); //by default, Systick runs at 48/8=6MHz
 4b4:	6544                	flw	fs1,12(a0)
 4b6:	6166                	flw	ft2,88(sp)
{
 4b8:	6c75                	lui	s8,0x1d
 4ba:	4974                	lw	a3,84(a0)
	SysTick->CMP += (SYSTEM_CORE_CLOCK/8/SYSTICKHZ); //by default, Systick runs at 48/8=6MHz
 4bc:	5152                	lw	sp,52(sp)
 4be:	6148                	flw	fa0,4(a0)
{
 4c0:	646e                	flw	fs0,216(sp)
 4c2:	656c                	flw	fa1,76(a0)
	SysTick->CMP += (SYSTEM_CORE_CLOCK/8/SYSTICKHZ); //by default, Systick runs at 48/8=6MHz
 4c4:	0072                	c.slli	zero,0x1c
 4c6:	5f5f 656d 726d      	0x726d656d5f5f
{
 4cc:	00726863          	bltu	tp,t2,4dc <SysTick_Handler+0x30>
 4d0:	74737953          	0x74737953
 4d4:	6d65                	lui	s10,0x19
 4d6:	6e49                	lui	t3,0x12
 4d8:	7469                	lui	s0,0xffffa
 4da:	3834                	fld	fa3,112(s0)
 4dc:	5348                	lw	a0,36(a4)
 4de:	0049                	c.nop	18
 4e0:	5041                	c.li	zero,-16
 4e2:	3242                	fld	ft4,48(sp)
 4e4:	5250                	lw	a2,36(a2)
 4e6:	00525453          	fadd.s	fs0,ft4,ft5,unknown
 4ea:	6172                	flw	ft2,28(sp)
	SysTick->CMP += (SYSTEM_CORE_CLOCK/8/SYSTICKHZ); //by default, Systick runs at 48/8=6MHz
 4ec:	6964                	flw	fs1,84(a0)
 4ee:	0078                	addi	a4,sp,12
 4f0:	5f5f 6975 746e      	0x746e69755f5f
	SysTick->SR = 0;
 4f6:	5f38                	lw	a4,120(a4)
        timer->CCER &= ~channel;        //disable this channel output
 4f8:	0074                	addi	a3,sp,12
 4fa:	4f495047          	fmsub.q	ft0,fs2,fs4,fs1,unknown
 4fe:	545f 7079 4465      	0x44657079545f
 504:	6665                	lui	a2,0x19
 506:	6600                	flw	fs0,8(a2)
 508:	6272756f          	jal	a0,2832e <wiring.c.7604182b+0x25995>
 50c:	7479                	lui	s0,0xffffe
 50e:	5f65                	li	t5,-7
 510:	73727473          	csrrci	s0,0x737,4
 514:	7274                	flw	fa3,100(a2)
 516:	6200                	flw	fs0,0(a2)
 518:	6675                	lui	a2,0x1d
 51a:	6566                	flw	fa0,88(sp)
 51c:	5f72                	lw	t5,60(sp)
 51e:	656c                	flw	fa1,76(a0)
        port->CFGLR &= ~(0xf<<(4*pin)); //clear GPIO config - this appears to be necessary. 
 520:	006e                	c.slli	zero,0x1b
 522:	6f74                	flw	fa3,92(a4)
 524:	646e6573          	csrrsi	a0,0x646,28
        timer->CCER &= ~channel;        //disable this channel output
 528:	6200                	flw	fs0,0(a2)
 52a:	7479                	lui	s0,0xffffe
 52c:	7365                	lui	t1,0xffff9
 52e:	7465                	lui	s0,0xffff9
        port->CFGLR &= ~(0xf<<(4*pin)); //clear GPIO config - this appears to be necessary. 
 530:	7500                	flw	fs0,40(a0)
 532:	736e                	flw	ft6,248(sp)
 534:	6769                	lui	a4,0x1a
 536:	656e                	flw	fa0,216(sp)
        port->CFGLR |= (GPIO_Speed_10MHz | GPIO_CNF_OUT_PP)<<(4*pin); //Sets output mode to GPIO, PP
 538:	2064                	fld	fs1,192(s0)
 53a:	72616863          	bltu	sp,t1,c6a <_data_lma+0x4fa>
 53e:	5f00                	lw	s0,56(a4)
 540:	755f 6e69 3374      	0x33746e69755f
        port->BSHR = (1<<(pin));                //set GPIO 'high'
 546:	5f32                	lw	t5,44(sp)
        timer->CCER &= ~channel;        //disable this channel output
 548:	0074                	addi	a3,sp,12
 54a:	4f495047          	fmsub.q	ft0,fs2,fs4,fs1,unknown
 54e:	535f 6570 6465      	0x64656570535f
 554:	355f 4d30 7a48      	0x7a484d30355f
 55a:	7400                	flw	fs0,40(s0)
        port->CFGLR &= ~(0xf<<(4*pin)); //clear GPIO config - this appears to be necessary. 
 55c:	6d69                	lui	s10,0x1a
 55e:	6f65                	lui	t5,0x19
 560:	7475                	lui	s0,0xffffd
 562:	7400                	flw	fs0,40(s0)
 564:	7268                	flw	fa0,100(a2)
 566:	6565                	lui	a0,0x19
        port->CFGLR |= (GPIO_Speed_10MHz | GPIO_CNF_OUT_PP)<<(4*pin); //Sets output mode to GPIO, PP
 568:	7962                	flw	fs2,56(sp)
 56a:	6574                	flw	fa3,76(a0)
 56c:	735f 7274 7473      	0x74737274735f
 572:	0072                	c.slli	zero,0x1c
        port->BSHR = (1<<(pin));                //set GPIO 'high'
 574:	454b424f          	0x454b424f
        timer->CCER &= ~channel;        //disable this channel output
 578:	5259                	li	tp,-10
 57a:	5300                	lw	s0,32(a4)
 57c:	4154                	lw	a3,4(a0)
 57e:	5254                	lw	a3,36(a2)
 580:	4700                	lw	s0,8(a4)
 582:	554e                	lw	a0,240(sp)
 584:	4320                	lw	s0,64(a4)
 586:	3731                	jal	492 <handle_reset+0x66>
 588:	3120                	fld	fs0,96(a0)
 58a:	2e30                	fld	fa2,88(a2)
 58c:	2e32                	fld	ft8,264(sp)
 58e:	2030                	fld	fa2,64(s0)
 590:	6d2d                	lui	s10,0xb
 592:	7261                	lui	tp,0xffff8
        port->CFGLR &= ~(0xf<<(4*pin)); //clear GPIO config - this appears to be necessary. 
 594:	723d6863          	bltu	s10,gp,cc4 <_data_lma+0x554>
 598:	3376                	fld	ft6,376(sp)
 59a:	6532                	flw	fa0,12(sp)
        port->BSHR = (1<<(pin));                //set GPIO 'high'
 59c:	6d2d2063          	0x6d2d2063
        port->CFGLR &= ~(0xf<<(4*pin)); //clear GPIO config - this appears to be necessary. 
 5a0:	6261                	lui	tp,0x18
 5a2:	3d69                	jal	43c <handle_reset+0x10>
 5a4:	6c69                	lui	s8,0x1a
 5a6:	3370                	fld	fa2,224(a4)
        port->CFGLR |= (GPIO_Speed_10MHz | GPIO_CNF_OUT_PP)<<(4*pin); //Sets output mode to GPIO, PP
 5a8:	6532                	flw	fa0,12(sp)
 5aa:	2d20                	fld	fs0,88(a0)
 5ac:	4f2d2067          	0x4f2d2067
 5b0:	662d2073          	csrs	0x662,s10
        port->BSHR = (1<<(pin));                //set GPIO 'high'
 5b4:	746c                	flw	fa1,108(s0)
 5b6:	662d206f          	j	d2c18 <wiring.c.7604182b+0xd027f>
        timer->CCER &= ~channel;        //disable this channel output
 5ba:	7566                	flw	fa0,120(sp)
 5bc:	636e                	flw	ft6,216(sp)
 5be:	6974                	flw	fa3,84(a0)
 5c0:	732d6e6f          	jal	t3,d6cf2 <wiring.c.7604182b+0xd4359>
 5c4:	6365                	lui	t1,0x19
 5c6:	6974                	flw	fa3,84(a0)
 5c8:	00736e6f          	jal	t3,36dce <wiring.c.7604182b+0x34435>
 5cc:	726f6873          	csrrsi	a6,0x726,30
 5d0:	2074                	fld	fa3,192(s0)
 5d2:	6e75                	lui	t3,0x1d
        port->CFGLR &= ~(0xf<<(4*pin)); //clear GPIO config - this appears to be necessary. 
 5d4:	6e676973          	csrrsi	s2,0x6e6,14
 5d8:	6465                	lui	s0,0x19
 5da:	6920                	flw	fs0,80(a0)
 5dc:	746e                	flw	fs0,248(sp)
 5de:	5f00                	lw	s0,56(a4)
 5e0:	625f 6975 746c      	0x746c6975625f
 5e6:	6e69                	lui	t3,0x1a
        port->CFGLR |= (GPIO_Speed_10MHz | GPIO_CNF_OUT_PP)<<(4*pin); //Sets output mode to GPIO, PP
 5e8:	765f 5f61 696c      	0x696c5f61765f
 5ee:	6d007473          	csrrci	s0,0x6d0,0
 5f2:	6e69                	lui	t3,0x1a
 5f4:	5f69                	li	t5,-6
 5f6:	7562                	flw	fa0,56(sp)
        port->BSHR = (1<<(pin));                //set GPIO 'high'
 5f8:	6666                	flw	fa2,88(sp)
 5fa:	4300                	lw	s0,0(a4)
 5fc:	4746                	lw	a4,80(sp)
 5fe:	5248                	lw	a0,36(a2)
	if(++currentgroup > 4) currentgroup=0;
 600:	6400                	flw	fs0,8(s0)
 602:	7365                	lui	t1,0xffff9
 604:	0074                	addi	a3,sp,12
 606:	7774                	flw	fa3,108(a4)
 608:	7479626f          	jal	tp,9754e <wiring.c.7604182b+0x94bb5>
 60c:	5f65                	li	t5,-7
 60e:	73727473          	csrrci	s0,0x737,4
 612:	7274                	flw	fa3,100(a2)
 614:	4c00                	lw	s0,24(s0)
 616:	00524b43          	fmadd.s	fs6,ft4,ft5,ft0,rmm
 61a:	63727473          	csrrci	s0,0x637,4
		pwm_setpw(	LEDs[group[currentgroup][i]].timer,
 61e:	706d                	c.lui	zero,0xffffb
 620:	4900                	lw	s0,16(a0)
 622:	00525153          	fadd.s	ft2,ft4,ft5,unknown
 626:	5845                	li	a6,-15
 628:	4954                	lw	a3,20(a0)
 62a:	5f305f37          	lui	t5,0x5f305
 62e:	5249                	li	tp,-14
 630:	6e51                	lui	t3,0x14
 632:	4700                	lw	s0,8(a4)
 634:	5349                	li	t1,-14
 636:	0052                	c.slli	zero,0x14
    	switch( chl )
 638:	54484457          	0x54484457
 63c:	0052                	c.slli	zero,0x14
 63e:	3174                	fld	fa3,224(a0)
 640:	3274                	fld	fa3,224(a2)
 642:	705f 6d77 695f      	0x695f6d77705f
	for(int i=0;i<3;i++){
 648:	696e                	flw	fs2,216(sp)
 64a:	0074                	addi	a3,sp,12
		pwm_setpw(	LEDs[group[currentgroup][i]].timer,
 64c:	5741                	li	a4,-16
 64e:	5f55                	li	t5,-11
 650:	5249                	li	tp,-14
 652:	6e51                	lui	t3,0x14
 654:	4400                	lw	s0,8(s0)
 656:	414d                	li	sp,19
 658:	5f31                	li	t5,-20
 65a:	6e616843          	fmadd.q	fa6,ft2,ft6,fa3,unknown
 65e:	656e                	flw	fa0,216(sp)
 660:	376c                	fld	fa1,232(a4)
 662:	495f 5152 006e      	0x6e5152495f
 668:	6461                	lui	s0,0x18
 66a:	65675f63          	bge	a4,s6,cc8 <_data_lma+0x558>
 66e:	0074                	addi	a3,sp,12
				LEDs[group[currentgroup][i]].brightness
 670:	4c544353          	0x4c544353
    	switch( chl )
 674:	0052                	c.slli	zero,0x14
 676:	4d44                	lw	s1,28(a0)
 678:	3141                	jal	2f8 <main+0x234>
 67a:	435f 6168 6e6e      	0x6e6e6168435f
 680:	6c65                	lui	s8,0x19
 682:	5f32                	lw	t5,44(sp)
	for(int i=0;i<3;i++){
 684:	5249                	li	tp,-14
 686:	6e51                	lui	t3,0x14
 688:	5300                	lw	s0,32(a4)
 68a:	434d                	li	t1,19
	for(int i=0;i<3;i++){
 68c:	4746                	lw	a4,80(sp)
 68e:	0052                	c.slli	zero,0x14
        port->CFGLR &= ~(0xf<<(4*pin)); //clear GPIO config - this appears to be necessary. 
 690:	544c4457          	0x544c4457
        port->CFGLR |= (GPIO_Speed_10MHz | GPIO_CNF_OUT_OD_AF)<<(4*pin);//Sets mode to OD_AF
 694:	0052                	c.slli	zero,0x14
 696:	564e                	lw	a2,240(sp)
		GPIO_PWM(	LEDs[group[currentgroup][i]].port,
 698:	4349                	li	t1,18
 69a:	455f 616e 6c62      	0x6c62616e455f
	for(int i=0;i<3;i++){
 6a0:	4965                	li	s2,25
 6a2:	5152                	lw	sp,52(sp)
		GPIO_PWM(	LEDs[group[currentgroup][i]].port,
 6a4:	5300                	lw	s0,32(a4)
 6a6:	47564557          	0x47564557
 6aa:	0052                	c.slli	zero,0x14
 6ac:	54434843          	0x54434843
 6b0:	524c                	lw	a1,36(a2)
 6b2:	0031                	c.nop	12
 6b4:	54434843          	0x54434843
 6b8:	524c                	lw	a1,36(a2)
 6ba:	0032                	c.slli	zero,0xc
 6bc:	4c46                	lw	s8,80(sp)
 6be:	5341                	li	t1,-16
        port->CFGLR &= ~(0xf<<(4*pin)); //clear GPIO config - this appears to be necessary. 
 6c0:	5f48                	lw	a0,60(a4)
 6c2:	5249                	li	tp,-14
 6c4:	6e51                	lui	t3,0x14
 6c6:	4900                	lw	s0,16(a0)
 6c8:	4332                	lw	t1,12(sp)
 6ca:	5f31                	li	t5,-20
 6cc:	5645                	li	a2,-15
 6ce:	495f 5152 006e      	0x6e5152495f
 6d4:	5449                	li	s0,-14
 6d6:	5248                	lw	a0,36(a2)
        port->CFGLR |= (GPIO_Speed_10MHz | GPIO_CNF_OUT_OD_AF)<<(4*pin);//Sets mode to OD_AF
 6d8:	5345                	li	t1,-15
 6da:	5244                	lw	s1,36(a2)
 6dc:	4300                	lw	s0,0(a4)
 6de:	3248                	fld	fa0,160(a2)
 6e0:	00525643          	fmadd.s	fa2,ft4,ft5,ft0,unknown
 6e4:	5845                	li	a6,-15
 6e6:	52495f43          	fmadd.d	ft10,fs2,ft4,fa0,unknown
        timer->CCER |= channel;         //enable this channel output
 6ea:	6e51                	lui	t3,0x14
 6ec:	5600                	lw	s0,40(a2)
 6ee:	4654                	lw	a3,12(a2)
 6f0:	4449                	li	s0,18
 6f2:	0052                	c.slli	zero,0x14
 6f4:	4352                	lw	t1,20(sp)
 6f6:	52495f43          	fmadd.d	ft10,fs2,ft4,fa0,unknown
 6fa:	6e51                	lui	t3,0x14
	for(int i=0;i<3;i++){
 6fc:	5400                	lw	s0,40(s0)
 6fe:	4d49                	li	s10,18
 700:	5f31                	li	t5,-20
 702:	5242                	lw	tp,48(sp)
}
 704:	52495f4b          	fnmsub.d	ft10,fs2,ft4,fa0,unknown
 708:	6e51                	lui	t3,0x14
 70a:	4900                	lw	s0,16(a0)
 70c:	4341                	li	t1,16
 70e:	5254                	lw	a3,36(a2)
 710:	5400                	lw	s0,40(s0)
 712:	4d49                	li	s10,18
 714:	545f 7079 4465      	0x44657079545f
 71a:	6665                	lui	a2,0x19
 71c:	4200                	lw	s0,0(a2)
 71e:	5444                	lw	s1,44(s0)
 720:	0052                	c.slli	zero,0x14
 722:	74666f53          	0x74666f53
 726:	65726177          	0x65726177
 72a:	495f 5152 006e      	0x6e5152495f
 730:	31495053          	0x31495053
 734:	495f 5152 006e      	0x6e5152495f
	if(++currentgroup > 4) currentgroup=0;
 73a:	4d44                	lw	s1,28(a0)
 73c:	3141                	jal	3bc <main+0x2f8>
 73e:	435f 6168 6e6e      	0x6e6e6168435f
	    	case TIM_CC4E: timer->CH4CVR = width; break;
 744:	6c65                	lui	s8,0x19
 746:	5f34                	lw	a3,120(a4)
 748:	5249                	li	tp,-14
 74a:	6e51                	lui	t3,0x14
	    	case TIM_CC1E: timer->CH1CVR = width; break;
 74c:	5300                	lw	s0,32(a4)
 74e:	4d41                	li	s10,16
 750:	5450                	lw	a2,44(s0)
 752:	3152                	fld	ft2,304(sp)
	    	case TIM_CC2E: timer->CH2CVR = width; break;
 754:	5300                	lw	s0,32(a4)
 756:	4d41                	li	s10,16
 758:	5450                	lw	a2,44(s0)
 75a:	3252                	fld	ft4,304(sp)
	    	case TIM_CC3E: timer->CH3CVR = width; break;
 75c:	4900                	lw	s0,16(a0)
 75e:	4e45                	li	t3,17
 760:	0052                	c.slli	zero,0x14
 762:	43344843          	fmadd.d	fa6,fs0,fs3,fs0,rmm
 766:	5256                	lw	tp,116(sp)
 768:	7300                	flw	fs0,32(a4)
 76a:	7379                	lui	t1,0xffffe
 76c:	6974                	flw	fa3,84(a0)
 76e:	695f6b63          	bltu	t5,s5,e04 <_data_lma+0x694>
 772:	696e                	flw	fs2,216(sp)
 774:	0074                	addi	a3,sp,12
 776:	72727563          	bgeu	tp,t2,ea0 <_data_lma+0x730>
 77a:	6e65                	lui	t3,0x19
 77c:	6774                	flw	fa3,76(a4)
 77e:	6f72                	flw	ft10,28(sp)
 780:	7075                	c.lui	zero,0xffffd
 782:	4900                	lw	s0,16(a0)
 784:	3152464f          	fnmadd.s	fa2,ft4,fs5,ft6,rmm
 788:	4900                	lw	s0,16(a0)
 78a:	3252464f          	fnmadd.d	fa2,ft4,ft5,ft6,rmm
 78e:	4900                	lw	s0,16(a0)
 790:	3352464f          	fnmadd.d	fa2,ft4,fs5,ft6,rmm
 794:	4900                	lw	s0,16(a0)
 796:	3452464f          	0x3452464f
 79a:	4900                	lw	s0,16(a0)
 79c:	5152                	lw	sp,52(sp)
 79e:	5f6e                	lw	t5,248(sp)
 7a0:	7954                	flw	fa3,52(a0)
 7a2:	6570                	flw	fa2,76(a0)
 7a4:	7700                	flw	fs0,40(a4)
 7a6:	6469                	lui	s0,0x1a
 7a8:	6874                	flw	fa3,84(s0)
 7aa:	5200                	lw	s0,32(a2)
 7ac:	5450                	lw	a2,44(s0)
 7ae:	49005243          	fmadd.s	ft4,ft0,fa6,fs1,unknown
 7b2:	5250                	lw	a2,36(a2)
 7b4:	4f49                	li	t5,18
 7b6:	0052                	c.slli	zero,0x14
 7b8:	454c                	lw	a1,12(a0)
 7ba:	7344                	flw	fs1,36(a4)
 7bc:	4100                	lw	s0,0(a0)
 7be:	5254                	lw	a3,36(a2)
 7c0:	524c                	lw	a1,36(a2)
 7c2:	4900                	lw	s0,16(a0)
 7c4:	4144                	lw	s1,4(a0)
 7c6:	4154                	lw	a3,4(a0)
 7c8:	3152                	fld	ft2,304(sp)
 7ca:	4900                	lw	s0,16(a0)
 7cc:	4144                	lw	s1,4(a0)
 7ce:	4154                	lw	a3,4(a0)
 7d0:	3252                	fld	ft4,304(sp)
 7d2:	4900                	lw	s0,16(a0)
 7d4:	4144                	lw	s1,4(a0)
 7d6:	4154                	lw	a3,4(a0)
 7d8:	3352                	fld	ft6,304(sp)
 7da:	4900                	lw	s0,16(a0)
 7dc:	4144                	lw	s1,4(a0)
 7de:	4154                	lw	a3,4(a0)
 7e0:	3452                	fld	fs0,304(sp)
 7e2:	7400                	flw	fs0,40(s0)
 7e4:	6d65                	lui	s10,0x19
 7e6:	0070                	addi	a2,sp,12
 7e8:	54737953          	0x54737953
 7ec:	6369                	lui	t1,0x1a
 7ee:	52495f4b          	fnmsub.d	ft10,fs2,ft4,fa0,unknown
 7f2:	6e51                	lui	t3,0x14
 7f4:	4300                	lw	s0,0(a4)
 7f6:	00524543          	fmadd.s	fa0,ft4,ft5,ft0,rmm
 7fa:	4641                	li	a2,16
 7fc:	4f49                	li	t5,18
 7fe:	545f 7079 4465      	0x44657079545f
 804:	6665                	lui	a2,0x19
 806:	4400                	lw	s0,8(s0)
 808:	414d                	li	sp,19
 80a:	5f31                	li	t5,-20
 80c:	6e616843          	fmadd.q	fa6,ft2,ft6,fa3,unknown
 810:	656e                	flw	fa0,216(sp)
 812:	366c                	fld	fa1,232(a2)
 814:	495f 5152 006e      	0x6e5152495f
 81a:	4d44                	lw	s1,28(a0)
 81c:	3141                	jal	49c <handle_reset+0x70>
 81e:	435f 6168 6e6e      	0x6e6e6168435f
 824:	6c65                	lui	s8,0x19
 826:	5f31                	li	t5,-20
 828:	5249                	li	tp,-14
 82a:	6e51                	lui	t3,0x14
 82c:	7000                	flw	fs0,32(s0)
 82e:	735f6d77          	0x735f6d77
 832:	7465                	lui	s0,0xffff9
 834:	7770                	flw	fa2,108(a4)
 836:	4500                	lw	s0,8(a0)
 838:	5458                	lw	a4,44(s0)
 83a:	4349                	li	t1,18
 83c:	0052                	c.slli	zero,0x14
 83e:	4650                	lw	a2,12(a2)
 840:	4349                	li	t1,18
 842:	545f 7079 0065      	0x657079545f
 848:	4441                	li	s0,16
 84a:	79545f43          	fmadd.s	ft10,fs0,fs5,fa5,unknown
 84e:	6570                	flw	fa2,76(a0)
 850:	6544                	flw	fs1,12(a0)
 852:	0066                	c.slli	zero,0x19
 854:	47445757          	0x47445757
 858:	495f 5152 006e      	0x6e5152495f
 85e:	4e49                	li	t3,18
 860:	4654                	lw	a3,12(a2)
 862:	0052                	c.slli	zero,0x14
 864:	7262                	flw	ft4,56(sp)
 866:	6769                	lui	a4,0x1a
 868:	7468                	flw	fa0,108(s0)
 86a:	656e                	flw	fa0,216(sp)
 86c:	53007373          	csrrci	t1,0x530,0
 870:	7379                	lui	t1,0xffffe
 872:	6954                	flw	fa3,20(a0)
 874:	485f6b63          	bltu	t5,t0,d0a <_data_lma+0x59a>
 878:	6e61                	lui	t3,0x18
 87a:	6c64                	flw	fs1,92(s0)
 87c:	7265                	lui	tp,0xffff9
 87e:	6100                	flw	fs0,0(a0)
 880:	6364                	flw	fs1,68(a4)
 882:	695f 696e 0074      	0x74696e695f
 888:	43314843          	fmadd.d	fa6,ft2,fs3,fs0,rmm
 88c:	5256                	lw	tp,116(sp)
 88e:	4400                	lw	s0,8(s0)
 890:	414d                	li	sp,19
 892:	52474643          	fmadd.d	fa2,fa4,ft4,fa0,rmm
 896:	5000                	lw	s0,32(s0)
 898:	4456                	lw	s0,84(sp)
 89a:	495f 5152 006e      	0x6e5152495f
 8a0:	4441                	li	s0,16
 8a2:	52495f43          	fmadd.d	ft10,fs2,ft4,fa0,unknown
 8a6:	6e51                	lui	t3,0x14
 8a8:	5200                	lw	s0,32(a2)
 8aa:	4144                	lw	s1,4(a0)
 8ac:	4154                	lw	a3,4(a0)
 8ae:	0052                	c.slli	zero,0x14
 8b0:	4d44                	lw	s1,28(a0)
 8b2:	3141                	jal	532 <SysTick_Handler+0x86>
 8b4:	435f 6168 6e6e      	0x6e6e6168435f
 8ba:	6c65                	lui	s8,0x19
 8bc:	52495f33          	0x52495f33
 8c0:	6e51                	lui	t3,0x14
 8c2:	6d00                	flw	fs0,24(a0)
 8c4:	6961                	lui	s2,0x18
 8c6:	2d6e                	fld	fs10,216(sp)
 8c8:	7770                	flw	fa2,108(a4)
 8ca:	2e6d                	jal	c84 <_data_lma+0x514>
 8cc:	50470063          	beq	a4,tp,dcc <_data_lma+0x65c>
 8d0:	4f49                	li	t5,18
 8d2:	465f 6f6c 7461      	0x74616f6c465f
 8d8:	5400                	lw	s0,40(s0)
 8da:	4d49                	li	s10,18
 8dc:	5f31                	li	t5,-20
 8de:	5055                	c.li	zero,-11
 8e0:	495f 5152 006e      	0x6e5152495f
 8e6:	6e616863          	bltu	sp,t1,fd6 <ch32v003fun.c.8affbd33+0x134>
 8ea:	656e                	flw	fa0,216(sp)
 8ec:	006c                	addi	a1,sp,12
 8ee:	4552                	lw	a0,20(sp)
 8f0:	56524553          	0x56524553
 8f4:	4445                	li	s0,17
 8f6:	0038                	addi	a4,sp,8
 8f8:	4552                	lw	a0,20(sp)
 8fa:	56524553          	0x56524553
 8fe:	4445                	li	s0,17
 900:	0039                	c.nop	14
 902:	5355                	li	t1,-11
 904:	5241                	li	tp,-16
 906:	3154                	fld	fa3,160(a0)
 908:	495f 5152 006e      	0x6e5152495f
 90e:	4d44                	lw	s1,28(a0)
 910:	4141                	li	sp,16
 912:	5244                	lw	s1,36(a2)
 914:	4300                	lw	s0,0(a4)
 916:	3348                	fld	fa0,160(a4)
 918:	00525643          	fmadd.s	fa2,ft4,ft5,ft0,unknown
 91c:	6f4e                	flw	ft10,208(sp)
 91e:	4d6e                	lw	s10,216(sp)
 920:	7361                	lui	t1,0xffff8
 922:	6c62616b          	0x6c62616b
 926:	4965                	li	s2,25
 928:	746e                	flw	fs0,248(sp)
 92a:	495f 5152 006e      	0x6e5152495f
 930:	4954                	lw	a3,20(a0)
 932:	314d                	jal	5d4 <SysTick_Handler+0x128>
 934:	435f 5f43 5249      	0x52495f43435f
 93a:	6e51                	lui	t3,0x14
 93c:	5400                	lw	s0,40(s0)
 93e:	4d49                	li	s10,18
 940:	5f31                	li	t5,-20
 942:	5254                	lw	a3,36(a2)
 944:	4f435f47          	fmsub.q	ft10,ft6,fs4,fs1,unknown
 948:	5f4d                	li	t5,-13
 94a:	5249                	li	tp,-14
 94c:	6e51                	lui	t3,0x14
 94e:	4900                	lw	s0,16(a0)
 950:	4332                	lw	t1,12(sp)
 952:	5f31                	li	t5,-20
 954:	5245                	li	tp,-15
 956:	495f 5152 006e      	0x6e5152495f
 95c:	4d44                	lw	s1,28(a0)
 95e:	4941                	li	s2,16
 960:	544e                	lw	s0,240(sp)
 962:	4e45                	li	t3,17
 964:	0052                	c.slli	zero,0x14
 966:	4954                	lw	a3,20(a0)
 968:	324d                	jal	30a <main+0x246>
 96a:	495f 5152 006e      	0x6e5152495f
 970:	6f70                	flw	fa2,92(a4)
 972:	7472                	flw	fs0,60(sp)
 974:	4900                	lw	s0,16(a0)
 976:	4552                	lw	a0,20(sp)
 978:	0052                	c.slli	zero,0x14
 97a:	5352                	lw	t1,52(sp)
 97c:	5251                	li	tp,-12
 97e:	0031                	c.nop	12
 980:	5352                	lw	t1,52(sp)
 982:	5251                	li	tp,-12
 984:	0032                	c.slli	zero,0xc
 986:	5352                	lw	t1,52(sp)
 988:	5251                	li	tp,-12
 98a:	50470033          	0x50470033
 98e:	4f49                	li	t5,18
 990:	505f 4d57 4400      	0x44004d57505f
 996:	6c65                	lui	s8,0x19
 998:	7961                	lui	s2,0xffff8
 99a:	5200                	lw	s0,32(a2)
 99c:	5345                	li	t1,-15
 99e:	5245                	li	tp,-15
 9a0:	4556                	lw	a0,84(sp)
 9a2:	3144                	fld	fs1,160(a0)
 9a4:	0030                	addi	a2,sp,8
 9a6:	4552                	lw	a0,20(sp)
 9a8:	56524553          	0x56524553
 9ac:	4445                	li	s0,17
 9ae:	3131                	jal	5ba <SysTick_Handler+0x10e>
 9b0:	5200                	lw	s0,32(a2)
 9b2:	5345                	li	t1,-15
 9b4:	5245                	li	tp,-15
 9b6:	4556                	lw	a0,84(sp)
 9b8:	3144                	fld	fs1,160(a0)
 9ba:	0032                	c.slli	zero,0xc
 9bc:	4552                	lw	a0,20(sp)
 9be:	56524553          	0x56524553
 9c2:	4445                	li	s0,17
 9c4:	3331                	jal	6d0 <SysTick_Handler+0x224>
 9c6:	5200                	lw	s0,32(a2)
 9c8:	5345                	li	t1,-15
 9ca:	5245                	li	tp,-15
 9cc:	4556                	lw	a0,84(sp)
 9ce:	3144                	fld	fs1,160(a0)
 9d0:	0034                	addi	a3,sp,8
 9d2:	4552                	lw	a0,20(sp)
 9d4:	56524553          	0x56524553
 9d8:	4445                	li	s0,17
 9da:	3531                	jal	7e6 <_data_lma+0x76>
 9dc:	4400                	lw	s0,8(s0)
 9de:	594c                	lw	a1,52(a0)
 9e0:	0052                	c.slli	zero,0x14
 9e2:	4f495047          	fmsub.q	ft0,fs2,fs4,fs1,unknown
 9e6:	4c5f 776f 4900      	0x4900776f4c5f
 9ec:	5250                	lw	a2,36(a2)
 9ee:	0052                	c.slli	zero,0x14
 9f0:	4d44                	lw	s1,28(a0)
 9f2:	3141                	jal	672 <SysTick_Handler+0x1c6>
 9f4:	435f 6168 6e6e      	0x6e6e6168435f
 9fa:	6c65                	lui	s8,0x19
 9fc:	5f35                	li	t5,-19
 9fe:	5249                	li	tp,-14
 a00:	6e51                	lui	t3,0x14
 a02:	5600                	lw	s0,40(a2)
 a04:	4654                	lw	a3,12(a2)
 a06:	4441                	li	s0,16
 a08:	5244                	lw	s1,36(a2)
 a0a:	4300                	lw	s0,0(a4)
 a0c:	656e6e6f          	jal	t3,e7062 <wiring.c.7604182b+0xe46c9>
 a10:	6f697463          	bgeu	s2,s6,10f8 <ch32v003fun.c.8affbd33+0x256>
 a14:	006e                	c.slli	zero,0x1b
 a16:	4350                	lw	a2,4(a4)
 a18:	5246                	lw	tp,112(sp)
 a1a:	0031                	c.nop	12
 a1c:	616d                	addi	sp,sp,240
 a1e:	6e69                	lui	t3,0x1a
 a20:	4900                	lw	s0,16(a0)
 a22:	5350                	lw	a2,36(a4)
 a24:	0052                	c.slli	zero,0x14
 a26:	4552                	lw	a0,20(sp)
 a28:	56524553          	0x56524553
 a2c:	4445                	li	s0,17
 a2e:	69740037          	lui	zero,0x69740
 a32:	656d                	lui	a0,0x1b
 a34:	0072                	c.slli	zero,0x1c
 a36:	4f495047          	fmsub.q	ft0,fs2,fs4,fs1,unknown
 a3a:	485f 6769 0068      	0x686769485f
 a40:	6e69                	lui	t3,0x1a
 a42:	7570                	flw	fa2,108(a0)
 a44:	0074                	addi	a3,sp,12
 a46:	6970                	flw	fa2,84(a0)
 a48:	4d6e                	lw	s10,216(sp)
 a4a:	5f65646f          	jal	s0,57040 <wiring.c.7604182b+0x546a7>
 a4e:	706f5f4f          	fnmadd.s	ft10,ft10,ft6,fa4,unknown
 a52:	6e65                	lui	t3,0x19
 a54:	7244                	flw	fs1,36(a2)
 a56:	6961                	lui	s2,0x18
 a58:	006e                	c.slli	zero,0x1b
 a5a:	4e41                	li	t3,16
 a5c:	4c41                	li	s8,16
 a5e:	6e69474f          	fnmadd.q	fa4,fs2,ft6,fa3,rmm
 a62:	7570                	flw	fa2,108(a0)
 a64:	7374                	flw	fa3,100(a4)
 a66:	6400                	flw	fs0,8(s0)
 a68:	6769                	lui	a4,0x1a
 a6a:	7469                	lui	s0,0xffffa
 a6c:	6c61                	lui	s8,0x18
 a6e:	74697257          	0x74697257
 a72:	0065                	c.nop	25
 a74:	69726977          	0x69726977
 a78:	676e                	flw	fa4,216(sp)
 a7a:	632e                	flw	ft6,200(sp)
 a7c:	4700                	lw	s0,8(a4)
 a7e:	4950                	lw	a2,20(a0)
 a80:	6e69704f          	fnmadd.q	ft0,fs2,ft6,fa3
 a84:	73410073          	0x73410073
 a88:	5f74                	lw	a3,124(a4)
 a8a:	00796333          	or	t1,s2,t2
 a8e:	6f6d                	lui	t5,0x1b
 a90:	6564                	flw	fs1,76(a0)
 a92:	4100                	lw	s0,0(a0)
 a94:	6e69                	lui	t3,0x1a
 a96:	5f34                	lw	a3,120(a4)
 a98:	3344                	fld	fs1,160(a4)
 a9a:	7000                	flw	fs0,32(s0)
 a9c:	6e69                	lui	t3,0x1a
 a9e:	415f 0032 6f70      	0x6f700032415f
 aa4:	7472                	flw	fs0,60(sp)
 aa6:	6e45                	lui	t3,0x11
 aa8:	6261                	lui	tp,0x18
 aaa:	656c                	flw	fa1,76(a0)
 aac:	4100                	lw	s0,0(a0)
 aae:	325f7473          	csrrci	s0,mhpmevent5,30
 ab2:	3134                	fld	fa3,96(a0)
 ab4:	645f7963          	bgeu	t5,t0,1106 <ch32v003fun.c.8affbd33+0x264>
 ab8:	6665                	lui	a2,0x19
 aba:	7561                	lui	a0,0xffff8
 abc:	746c                	flw	fa1,108(s0)
 abe:	4700                	lw	s0,8(a4)
 ac0:	4950                	lw	a2,20(a0)
 ac2:	6e69704f          	fnmadd.q	ft0,fs2,ft6,fa3
 ac6:	74617453          	0x74617453
 aca:	0065                	c.nop	25
 acc:	6941                	lui	s2,0x10
 ace:	316e                	fld	ft2,248(sp)
 ad0:	415f 0031 6572      	0x65720031415f
 ad6:	746c7573          	csrrci	a0,0x746,24
 ada:	7000                	flw	fs0,32(s0)
 adc:	6e69                	lui	t3,0x1a
 ade:	74617453          	0x74617453
 ae2:	5f65                	li	t5,-7
 ae4:	6f6e                	flw	ft10,216(sp)
 ae6:	6e616863          	bltu	sp,t1,11d6 <ch32v003fun.c.8affbd33+0x334>
 aea:	70006567          	0x70006567
 aee:	6e69                	lui	t3,0x1a
 af0:	435f 0030 6970      	0x69700030435f
 af6:	5f6e                	lw	t5,248(sp)
 af8:	70003143          	fmadd.s	ft2,ft0,ft0,fa4,rup
 afc:	6e69                	lui	t3,0x1a
 afe:	435f 0032 6970      	0x69700032435f
 b04:	5f6e                	lw	t5,248(sp)
 b06:	70003343          	fmadd.s	ft6,ft0,ft0,fa4,rup
 b0a:	6e69                	lui	t3,0x1a
 b0c:	435f 0034 6970      	0x69700034435f
 b12:	5f6e                	lw	t5,248(sp)
 b14:	70003543          	fmadd.s	fa0,ft0,ft0,fa4,rup
 b18:	6e69                	lui	t3,0x1a
 b1a:	435f 0036 6970      	0x69700036435f
 b20:	5f6e                	lw	t5,248(sp)
 b22:	41003743          	fmadd.s	fa4,ft0,fa6,fs0,rup
 b26:	355f7473          	csrrci	s0,0x355,30
 b2a:	00796337          	lui	t1,0x796
 b2e:	7341                	lui	t1,0xffff0
 b30:	5f74                	lw	a3,124(a4)
 b32:	3531                	jal	93e <_data_lma+0x1ce>
 b34:	70007963          	bgeu	zero,zero,1246 <ch32v003fun.c.8affbd33+0x3a4>
 b38:	6e69                	lui	t3,0x1a
 b3a:	6f4d                	lui	t5,0x13
 b3c:	6564                	flw	fs1,76(a0)
 b3e:	4f5f 705f 7375      	0x7375705f4f5f
 b44:	5068                	lw	a0,100(s0)
 b46:	6c75                	lui	s8,0x1d
 b48:	006c                	addi	a1,sp,12
 b4a:	4441                	li	s0,16
 b4c:	74657343          	0x74657343
 b50:	6f50                	flw	fa2,28(a4)
 b52:	00726577          	0x726577
 b56:	6970                	flw	fa2,84(a0)
 b58:	5f6e                	lw	t5,248(sp)
 b5a:	3044                	fld	fs1,160(s0)
 b5c:	7000                	flw	fs0,32(s0)
 b5e:	6e69                	lui	t3,0x1a
 b60:	445f 0031 6970      	0x69700031445f
 b66:	5f6e                	lw	t5,248(sp)
 b68:	3344                	fld	fs1,160(a4)
 b6a:	7000                	flw	fs0,32(s0)
 b6c:	6e69                	lui	t3,0x1a
 b6e:	445f 0034 6970      	0x69700034445f
 b74:	5f6e                	lw	t5,248(sp)
 b76:	3544                	fld	fs1,168(a0)
 b78:	7000                	flw	fs0,32(s0)
 b7a:	6e69                	lui	t3,0x1a
 b7c:	445f 0036 6970      	0x69700036445f
 b82:	5f6e                	lw	t5,248(sp)
 b84:	3744                	fld	fs1,168(a4)
 b86:	4100                	lw	s0,0(a0)
 b88:	335f7473          	csrrci	s0,mhpmevent21,30
 b8c:	6330                	flw	fa2,64(a4)
 b8e:	0079                	c.nop	30
 b90:	6970                	flw	fa2,84(a0)
 b92:	4d6e                	lw	s10,216(sp)
 b94:	5f65646f          	jal	s0,5718a <wiring.c.7604182b+0x547f1>
 b98:	5f49                	li	t5,-14
 b9a:	6c66                	flw	fs8,88(sp)
 b9c:	6974616f          	jal	sp,47a32 <wiring.c.7604182b+0x45099>
 ba0:	676e                	flw	fa4,216(sp)
 ba2:	6100                	flw	fs0,0(a0)
 ba4:	616e                	flw	ft2,216(sp)
 ba6:	6f6c                	flw	fa1,92(a4)
 ba8:	61655267          	0x61655267
 bac:	0064                	addi	s1,sp,12
 bae:	50746567          	0x50746567
 bb2:	0074726f          	jal	tp,483b8 <wiring.c.7604182b+0x45a1f>
 bb6:	6970                	flw	fa2,84(a0)
 bb8:	536e                	lw	t1,248(sp)
 bba:	6174                	flw	fa3,68(a0)
 bbc:	6574                	flw	fa3,76(a0)
 bbe:	6c5f 776f 4100      	0x4100776f6c5f
 bc4:	4344                	lw	s1,4(a4)
 bc6:	696c6163          	bltu	s8,s6,1248 <ch32v003fun.c.8affbd33+0x3a6>
 bca:	7262                	flw	ft4,56(sp)
 bcc:	7461                	lui	s0,0xffff8
 bce:	0065                	c.nop	25
 bd0:	6941                	lui	s2,0x10
 bd2:	566e                	lw	a2,248(sp)
 bd4:	6572                	flw	fa0,28(sp)
 bd6:	0066                	c.slli	zero,0x19
 bd8:	6970                	flw	fa2,84(a0)
 bda:	5f6e                	lw	t5,248(sp)
 bdc:	3141                	jal	85c <_data_lma+0xec>
 bde:	4100                	lw	s0,0(a0)
 be0:	6e69                	lui	t3,0x1a
 be2:	6356                	flw	ft6,84(sp)
 be4:	6c61                	lui	s8,0x18
 be6:	4100                	lw	s0,0(a0)
 be8:	6e69                	lui	t3,0x1a
 bea:	32445f33          	0x32445f33
 bee:	4100                	lw	s0,0(a0)
 bf0:	414e                	lw	sp,208(sp)
 bf2:	4f4c                	lw	a1,28(a4)
 bf4:	6d617347          	0x6d617347
 bf8:	6c70                	flw	fa2,92(s0)
 bfa:	7465                	lui	s0,0xffff9
 bfc:	6d69                	lui	s10,0x1a
 bfe:	7365                	lui	t1,0xffff9
 c00:	5f00                	lw	s0,56(a4)
 c02:	695f 746e 5f38      	0x5f38746e695f
 c08:	0074                	addi	a3,sp,12
 c0a:	6970                	flw	fa2,84(a0)
 c0c:	4d6e                	lw	s10,216(sp)
 c0e:	5f65646f          	jal	s0,57204 <wiring.c.7604182b+0x5486b>
 c12:	5f49                	li	t5,-14
 c14:	6e61                	lui	t3,0x18
 c16:	6c61                	lui	s8,0x18
 c18:	4700676f          	jal	a4,7088 <wiring.c.7604182b+0x46ef>
 c1c:	4950                	lw	a2,20(a0)
 c1e:	4100784f          	fnmadd.s	fa6,ft0,fa6,fs0
 c22:	6e69                	lui	t3,0x1a
 c24:	5f30                	lw	a2,120(a4)
 c26:	3241                	jal	5a6 <SysTick_Handler+0xfa>
 c28:	7000                	flw	fs0,32(s0)
 c2a:	6e69                	lui	t3,0x1a
 c2c:	6f4d                	lui	t5,0x13
 c2e:	6564                	flw	fs1,76(a0)
 c30:	4f5f 705f 7375      	0x7375705f4f5f
 c36:	5068                	lw	a0,100(s0)
 c38:	6c75                	lui	s8,0x1d
 c3a:	4d6c                	lw	a1,92(a0)
 c3c:	7875                	lui	a6,0xffffd
 c3e:	4100                	lw	s0,0(a0)
 c40:	4344                	lw	s1,4(a4)
 c42:	53746573          	csrrsi	a0,0x537,8
 c46:	6d61                	lui	s10,0x18
 c48:	6c70                	flw	fa2,92(s0)
 c4a:	7465                	lui	s0,0xffff9
 c4c:	6d69                	lui	s10,0x1a
 c4e:	0065                	c.nop	25
 c50:	6f70                	flw	fa2,92(a4)
 c52:	7472                	flw	fs0,60(sp)
 c54:	415f 7000 726f      	0x726f7000415f
 c5a:	5f74                	lw	a3,124(a4)
 c5c:	6f700043          	fmadd.q	ft0,ft0,fs7,fa3,rne
 c60:	7472                	flw	fs0,60(sp)
 c62:	445f 6400 6769      	0x67696400445f
 c68:	7469                	lui	s0,0xffffa
 c6a:	6c61                	lui	s8,0x18
 c6c:	6552                	flw	fa0,20(sp)
 c6e:	6461                	lui	s0,0x18
 c70:	4100                	lw	s0,0(a0)
 c72:	6e69                	lui	t3,0x1a
 c74:	5f35                	li	t5,-19
 c76:	3544                	fld	fs1,168(a0)
 c78:	6500                	flw	fs0,8(a0)
 c7a:	616e                	flw	ft2,216(sp)
 c7c:	6c62                	flw	fs8,24(sp)
 c7e:	0065                	c.nop	25
 c80:	6970                	flw	fa2,84(a0)
 c82:	4d6e                	lw	s10,216(sp)
 c84:	5f65646f          	jal	s0,5727a <wiring.c.7604182b+0x548e1>
 c88:	706f5f4f          	fnmadd.s	ft10,ft10,ft6,fa4,unknown
 c8c:	6e65                	lui	t3,0x19
 c8e:	7244                	flw	fs1,36(a2)
 c90:	6961                	lui	s2,0x18
 c92:	4d6e                	lw	s10,216(sp)
 c94:	7875                	lui	a6,0xffffd
 c96:	7000                	flw	fs0,32(s0)
 c98:	6e69                	lui	t3,0x1a
 c9a:	6f4d                	lui	t5,0x13
 c9c:	6564                	flw	fs1,76(a0)
 c9e:	495f 705f 6c75      	0x6c75705f495f
 ca4:	446c                	lw	a1,76(s0)
 ca6:	006e776f          	jal	a4,e7cac <wiring.c.7604182b+0xe5313>
 caa:	6f6d                	lui	t5,0x1b
 cac:	6564                	flw	fs1,76(a0)
 cae:	614d                	addi	sp,sp,176
 cb0:	41006b73          	csrrsi	s6,0x410,0
 cb4:	4344                	lw	s1,4(a4)
 cb6:	6e69                	lui	t3,0x1a
 cb8:	7469                	lui	s0,0xffffa
 cba:	7000                	flw	fs0,32(s0)
 cbc:	6e69                	lui	t3,0x1a
 cbe:	6f4d                	lui	t5,0x13
 cc0:	6564                	flw	fs1,76(a0)
 cc2:	495f 705f 6c75      	0x6c75705f495f
 cc8:	556c                	lw	a1,108(a0)
 cca:	0070                	addi	a2,sp,12
 ccc:	7341                	lui	t1,0xffff0
 cce:	5f74                	lw	a3,124(a4)
 cd0:	79633337          	lui	t1,0x79633
 cd4:	4100                	lw	s0,0(a0)
 cd6:	6e69                	lui	t3,0x1a
 cd8:	34445f37          	lui	t5,0x34445
 cdc:	5000                	lw	s0,32(s0)
 cde:	6e69                	lui	t3,0x1a
 ce0:	7366664f          	fnmadd.d	fa2,fa2,fs6,fa4,unknown
 ce4:	7465                	lui	s0,0xffff9
 ce6:	7000                	flw	fs0,32(s0)
 ce8:	6e69                	lui	t3,0x1a
 cea:	74617453          	0x74617453
 cee:	5f65                	li	t5,-7
 cf0:	6968                	flw	fa0,84(a0)
 cf2:	41006867          	0x41006867
 cf6:	345f7473          	csrrci	s0,0x345,30
 cfa:	00796333          	or	t1,s2,t2
 cfe:	6941                	lui	s2,0x10
 d00:	326e                	fld	ft4,248(sp)
 d02:	435f 0034 6970      	0x69700034435f
 d08:	5f6e                	lw	t5,248(sp)
 d0a:	3244                	fld	fs1,160(a2)
 d0c:	4700                	lw	s0,8(a4)
 d0e:	4950                	lw	a2,20(a0)
 d10:	6e69704f          	fnmadd.q	ft0,fs2,ft6,fa3
 d14:	6f4d                	lui	t5,0x13
 d16:	6564                	flw	fs1,76(a0)
 d18:	7000                	flw	fs0,32(s0)
 d1a:	6e69                	lui	t3,0x1a
 d1c:	6e5f 6e6f 0065      	0x656e6f6e5f
 d22:	6174                	flw	fa3,68(a0)
 d24:	6772                	flw	fa4,28(sp)
 d26:	7465                	lui	s0,0xffff9
 d28:	705f 6e69 735f      	0x735f6e69705f
 d2e:	6174                	flw	fa3,68(a0)
 d30:	6574                	flw	fa3,76(a0)
 d32:	4100                	lw	s0,0(a0)
 d34:	395f7473          	csrrci	s0,0x395,30
 d38:	47007963          	bgeu	zero,a6,11aa <ch32v003fun.c.8affbd33+0x308>
 d3c:	4950                	lw	a2,20(a0)
 d3e:	726f704f          	fnmadd.d	ft0,ft10,ft6,fa4
 d42:	7374                	flw	fa3,100(a4)
 d44:	7000                	flw	fs0,32(s0)
 d46:	5f74726f          	jal	tp,48b3c <wiring.c.7604182b+0x461a3>
 d4a:	6f6e                	flw	ft10,216(sp)
 d4c:	656e                	flw	fa0,216(sp)
 d4e:	4100                	lw	s0,0(a0)
 d50:	6e69                	lui	t3,0x1a
 d52:	5f36                	lw	t5,108(sp)
 d54:	3644                	fld	fs1,168(a2)
 d56:	2e00                	fld	fs0,24(a2)
 d58:	2f2e                	fld	ft10,200(sp)
 d5a:	2e2e                	fld	ft8,200(sp)
 d5c:	2f2e2e2f          	0x2f2e2e2f
 d60:	2e2e                	fld	ft8,200(sp)
 d62:	2f2e2e2f          	0x2f2e2e2f
 d66:	696c                	flw	fa1,84(a0)
 d68:	6762                	flw	fa4,24(sp)
 d6a:	632f6363          	bltu	t5,s2,1390 <ch32v003fun.c.8affbd33+0x4ee>
 d6e:	69666e6f          	jal	t3,67404 <wiring.c.7604182b+0x64a6b>
 d72:	69722f67          	0x69722f67
 d76:	2f766373          	csrrsi	t1,0x2f7,12
 d7a:	756d                	lui	a0,0xffffb
 d7c:	646c                	flw	fa1,76(s0)
 d7e:	3369                	jal	b08 <_data_lma+0x398>
 d80:	532e                	lw	t1,232(sp)
 d82:	2f00                	fld	fs0,24(a4)
 d84:	7562                	flw	fa0,56(sp)
 d86:	6c69                	lui	s8,0x1a
 d88:	2f64                	fld	fs1,216(a4)
 d8a:	2d636367          	0x2d636367
 d8e:	6972                	flw	fs2,28(sp)
 d90:	36766373          	csrrsi	t1,0x367,12
 d94:	2d34                	fld	fa3,88(a0)
 d96:	6e75                	lui	t3,0x1d
 d98:	776f6e6b          	0x776f6e6b
 d9c:	2d6e                	fld	fs10,216(sp)
 d9e:	6c65                	lui	s8,0x19
 da0:	2d66                	fld	fs10,88(sp)
 da2:	6b4c                	flw	fa1,20(a4)
 da4:	46656963          	bltu	a0,t1,1216 <ch32v003fun.c.8affbd33+0x374>
 da8:	6363672f          	0x6363672f
 dac:	722d                	lui	tp,0xfffeb
 dae:	7369                	lui	t1,0xffffa
 db0:	34367663          	bgeu	a2,gp,10fc <ch32v003fun.c.8affbd33+0x25a>
 db4:	752d                	lui	a0,0xfffeb
 db6:	6b6e                	flw	fs6,216(sp)
 db8:	6f6e                	flw	ft10,216(sp)
 dba:	652d6e77          	0x652d6e77
 dbe:	666c                	flw	fa1,76(a2)
 dc0:	312d                	jal	9ea <_data_lma+0x27a>
 dc2:	2e30                	fld	fa2,88(a2)
 dc4:	2e32                	fld	ft8,264(sp)
 dc6:	2f30                	fld	fa2,88(a4)
 dc8:	7562                	flw	fa0,56(sp)
 dca:	6c69                	lui	s8,0x1a
 dcc:	2f64                	fld	fs1,216(a4)
 dce:	6972                	flw	fs2,28(sp)
 dd0:	36766373          	csrrsi	t1,0x367,12
 dd4:	2d34                	fld	fa3,88(a0)
 dd6:	6e75                	lui	t3,0x1d
 dd8:	776f6e6b          	0x776f6e6b
 ddc:	2d6e                	fld	fs10,216(sp)
 dde:	6c65                	lui	s8,0x19
 de0:	2f66                	fld	ft10,88(sp)
 de2:	7672                	flw	fa2,60(sp)
 de4:	2f653233          	0x2f653233
 de8:	6c69                	lui	s8,0x1a
 dea:	3370                	fld	fa2,224(a4)
 dec:	6532                	flw	fa0,12(sp)
 dee:	62696c2f          	0x62696c2f
 df2:	00636367          	0x636367
 df6:	20554e47          	fmsub.s	ft8,fa0,ft5,ft4,rmm
 dfa:	5341                	li	t1,-16
 dfc:	3220                	fld	fs0,96(a2)
 dfe:	332e                	fld	ft6,232(sp)
 e00:	2e35                	jal	113c <ch32v003fun.c.8affbd33+0x29a>
 e02:	0031                	c.nop	12

Disassembly of section .comment:

00000000 <.comment>:
	asm volatile( "\n\
   0:	3a434347          	fmsub.d	ft6,ft6,ft4,ft7,rmm
   4:	2820                	fld	fs0,80(s0)
   6:	2029                	jal	10 <InterruptVector+0x10>
   8:	3031                	jal	fffff814 <__global_pointer$+0xdfffeee4>
   a:	322e                	fld	ft4,232(sp)
   c:	302e                	fld	ft0,232(sp)
	...

Disassembly of section .riscv.attributes:

00000000 <.riscv.attributes>:
   0:	2441                	jal	280 <main+0x1bc>
   2:	0000                	unimp
   4:	7200                	flw	fs0,32(a2)
   6:	7369                	lui	t1,0xffffa
   8:	01007663          	bgeu	zero,a6,14 <InterruptVector+0x14>
   c:	001a                	c.slli	zero,0x6
   e:	0000                	unimp
  10:	0404                	addi	s1,sp,512
  12:	7205                	lui	tp,0xfffe1
  14:	3376                	fld	ft6,376(sp)
  16:	6532                	flw	fa0,12(sp)
  18:	7031                	c.lui	zero,0xfffec
  1a:	5f39                	li	t5,-18
  1c:	30703263          	0x30703263
  20:	0800                	addi	s0,sp,16
  22:	0a01                	addi	s4,s4,0
  24:	0b              	Address 0x0000000000000024 is out of bounds.


Disassembly of section .debug_frame:

00000000 <.debug_frame>:
   0:	000c                	0xc
   2:	0000                	unimp
   4:	ffff                	0xffff
   6:	ffff                	0xffff
   8:	7c010003          	lb	zero,1984(sp)
   c:	0d01                	addi	s10,s10,0
   e:	0002                	c.slli64	zero
  10:	000c                	0xc
	...
  1e:	0000                	unimp
  20:	0024                	addi	s1,sp,8
	...
  2e:	0000                	unimp
  30:	0e42                	slli	t3,t3,0x10
  32:	4614                	lw	a3,8(a2)
  34:	0389                	addi	t2,t2,2
  36:	0181                	addi	gp,gp,0
  38:	0288                	addi	a0,sp,320
  3a:	0002                	c.slli64	zero
  3c:	c10a                	sw	sp,128(sp)
  3e:	c842                	sw	a6,16(sp)
  40:	c942                	sw	a6,144(sp)
  42:	0e42                	slli	t3,t3,0x10
  44:	4200                	lw	s0,0(a2)
  46:	0024000b          	0x24000b
	...
  56:	0000                	unimp
  58:	0e42                	slli	t3,t3,0x10
  5a:	4620                	lw	s0,72(a2)
  5c:	0181                	addi	gp,gp,0
  5e:	0288                	addi	a0,sp,320
  60:	0389                	addi	t2,t2,2
  62:	0002                	c.slli64	zero
  64:	c10a                	sw	sp,128(sp)
  66:	c842                	sw	a6,16(sp)
  68:	c942                	sw	a6,144(sp)
  6a:	0e42                	slli	t3,t3,0x10
  6c:	4200                	lw	s0,0(a2)
  6e:	0018000b          	0x18000b
  72:	0000                	unimp
  74:	0000                	unimp
  76:	0000                	unimp
  78:	00c4                	addi	s1,sp,68
  7a:	0000                	unimp
  7c:	0368                	addi	a0,sp,396
  7e:	0000                	unimp
  80:	0e42                	slli	t3,t3,0x10
  82:	4610                	lw	a2,8(a2)
  84:	0181                	addi	gp,gp,0
  86:	0288                	addi	a0,sp,320
  88:	0389                	addi	t2,t2,2
  8a:	0000                	unimp
  8c:	0020                	addi	s0,sp,8
	...
  9a:	0000                	unimp
  9c:	0e42                	slli	t3,t3,0x10
  9e:	4618                	lw	a4,8(a2)
  a0:	0288                	addi	a0,sp,320
  a2:	0389                	addi	t2,t2,2
  a4:	0181                	addi	gp,gp,0
  a6:	0002                	c.slli64	zero
  a8:	44c1                	li	s1,16
  aa:	42c8                	lw	a0,4(a3)
  ac:	42c9                	li	t0,18
  ae:	000e                	c.slli	zero,0x3
  b0:	001c                	0x1c
	...
  be:	0000                	unimp
  c0:	0e42                	slli	t3,t3,0x10
  c2:	440c                	lw	a1,8(s0)
int main() {
  c4:	0288                	addi	a0,sp,320
  c6:	0181                	addi	gp,gp,0
  c8:	c140                	sw	s0,4(a0)
  ca:	c844                	sw	s1,20(s0)
	RCC->CFGR0 = RCC_HPRE_DIV1 | RCC_PLLSRC_HSI_Mul2;      // PLLCLK = HSI * 2 = 48 MHz; HCLK = SYSCLK = APB1
  cc:	0e42                	slli	t3,t3,0x10
  ce:	0000                	unimp
	RCC->CTLR  = RCC_HSION | RCC_PLLON | ((HSITRIM) << 3); // Use HSI, but enable PLL.
  d0:	000c                	0xc
  d2:	0000                	unimp
	RCC->CFGR0 = RCC_HPRE_DIV1 | RCC_PLLSRC_HSI_Mul2;      // PLLCLK = HSI * 2 = 48 MHz; HCLK = SYSCLK = APB1
  d4:	0000                	unimp
  d6:	0000                	unimp
	RCC->CTLR  = RCC_HSION | RCC_PLLON | ((HSITRIM) << 3); // Use HSI, but enable PLL.
  d8:	042c                	addi	a1,sp,520
  da:	0000                	unimp
  dc:	007e                	c.slli	zero,0x1f
	FLASH->ACTLR = FLASH_ACTLR_LATENCY_1;                  // 1 Cycle Latency
  de:	0000                	unimp
  e0:	000c                	0xc
  e2:	0000                	unimp
  e4:	0000                	unimp
	RCC->INTR  = 0x009F0000;                               // Clear PLL, CSSC, HSE, HSI and LSI ready flags.
  e6:	0000                	unimp
  e8:	04aa                	slli	s1,s1,0xa
  ea:	0000                	unimp
	while((RCC->CTLR & RCC_PLLRDY) == 0);                                      // Wait till PLL is ready
  ec:	0002                	c.slli64	zero
  ee:	0000                	unimp
  f0:	000c                	0xc
	...
	RCC->CFGR0 = ( RCC->CFGR0 & ((uint32_t)~(RCC_SW))) | (uint32_t)RCC_SW_PLL; // Select PLL as system clock source
  fe:	0000                	unimp
 100:	0024                	addi	s1,sp,8
	...
	while ((RCC->CFGR0 & (uint32_t)RCC_SWS) != (uint32_t)0x08);                // Wait till PLL is used as system clock source
 10e:	0000                	unimp
 110:	0e44                	addi	s1,sp,788
	RCC->APB2PCENR |=	RCC_APB2Periph_GPIOA | RCC_APB2Periph_GPIOC |
 112:	4a6c                	lw	a1,84(a2)
 114:	0889                	addi	a7,a7,2
 116:	0681                	addi	a3,a3,0
 118:	0788                	addi	a0,sp,960
 11a:	0a40                	addi	s0,sp,276
 11c:	42c1                	li	t0,16
	RCC->APB1PCENR |=	RCC_APB1Periph_TIM2;
 11e:	44c8                	lw	a0,12(s1)
	RCC->APB2PRSTR |=  RCC_APB2Periph_TIM1;
 120:	44c9                	li	s1,18
 122:	000e                	c.slli	zero,0x3
	RCC->APB2PRSTR &= ~RCC_APB2Periph_TIM1;
 124:	0b42                	slli	s6,s6,0x10
	RCC->APB1PCENR |=	RCC_APB1Periph_TIM2;
 126:	0000                	unimp
 128:	000c                	0xc
	...
	RCC->APB2PRSTR |=  RCC_APB2Periph_TIM1;
 136:	0000                	unimp
	RCC->APB2PRSTR &= ~RCC_APB2Periph_TIM1;
 138:	000c                	0xc
	...
	RCC->APB1PRSTR |=  RCC_APB1Periph_TIM2;
 146:	0000                	unimp
	TIM1->PSC = 0x0000;
 148:	000c                	0xc
	...
	RCC->APB1PRSTR &= ~RCC_APB1Periph_TIM2;
 156:	0000                	unimp
	TIM2->CCER |= TIM_CC4E | TIM_CC4P;	// Enable CH2 output, positive pol
 158:	000c                	0xc
	...
	GPIOC->CFGLR &= ~(0xf<<(4*4));
 166:	0000                	unimp
	GPIOC->CFGLR |= (GPIO_Speed_10MHz | GPIO_CNF_OUT_OD_AF)<<(4*GPIO_PinSource4);
 168:	000c                	0xc
	...
	GPIOC->CFGLR |= (GPIO_Speed_10MHz | GPIO_CNF_OUT_OD_AF)<<(4*GPIO_PinSource2);
 176:	0000                	unimp
 178:	0020                	addi	s0,sp,8
	...
	GPIOA->CFGLR |= (GPIO_Speed_10MHz | GPIO_CNF_OUT_OD_AF)<<(4*GPIO_PinSource1);
 186:	0000                	unimp
 188:	0e42                	slli	t3,t3,0x10
 18a:	440c                	lw	a1,8(s0)
 18c:	0288                	addi	a0,sp,320
	GPIOC->CFGLR &= ~(0xf<<(4*2));
 18e:	0181                	addi	gp,gp,0
 190:	0a40                	addi	s0,sp,276
 192:	44c1                	li	s1,16
 194:	42c8                	lw	a0,4(a3)
	GPIOC->CFGLR |= (GPIO_Speed_10MHz | GPIO_CNF_OUT_OD_AF)<<(4*GPIO_PinSource2);
 196:	000e                	c.slli	zero,0x3
 198:	0b42                	slli	s6,s6,0x10
 19a:	0000                	unimp
	GPIOC->CFGLR &= ~(0xf<<(4*1));
 19c:	0020                	addi	s0,sp,8
	...
	GPIOC->CFGLR |= (GPIO_Speed_10MHz | GPIO_CNF_OUT_OD_AF)<<(4*GPIO_PinSource1);
 1aa:	0000                	unimp
 1ac:	0e42                	slli	t3,t3,0x10
 1ae:	440c                	lw	a1,8(s0)
	AFIO->PCFR1 |= AFIO_PCFR1_TIM2_REMAP_PARTIALREMAP1;
 1b0:	0288                	addi	a0,sp,320
 1b2:	0389                	addi	t2,t2,2
 1b4:	8146                	mv	sp,a7
 1b6:	4001                	c.li	zero,0
	TIM1->PSC = 0x0000;
 1b8:	42c1                	li	t0,16
 1ba:	42c8                	lw	a0,4(a3)
	TIM2->PSC = 0x0000;
 1bc:	42c9                	li	t0,18
 1be:	000e                	c.slli	zero,0x3
 1c0:	000c                	0xc
	...
	TIM1->SWEVGR |= TIM_UG;
 1ce:	0000                	unimp
 1d0:	000c                	0xc
	...
	TIM2->SWEVGR |= TIM_UG;
 1de:	0000                	unimp
 1e0:	000c                	0xc
	...
	TIM2->CTLR1 |= TIM_ARPE;
 1ee:	0000                	unimp
 1f0:	000c                	0xc
	...
	TIM1->CTLR1 |= TIM_ARPE; // unnecessary?
 1fe:	0000                	unimp
 200:	0020                	addi	s0,sp,8
	...
	TIM1->CH1CVR = 128; //T1CH1/PC4/pin7
 20e:	0000                	unimp
 210:	0e42                	slli	t3,t3,0x10
 212:	440c                	lw	a1,8(s0)
	TIM1->CH2CVR = 128; //T1CH2/PA1/pin1
 214:	0288                	addi	a0,sp,320
 216:	8948                	0x8948
	TIM2->CH2CVR = 128; //T2CH2/PC2/pin6*
 218:	40018103          	lb	sp,1024(gp) # 20000d30 <__global_pointer$+0x400>
	TIM1->CCER |= TIM_CC1E | TIM_CC1P;	// Enable CH1 output, positive pol
 21c:	44c1                	li	s1,16
 21e:	42c8                	lw	a0,4(a3)
 220:	42c9                	li	t0,18
 222:	000e                	c.slli	zero,0x3
 224:	0024                	addi	s1,sp,8
	...
	TIM1->CCER |= TIM_CC2E | TIM_CC2P;	// Enable CH4 output, positive pol
 232:	0000                	unimp
 234:	0e44                	addi	s1,sp,788
 236:	08cc                	addi	a1,sp,84
 238:	8958                	0x8958
 23a:	88018103          	lb	sp,-1920(gp) # 200001b0 <_ebss+0x7c>
	TIM2->CCER |= TIM_CC2E | TIM_CC2P;	// Enable CH1 output, positive pol
 23e:	4002                	0x4002
 240:	c10a                	sw	sp,128(sp)
 242:	c846                	sw	a7,16(sp)
 244:	c944                	sw	s1,20(a0)
 246:	0e44                	addi	s1,sp,788
 248:	4200                	lw	s0,0(a2)
 24a:	0030000b          	0x30000b
	...
	TIM2->CCER |= TIM_CC4E | TIM_CC4P;	// Enable CH2 output, positive pol
 25a:	0000                	unimp
	TIM1->CHCTLR1 |= TIM_OC1M_2 | TIM_OC1M_1;	// CH1 Mode is output, PWM1 (CC1S = 00, OC1M = 110)
 25c:	0e42                	slli	t3,t3,0x10
 25e:	460c                	lw	a1,8(a2)
	TIM1->CHCTLR1 |= TIM_OC2M_2 | TIM_OC2M_1;	// CH2 Mode is output, PWM1 (CC1S = 00, OC1M = 110)
 260:	0181                	addi	gp,gp,0
	TIM1->CHCTLR1 |= TIM_OC1M_2 | TIM_OC1M_1;	// CH1 Mode is output, PWM1 (CC1S = 00, OC1M = 110)
 262:	0288                	addi	a0,sp,320
 264:	0389                	addi	t2,t2,2
 266:	0a000003          	lb	zero,160(zero) # a0 <__mulsi3>
 26a:	42c8                	lw	a0,4(a3)
 26c:	42c1                	li	t0,16
	TIM1->CHCTLR1 |= TIM_OC2M_2 | TIM_OC2M_1;	// CH2 Mode is output, PWM1 (CC1S = 00, OC1M = 110)
 26e:	42c9                	li	t0,18
 270:	000e                	c.slli	zero,0x3
 272:	0b40                	addi	s0,sp,404
 274:	c144                	sw	s1,4(a0)
 276:	c842                	sw	a6,16(sp)
 278:	c942                	sw	a6,144(sp)
 27a:	0e44                	addi	s1,sp,788
 27c:	0000                	unimp
	TIM2->CHCTLR1 |= TIM_OC2M_2 | TIM_OC2M_1 | TIM_OC2PE;
 27e:	0000                	unimp
 280:	0020                	addi	s0,sp,8
	...
 28e:	0000                	unimp
 290:	0e42                	slli	t3,t3,0x10
 292:	460c                	lw	a1,8(a2)
 294:	0181                	addi	gp,gp,0
 296:	0288                	addi	a0,sp,320
 298:	0389                	addi	t2,t2,2
 29a:	c140                	sw	s0,4(a0)
	TIM2->CHCTLR2 |= TIM_OC4M_2 | TIM_OC4M_1 | TIM_OC4PE;
 29c:	c846                	sw	a7,16(sp)
 29e:	c942                	sw	a6,144(sp)
	TIM1->BDTR  |= TIM_MOE;	// Brake and deadband registers
 2a0:	0e42                	slli	t3,t3,0x10
	TIM2->CHCTLR2 |= TIM_OC4M_2 | TIM_OC4M_1 | TIM_OC4PE;
 2a2:	0000                	unimp
 2a4:	000c                	0xc
	...
 2ae:	0000                	unimp
 2b0:	009c                	addi	a5,sp,64
	TIM1->BDTR  |= TIM_MOE;	// Brake and deadband registers
 2b2:	0000                	unimp
 2b4:	000c                	0xc
	...
	TIM1->CTLR1 |= TIM_CEN;	// Enable TIM1
 2c2:	0000                	unimp
 2c4:	0048                	addi	a0,sp,4
 2c6:	0000                	unimp
 2c8:	0000                	unimp
 2ca:	0000                	unimp
 2cc:	04ac                	addi	a1,sp,584
 2ce:	0000                	unimp
 2d0:	02b8                	addi	a4,sp,328
	TIM2->CTLR1 |= TIM_CEN;	// Enable TIM2
 2d2:	0000                	unimp
 2d4:	0e44                	addi	s1,sp,788
 2d6:	442c                	lw	a1,72(s0)
 2d8:	8e480b8f          	0x8e480b8f
 2dc:	480a                	lw	a6,128(sp)
 2de:	098d                	addi	s3,s3,3
 2e0:	8668                	0x8668
	SysTick->CTLR = 0;
 2e2:	8a02                	jr	s4
 2e4:	8b06                	mv	s6,ra
 2e6:	85088c07          	0x85088c07
 2ea:	8701                	c.srai64	a4
 2ec:	89048803          	lb	a6,-1904(s1)
 2f0:	0305                	addi	t1,t1,1
	SysTick->CMP = (SYSTEM_CORE_CLOCK/8/SYSTICKHZ)-1;
 2f2:	021c                	addi	a5,sp,256
 2f4:	c80a                	sw	sp,16(sp)
 2f6:	c544                	sw	s1,12(a0)
	SysTick->CNT = 0;
 2f8:	c644                	sw	s1,12(a2)
 2fa:	c744                	sw	s1,12(a4)
	SysTick->CTLR = SYSTICK_CTLR_STE | SYSTICK_CTLR_STIE |
 2fc:	c944                	sw	s1,20(a0)
 2fe:	ca44                	sw	s1,20(a2)
	RCC->CFGR0 &= ~(0x1F<<11);
 300:	cb44                	sw	s1,20(a4)
 302:	cc44                	sw	s1,28(s0)
 304:	cd44                	sw	s1,28(a0)
 306:	ce44                	sw	s1,28(a2)
 308:	cf44                	sw	s1,28(a4)
 30a:	0e44                	addi	s1,sp,788
	RCC->APB2PCENR |= RCC_APB2Periph_GPIOA | RCC_APB2Periph_ADC1;
 30c:	4400                	lw	s0,8(s0)
 30e:	          	0xb
