
main-pwm.elf:     file format elf32-littleriscv


Disassembly of section .init:

00000000 <InterruptVector>:
void InterruptVectorDefault()  __attribute__((naked)) __attribute((section(".init")));


void InterruptVectorDefault()
{
	asm volatile( "\n\
   0:	4400006f          	j	440 <handle_reset>
   4:	0000                	unimp
   6:	0000                	unimp
   8:	04be                	slli	s1,s1,0xf
   a:	0000                	unimp
   c:	04be                	slli	s1,s1,0xf
	...
  2e:	0000                	unimp
  30:	04c0                	addi	s0,sp,580
  32:	0000                	unimp
  34:	0000                	unimp
  36:	0000                	unimp
  38:	04be                	slli	s1,s1,0xf
  3a:	0000                	unimp
  3c:	0000                	unimp
  3e:	0000                	unimp
  40:	04be                	slli	s1,s1,0xf
  42:	0000                	unimp
  44:	04be                	slli	s1,s1,0xf
  46:	0000                	unimp
  48:	04be                	slli	s1,s1,0xf
  4a:	0000                	unimp
  4c:	04be                	slli	s1,s1,0xf
  4e:	0000                	unimp
  50:	04be                	slli	s1,s1,0xf
  52:	0000                	unimp
  54:	04be                	slli	s1,s1,0xf
  56:	0000                	unimp
  58:	04be                	slli	s1,s1,0xf
  5a:	0000                	unimp
  5c:	04be                	slli	s1,s1,0xf
  5e:	0000                	unimp
  60:	04be                	slli	s1,s1,0xf
  62:	0000                	unimp
  64:	04be                	slli	s1,s1,0xf
  66:	0000                	unimp
  68:	04be                	slli	s1,s1,0xf
  6a:	0000                	unimp
  6c:	04be                	slli	s1,s1,0xf
  6e:	0000                	unimp
  70:	04be                	slli	s1,s1,0xf
  72:	0000                	unimp
  74:	04be                	slli	s1,s1,0xf
  76:	0000                	unimp
  78:	04be                	slli	s1,s1,0xf
  7a:	0000                	unimp
  7c:	04be                	slli	s1,s1,0xf
  7e:	0000                	unimp
  80:	04be                	slli	s1,s1,0xf
  82:	0000                	unimp
  84:	04be                	slli	s1,s1,0xf
  86:	0000                	unimp
  88:	04be                	slli	s1,s1,0xf
  8a:	0000                	unimp
  8c:	04be                	slli	s1,s1,0xf
  8e:	0000                	unimp
  90:	04be                	slli	s1,s1,0xf
  92:	0000                	unimp
  94:	04be                	slli	s1,s1,0xf
  96:	0000                	unimp
  98:	04be                	slli	s1,s1,0xf
  9a:	0000                	unimp
  9c:	0000                	unimp
	...

Disassembly of section .text:

000000a0 <__mulsi3>:
  a0:	00050613          	mv	a2,a0
  a4:	00000513          	li	a0,0
  a8:	0015f693          	andi	a3,a1,1
  ac:	00068463          	beqz	a3,b4 <__mulsi3+0x14>
  b0:	00c50533          	add	a0,a0,a2
  b4:	0015d593          	srli	a1,a1,0x1
  b8:	00161613          	slli	a2,a2,0x1
  bc:	fe0596e3          	bnez	a1,a8 <__mulsi3+0x8>
  c0:	00008067          	ret

000000c4 <main>:
}

/*
 * main() - does the stuff
 */
int main() {
  c4:	1141                	addi	sp,sp,-16
  c6:	c606                	sw	ra,12(sp)
  c8:	c422                	sw	s0,8(sp)
  ca:	c226                	sw	s1,4(sp)
}

void SystemInit48HSI( void )
{
	// Values lifted from the EVT.  There is little to no documentation on what this does.
	RCC->CFGR0 = RCC_HPRE_DIV1 | RCC_PLLSRC_HSI_Mul2;      // PLLCLK = HSI * 2 = 48 MHz; HCLK = SYSCLK = APB1
  cc:	400217b7          	lui	a5,0x40021
	RCC->CTLR  = RCC_HSION | RCC_PLLON | ((HSITRIM) << 3); // Use HSI, but enable PLL.
  d0:	01000737          	lui	a4,0x1000
	RCC->CFGR0 = RCC_HPRE_DIV1 | RCC_PLLSRC_HSI_Mul2;      // PLLCLK = HSI * 2 = 48 MHz; HCLK = SYSCLK = APB1
  d4:	0007a223          	sw	zero,4(a5) # 40021004 <__global_pointer$+0x200206c4>
	RCC->CTLR  = RCC_HSION | RCC_PLLON | ((HSITRIM) << 3); // Use HSI, but enable PLL.
  d8:	08170713          	addi	a4,a4,129 # 1000081 <wiring.c.7604182b+0xffd688>
  dc:	c398                	sw	a4,0(a5)
	FLASH->ACTLR = FLASH_ACTLR_LATENCY_1;                  // 1 Cycle Latency
  de:	4685                	li	a3,1
  e0:	40022737          	lui	a4,0x40022
  e4:	c314                	sw	a3,0(a4)
	RCC->INTR  = 0x009F0000;                               // Clear PLL, CSSC, HSE, HSI and LSI ready flags.
  e6:	009f0737          	lui	a4,0x9f0
  ea:	c798                	sw	a4,8(a5)

	// From SetSysClockTo_48MHZ_HSI
	while((RCC->CTLR & RCC_PLLRDY) == 0);                                      // Wait till PLL is ready
  ec:	020006b7          	lui	a3,0x2000
  f0:	40021737          	lui	a4,0x40021
  f4:	431c                	lw	a5,0(a4)
  f6:	8ff5                	and	a5,a5,a3
  f8:	dff5                	beqz	a5,f4 <main+0x30>
	RCC->CFGR0 = ( RCC->CFGR0 & ((uint32_t)~(RCC_SW))) | (uint32_t)RCC_SW_PLL; // Select PLL as system clock source
  fa:	435c                	lw	a5,4(a4)
	while ((RCC->CFGR0 & (uint32_t)RCC_SWS) != (uint32_t)0x08);                // Wait till PLL is used as system clock source
  fc:	46a1                	li	a3,8
	RCC->CFGR0 = ( RCC->CFGR0 & ((uint32_t)~(RCC_SW))) | (uint32_t)RCC_SW_PLL; // Select PLL as system clock source
  fe:	9bf1                	andi	a5,a5,-4
 100:	0027e793          	ori	a5,a5,2
 104:	c35c                	sw	a5,4(a4)
	while ((RCC->CFGR0 & (uint32_t)RCC_SWS) != (uint32_t)0x08);                // Wait till PLL is used as system clock source
 106:	400217b7          	lui	a5,0x40021
 10a:	43d8                	lw	a4,4(a5)
 10c:	8b31                	andi	a4,a4,12
 10e:	fed71ee3          	bne	a4,a3,10a <main+0x46>
	RCC->APB2PCENR |=	RCC_APB2Periph_GPIOA | RCC_APB2Periph_GPIOC |
 112:	4f98                	lw	a4,24(a5)
 114:	6385                	lui	t2,0x1
 116:	81538693          	addi	a3,t2,-2027 # 815 <_data_lma+0x41>
 11a:	8f55                	or	a4,a4,a3
 11c:	cf98                	sw	a4,24(a5)
	RCC->APB1PCENR |=	RCC_APB1Periph_TIM2;
 11e:	4fd8                	lw	a4,28(a5)
	RCC->APB2PRSTR |=  RCC_APB2Periph_TIM1;
 120:	80038693          	addi	a3,t2,-2048
	RCC->APB2PRSTR &= ~RCC_APB2Periph_TIM1;
 124:	737d                	lui	t1,0xfffff
	RCC->APB1PCENR |=	RCC_APB1Periph_TIM2;
 126:	00176713          	ori	a4,a4,1
 12a:	cfd8                	sw	a4,28(a5)
	RCC->APB2PRSTR |=  RCC_APB2Periph_TIM1;
 12c:	47d8                	lw	a4,12(a5)
	GPIOC->CFGLR &= ~(0xf<<(4*GPIO_PinSource4));
 12e:	fff10637          	lui	a2,0xfff10
 132:	167d                	addi	a2,a2,-1
	RCC->APB2PRSTR |=  RCC_APB2Periph_TIM1;
 134:	8f55                	or	a4,a4,a3
 136:	c7d8                	sw	a4,12(a5)
	RCC->APB2PRSTR &= ~RCC_APB2Periph_TIM1;
 138:	47d8                	lw	a4,12(a5)
 13a:	7ff30693          	addi	a3,t1,2047 # fffff7ff <__global_pointer$+0xdfffeebf>
	GPIOC->CFGLR &= ~(0xf<<(4*GPIO_PinSource2));
 13e:	0ff30313          	addi	t1,t1,255
	RCC->APB2PRSTR &= ~RCC_APB2Periph_TIM1;
 142:	8f75                	and	a4,a4,a3
 144:	c7d8                	sw	a4,12(a5)
	RCC->APB1PRSTR |=  RCC_APB1Periph_TIM2;
 146:	4b98                	lw	a4,16(a5)
	TIM1->PSC = 0x0000;
 148:	400132b7          	lui	t0,0x40013
	TIM1->ATRLR = 255;
 14c:	0ff00593          	li	a1,255
	RCC->APB1PRSTR |=  RCC_APB1Periph_TIM2;
 150:	00176713          	ori	a4,a4,1
 154:	cb98                	sw	a4,16(a5)
	RCC->APB1PRSTR &= ~RCC_APB1Periph_TIM2;
 156:	4b98                	lw	a4,16(a5)
	TIM1->CCER |= TIM_CC4E | TIM_CC4P;	// Enable T1CH4 output, positive pol
 158:	608d                	lui	ra,0x3
	RCC->APB1PRSTR &= ~RCC_APB1Periph_TIM2;
 15a:	9b79                	andi	a4,a4,-2
 15c:	cb98                	sw	a4,16(a5)
	GPIOC->CFGLR &= ~(0xf<<(4*GPIO_PinSource4));
 15e:	40011737          	lui	a4,0x40011
 162:	4314                	lw	a3,0(a4)
 164:	8ef1                	and	a3,a3,a2
 166:	c314                	sw	a3,0(a4)
	GPIOC->CFGLR |= (GPIO_Speed_10MHz | GPIO_CNF_OUT_OD_AF)<<(4*GPIO_PinSource4);
 168:	4314                	lw	a3,0(a4)
 16a:	000d0637          	lui	a2,0xd0
 16e:	8ed1                	or	a3,a3,a2
 170:	c314                	sw	a3,0(a4)
	GPIOA->CFGLR &= ~(0xf<<(4*GPIO_PinSource1));
 172:	80072683          	lw	a3,-2048(a4) # 40010800 <__global_pointer$+0x2000fec0>
	GPIOC->CFGLR |= (GPIO_Speed_10MHz | GPIO_CNF_OUT_OD_AF)<<(4*GPIO_PinSource2);
 176:	d0038613          	addi	a2,t2,-768
	GPIOA->CFGLR &= ~(0xf<<(4*GPIO_PinSource1));
 17a:	f0f6f693          	andi	a3,a3,-241
 17e:	80d72023          	sw	a3,-2048(a4)
	GPIOA->CFGLR |= (GPIO_Speed_10MHz | GPIO_CNF_OUT_OD_AF)<<(4*GPIO_PinSource1);
 182:	80072683          	lw	a3,-2048(a4)
 186:	0d06e693          	ori	a3,a3,208
 18a:	80d72023          	sw	a3,-2048(a4)
	GPIOC->CFGLR &= ~(0xf<<(4*GPIO_PinSource2));
 18e:	4314                	lw	a3,0(a4)
 190:	0066f6b3          	and	a3,a3,t1
 194:	c314                	sw	a3,0(a4)
	GPIOC->CFGLR |= (GPIO_Speed_10MHz | GPIO_CNF_OUT_OD_AF)<<(4*GPIO_PinSource2);
 196:	4314                	lw	a3,0(a4)
 198:	8ed1                	or	a3,a3,a2
 19a:	c314                	sw	a3,0(a4)
	GPIOC->CFGLR &= ~(0xf<<(4*GPIO_PinSource1));
 19c:	4314                	lw	a3,0(a4)
	AFIO->PCFR1 |= AFIO_PCFR1_TIM2_REMAP_PARTIALREMAP1;
 19e:	40010637          	lui	a2,0x40010
	GPIOC->CFGLR &= ~(0xf<<(4*GPIO_PinSource1));
 1a2:	f0f6f693          	andi	a3,a3,-241
 1a6:	c314                	sw	a3,0(a4)
	GPIOC->CFGLR |= (GPIO_Speed_10MHz | GPIO_CNF_OUT_OD_AF)<<(4*GPIO_PinSource1);
 1a8:	4314                	lw	a3,0(a4)
 1aa:	0d06e693          	ori	a3,a3,208
 1ae:	c314                	sw	a3,0(a4)
	AFIO->PCFR1 |= AFIO_PCFR1_TIM2_REMAP_PARTIALREMAP1;
 1b0:	4254                	lw	a3,4(a2)
 1b2:	1006e693          	ori	a3,a3,256
 1b6:	c254                	sw	a3,4(a2)
	TIM1->PSC = 0x0000;
 1b8:	c2029423          	sh	zero,-984(t0) # 40012c28 <__global_pointer$+0x200122e8>
	TIM2->PSC = 0x0000;
 1bc:	400006b7          	lui	a3,0x40000
 1c0:	02069423          	sh	zero,40(a3) # 40000028 <__global_pointer$+0x1ffff6e8>
	TIM1->ATRLR = 255;
 1c4:	c2b29623          	sh	a1,-980(t0)
	TIM2->ATRLR = 255;
 1c8:	02b69623          	sh	a1,44(a3)
	TIM1->SWEVGR |= TIM_UG;
 1cc:	c142d583          	lhu	a1,-1004(t0)
 1d0:	05c2                	slli	a1,a1,0x10
 1d2:	81c1                	srli	a1,a1,0x10
 1d4:	0015e593          	ori	a1,a1,1
 1d8:	c0b29a23          	sh	a1,-1004(t0)
	TIM2->SWEVGR |= TIM_UG;
 1dc:	0146d583          	lhu	a1,20(a3)
 1e0:	05c2                	slli	a1,a1,0x10
 1e2:	81c1                	srli	a1,a1,0x10
 1e4:	0015e593          	ori	a1,a1,1
 1e8:	00b69a23          	sh	a1,20(a3)
	TIM1->CTLR1 |= TIM_ARPE;
 1ec:	c002d583          	lhu	a1,-1024(t0)
 1f0:	05c2                	slli	a1,a1,0x10
 1f2:	81c1                	srli	a1,a1,0x10
 1f4:	0805e593          	ori	a1,a1,128
 1f8:	c0b29023          	sh	a1,-1024(t0)
	TIM2->CTLR1 |= TIM_ARPE;
 1fc:	0006d583          	lhu	a1,0(a3)
 200:	05c2                	slli	a1,a1,0x10
 202:	81c1                	srli	a1,a1,0x10
 204:	0805e593          	ori	a1,a1,128
 208:	00b69023          	sh	a1,0(a3)
	TIM1->CH2CVR = 16; //T1CH2/PA1/pin1
 20c:	45c1                	li	a1,16
 20e:	c2b2ac23          	sw	a1,-968(t0)
	TIM1->CH4CVR = 16; //T1CH4/PC4/pin7
 212:	c4b2a023          	sw	a1,-960(t0)
	TIM2->CH2CVR = 16; //T2CH2/PC2/pin6*
 216:	de8c                	sw	a1,56(a3)
	TIM2->CH4CVR = 16; //T2CH4/PC1/pin5*
 218:	c2ac                	sw	a1,64(a3)
	TIM1->CCER |= TIM_CC2E | TIM_CC2P;	// Enable T1CH2 output, positive pol
 21a:	c202d583          	lhu	a1,-992(t0)
 21e:	05c2                	slli	a1,a1,0x10
 220:	81c1                	srli	a1,a1,0x10
 222:	0305e593          	ori	a1,a1,48
 226:	c2b29023          	sh	a1,-992(t0)
	TIM1->CCER |= TIM_CC4E | TIM_CC4P;	// Enable T1CH4 output, positive pol
 22a:	c202d503          	lhu	a0,-992(t0)
 22e:	0542                	slli	a0,a0,0x10
 230:	8141                	srli	a0,a0,0x10
 232:	00156533          	or	a0,a0,ra
 236:	0542                	slli	a0,a0,0x10
 238:	8141                	srli	a0,a0,0x10
 23a:	c2a29023          	sh	a0,-992(t0)
	TIM2->CCER |= TIM_CC2E | TIM_CC2P;	// Enable T2CH2 output, positive pol
 23e:	0206d583          	lhu	a1,32(a3)
 242:	05c2                	slli	a1,a1,0x10
 244:	81c1                	srli	a1,a1,0x10
 246:	0305e593          	ori	a1,a1,48
 24a:	02b69023          	sh	a1,32(a3)
	TIM2->CCER |= TIM_CC4E | TIM_CC4P;	// Enable T2CH4 output, positive pol
 24e:	0206d583          	lhu	a1,32(a3)
 252:	05c2                	slli	a1,a1,0x10
 254:	81c1                	srli	a1,a1,0x10
 256:	0015e5b3          	or	a1,a1,ra
 25a:	05c2                	slli	a1,a1,0x10
 25c:	81c1                	srli	a1,a1,0x10
 25e:	02b69023          	sh	a1,32(a3)
	TIM1->CHCTLR1 |= TIM_OC2M_2 | TIM_OC2M_1;	// CH2 Mode is output, PWM1 (CC1S = 00, OC1M = 110)
 262:	c182d503          	lhu	a0,-1000(t0)
 266:	6099                	lui	ra,0x6
 268:	0542                	slli	a0,a0,0x10
 26a:	8141                	srli	a0,a0,0x10
 26c:	00156533          	or	a0,a0,ra
 270:	0542                	slli	a0,a0,0x10
 272:	8141                	srli	a0,a0,0x10
 274:	c0a29c23          	sh	a0,-1000(t0)
	TIM1->CHCTLR2 |= TIM_OC4M_2 | TIM_OC4M_1;	// CH4 Mode is output, PWM1 (CC1S = 00, OC1M = 110)
 278:	c1c2d583          	lhu	a1,-996(t0)
 27c:	05c2                	slli	a1,a1,0x10
 27e:	81c1                	srli	a1,a1,0x10
 280:	0015e5b3          	or	a1,a1,ra
 284:	05c2                	slli	a1,a1,0x10
 286:	81c1                	srli	a1,a1,0x10
 288:	c0b29e23          	sh	a1,-996(t0)
	TIM2->CHCTLR1 |= TIM_OC2M_2 | TIM_OC2M_1 | TIM_OC2PE;
 28c:	0186d503          	lhu	a0,24(a3)
 290:	659d                	lui	a1,0x7
 292:	80058093          	addi	ra,a1,-2048 # 6800 <wiring.c.7604182b+0x3e07>
 296:	0542                	slli	a0,a0,0x10
 298:	8141                	srli	a0,a0,0x10
 29a:	00156533          	or	a0,a0,ra
 29e:	0542                	slli	a0,a0,0x10
 2a0:	8141                	srli	a0,a0,0x10
 2a2:	00a69c23          	sh	a0,24(a3)
	TIM2->CHCTLR2 |= TIM_OC4M_2 | TIM_OC4M_1 | TIM_OC4PE;
 2a6:	01c6d583          	lhu	a1,28(a3)
	TIM1->BDTR  |= TIM_MOE;	// Brake and deadband registers
 2aa:	6521                	lui	a0,0x8
	TIM2->CHCTLR2 |= TIM_OC4M_2 | TIM_OC4M_1 | TIM_OC4PE;
 2ac:	05c2                	slli	a1,a1,0x10
 2ae:	81c1                	srli	a1,a1,0x10
 2b0:	0015e5b3          	or	a1,a1,ra
 2b4:	05c2                	slli	a1,a1,0x10
 2b6:	81c1                	srli	a1,a1,0x10
 2b8:	00b69e23          	sh	a1,28(a3)
	TIM1->BDTR  |= TIM_MOE;	// Brake and deadband registers
 2bc:	c442d583          	lhu	a1,-956(t0)
 2c0:	05c2                	slli	a1,a1,0x10
 2c2:	81c1                	srli	a1,a1,0x10
 2c4:	8dc9                	or	a1,a1,a0
 2c6:	c4b29223          	sh	a1,-956(t0)
	TIM1->CTLR1 |= TIM_CEN;	// Enable TIM1
 2ca:	c002d603          	lhu	a2,-1024(t0)
 2ce:	0642                	slli	a2,a2,0x10
 2d0:	8241                	srli	a2,a2,0x10
 2d2:	00166613          	ori	a2,a2,1
 2d6:	c0c29023          	sh	a2,-1024(t0)
	TIM2->CTLR1 |= TIM_CEN;	// Enable TIM2
 2da:	0006d603          	lhu	a2,0(a3)
 2de:	0642                	slli	a2,a2,0x10
 2e0:	8241                	srli	a2,a2,0x10
 2e2:	00166613          	ori	a2,a2,1
 2e6:	00c69023          	sh	a2,0(a3)
	SysTick->CTLR = 0;
 2ea:	e000f6b7          	lui	a3,0xe000f
 2ee:	0006a023          	sw	zero,0(a3) # e000f000 <__global_pointer$+0xc000e6c0>
 *
 * @return  none
 */
RV_STATIC_INLINE void NVIC_EnableIRQ(IRQn_Type IRQn)
{
  NVIC->IENR[((uint32_t)(IRQn) >> 5)] = (1 << ((uint32_t)(IRQn) & 0x1F));
 2f2:	e000e637          	lui	a2,0xe000e
 2f6:	10762023          	sw	t2,256(a2) # e000e100 <__global_pointer$+0xc000d7c0>
	SysTick->CMP = (SYSTEM_CORE_CLOCK/SYSTICKHZ)-1;
 2fa:	6631                	lui	a2,0xc
 2fc:	b7f60613          	addi	a2,a2,-1153 # bb7f <wiring.c.7604182b+0x9186>
 300:	ca90                	sw	a2,16(a3)
	SysTick->CNT = 0;
 302:	0006a423          	sw	zero,8(a3)
	SysTick->CTLR = SYSTICK_CTLR_STE | SYSTICK_CTLR_STIE |
 306:	461d                	li	a2,7
 308:	c290                	sw	a2,0(a3)
	RCC->CFGR0 &= ~(0x1F<<11);
 30a:	43d4                	lw	a3,4(a5)
 30c:	7641                	lui	a2,0xffff0
 30e:	7ff60613          	addi	a2,a2,2047 # ffff07ff <__global_pointer$+0xdffefebf>
 312:	8ef1                	and	a3,a3,a2
 314:	c3d4                	sw	a3,4(a5)
	RCC->APB2PCENR |= RCC_APB2Periph_GPIOA | RCC_APB2Periph_ADC1;
 316:	4f94                	lw	a3,24(a5)
 318:	2046e693          	ori	a3,a3,516
 31c:	cf94                	sw	a3,24(a5)
	GPIOA->CFGLR &= ~(0xf<<(4*GPIO_PinSource2));	// CNF = 00: Analog, MODE = 00: Input
 31e:	80072683          	lw	a3,-2048(a4)
 322:	0066f333          	and	t1,a3,t1
 326:	80672023          	sw	t1,-2048(a4)
	RCC->APB2PRSTR |= RCC_APB2Periph_ADC1;
 32a:	47d8                	lw	a4,12(a5)
	ADC1->CTLR2 |= ADC_ADON | ADC_EXTSEL;
 32c:	000e06b7          	lui	a3,0xe0
 330:	0685                	addi	a3,a3,1
	RCC->APB2PRSTR |= RCC_APB2Periph_ADC1;
 332:	20076713          	ori	a4,a4,512
 336:	c7d8                	sw	a4,12(a5)
	RCC->APB2PRSTR &= ~RCC_APB2Periph_ADC1;
 338:	47d8                	lw	a4,12(a5)
 33a:	dff77713          	andi	a4,a4,-513
 33e:	c7d8                	sw	a4,12(a5)
	ADC1->RSQR1 = 0;
 340:	400127b7          	lui	a5,0x40012
 344:	4207a623          	sw	zero,1068(a5) # 4001242c <__global_pointer$+0x20011aec>
	ADC1->RSQR2 = 0;
 348:	4207a823          	sw	zero,1072(a5)
	ADC1->RSQR3 = ADC_Channel_0;	// 0-9 for 8 ext inputs and two internals
 34c:	4207aa23          	sw	zero,1076(a5)
	ADC1->SAMPTR2 &= ~ADC_SMP2;
 350:	4107a703          	lw	a4,1040(a5)
 354:	e3f77713          	andi	a4,a4,-449
 358:	40e7a823          	sw	a4,1040(a5)
	ADC1->SAMPTR2 |= ( ADC_SampleTime_3Cycles << (3 * ADC_Channel_0 ) );	// 0:7 => 3/9/15/30/43/57/73/241 cycles
 35c:	4107a703          	lw	a4,1040(a5)
 360:	40e7a823          	sw	a4,1040(a5)
	ADC1->CTLR2 |= ADC_ADON | ADC_EXTSEL;
 364:	4087a703          	lw	a4,1032(a5)
 368:	8f55                	or	a4,a4,a3
 36a:	40e7a423          	sw	a4,1032(a5)
	ADC1->CTLR2 |= ADC_RSTCAL;
 36e:	4087a703          	lw	a4,1032(a5)
	while(ADC1->CTLR2 & ADC_RSTCAL);
 372:	400126b7          	lui	a3,0x40012
	ADC1->CTLR2 |= ADC_RSTCAL;
 376:	00876713          	ori	a4,a4,8
 37a:	40e7a423          	sw	a4,1032(a5)
	while(ADC1->CTLR2 & ADC_RSTCAL);
 37e:	4086a703          	lw	a4,1032(a3) # 40012408 <__global_pointer$+0x20011ac8>
 382:	8b21                	andi	a4,a4,8
 384:	ff6d                	bnez	a4,37e <main+0x2ba>
	ADC1->CTLR2 |= ADC_CAL;
 386:	4086a703          	lw	a4,1032(a3)
 38a:	00476713          	ori	a4,a4,4
 38e:	40e6a423          	sw	a4,1032(a3)
	while(ADC1->CTLR2 & ADC_CAL);
 392:	40012737          	lui	a4,0x40012
 396:	40872783          	lw	a5,1032(a4) # 40012408 <__global_pointer$+0x20011ac8>
 39a:	8b91                	andi	a5,a5,4
 39c:	ffed                	bnez	a5,396 <main+0x2d2>

       // static uint8_t currentgroup = 0; //the common anode group of LEDs are being worked on

	while(1){
                int Delay = adc_get();
                Delay_Ms(( Delay >> 3 ) + 5 );
 39e:	6609                	lui	a2,0x2
 3a0:	65b1                	lui	a1,0xc
                int temp=LEDs[0].brightness;
 3a2:	20000437          	lui	s0,0x20000
	ADC1->CTLR2 |= ADC_SWSTART;
 3a6:	400124b7          	lui	s1,0x40012
 3aa:	004002b7          	lui	t0,0x400

#endif

void DelaySysTick( uint32_t n )
{
	uint32_t targend = SysTick->CNT + n;
 3ae:	e000f337          	lui	t1,0xe000f
                Delay_Ms(( Delay >> 3 ) + 5 );
 3b2:	167d                	addi	a2,a2,-1
 3b4:	b8058593          	addi	a1,a1,-1152 # bb80 <wiring.c.7604182b+0x9187>
                int temp=LEDs[0].brightness;
 3b8:	00040413          	mv	s0,s0
	ADC1->CTLR2 |= ADC_SWSTART;
 3bc:	4084a783          	lw	a5,1032(s1) # 40012408 <__global_pointer$+0x20011ac8>
 3c0:	0057e7b3          	or	a5,a5,t0
 3c4:	40f4a423          	sw	a5,1032(s1)
	while(!(ADC1->STATR & ADC_EOC));
 3c8:	4004a783          	lw	a5,1024(s1)
 3cc:	8b89                	andi	a5,a5,2
 3ce:	dfed                	beqz	a5,3c8 <main+0x304>
	return ADC1->RDATAR;
 3d0:	44c4a503          	lw	a0,1100(s1)
 3d4:	00832783          	lw	a5,8(t1) # e000f008 <__global_pointer$+0xc000e6c8>
                Delay_Ms(( Delay >> 3 ) + 5 );
 3d8:	850d                	srai	a0,a0,0x3
 3da:	8d71                	and	a0,a0,a2
 3dc:	0515                	addi	a0,a0,5
 3de:	c03e                	sw	a5,0(sp)
 3e0:	31c1                	jal	a0 <__mulsi3>
 3e2:	4782                	lw	a5,0(sp)
 3e4:	6709                	lui	a4,0x2
 3e6:	fff70613          	addi	a2,a4,-1 # 1fff <main_pwm.c.3eb49e96+0x243>
 3ea:	6731                	lui	a4,0xc
 3ec:	97aa                	add	a5,a5,a0
 3ee:	004002b7          	lui	t0,0x400
 3f2:	e000f337          	lui	t1,0xe000f
 3f6:	b8070593          	addi	a1,a4,-1152 # bb80 <wiring.c.7604182b+0x9187>
	while( ((int32_t)( SysTick->CNT - targend )) < 0 );
 3fa:	00832703          	lw	a4,8(t1) # e000f008 <__global_pointer$+0xc000e6c8>
 3fe:	8f1d                	sub	a4,a4,a5
 400:	fe074de3          	bltz	a4,3fa <main+0x336>
                int temp=LEDs[0].brightness;
 404:	00844683          	lbu	a3,8(s0) # 20000008 <LEDs+0x8>
                for(int i=1; i<12; i++){
 408:	4705                	li	a4,1
 40a:	43b1                	li	t2,12
                int temp=LEDs[0].brightness;
 40c:	0ff6f693          	andi	a3,a3,255
                        LEDs[i-1].brightness=LEDs[i].brightness;
 410:	00171793          	slli	a5,a4,0x1
 414:	97ba                	add	a5,a5,a4
 416:	078a                	slli	a5,a5,0x2
 418:	fff70093          	addi	ra,a4,-1
 41c:	97a2                	add	a5,a5,s0
 41e:	0087c503          	lbu	a0,8(a5)
 422:	00109793          	slli	a5,ra,0x1
 426:	9786                	add	a5,a5,ra
 428:	078a                	slli	a5,a5,0x2
 42a:	0ff57513          	andi	a0,a0,255
 42e:	97a2                	add	a5,a5,s0
 430:	00a78423          	sb	a0,8(a5)
                for(int i=1; i<12; i++){
 434:	0705                	addi	a4,a4,1
 436:	fc771de3          	bne	a4,t2,410 <main+0x34c>
                }
                LEDs[11].brightness=temp;
 43a:	08d40623          	sb	a3,140(s0)
	while(1){
 43e:	bfbd                	j	3bc <main+0x2f8>

00000440 <handle_reset>:
	asm volatile( "\n\
 440:	20000197          	auipc	gp,0x20000
 444:	50018193          	addi	gp,gp,1280 # 20000940 <__global_pointer$>
 448:	ec018113          	addi	sp,gp,-320 # 20000800 <_eusrstack>
 44c:	08000513          	li	a0,128
 450:	30051073          	csrw	mstatus,a0
 454:	468d                	li	a3,3
 456:	80469073          	csrw	0x804,a3
 45a:	00000517          	auipc	a0,0x0
 45e:	ba650513          	addi	a0,a0,-1114 # 0 <InterruptVector>
 462:	8d55                	or	a0,a0,a3
 464:	30551073          	csrw	mtvec,a0
asm volatile(
 468:	20000517          	auipc	a0,0x20000
 46c:	cd850513          	addi	a0,a0,-808 # 20000140 <currentgroup.0>
 470:	20000597          	auipc	a1,0x20000
 474:	cd458593          	addi	a1,a1,-812 # 20000144 <_ebss>
 478:	4601                	li	a2,0
 47a:	00b55663          	bge	a0,a1,486 <handle_reset+0x46>
 47e:	c110                	sw	a2,0(a0)
 480:	0511                	addi	a0,a0,4
 482:	feb54ee3          	blt	a0,a1,47e <handle_reset+0x3e>
 486:	7d400513          	li	a0,2004
 48a:	20000597          	auipc	a1,0x20000
 48e:	b7658593          	addi	a1,a1,-1162 # 20000000 <LEDs>
 492:	20000617          	auipc	a2,0x20000
 496:	cae60613          	addi	a2,a2,-850 # 20000140 <currentgroup.0>
 49a:	00c58863          	beq	a1,a2,4aa <handle_reset+0x6a>
 49e:	4114                	lw	a3,0(a0)
 4a0:	c194                	sw	a3,0(a1)
 4a2:	0511                	addi	a0,a0,4
 4a4:	0591                	addi	a1,a1,4
 4a6:	fec59ae3          	bne	a1,a2,49a <handle_reset+0x5a>
	SETUP_SYSTICK_HCLK
 4aa:	e000f7b7          	lui	a5,0xe000f
 4ae:	4705                	li	a4,1
 4b0:	c398                	sw	a4,0(a5)
asm volatile(
 4b2:	0c400793          	li	a5,196
 4b6:	34179073          	csrw	mepc,a5
 4ba:	30200073          	mret

000004be <ADC1_IRQHandler>:
	asm volatile( "1: j 1b" );
 4be:	a001                	j	4be <ADC1_IRQHandler>

000004c0 <SysTick_Handler>:
{
 4c0:	fc810113          	addi	sp,sp,-56
 4c4:	00f12623          	sw	a5,12(sp)
	SysTick->CMP += (SYSTEM_CORE_CLOCK/SYSTICKHZ); 
 4c8:	e000f7b7          	lui	a5,0xe000f
{
 4cc:	00e12823          	sw	a4,16(sp)
	SysTick->CMP += (SYSTEM_CORE_CLOCK/SYSTICKHZ); 
 4d0:	0107a703          	lw	a4,16(a5) # e000f010 <__global_pointer$+0xc000e6d0>
{
 4d4:	00d12a23          	sw	a3,20(sp)
	SysTick->CMP += (SYSTEM_CORE_CLOCK/SYSTICKHZ); 
 4d8:	0000c6b7          	lui	a3,0xc
 4dc:	b8068693          	addi	a3,a3,-1152 # bb80 <wiring.c.7604182b+0x9187>
{
 4e0:	02612823          	sw	t1,48(sp)
 4e4:	02812423          	sw	s0,40(sp)
 4e8:	02912223          	sw	s1,36(sp)
 4ec:	00b12e23          	sw	a1,28(sp)
	SysTick->CMP += (SYSTEM_CORE_CLOCK/SYSTICKHZ); 
 4f0:	00d70733          	add	a4,a4,a3
{
 4f4:	02512a23          	sw	t0,52(sp)
 4f8:	02712623          	sw	t2,44(sp)
 4fc:	02a12023          	sw	a0,32(sp)
 500:	00c12c23          	sw	a2,24(sp)
	SysTick->CMP += (SYSTEM_CORE_CLOCK/SYSTICKHZ); 
 504:	00e7a823          	sw	a4,16(a5)
	SysTick->SR = 0;
 508:	0007a223          	sw	zero,4(a5)
		GPIO_Float(	LEDs[group[currentgroup][i]].cathode->port,
 50c:	200006b7          	lui	a3,0x20000
 510:	1406c703          	lbu	a4,320(a3) # 20000140 <currentgroup.0>
 514:	7c800793          	li	a5,1992
 518:	00171313          	slli	t1,a4,0x1
 51c:	00f12023          	sw	a5,0(sp)
 520:	200007b7          	lui	a5,0x20000
 524:	00e30333          	add	t1,t1,a4
	for(int i=0;i<3;i++){
 528:	00000593          	li	a1,0
		GPIO_Float(	LEDs[group[currentgroup][i]].cathode->port,
 52c:	00078413          	mv	s0,a5
        port->CFGLR &= ~(0xf<<(4*pin)); //clear GPIO config - default config is as an input, Hi-Z
 530:	00f00493          	li	s1,15
		GPIO_Float(	LEDs[group[currentgroup][i]].cathode->port,
 534:	00012603          	lw	a2,0(sp)
 538:	006587b3          	add	a5,a1,t1
	for(int i=0;i<3;i++){
 53c:	00158593          	addi	a1,a1,1
		GPIO_Float(	LEDs[group[currentgroup][i]].cathode->port,
 540:	00f607b3          	add	a5,a2,a5
 544:	0007c783          	lbu	a5,0(a5) # 20000000 <LEDs>
 548:	00179613          	slli	a2,a5,0x1
 54c:	00f60633          	add	a2,a2,a5
 550:	00261613          	slli	a2,a2,0x2
 554:	00c40633          	add	a2,s0,a2
 558:	00462783          	lw	a5,4(a2)
 55c:	0007a283          	lw	t0,0(a5)
				LEDs[group[currentgroup][i]].cathode->pin,
 560:	00462783          	lw	a5,4(a2)
				LEDs[group[currentgroup][i]].cathode->timer,
 564:	00462503          	lw	a0,4(a2)
				LEDs[group[currentgroup][i]].cathode->channel
 568:	00462603          	lw	a2,4(a2)
		GPIO_Float(	LEDs[group[currentgroup][i]].cathode->port,
 56c:	0047c783          	lbu	a5,4(a5)
 570:	00852383          	lw	t2,8(a0)
        timer->CCER &= ~channel;        //disable this channel output
 574:	00c65603          	lhu	a2,12(a2)
        port->CFGLR &= ~(0xf<<(4*pin)); //clear GPIO config - default config is as an input, Hi-Z
 578:	00279793          	slli	a5,a5,0x2
        timer->CCER &= ~channel;        //disable this channel output
 57c:	0203d503          	lhu	a0,32(t2)
 580:	fff64613          	not	a2,a2
        port->CFGLR &= ~(0xf<<(4*pin)); //clear GPIO config - default config is as an input, Hi-Z
 584:	00f497b3          	sll	a5,s1,a5
        timer->CCER &= ~channel;        //disable this channel output
 588:	01051513          	slli	a0,a0,0x10
 58c:	01055513          	srli	a0,a0,0x10
 590:	00a67633          	and	a2,a2,a0
 594:	02c39023          	sh	a2,32(t2)
        port->CFGLR &= ~(0xf<<(4*pin)); //clear GPIO config - default config is as an input, Hi-Z
 598:	0002a603          	lw	a2,0(t0) # 400000 <wiring.c.7604182b+0x3fd607>
 59c:	fff7c793          	not	a5,a5
 5a0:	00c7f7b3          	and	a5,a5,a2
 5a4:	00f2a023          	sw	a5,0(t0)
	for(int i=0;i<3;i++){
 5a8:	00300793          	li	a5,3
 5ac:	f8f594e3          	bne	a1,a5,534 <SysTick_Handler+0x74>
	if(++currentgroup == 4) currentgroup=0;
 5b0:	00170713          	addi	a4,a4,1
 5b4:	0ff77713          	andi	a4,a4,255
 5b8:	00400793          	li	a5,4
 5bc:	1ef70063          	beq	a4,a5,79c <SysTick_Handler+0x2dc>
 5c0:	14e68023          	sb	a4,320(a3)
		pwm_setpw(	LEDs[group[currentgroup][i]].cathode->timer,
 5c4:	1406c483          	lbu	s1,320(a3)
 5c8:	00012703          	lw	a4,0(sp)
 5cc:	00000693          	li	a3,0
 5d0:	00149793          	slli	a5,s1,0x1
 5d4:	00f12423          	sw	a5,8(sp)
 5d8:	009787b3          	add	a5,a5,s1
 5dc:	00f707b3          	add	a5,a4,a5
 5e0:	00f12223          	sw	a5,4(sp)
    	switch( chl )
 5e4:	10000593          	li	a1,256
 5e8:	00001337          	lui	t1,0x1
 5ec:	00100293          	li	t0,1
 5f0:	01000393          	li	t2,16
	for(int i=0;i<3;i++){
 5f4:	00300513          	li	a0,3
		pwm_setpw(	LEDs[group[currentgroup][i]].cathode->timer,
 5f8:	00412783          	lw	a5,4(sp)
 5fc:	00d787b3          	add	a5,a5,a3
 600:	0007c703          	lbu	a4,0(a5)
 604:	00171793          	slli	a5,a4,0x1
 608:	00e787b3          	add	a5,a5,a4
 60c:	00279793          	slli	a5,a5,0x2
 610:	00f407b3          	add	a5,s0,a5
 614:	0047a703          	lw	a4,4(a5)
 618:	00872603          	lw	a2,8(a4)
				LEDs[group[currentgroup][i]].cathode->channel,
 61c:	0047a703          	lw	a4,4(a5)
				LEDs[group[currentgroup][i]].brightness
 620:	0087c783          	lbu	a5,8(a5)
		pwm_setpw(	LEDs[group[currentgroup][i]].cathode->timer,
 624:	00c75703          	lhu	a4,12(a4)
				LEDs[group[currentgroup][i]].brightness
 628:	0ff7f793          	andi	a5,a5,255
    	switch( chl )
 62c:	18b70a63          	beq	a4,a1,7c0 <SysTick_Handler+0x300>
 630:	16e5ea63          	bltu	a1,a4,7a4 <SysTick_Handler+0x2e4>
 634:	16570e63          	beq	a4,t0,7b0 <SysTick_Handler+0x2f0>
 638:	18770063          	beq	a4,t2,7b8 <SysTick_Handler+0x2f8>
	for(int i=0;i<3;i++){
 63c:	00168693          	addi	a3,a3,1
 640:	faa69ce3          	bne	a3,a0,5f8 <SysTick_Handler+0x138>
	for(int i=0;i<3;i++){
 644:	00000613          	li	a2,0
        port->CFGLR &= ~(0xf<<(4*pin)); //clear GPIO config - this appears to be necessary. 
 648:	00f00793          	li	a5,15
        port->CFGLR |= (GPIO_Speed_10MHz | GPIO_CNF_OUT_OD_AF)<<(4*pin);//Sets mode to OD_AF
 64c:	00d00393          	li	t2,13
		GPIO_PWM(	LEDs[group[currentgroup][i]].cathode->port,
 650:	00412703          	lw	a4,4(sp)
 654:	00c70733          	add	a4,a4,a2
 658:	00074703          	lbu	a4,0(a4)
	for(int i=0;i<3;i++){
 65c:	00160613          	addi	a2,a2,1
		GPIO_PWM(	LEDs[group[currentgroup][i]].cathode->port,
 660:	00171693          	slli	a3,a4,0x1
 664:	00e686b3          	add	a3,a3,a4
 668:	00269693          	slli	a3,a3,0x2
 66c:	00d406b3          	add	a3,s0,a3
 670:	0046a703          	lw	a4,4(a3)
 674:	00072583          	lw	a1,0(a4)
				LEDs[group[currentgroup][i]].cathode->pin,
 678:	0046a703          	lw	a4,4(a3)
				LEDs[group[currentgroup][i]].cathode->timer,
 67c:	0046a503          	lw	a0,4(a3)
				LEDs[group[currentgroup][i]].cathode->channel
 680:	0046a683          	lw	a3,4(a3)
        port->CFGLR &= ~(0xf<<(4*pin)); //clear GPIO config - this appears to be necessary. 
 684:	00474703          	lbu	a4,4(a4)
		GPIO_PWM(	LEDs[group[currentgroup][i]].cathode->port,
 688:	00852303          	lw	t1,8(a0)
 68c:	00c6d503          	lhu	a0,12(a3)
        port->CFGLR &= ~(0xf<<(4*pin)); //clear GPIO config - this appears to be necessary. 
 690:	0005a683          	lw	a3,0(a1)
 694:	00271713          	slli	a4,a4,0x2
 698:	00068293          	mv	t0,a3
 69c:	00e796b3          	sll	a3,a5,a4
 6a0:	fff6c693          	not	a3,a3
 6a4:	0056f6b3          	and	a3,a3,t0
 6a8:	00d5a023          	sw	a3,0(a1)
        port->CFGLR |= (GPIO_Speed_10MHz | GPIO_CNF_OUT_OD_AF)<<(4*pin);//Sets mode to OD_AF
 6ac:	0005a683          	lw	a3,0(a1)
 6b0:	00e39733          	sll	a4,t2,a4
 6b4:	00d76733          	or	a4,a4,a3
 6b8:	00e5a023          	sw	a4,0(a1)
        timer->CCER |= channel;         //enable this channel output
 6bc:	02035703          	lhu	a4,32(t1) # 1020 <ch32v003fun.c.8affbd33+0x19e>
 6c0:	01071713          	slli	a4,a4,0x10
 6c4:	01075713          	srli	a4,a4,0x10
 6c8:	00e56733          	or	a4,a0,a4
 6cc:	02e31023          	sh	a4,32(t1)
	for(int i=0;i<3;i++){
 6d0:	00300713          	li	a4,3
 6d4:	f6e61ee3          	bne	a2,a4,650 <SysTick_Handler+0x190>
	GPIO_High(	LEDs[group[currentgroup][0]].anode->port,
 6d8:	00812703          	lw	a4,8(sp)
}
 6dc:	03412283          	lw	t0,52(sp)
 6e0:	02c12383          	lw	t2,44(sp)
	GPIO_High(	LEDs[group[currentgroup][0]].anode->port,
 6e4:	009704b3          	add	s1,a4,s1
 6e8:	00012703          	lw	a4,0(sp)
 6ec:	009704b3          	add	s1,a4,s1
 6f0:	0004c683          	lbu	a3,0(s1)
}
 6f4:	02412483          	lw	s1,36(sp)
	GPIO_High(	LEDs[group[currentgroup][0]].anode->port,
 6f8:	00169713          	slli	a4,a3,0x1
 6fc:	00d70733          	add	a4,a4,a3
 700:	00271713          	slli	a4,a4,0x2
 704:	00e40733          	add	a4,s0,a4
 708:	00072683          	lw	a3,0(a4)
			LEDs[group[currentgroup][0]].anode->pin,
 70c:	00072603          	lw	a2,0(a4)
			LEDs[group[currentgroup][0]].anode->timer,
 710:	00072583          	lw	a1,0(a4)
			LEDs[group[currentgroup][0]].anode->channel
 714:	00072303          	lw	t1,0(a4)
	GPIO_High(	LEDs[group[currentgroup][0]].anode->port,
 718:	0006a683          	lw	a3,0(a3)
 71c:	0085a503          	lw	a0,8(a1)
 720:	00464603          	lbu	a2,4(a2)
}
 724:	02812403          	lw	s0,40(sp)
        timer->CCER &= ~channel;        //disable this channel output
 728:	02055703          	lhu	a4,32(a0)
 72c:	01071593          	slli	a1,a4,0x10
 730:	00c35703          	lhu	a4,12(t1)
 734:	0105d593          	srli	a1,a1,0x10
}
 738:	03012303          	lw	t1,48(sp)
        timer->CCER &= ~channel;        //disable this channel output
 73c:	fff74713          	not	a4,a4
 740:	00b77733          	and	a4,a4,a1
 744:	02e51023          	sh	a4,32(a0)
        port->CFGLR &= ~(0xf<<(4*pin)); //clear GPIO config - this appears to be necessary. 
 748:	0006a583          	lw	a1,0(a3)
 74c:	00261713          	slli	a4,a2,0x2
 750:	00e797b3          	sll	a5,a5,a4
 754:	fff7c793          	not	a5,a5
 758:	00b7f7b3          	and	a5,a5,a1
 75c:	00f6a023          	sw	a5,0(a3)
        port->CFGLR |= (GPIO_Speed_10MHz | GPIO_CNF_OUT_PP)<<(4*pin); //Sets output mode to GPIO, PP
 760:	0006a583          	lw	a1,0(a3)
 764:	00100793          	li	a5,1
 768:	00e79733          	sll	a4,a5,a4
 76c:	00b76733          	or	a4,a4,a1
 770:	00e6a023          	sw	a4,0(a3)
        port->BSHR = (1<<(pin));                //set GPIO 'high'
 774:	00c797b3          	sll	a5,a5,a2
 778:	00f6a823          	sw	a5,16(a3)
}
 77c:	02012503          	lw	a0,32(sp)
 780:	01c12583          	lw	a1,28(sp)
 784:	01812603          	lw	a2,24(sp)
 788:	01412683          	lw	a3,20(sp)
 78c:	01012703          	lw	a4,16(sp)
 790:	00c12783          	lw	a5,12(sp)
 794:	03810113          	addi	sp,sp,56
 798:	30200073          	mret
	if(++currentgroup == 4) currentgroup=0;
 79c:	14068023          	sb	zero,320(a3)
 7a0:	e25ff06f          	j	5c4 <SysTick_Handler+0x104>
    	switch( chl )
 7a4:	e8671ce3          	bne	a4,t1,63c <SysTick_Handler+0x17c>
	    	case TIM_CC4E: timer->CH4CVR = width; break;
 7a8:	04f62023          	sw	a5,64(a2)
 7ac:	e91ff06f          	j	63c <SysTick_Handler+0x17c>
	    	case TIM_CC1E: timer->CH1CVR = width; break;
 7b0:	02f62a23          	sw	a5,52(a2)
 7b4:	e89ff06f          	j	63c <SysTick_Handler+0x17c>
	    	case TIM_CC2E: timer->CH2CVR = width; break;
 7b8:	02f62c23          	sw	a5,56(a2)
 7bc:	e81ff06f          	j	63c <SysTick_Handler+0x17c>
	    	case TIM_CC3E: timer->CH3CVR = width; break;
 7c0:	02f62e23          	sw	a5,60(a2)
 7c4:	e79ff06f          	j	63c <SysTick_Handler+0x17c>

000007c8 <group>:
 7c8:	0300                	addi	s0,sp,384
 7ca:	0109                	addi	sp,sp,2
 7cc:	0b05                	addi	s6,s6,1
 7ce:	0402                	c.slli64	s0
 7d0:	0706                	slli	a4,a4,0x1
 7d2:	0a08                	addi	a0,sp,272

Disassembly of section .data:

20000000 <LEDs>:
20000000:	012c                	addi	a1,sp,136
20000002:	2000                	fld	fs0,0(s0)
20000004:	011c                	addi	a5,sp,128
20000006:	2000                	fld	fs0,0(s0)
20000008:	0010                	0x10
2000000a:	0000                	unimp
2000000c:	011c                	addi	a5,sp,128
2000000e:	2000                	fld	fs0,0(s0)
20000010:	012c                	addi	a1,sp,136
20000012:	2000                	fld	fs0,0(s0)
20000014:	00ff                	0xff
20000016:	0000                	unimp
20000018:	010c                	addi	a1,sp,128
2000001a:	2000                	fld	fs0,0(s0)
2000001c:	012c                	addi	a1,sp,136
2000001e:	2000                	fld	fs0,0(s0)
20000020:	0080                	addi	s0,sp,64
20000022:	0000                	unimp
20000024:	012c                	addi	a1,sp,136
20000026:	2000                	fld	fs0,0(s0)
20000028:	010c                	addi	a1,sp,128
2000002a:	2000                	fld	fs0,0(s0)
2000002c:	0040                	addi	s0,sp,4
2000002e:	0000                	unimp
20000030:	010c                	addi	a1,sp,128
20000032:	2000                	fld	fs0,0(s0)
20000034:	011c                	addi	a5,sp,128
20000036:	2000                	fld	fs0,0(s0)
20000038:	0020                	addi	s0,sp,8
2000003a:	0000                	unimp
2000003c:	011c                	addi	a5,sp,128
2000003e:	2000                	fld	fs0,0(s0)
20000040:	010c                	addi	a1,sp,128
20000042:	2000                	fld	fs0,0(s0)
20000044:	0010                	0x10
20000046:	0000                	unimp
20000048:	010c                	addi	a1,sp,128
2000004a:	2000                	fld	fs0,0(s0)
2000004c:	00fc                	addi	a5,sp,76
2000004e:	2000                	fld	fs0,0(s0)
20000050:	0008                	0x8
20000052:	0000                	unimp
20000054:	00fc                	addi	a5,sp,76
20000056:	2000                	fld	fs0,0(s0)
20000058:	010c                	addi	a1,sp,128
2000005a:	2000                	fld	fs0,0(s0)
2000005c:	0004                	0x4
2000005e:	0000                	unimp
20000060:	00fc                	addi	a5,sp,76
20000062:	2000                	fld	fs0,0(s0)
20000064:	012c                	addi	a1,sp,136
20000066:	2000                	fld	fs0,0(s0)
20000068:	0002                	c.slli64	zero
2000006a:	0000                	unimp
2000006c:	012c                	addi	a1,sp,136
2000006e:	2000                	fld	fs0,0(s0)
20000070:	00fc                	addi	a5,sp,76
20000072:	2000                	fld	fs0,0(s0)
20000074:	0001                	nop
20000076:	0000                	unimp
20000078:	00fc                	addi	a5,sp,76
2000007a:	2000                	fld	fs0,0(s0)
2000007c:	011c                	addi	a5,sp,128
2000007e:	2000                	fld	fs0,0(s0)
20000080:	0000                	unimp
20000082:	0000                	unimp
20000084:	011c                	addi	a5,sp,128
20000086:	2000                	fld	fs0,0(s0)
20000088:	00fc                	addi	a5,sp,76
2000008a:	2000                	fld	fs0,0(s0)
2000008c:	0000                	unimp
	...

20000090 <APBAHBPrescTable.lto_priv.0>:
20000090:	0201                	addi	tp,tp,0
20000092:	06050403          	lb	s0,96(a0)
20000096:	02010807          	0x2010807
2000009a:	06050403          	lb	s0,96(a0)
2000009e:	          	0x4020807

200000a0 <ADCPrescTable.lto_priv.0>:
200000a0:	0402                	c.slli64	s0
200000a2:	0806                	slli	a6,a6,0x1
200000a4:	0804                	addi	s1,sp,16
200000a6:	100c                	addi	a1,sp,32
200000a8:	1008                	addi	a0,sp,32
200000aa:	2018                	fld	fa4,0(s0)
200000ac:	2010                	fld	fa2,0(s0)
200000ae:	4030                	lw	a2,64(s0)
200000b0:	4020                	lw	s0,64(s0)
200000b2:	8060                	0x8060

200000b4 <APBAHBPrescTable.lto_priv.1>:
200000b4:	0201                	addi	tp,tp,0
200000b6:	06050403          	lb	s0,96(a0)
200000ba:	02010807          	0x2010807
200000be:	06050403          	lb	s0,96(a0)
200000c2:	          	0x4020807

200000c4 <ADCPrescTable.lto_priv.1>:
200000c4:	0402                	c.slli64	s0
200000c6:	0806                	slli	a6,a6,0x1
200000c8:	0804                	addi	s1,sp,16
200000ca:	100c                	addi	a1,sp,32
200000cc:	1008                	addi	a0,sp,32
200000ce:	2018                	fld	fa4,0(s0)
200000d0:	2010                	fld	fa2,0(s0)
200000d2:	4030                	lw	a2,64(s0)
200000d4:	4020                	lw	s0,64(s0)
200000d6:	8060                	0x8060

200000d8 <APBAHBPrescTable.lto_priv.2>:
200000d8:	0201                	addi	tp,tp,0
200000da:	06050403          	lb	s0,96(a0)
200000de:	02010807          	0x2010807
200000e2:	06050403          	lb	s0,96(a0)
200000e6:	          	0x4020807

200000e8 <ADCPrescTable.lto_priv.2>:
200000e8:	0402                	c.slli64	s0
200000ea:	0806                	slli	a6,a6,0x1
200000ec:	0804                	addi	s1,sp,16
200000ee:	100c                	addi	a1,sp,32
200000f0:	1008                	addi	a0,sp,32
200000f2:	2018                	fld	fa4,0(s0)
200000f4:	2010                	fld	fa2,0(s0)
200000f6:	4030                	lw	a2,64(s0)
200000f8:	4020                	lw	s0,64(s0)
200000fa:	8060                	0x8060

200000fc <PC2>:
200000fc:	1000                	addi	s0,sp,32
200000fe:	4001                	c.li	zero,0
20000100:	0002                	c.slli64	zero
20000102:	0000                	unimp
20000104:	0000                	unimp
20000106:	4000                	lw	s0,0(s0)
20000108:	0010                	0x10
	...

2000010c <PC1>:
2000010c:	1000                	addi	s0,sp,32
2000010e:	4001                	c.li	zero,0
20000110:	0001                	nop
20000112:	0000                	unimp
20000114:	0000                	unimp
20000116:	4000                	lw	s0,0(s0)
20000118:	1000                	addi	s0,sp,32
	...

2000011c <PA1>:
2000011c:	0800                	addi	s0,sp,16
2000011e:	4001                	c.li	zero,0
20000120:	0001                	nop
20000122:	0000                	unimp
20000124:	2c00                	fld	fs0,24(s0)
20000126:	4001                	c.li	zero,0
20000128:	0010                	0x10
	...

2000012c <PC4>:
2000012c:	1000                	addi	s0,sp,32
2000012e:	4001                	c.li	zero,0
20000130:	0004                	0x4
20000132:	0000                	unimp
20000134:	2c00                	fld	fs0,24(s0)
20000136:	4001                	c.li	zero,0
20000138:	1000                	addi	s0,sp,32
2000013a:	0000                	unimp
2000013c:	0000                	unimp
	...

Disassembly of section .bss:

20000140 <currentgroup.0>:
20000140:	0000                	unimp
	...

Disassembly of section .debug_info:

00000000 <ch32v003fun.c.8affbd33-0xe82>:
	asm volatile( "\n\
       0:	0e7e                	slli	t3,t3,0x1f
       2:	0000                	unimp
       4:	0004                	0x4
       6:	0000                	unimp
       8:	0000                	unimp
       a:	0104                	addi	s1,sp,128
       c:	002c                	addi	a1,sp,8
       e:	0000                	unimp
      10:	cb0c                	sw	a1,16(a4)
      12:	0000                	unimp
      14:	e100                	fsw	fs0,0(a0)
      16:	0000                	unimp
      18:	f800                	fsw	fs0,48(s0)
      1a:	0002                	c.slli64	zero
	...
      24:	0200                	addi	s0,sp,256
      26:	000016d3          	fadd.s	fa3,ft0,ft0,rtz
	...
      32:	9c01                	0x9c01
      34:	006d                	c.nop	27
      36:	0000                	unimp
      38:	0016e403          	0x16e403
      3c:	0000                	unimp
      3e:	0000                	unimp
      40:	0300                	addi	s0,sp,384
      42:	000016ef          	jal	a3,1042 <ch32v003fun.c.8affbd33+0x1c0>
      46:	001e                	c.slli	zero,0x7
      48:	0000                	unimp
      4a:	fc04                	fsw	fs1,56(s0)
      4c:	0016                	c.slli	zero,0x5
      4e:	0100                	addi	s0,sp,128
      50:	055c                	addi	a5,sp,644
      52:	1709                	addi	a4,a4,-30
      54:	0000                	unimp
      56:	0055                	c.nop	21
      58:	0000                	unimp
      5a:	1405                	addi	s0,s0,-31
      5c:	73000017          	auipc	zero,0x73000
      60:	0000                	unimp
      62:	0500                	addi	s0,sp,640
      64:	1720                	addi	s0,sp,936
      66:	0000                	unimp
      68:	0091                	addi	ra,ra,4
      6a:	0000                	unimp
      6c:	0200                	addi	s0,sp,256
      6e:	1732                	slli	a4,a4,0x2c
	...
      78:	0000                	unimp
      7a:	9c01                	0x9c01
      7c:	00e0                	addi	s0,sp,76
      7e:	0000                	unimp
      80:	00174303          	lbu	t1,1(a4)
      84:	d300                	sw	s0,32(a4)
      86:	0000                	unimp
      88:	0300                	addi	s0,sp,384
      8a:	1750                	addi	a2,sp,932
      8c:	0000                	unimp
      8e:	013a                	slli	sp,sp,0xe
      90:	0000                	unimp
      92:	00175d03          	lhu	s10,1(a4)
      96:	8700                	0x8700
      98:	0001                	nop
      9a:	0300                	addi	s0,sp,384
      9c:	176a                	slli	a4,a4,0x3a
      9e:	0000                	unimp
      a0:	01c1                	addi	gp,gp,16
      a2:	0000                	unimp
      a4:	00177703          	0x177703
      a8:	ed00                	fsw	fs0,24(a0)
      aa:	0001                	nop
      ac:	0500                	addi	s0,sp,640
      ae:	1784                	addi	s1,sp,992
      b0:	0000                	unimp
      b2:	00000227          	0x227
      b6:	8f05                	sub	a4,a4,s1
      b8:	c6000017          	auipc	zero,0xc6000
      bc:	0002                	c.slli64	zero
      be:	0500                	addi	s0,sp,640
      c0:	179c                	addi	a5,sp,992
      c2:	0000                	unimp
int main() {
      c4:	0315                	addi	t1,t1,5
      c6:	0000                	unimp
      c8:	0006                	c.slli	zero,0x1
      ca:	0000                	unimp
	RCC->CFGR0 = RCC_HPRE_DIV1 | RCC_PLLSRC_HSI_Mul2;      // PLLCLK = HSI * 2 = 48 MHz; HCLK = SYSCLK = APB1
      cc:	5000                	lw	s0,32(s0)
      ce:	000e                	c.slli	zero,0x3
	RCC->CTLR  = RCC_HSION | RCC_PLLON | ((HSITRIM) << 3); // Use HSI, but enable PLL.
      d0:	0700                	addi	s0,sp,896
      d2:	5a01                	li	s4,-32
	RCC->CFGR0 = RCC_HPRE_DIV1 | RCC_PLLSRC_HSI_Mul2;      // PLLCLK = HSI * 2 = 48 MHz; HCLK = SYSCLK = APB1
      d4:	5e01f303          	0x5e01f303
	RCC->CTLR  = RCC_HSION | RCC_PLLON | ((HSITRIM) << 3); // Use HSI, but enable PLL.
      d8:	025c0107          	0x25c0107
      dc:	0078                	addi	a4,sp,12
	FLASH->ACTLR = FLASH_ACTLR_LATENCY_1;                  // 1 Cycle Latency
      de:	0000                	unimp
      e0:	aa02                	fsd	ft0,272(sp)
      e2:	00000017          	auipc	zero,0x0
	RCC->INTR  = 0x009F0000;                               // Clear PLL, CSSC, HSE, HSI and LSI ready flags.
      e6:	0000                	unimp
      e8:	0000                	unimp
      ea:	0000                	unimp
	while((RCC->CTLR & RCC_PLLRDY) == 0);                                      // Wait till PLL is ready
      ec:	0100                	addi	s0,sp,128
      ee:	7f9c                	flw	fa5,56(a5)
      f0:	0001                	nop
      f2:	0300                	addi	s0,sp,384
      f4:	000017bb          	0x17bb
      f8:	000003bb          	0x3bb
	while ((RCC->CFGR0 & (uint32_t)RCC_SWS) != (uint32_t)0x08);                // Wait till PLL is used as system clock source
      fc:	0017c803          	lbu	a6,1(a5)
	RCC->CFGR0 = ( RCC->CFGR0 & ((uint32_t)~(RCC_SW))) | (uint32_t)RCC_SW_PLL; // Select PLL as system clock source
     100:	0600                	addi	s0,sp,768
     102:	0004                	0x4
     104:	0300                	addi	s0,sp,384
	while ((RCC->CFGR0 & (uint32_t)RCC_SWS) != (uint32_t)0x08);                // Wait till PLL is used as system clock source
     106:	17d5                	addi	a5,a5,-11
     108:	0000                	unimp
     10a:	0476                	slli	s0,s0,0x1d
     10c:	0000                	unimp
     10e:	0017e203          	0x17e203
	RCC->APB2PCENR |=	RCC_APB2Periph_GPIOA | RCC_APB2Periph_GPIOC |
     112:	9700                	0x9700
     114:	0004                	0x4
     116:	0300                	addi	s0,sp,384
     118:	000017ef          	jal	a5,1118 <ch32v003fun.c.8affbd33+0x296>
     11c:	04b8                	addi	a4,sp,584
	RCC->APB1PCENR |=	RCC_APB1Periph_TIM2;
     11e:	0000                	unimp
	RCC->APB2PRSTR |=  RCC_APB2Periph_TIM1;
     120:	fc05                	bnez	s0,58 <InterruptVector+0x58>
     122:	f9000017          	auipc	zero,0xf9000
	RCC->APB1PCENR |=	RCC_APB1Periph_TIM2;
     126:	0004                	0x4
     128:	0500                	addi	s0,sp,640
     12a:	1809                	addi	a6,a6,-30
	RCC->APB2PRSTR |=  RCC_APB2Periph_TIM1;
     12c:	0000                	unimp
	GPIOC->CFGLR &= ~(0xf<<(4*GPIO_PinSource4));
     12e:	0551                	addi	a0,a0,20
     130:	0000                	unimp
     132:	1605                	addi	a2,a2,-31
	RCC->APB2PRSTR |=  RCC_APB2Periph_TIM1;
     134:	0018                	0x18
     136:	8900                	0x8900
	RCC->APB2PRSTR &= ~RCC_APB2Periph_TIM1;
     138:	0005                	c.nop	1
     13a:	0500                	addi	s0,sp,640
     13c:	1821                	addi	a6,a6,-24
	GPIOC->CFGLR &= ~(0xf<<(4*GPIO_PinSource2));
     13e:	0000                	unimp
     140:	000005cb          	fnmsub.s	fa1,ft0,ft0,ft0,rne
	RCC->APB2PRSTR &= ~RCC_APB2Periph_TIM1;
     144:	2e08                	fld	fa0,24(a2)
	RCC->APB1PRSTR |=  RCC_APB1Periph_TIM2;
     146:	0018                	0x18
	TIM1->PSC = 0x0000;
     148:	0000                	unimp
     14a:	0000                	unimp
	TIM1->ATRLR = 255;
     14c:	6d00                	flw	fs0,24(a0)
     14e:	0001                	nop
	RCC->APB1PRSTR |=  RCC_APB1Periph_TIM2;
     150:	0500                	addi	s0,sp,640
     152:	00001833          	sll	a6,zero,zero
	RCC->APB1PRSTR &= ~RCC_APB1Periph_TIM2;
     156:	05e9                	addi	a1,a1,26
	TIM1->CCER |= TIM_CC4E | TIM_CC4P;	// Enable T1CH4 output, positive pol
     158:	0000                	unimp
	RCC->APB1PRSTR &= ~RCC_APB1Periph_TIM2;
     15a:	0009                	c.nop	2
     15c:	0000                	unimp
	GPIOC->CFGLR &= ~(0xf<<(4*GPIO_PinSource4));
     15e:	5b00                	lw	s0,48(a4)
     160:	000e                	c.slli	zero,0x3
     162:	0900                	addi	s0,sp,144
     164:	0000                	unimp
     166:	0000                	unimp
	GPIOC->CFGLR |= (GPIO_Speed_10MHz | GPIO_CNF_OUT_OD_AF)<<(4*GPIO_PinSource4);
     168:	0e64                	addi	s1,sp,796
     16a:	0000                	unimp
     16c:	0a00                	addi	s0,sp,272
     16e:	1841                	addi	a6,a6,-16
     170:	0000                	unimp
	GPIOA->CFGLR &= ~(0xf<<(4*GPIO_PinSource1));
     172:	0028                	addi	a0,sp,8
     174:	0000                	unimp
	GPIOC->CFGLR |= (GPIO_Speed_10MHz | GPIO_CNF_OUT_OD_AF)<<(4*GPIO_PinSource2);
     176:	0018420b          	0x18420b
	GPIOA->CFGLR &= ~(0xf<<(4*GPIO_PinSource1));
     17a:	0100                	addi	s0,sp,128
     17c:	0056                	c.slli	zero,0x15
     17e:	0200                	addi	s0,sp,256
     180:	2808                	fld	fa0,16(s0)
	GPIOA->CFGLR |= (GPIO_Speed_10MHz | GPIO_CNF_OUT_OD_AF)<<(4*GPIO_PinSource1);
     182:	0000                	unimp
     184:	00c4                	addi	s1,sp,68
     186:	0000                	unimp
     188:	037c                	addi	a5,sp,396
     18a:	0000                	unimp
     18c:	9c01                	0x9c01
	GPIOC->CFGLR &= ~(0xf<<(4*GPIO_PinSource2));
     18e:	00000273          	0x273
     192:	e00c                	fsw	fa1,0(s0)
     194:	0014                	0x14
	GPIOC->CFGLR |= (GPIO_Speed_10MHz | GPIO_CNF_OUT_OD_AF)<<(4*GPIO_PinSource2);
     196:	c400                	sw	s0,8(s0)
     198:	0000                	unimp
     19a:	4000                	lw	s0,0(s0)
	GPIOC->CFGLR &= ~(0xf<<(4*GPIO_PinSource1));
     19c:	0000                	unimp
	AFIO->PCFR1 |= AFIO_PCFR1_TIM2_REMAP_PARTIALREMAP1;
     19e:	0200                	addi	s0,sp,256
     1a0:	019e                	slli	gp,gp,0x7
	GPIOC->CFGLR &= ~(0xf<<(4*GPIO_PinSource1));
     1a2:	0d02                	c.slli64	s10
     1a4:	29d9                	jal	67a <SysTick_Handler+0x1ba>
     1a6:	0000                	unimp
	GPIOC->CFGLR |= (GPIO_Speed_10MHz | GPIO_CNF_OUT_OD_AF)<<(4*GPIO_PinSource1);
     1a8:	0112                	slli	sp,sp,0x4
     1aa:	0000                	unimp
     1ac:	01d8                	addi	a4,sp,196
     1ae:	0000                	unimp
	AFIO->PCFR1 |= AFIO_PCFR1_TIM2_REMAP_PARTIALREMAP1;
     1b0:	9f02                	jalr	t5
     1b2:	0201                	addi	tp,tp,0
     1b4:	ac0e                	fsd	ft3,24(sp)
     1b6:	0028                	addi	a0,sp,8
	TIM1->PSC = 0x0000;
     1b8:	ea00                	fsw	fs0,16(a2)
     1ba:	0002                	c.slli64	zero
	TIM2->PSC = 0x0000;
     1bc:	2000                	fld	fs0,0(s0)
     1be:	0000                	unimp
     1c0:	0200                	addi	s0,sp,256
     1c2:	01a0                	addi	s0,sp,200
	TIM1->ATRLR = 255;
     1c4:	e502                	fsw	ft0,136(sp)
     1c6:	0001                	nop
	TIM2->ATRLR = 255;
     1c8:	0f00                	addi	s0,sp,912
     1ca:	29e1                	jal	6a2 <SysTick_Handler+0x1e2>
	TIM1->SWEVGR |= TIM_UG;
     1cc:	0000                	unimp
     1ce:	02f2                	slli	t0,t0,0x1c
     1d0:	0000                	unimp
     1d2:	0008                	0x8
     1d4:	0000                	unimp
     1d6:	0302                	c.slli64	t1
     1d8:	0201                	addi	tp,tp,0
     1da:	0029ea03          	0x29ea03
	TIM2->SWEVGR |= TIM_UG;
     1de:	0700                	addi	s0,sp,896
     1e0:	0006                	c.slli	zero,0x1
     1e2:	0000                	unimp
     1e4:	0d00                	addi	s0,sp,656
     1e6:	2850                	fld	fa2,144(s0)
     1e8:	0000                	unimp
     1ea:	030a                	slli	t1,t1,0x2
	TIM1->CTLR1 |= TIM_ARPE;
     1ec:	0000                	unimp
     1ee:	0094                	addi	a3,sp,64
     1f0:	0000                	unimp
     1f2:	a102                	fsd	ft0,128(sp)
     1f4:	0201                	addi	tp,tp,0
     1f6:	190a                	slli	s2,s2,0x22
     1f8:	0028                	addi	a0,sp,8
     1fa:	5800                	lw	s0,48(s0)
	TIM2->CTLR1 |= TIM_ARPE;
     1fc:	0000                	unimp
     1fe:	0500                	addi	s0,sp,640
     200:	281a                	fld	fa6,384(sp)
     202:	0000                	unimp
     204:	0000061b          	0x61b
     208:	0028270b          	0x28270b
	TIM1->CH2CVR = 16; //T1CH2/PA1/pin1
     20c:	0600                	addi	s0,sp,768
     20e:	007d                	c.nop	31
     210:	ff08                	fsw	fa0,56(a4)
	TIM1->CH4CVR = 16; //T1CH4/PC4/pin7
     212:	9f1a                	add	t5,t5,t1
     214:	430c                	lw	a1,0(a4)
	TIM2->CH2CVR = 16; //T2CH2/PC2/pin6*
     216:	0028                	addi	a0,sp,8
	TIM2->CH4CVR = 16; //T2CH4/PC1/pin5*
     218:	a600                	fsd	fs0,8(a2)
	TIM1->CCER |= TIM_CC2E | TIM_CC2P;	// Enable T1CH2 output, positive pol
     21a:	78000003          	lb	zero,1920(zero) # 780 <SysTick_Handler+0x2c0>
     21e:	0000                	unimp
     220:	0200                	addi	s0,sp,256
     222:	01b0                	addi	a2,sp,200
     224:	101d                	c.nop	-25
     226:	0000139b          	0x139b
	TIM1->CCER |= TIM_CC4E | TIM_CC4P;	// Enable T1CH4 output, positive pol
     22a:	03ae                	slli	t2,t2,0xb
     22c:	0000                	unimp
     22e:	0090                	addi	a2,sp,64
     230:	0000                	unimp
     232:	b102                	fsd	ft0,160(sp)
     234:	1101                	addi	sp,sp,-32
     236:	00000253          	fadd.s	ft4,ft0,ft0,rne
     23a:	0013a803          	lw	a6,1(t2)
	TIM2->CCER |= TIM_CC2E | TIM_CC2P;	// Enable T2CH2 output, positive pol
     23e:	3400                	fld	fs0,40(s0)
     240:	0006                	c.slli	zero,0x1
     242:	1100                	addi	s0,sp,160
     244:	0090                	addi	a2,sp,64
     246:	0000                	unimp
     248:	b305                	j	ffffff68 <__global_pointer$+0xdffff628>
     24a:	55000013          	li	zero,1360
	TIM2->CCER |= TIM_CC4E | TIM_CC4P;	// Enable T2CH4 output, positive pol
     24e:	0006                	c.slli	zero,0x1
     250:	0000                	unimp
     252:	0800                	addi	s0,sp,16
     254:	2834                	fld	fa3,80(s0)
     256:	0000                	unimp
     258:	00b8                	addi	a4,sp,72
     25a:	0000                	unimp
     25c:	0268                	addi	a0,sp,268
     25e:	0000                	unimp
     260:	0028350b          	0x28350b
	TIM1->CHCTLR1 |= TIM_OC2M_2 | TIM_OC2M_1;	// CH2 Mode is output, PWM1 (CC1S = 00, OC1M = 110)
     264:	0100                	addi	s0,sp,128
     266:	005e                	c.slli	zero,0x17
     268:	e209                	bnez	a2,26a <main+0x1a6>
     26a:	6d000003          	lb	zero,1744(zero) # 6d0 <SysTick_Handler+0x210>
     26e:	000e                	c.slli	zero,0x3
     270:	0000                	unimp
     272:	0200                	addi	s0,sp,256
     274:	13fd                	addi	t2,t2,-1
	...
	TIM1->CHCTLR2 |= TIM_OC4M_2 | TIM_OC4M_1;	// CH4 Mode is output, PWM1 (CC1S = 00, OC1M = 110)
     27e:	0000                	unimp
     280:	9c01                	0x9c01
     282:	02f1                	addi	t0,t0,28
     284:	0000                	unimp
     286:	00141a03          	lh	s4,1(s0)
     28a:	6800                	flw	fs0,16(s0)
	TIM2->CHCTLR1 |= TIM_OC2M_2 | TIM_OC2M_1 | TIM_OC2PE;
     28c:	0006                	c.slli	zero,0x1
     28e:	0300                	addi	s0,sp,384
     290:	00001427          	0x1427
     294:	0689                	addi	a3,a3,2
     296:	0000                	unimp
     298:	0014340b          	0x14340b
     29c:	0200                	addi	s0,sp,256
     29e:	7091                	lui	ra,0xfffe4
     2a0:	4105                	li	sp,1
     2a2:	0014                	0x14
     2a4:	b500                	fsd	fs0,40(a0)
	TIM2->CHCTLR2 |= TIM_OC4M_2 | TIM_OC4M_1 | TIM_OC4PE;
     2a6:	0006                	c.slli	zero,0x1
     2a8:	0500                	addi	s0,sp,640
	TIM1->BDTR  |= TIM_MOE;	// Brake and deadband registers
     2aa:	144e                	slli	s0,s0,0x33
	TIM2->CHCTLR2 |= TIM_OC4M_2 | TIM_OC4M_1 | TIM_OC4PE;
     2ac:	0000                	unimp
     2ae:	06df 0000 0e12      	0xe12000006df
     2b4:	0014                	0x14
     2b6:	0000                	unimp
     2b8:	5b0a                	lw	s6,160(sp)
     2ba:	0014                	0x14
	TIM1->BDTR  |= TIM_MOE;	// Brake and deadband registers
     2bc:	d000                	sw	s0,32(s0)
     2be:	0000                	unimp
     2c0:	0500                	addi	s0,sp,640
     2c2:	145c                	addi	a5,sp,548
     2c4:	0000                	unimp
     2c6:	071e                	slli	a4,a4,0x7
     2c8:	0000                	unimp
	TIM1->CTLR1 |= TIM_CEN;	// Enable TIM1
     2ca:	6905                	lui	s2,0x1
     2cc:	0014                	0x14
     2ce:	5300                	lw	s0,32(a4)
     2d0:	06000007          	0x6000007
     2d4:	0000                	unimp
     2d6:	0000                	unimp
     2d8:	0e76                	slli	t3,t3,0x1d
	TIM2->CTLR1 |= TIM_CEN;	// Enable TIM2
     2da:	0000                	unimp
     2dc:	025a0107          	0x25a0107
     2e0:	7091                	lui	ra,0xfffe4
     2e2:	085b0107          	0x85b0107
     2e6:	0078                	addi	a4,sp,12
     2e8:	0072                	c.slli	zero,0x1c
	SysTick->CTLR = 0;
     2ea:	2206                	fld	ft4,64(sp)
     2ec:	00000323          	sb	zero,6(zero) # 6 <InterruptVector+0x6>
     2f0:	0200                	addi	s0,sp,256
     2f2:	1d76                	slli	s10,s10,0x3d
	...
	SysTick->CMP = (SYSTEM_CORE_CLOCK/SYSTICKHZ)-1;
     2fc:	0000                	unimp
     2fe:	9c01                	0x9c01
     300:	033e                	slli	t1,t1,0xf
	SysTick->CNT = 0;
     302:	0000                	unimp
     304:	001d8603          	lb	a2,1(s11)
	SysTick->CTLR = SYSTICK_CTLR_STE | SYSTICK_CTLR_STIE |
     308:	8a00                	0x8a00
	RCC->CFGR0 &= ~(0x1F<<11);
     30a:	03000007          	0x3000007
     30e:	1d90                	addi	a2,sp,752
     310:	0000                	unimp
     312:	000007ab          	0x7ab
	RCC->APB2PCENR |= RCC_APB2Periph_GPIOA | RCC_APB2Periph_ADC1;
     316:	001d9c03          	lh	s8,1(s11)
     31a:	d400                	sw	s0,40(s0)
     31c:	06000007          	0x6000007
	GPIOA->CFGLR &= ~(0xf<<(4*GPIO_PinSource2));	// CNF = 00: Analog, MODE = 00: Input
     320:	0000                	unimp
     322:	0000                	unimp
     324:	00000273          	0x273
     328:	035a0107          	0x35a0107
	ADC1->CTLR2 |= ADC_ADON | ADC_EXTSEL;
     32c:	075a01f3          	0x75a01f3
     330:	5b01                	li	s6,-32
	RCC->APB2PRSTR |= RCC_APB2Periph_ADC1;
     332:	7802                	flw	fa6,32(sp)
     334:	1300                	addi	s0,sp,416
     336:	00000347          	fmsub.s	ft6,ft0,ft0,ft0,rne
	RCC->APB2PRSTR &= ~RCC_APB2Periph_ADC1;
     33a:	3001                	jal	fffffb3a <__global_pointer$+0xdffff1fa>
     33c:	0000                	unimp
     33e:	fd14                	fsw	fa3,56(a0)
	ADC1->RSQR1 = 0;
     340:	4d000013          	li	zero,1232
     344:	15000003          	lb	zero,336(zero) # 150 <main+0x8c>
	ADC1->RSQR2 = 0;
     348:	140e                	slli	s0,s0,0x23
     34a:	0000                	unimp
	ADC1->RSQR3 = ADC_Channel_0;	// 0-9 for 8 ext inputs and two internals
     34c:	1600                	addi	s0,sp,800
     34e:	1db2                	slli	s11,s11,0x2c
	ADC1->SAMPTR2 &= ~ADC_SMP2;
     350:	0000                	unimp
     352:	0440                	addi	s0,sp,516
     354:	0000                	unimp
     356:	007e                	c.slli	zero,0x1f
     358:	0000                	unimp
     35a:	9c01                	0x9c01
	ADC1->SAMPTR2 |= ( ADC_SampleTime_3Cycles << (3 * ADC_Channel_0 ) );	// 0:7 => 3/9/15/30/43/57/73/241 cycles
     35c:	a916                	fsd	ft5,144(sp)
     35e:	001d                	c.nop	7
     360:	be00                	fsd	fs0,56(a2)
     362:	0004                	0x4
	ADC1->CTLR2 |= ADC_ADON | ADC_EXTSEL;
     364:	0200                	addi	s0,sp,256
     366:	0000                	unimp
     368:	0100                	addi	s0,sp,128
     36a:	029c                	addi	a5,sp,320
     36c:	00001d1b          	0x1d1b
	...
	ADC1->CTLR2 |= ADC_RSTCAL;
     378:	9c01                	0x9c01
     37a:	0391                	addi	t2,t2,4
     37c:	0000                	unimp
	while(ADC1->CTLR2 & ADC_RSTCAL);
     37e:	001d2b03          	lw	s6,1(s10)
     382:	f500                	fsw	fs0,40(a0)
     384:	05000007          	0x5000007
	ADC1->CTLR2 |= ADC_CAL;
     388:	1d35                	addi	s10,s10,-19
     38a:	0000                	unimp
     38c:	00000813          	li	a6,0
     390:	0200                	addi	s0,sp,256
	while(ADC1->CTLR2 & ADC_CAL);
     392:	1d40                	addi	s0,sp,692
	...
     39c:	0000                	unimp
                Delay_Ms(( Delay >> 3 ) + 5 );
     39e:	9c01                	0x9c01
     3a0:	0654                	addi	a3,sp,772
                int temp=LEDs[0].brightness;
     3a2:	0000                	unimp
     3a4:	001d5003          	lhu	zero,1(s10)
	ADC1->CTLR2 |= ADC_SWSTART;
     3a8:	3f00                	fld	fs0,56(a4)
     3aa:	0008                	0x8
     3ac:	0b00                	addi	s0,sp,400
	uint32_t targend = SysTick->CNT + n;
     3ae:	1d5d                	addi	s10,s10,-9
     3b0:	0000                	unimp
                Delay_Ms(( Delay >> 3 ) + 5 );
     3b2:	7fac9103          	lh	sp,2042(s9)
     3b6:	001d6917          	auipc	s2,0x1d6
                int temp=LEDs[0].brightness;
     3ba:	1800                	addi	s0,sp,48
	ADC1->CTLR2 |= ADC_SWSTART;
     3bc:	000015b7          	lui	a1,0x1
     3c0:	0000                	unimp
     3c2:	0000                	unimp
     3c4:	00e8                	addi	a0,sp,76
     3c6:	0000                	unimp
	while(!(ADC1->STATR & ADC_EOC));
     3c8:	1e01                	addi	t3,t3,-32
     3ca:	15c81513          	0x15c81513
     3ce:	0000                	unimp
	return ADC1->RDATAR;
     3d0:	d512                	sw	tp,168(sp)
     3d2:	0015                	c.nop	5
     3d4:	0000                	unimp
     3d6:	0015ef03          	0x15ef03
                Delay_Ms(( Delay >> 3 ) + 5 );
     3da:	6000                	flw	fs0,0(s0)
     3dc:	0008                	0x8
     3de:	0300                	addi	s0,sp,384
     3e0:	15e2                	slli	a1,a1,0x38
     3e2:	0000                	unimp
     3e4:	0945                	addi	s2,s2,17
     3e6:	0000                	unimp
     3e8:	0011                	c.nop	4
     3ea:	0001                	nop
     3ec:	0b00                	addi	s0,sp,400
     3ee:	000015fb          	0x15fb
     3f2:	7fb09103          	lh	sp,2043(ra) # fffe47fb <__global_pointer$+0xdffe3ebb>
     3f6:	0016070b          	0x16070b
	while( ((int32_t)( SysTick->CNT - targend )) < 0 );
     3fa:	0200                	addi	s0,sp,256
     3fc:	4891                	li	a7,4
     3fe:	0016140b          	0x16140b
     402:	0300                	addi	s0,sp,384
                int temp=LEDs[0].brightness;
     404:	ab91                	j	958 <_data_lma+0x184>
     406:	057f                	0x57f
                for(int i=1; i<12; i++){
     408:	1620                	addi	s0,sp,808
     40a:	0000                	unimp
                int temp=LEDs[0].brightness;
     40c:	000009eb          	0x9eb
                        LEDs[i-1].brightness=LEDs[i].brightness;
     410:	2b19                	jal	926 <_data_lma+0x152>
     412:	0016                	c.slli	zero,0x5
     414:	0000                	unimp
     416:	0000                	unimp
     418:	0a00                	addi	s0,sp,272
     41a:	1634                	addi	a3,sp,808
     41c:	0000                	unimp
     41e:	0108                	addi	a0,sp,128
     420:	0000                	unimp
     422:	3505                	jal	242 <main+0x17e>
     424:	0016                	c.slli	zero,0x5
     426:	3e00                	fld	fs0,56(a2)
     428:	000a                	c.slli	zero,0x2
     42a:	0800                	addi	s0,sp,16
     42c:	1642                	slli	a2,a2,0x30
     42e:	0000                	unimp
     430:	0140                	addi	s0,sp,132
     432:	0000                	unimp
                for(int i=1; i<12; i++){
     434:	0635                	addi	a2,a2,13
     436:	0000                	unimp
     438:	4305                	li	t1,1
                LEDs[11].brightness=temp;
     43a:	0016                	c.slli	zero,0x5
     43c:	c100                	sw	s0,0(a0)
	while(1){
     43e:	000a                	c.slli	zero,0x2
	asm volatile( "\n\
     440:	0500                	addi	s0,sp,640
     442:	1650                	addi	a2,sp,804
     444:	0000                	unimp
     446:	0af9                	addi	s5,s5,30
     448:	0000                	unimp
     44a:	5d05                	li	s10,-31
     44c:	0016                	c.slli	zero,0x5
     44e:	4900                	lw	s0,16(a0)
     450:	0b00000b          	0xb00000b
     454:	1668                	addi	a0,sp,812
     456:	0000                	unimp
     458:	5f01                	li	t5,-32
     45a:	aa0e                	fsd	ft3,272(sp)
     45c:	00000017          	auipc	zero,0x0
     460:	0000                	unimp
     462:	0000                	unimp
     464:	0000                	unimp
     466:	0100                	addi	s0,sp,128
asm volatile(
     468:	0236                	slli	tp,tp,0xd
     46a:	b90d                	j	9c <InterruptVector+0x9c>
     46c:	0004                	0x4
     46e:	0300                	addi	s0,sp,384
     470:	000017ef          	jal	a5,1470 <ch32v003fun.c.8affbd33+0x5ee>
     474:	0bac                	addi	a1,sp,472
     476:	0000                	unimp
     478:	0017e203          	0x17e203
     47c:	cc00                	sw	s0,24(s0)
     47e:	0300000b          	0x300000b
     482:	17d5                	addi	a5,a5,-11
     484:	0000                	unimp
     486:	0bea                	slli	s7,s7,0x1a
     488:	0000                	unimp
     48a:	0017c803          	lbu	a6,1(a5)
     48e:	fe00                	fsw	fs0,56(a2)
     490:	0300000b          	0x300000b
     494:	000017bb          	0x17bb
     498:	0c12                	slli	s8,s8,0x4
     49a:	0000                	unimp
     49c:	fc05                	bnez	s0,3d4 <main+0x310>
     49e:	ac000017          	auipc	zero,0xac000
     4a2:	0500000b          	0x500000b
     4a6:	1809                	addi	a6,a6,-30
     4a8:	0000                	unimp
	SETUP_SYSTICK_HCLK
     4aa:	0bea                	slli	s7,s7,0x1a
     4ac:	0000                	unimp
     4ae:	00181617          	auipc	a2,0x181
asm volatile(
     4b2:	1700                	addi	s0,sp,928
     4b4:	1821                	addi	a6,a6,-24
     4b6:	0000                	unimp
     4b8:	1000                	addi	s0,sp,32
     4ba:	17aa                	slli	a5,a5,0x2a
     4bc:	0000                	unimp
	asm volatile( "1: j 1b" );
     4be:	0000                	unimp
{
     4c0:	0000                	unimp
     4c2:	0170                	addi	a2,sp,140
     4c4:	0000                	unimp
     4c6:	3b01                	jal	1d6 <main+0x112>
	SysTick->CMP += (SYSTEM_CORE_CLOCK/SYSTICKHZ); 
     4c8:	0e02                	c.slli64	t3
     4ca:	052e                	slli	a0,a0,0xb
{
     4cc:	0000                	unimp
     4ce:	0017ef03          	0x17ef03
	SysTick->CMP += (SYSTEM_CORE_CLOCK/SYSTICKHZ); 
     4d2:	2600                	fld	fs0,8(a2)
{
     4d4:	000c                	0xc
     4d6:	0300                	addi	s0,sp,384
	SysTick->CMP += (SYSTEM_CORE_CLOCK/SYSTICKHZ); 
     4d8:	17e2                	slli	a5,a5,0x38
     4da:	0000                	unimp
     4dc:	0c46                	slli	s8,s8,0x11
     4de:	0000                	unimp
{
     4e0:	0017d503          	lhu	a0,1(a5)
     4e4:	4600                	lw	s0,8(a2)
     4e6:	000c                	0xc
     4e8:	0300                	addi	s0,sp,384
     4ea:	17c8                	addi	a0,sp,996
     4ec:	0000                	unimp
     4ee:	0c5a                	slli	s8,s8,0x16
	SysTick->CMP += (SYSTEM_CORE_CLOCK/SYSTICKHZ); 
     4f0:	0000                	unimp
     4f2:	bb15                	j	226 <main+0x162>
{
     4f4:	11000017          	auipc	zero,0x11000
     4f8:	0170                	addi	a2,sp,140
     4fa:	0000                	unimp
     4fc:	fc05                	bnez	s0,434 <main+0x370>
     4fe:	26000017          	auipc	zero,0x26000
     502:	000c                	0xc
	SysTick->CMP += (SYSTEM_CORE_CLOCK/SYSTICKHZ); 
     504:	0500                	addi	s0,sp,640
     506:	1809                	addi	a6,a6,-30
	SysTick->SR = 0;
     508:	0000                	unimp
     50a:	0c46                	slli	s8,s8,0x11
		GPIO_Float(	LEDs[group[currentgroup][i]].cathode->port,
     50c:	0000                	unimp
     50e:	00181617          	auipc	a2,0x181
     512:	1700                	addi	s0,sp,928
     514:	1821                	addi	a6,a6,-24
     516:	0000                	unimp
     518:	0006                	c.slli	zero,0x1
     51a:	0000                	unimp
     51c:	e000                	fsw	fs0,0(s0)
     51e:	0000                	unimp
     520:	0700                	addi	s0,sp,896
     522:	5b01                	li	s6,-32
     524:	3a01                	jal	fffffe34 <__global_pointer$+0xdffff4f4>
     526:	015c0107          	0x15c0107
	for(int i=0;i<3;i++){
     52a:	0030                	addi	a2,sp,8
		GPIO_Float(	LEDs[group[currentgroup][i]].cathode->port,
     52c:	0000                	unimp
     52e:	aa0e                	fsd	ft3,272(sp)
        port->CFGLR &= ~(0xf<<(4*pin)); //clear GPIO config - default config is as an input, Hi-Z
     530:	00000017          	auipc	zero,0x0
		GPIO_Float(	LEDs[group[currentgroup][i]].cathode->port,
     534:	0000                	unimp
     536:	0000                	unimp
     538:	0000                	unimp
     53a:	0100                	addi	s0,sp,128
	for(int i=0;i<3;i++){
     53c:	0239                	addi	tp,tp,14
     53e:	8d0e                	mv	s10,gp
		GPIO_Float(	LEDs[group[currentgroup][i]].cathode->port,
     540:	0005                	c.nop	1
     542:	0300                	addi	s0,sp,384
     544:	000017ef          	jal	a5,1544 <ch32v003fun.c.8affbd33+0x6c2>
     548:	0c6e                	slli	s8,s8,0x1b
     54a:	0000                	unimp
     54c:	0017e203          	0x17e203
     550:	8e00                	0x8e00
     552:	000c                	0xc
     554:	0300                	addi	s0,sp,384
     556:	17d5                	addi	a5,a5,-11
     558:	0000                	unimp
     55a:	0ca2                	slli	s9,s9,0x8
     55c:	0000                	unimp
     55e:	0017c803          	lbu	a6,1(a5)
				LEDs[group[currentgroup][i]].cathode->pin,
     562:	b600                	fsd	fs0,40(a2)
				LEDs[group[currentgroup][i]].cathode->timer,
     564:	000c                	0xc
     566:	0300                	addi	s0,sp,384
				LEDs[group[currentgroup][i]].cathode->channel
     568:	000017bb          	0x17bb
		GPIO_Float(	LEDs[group[currentgroup][i]].cathode->port,
     56c:	0cca                	slli	s9,s9,0x12
     56e:	0000                	unimp
     570:	fc05                	bnez	s0,4a8 <handle_reset+0x68>
     572:	6e000017          	auipc	zero,0x6e000
        timer->CCER &= ~channel;        //disable this channel output
     576:	000c                	0xc
        port->CFGLR &= ~(0xf<<(4*pin)); //clear GPIO config - default config is as an input, Hi-Z
     578:	0500                	addi	s0,sp,640
     57a:	1809                	addi	a6,a6,-30
        timer->CCER &= ~channel;        //disable this channel output
     57c:	0000                	unimp
     57e:	0ca2                	slli	s9,s9,0x8
     580:	0000                	unimp
     582:	00181617          	auipc	a2,0x181
        port->CFGLR &= ~(0xf<<(4*pin)); //clear GPIO config - default config is as an input, Hi-Z
     586:	1700                	addi	s0,sp,928
        timer->CCER &= ~channel;        //disable this channel output
     588:	1821                	addi	a6,a6,-24
     58a:	0000                	unimp
     58c:	1000                	addi	s0,sp,32
     58e:	17aa                	slli	a5,a5,0x2a
     590:	0000                	unimp
     592:	0000                	unimp
     594:	0000                	unimp
     596:	0188                	addi	a0,sp,192
        port->CFGLR &= ~(0xf<<(4*pin)); //clear GPIO config - default config is as an input, Hi-Z
     598:	0000                	unimp
     59a:	4701                	li	a4,0
     59c:	0d02                	c.slli64	s10
     59e:	060c                	addi	a1,sp,768
     5a0:	0000                	unimp
     5a2:	0017ef03          	0x17ef03
     5a6:	de00                	sw	s0,56(a2)
	for(int i=0;i<3;i++){
     5a8:	000c                	0xc
     5aa:	0300                	addi	s0,sp,384
     5ac:	17e2                	slli	a5,a5,0x38
     5ae:	0000                	unimp
	if(++currentgroup == 4) currentgroup=0;
     5b0:	00000d0b          	0xd0b
     5b4:	0017d503          	lhu	a0,1(a5)
     5b8:	1f00                	addi	s0,sp,944
     5ba:	000d                	c.nop	3
     5bc:	0300                	addi	s0,sp,384
     5be:	17c8                	addi	a0,sp,996
     5c0:	0000                	unimp
     5c2:	00000d53          	fadd.s	fs10,ft0,ft0,rne
		pwm_setpw(	LEDs[group[currentgroup][i]].cathode->timer,
     5c6:	0017bb03          	0x17bb03
     5ca:	6700                	flw	fs0,8(a4)
     5cc:	000d                	c.nop	3
     5ce:	1100                	addi	s0,sp,160
     5d0:	0188                	addi	a0,sp,192
     5d2:	0000                	unimp
     5d4:	fc05                	bnez	s0,50c <SysTick_Handler+0x4c>
     5d6:	7a000017          	auipc	zero,0x7a000
     5da:	000d                	c.nop	3
     5dc:	0500                	addi	s0,sp,640
     5de:	1809                	addi	a6,a6,-30
     5e0:	0000                	unimp
     5e2:	00000da7          	0xda7
    	switch( chl )
     5e6:	00181617          	auipc	a2,0x181
     5ea:	1700                	addi	s0,sp,928
     5ec:	1821                	addi	a6,a6,-24
     5ee:	0000                	unimp
     5f0:	0006                	c.slli	zero,0x1
     5f2:	0000                	unimp
	for(int i=0;i<3;i++){
     5f4:	e000                	fsw	fs0,0(s0)
     5f6:	0000                	unimp
		pwm_setpw(	LEDs[group[currentgroup][i]].cathode->timer,
     5f8:	0700                	addi	s0,sp,896
     5fa:	5b01                	li	s6,-32
     5fc:	4001                	c.li	zero,0
     5fe:	015d0107          	0x15d0107
     602:	0731                	addi	a4,a4,12
     604:	5e01                	li	t3,-32
     606:	9102                	jalr	sp
     608:	0048                	addi	a0,sp,4
     60a:	0000                	unimp
     60c:	001a                	c.slli	zero,0x6
     60e:	0000                	unimp
     610:	6b00                	flw	fs0,16(a4)
     612:	22000003          	lb	zero,544(zero) # 220 <main+0x15c>
     616:	0006                	c.slli	zero,0x1
     618:	0700                	addi	s0,sp,896
     61a:	5a01                	li	s4,-32
				LEDs[group[currentgroup][i]].cathode->channel,
     61c:	9104                	0x9104
     61e:	7fa0                	flw	fs0,120(a5)
				LEDs[group[currentgroup][i]].brightness
     620:	0006                	c.slli	zero,0x1
     622:	0009                	c.nop	2
		pwm_setpw(	LEDs[group[currentgroup][i]].cathode->timer,
     624:	0000                	unimp
     626:	6d00                	flw	fs0,24(a0)
				LEDs[group[currentgroup][i]].brightness
     628:	0000                	unimp
     62a:	0900                	addi	s0,sp,144
    	switch( chl )
     62c:	0000                	unimp
     62e:	0000                	unimp
     630:	02f1                	addi	t0,t0,28
     632:	0000                	unimp
     634:	0600                	addi	s0,sp,768
     636:	0000                	unimp
     638:	0000                	unimp
     63a:	02f1                	addi	t0,t0,28
	for(int i=0;i<3;i++){
     63c:	0000                	unimp
     63e:	035a0107          	0x35a0107
     642:	ab91                	j	b96 <_data_lma+0x3c2>
	for(int i=0;i<3;i++){
     644:	077f                	0x77f
     646:	5b01                	li	s6,-32
        port->CFGLR &= ~(0xf<<(4*pin)); //clear GPIO config - this appears to be necessary. 
     648:	3101                	jal	248 <main+0x184>
     64a:	015c0107          	0x15c0107
        port->CFGLR |= (GPIO_Speed_10MHz | GPIO_CNF_OUT_OD_AF)<<(4*pin);//Sets mode to OD_AF
     64e:	0030                	addi	a2,sp,8
		GPIO_PWM(	LEDs[group[currentgroup][i]].cathode->port,
     650:	0000                	unimp
     652:	0000                	unimp
     654:	b102                	fsd	ft0,160(sp)
     656:	001c                	0x1c
	...
     660:	0100                	addi	s0,sp,128
     662:	889c                	0x889c
     664:	0006                	c.slli	zero,0x1
     666:	0400                	addi	s0,sp,512
     668:	1cc1                	addi	s9,s9,-16
     66a:	0000                	unimp
     66c:	5a01                	li	s4,-32
     66e:	cd04                	sw	s1,24(a0)
     670:	001c                	0x1c
     672:	0100                	addi	s0,sp,128
     674:	1cd7035b          	0x1cd7035b
				LEDs[group[currentgroup][i]].cathode->pin,
     678:	0000                	unimp
     67a:	00000dbb          	0xdbb
				LEDs[group[currentgroup][i]].cathode->timer,
     67e:	e105                	bnez	a0,69e <SysTick_Handler+0x1de>
				LEDs[group[currentgroup][i]].cathode->channel
     680:	001c                	0x1c
     682:	1900                	addi	s0,sp,176
        port->CFGLR &= ~(0xf<<(4*pin)); //clear GPIO config - this appears to be necessary. 
     684:	000e                	c.slli	zero,0x3
     686:	0000                	unimp
		GPIO_PWM(	LEDs[group[currentgroup][i]].cathode->port,
     688:	8c02                	jr	s8
     68a:	001c                	0x1c
	...
        port->CFGLR &= ~(0xf<<(4*pin)); //clear GPIO config - this appears to be necessary. 
     694:	0100                	addi	s0,sp,128
     696:	ae9c                	fsd	fa5,24(a3)
     698:	0006                	c.slli	zero,0x1
     69a:	0300                	addi	s0,sp,384
     69c:	1c9c                	addi	a5,sp,624
     69e:	0000                	unimp
     6a0:	00000e37          	lui	t3,0x0
     6a4:	001ca603          	lw	a2,1(s9)
     6a8:	5500                	lw	s0,40(a0)
     6aa:	000e                	c.slli	zero,0x3
        port->CFGLR |= (GPIO_Speed_10MHz | GPIO_CNF_OUT_OD_AF)<<(4*pin);//Sets mode to OD_AF
     6ac:	0000                	unimp
     6ae:	5d02                	lw	s10,32(sp)
     6b0:	001c                	0x1c
	...
     6ba:	0100                	addi	s0,sp,128
        timer->CCER |= channel;         //enable this channel output
     6bc:	dd9c                	sw	a5,56(a1)
     6be:	0006                	c.slli	zero,0x1
     6c0:	0300                	addi	s0,sp,384
     6c2:	1c6d                	addi	s8,s8,-5
     6c4:	0000                	unimp
     6c6:	00000e73          	0xe73
     6ca:	001c7703          	0x1c7703
     6ce:	9100                	0x9100
	for(int i=0;i<3;i++){
     6d0:	000e                	c.slli	zero,0x3
     6d2:	0300                	addi	s0,sp,384
     6d4:	1c81                	addi	s9,s9,-32
     6d6:	0000                	unimp
	GPIO_High(	LEDs[group[currentgroup][0]].anode->port,
     6d8:	00000eaf          	0xeaf
}
     6dc:	0200                	addi	s0,sp,256
     6de:	1c38                	addi	a4,sp,568
	...
	GPIO_High(	LEDs[group[currentgroup][0]].anode->port,
     6e8:	0000                	unimp
     6ea:	9c01                	0x9c01
     6ec:	00000703          	lb	a4,0(zero) # 0 <InterruptVector>
     6f0:	001c4803          	lbu	a6,1(s8)
}
     6f4:	e000                	fsw	fs0,0(s0)
     6f6:	000e                	c.slli	zero,0x3
	GPIO_High(	LEDs[group[currentgroup][0]].anode->port,
     6f8:	0300                	addi	s0,sp,384
     6fa:	1c52                	slli	s8,s8,0x34
     6fc:	0000                	unimp
     6fe:	0efe                	slli	t4,t4,0x1f
     700:	0000                	unimp
     702:	0200                	addi	s0,sp,256
     704:	00001bf3          	csrrw	s7,ustatus,zero
	...
			LEDs[group[currentgroup][0]].anode->timer,
     710:	9c01                	0x9c01
     712:	0742                	slli	a4,a4,0x10
			LEDs[group[currentgroup][0]].anode->channel
     714:	0000                	unimp
     716:	001c0303          	lb	t1,1(s8)
	GPIO_High(	LEDs[group[currentgroup][0]].anode->port,
     71a:	1c00                	addi	s0,sp,560
     71c:	0400000f          	fence	o,unknown
     720:	1c0e                	slli	s8,s8,0x23
     722:	0000                	unimp
}
     724:	5b01                	li	s6,-32
     726:	001c1903          	lh	s2,1(s8)
        timer->CCER &= ~channel;        //disable this channel output
     72a:	5600                	lw	s0,40(a2)
     72c:	0500000f          	fence	ow,unknown
     730:	00001c23          	sh	zero,24(zero) # 18 <InterruptVector+0x18>
     734:	0fb0                	addi	a2,sp,984
     736:	0000                	unimp
}
     738:	2d05                	jal	d68 <_data_lma+0x594>
     73a:	001c                	0x1c
        timer->CCER &= ~channel;        //disable this channel output
     73c:	1900                	addi	s0,sp,176
     73e:	0010                	0x10
     740:	0000                	unimp
     742:	1002                	c.slli	zero,0x20
     744:	001a                	c.slli	zero,0x6
	...
        port->CFGLR &= ~(0xf<<(4*pin)); //clear GPIO config - this appears to be necessary. 
     74e:	0100                	addi	s0,sp,128
     750:	989c                	0x989c
     752:	03000007          	0x3000007
     756:	1a21                	addi	s4,s4,-24
     758:	0000                	unimp
     75a:	1074                	addi	a3,sp,44
     75c:	0000                	unimp
     75e:	001a2c03          	lw	s8,1(s4)
        port->CFGLR |= (GPIO_Speed_10MHz | GPIO_CNF_OUT_PP)<<(4*pin); //Sets output mode to GPIO, PP
     762:	9d00                	0x9d00
     764:	0010                	0x10
     766:	0f00                	addi	s0,sp,912
     768:	1a10                	addi	a2,sp,304
	...
     772:	0000                	unimp
        port->BSHR = (1<<(pin));                //set GPIO 'high'
     774:	1b01                	addi	s6,s6,-32
     776:	0701                	addi	a4,a4,0
     778:	2c15                	jal	9ac <_data_lma+0x1d8>
     77a:	001a                	c.slli	zero,0x6
}
     77c:	0300                	addi	s0,sp,384
     77e:	1a21                	addi	s4,s4,-24
     780:	0000                	unimp
     782:	10e5                	addi	ra,ra,-7
     784:	0000                	unimp
     786:	0006                	c.slli	zero,0x1
     788:	0000                	unimp
     78a:	6b00                	flw	fs0,16(a4)
     78c:	07000003          	lb	zero,112(zero) # 70 <InterruptVector+0x70>
     790:	5a01                	li	s4,-32
     792:	7802                	flw	fa6,32(sp)
     794:	0000                	unimp
     796:	0000                	unimp
     798:	aa02                	fsd	ft0,272(sp)
     79a:	0019                	c.nop	6
	...
    	switch( chl )
     7a4:	0100                	addi	s0,sp,128
     7a6:	0e9c                	addi	a5,sp,848
	    	case TIM_CC4E: timer->CH4CVR = width; break;
     7a8:	0008                	0x8
     7aa:	0300                	addi	s0,sp,384
     7ac:	000019bb          	0x19bb
	    	case TIM_CC1E: timer->CH1CVR = width; break;
     7b0:	00001103          	lh	sp,0(zero) # 0 <InterruptVector>
     7b4:	0019c603          	lbu	a2,1(s3)
	    	case TIM_CC2E: timer->CH2CVR = width; break;
     7b8:	3c00                	fld	fs0,56(s0)
     7ba:	0011                	c.nop	4
     7bc:	0e00                	addi	s0,sp,784
     7be:	19d2                	slli	s3,s3,0x34
	...
     7c8:	0000                	unimp
     7ca:	2e01                	jal	ada <_data_lma+0x306>
     7cc:	0901                	addi	s2,s2,0
     7ce:	07fd                	addi	a5,a5,31
     7d0:	0000                	unimp
     7d2:	0019f903          	0x19f903
     7d6:	6800                	flw	fs0,16(s0)
     7d8:	0011                	c.nop	4
     7da:	0300                	addi	s0,sp,384
     7dc:	19ee                	slli	s3,s3,0x3b
     7de:	0000                	unimp
     7e0:	11b0                	addi	a2,sp,232
     7e2:	0000                	unimp
     7e4:	0019e303          	0x19e303
     7e8:	ce00                	sw	s0,24(a2)
     7ea:	0011                	c.nop	4
     7ec:	1100                	addi	s0,sp,160
     7ee:	01a8                	addi	a0,sp,200
     7f0:	0000                	unimp
     7f2:	0405                	addi	s0,s0,1
     7f4:	001a                	c.slli	zero,0x6
     7f6:	fb00                	fsw	fs0,48(a4)
     7f8:	0011                	c.nop	4
     7fa:	0000                	unimp
     7fc:	0600                	addi	s0,sp,768
     7fe:	0000                	unimp
     800:	0000                	unimp
     802:	0000036b          	0x36b
     806:	025a0107          	0x25a0107
     80a:	0078                	addi	a4,sp,12
     80c:	0000                	unimp
     80e:	5d02                	lw	s10,32(sp)
     810:	0019                	c.nop	6
	...
     81a:	0100                	addi	s0,sp,128
     81c:	4b9c                	lw	a5,16(a5)
     81e:	0008                	0x8
     820:	0400                	addi	s0,sp,512
     822:	196e                	slli	s2,s2,0x3b
     824:	0000                	unimp
     826:	5a01                	li	s4,-32
     828:	7b04                	flw	fs1,48(a4)
     82a:	0019                	c.nop	6
     82c:	0100                	addi	s0,sp,128
     82e:	1988035b          	0x1988035b
     832:	0000                	unimp
     834:	1229                	addi	tp,tp,-22
     836:	0000                	unimp
     838:	9305                	srli	a4,a4,0x21
     83a:	0019                	c.nop	6
     83c:	5e00                	lw	s0,56(a2)
     83e:	0012                	c.slli	zero,0x4
     840:	0500                	addi	s0,sp,640
     842:	199e                	slli	s3,s3,0x27
     844:	0000                	unimp
     846:	000012a3          	sh	zero,5(zero) # 5 <InterruptVector+0x5>
     84a:	0200                	addi	s0,sp,256
     84c:	1912                	slli	s2,s2,0x24
	...
     856:	0000                	unimp
     858:	9c01                	0x9c01
     85a:	088a                	slli	a7,a7,0x2
     85c:	0000                	unimp
     85e:	00192303          	lw	t1,1(s2) # 1d63b7 <wiring.c.7604182b+0x1d39be>
     862:	e800                	fsw	fs0,16(s0)
     864:	0012                	c.slli	zero,0x4
     866:	0400                	addi	s0,sp,512
     868:	0000192f          	0x192f
     86c:	5b01                	li	s6,-32
     86e:	00193b03          	0x193b03
     872:	2200                	fld	fs0,0(a2)
     874:	05000013          	li	zero,80
     878:	1946                	slli	s2,s2,0x31
     87a:	0000                	unimp
     87c:	00001367          	0x1367
     880:	5105                	li	sp,-31
     882:	0019                	c.nop	6
     884:	db00                	sw	s0,48(a4)
     886:	00000013          	nop
     88a:	c502                	sw	zero,136(sp)
     88c:	0018                	0x18
	...
     896:	0100                	addi	s0,sp,128
     898:	339c                	fld	fa5,32(a5)
     89a:	0009                	c.nop	2
     89c:	0300                	addi	s0,sp,384
     89e:	18d6                	slli	a7,a7,0x35
     8a0:	0000                	unimp
     8a2:	1420                	addi	s0,sp,552
     8a4:	0000                	unimp
     8a6:	0018e303          	0x18e303
     8aa:	6200                	flw	fs0,0(a2)
     8ac:	0014                	0x14
     8ae:	0300                	addi	s0,sp,384
     8b0:	18f0                	addi	a2,sp,124
     8b2:	0000                	unimp
     8b4:	14b2                	slli	s1,s1,0x2c
     8b6:	0000                	unimp
     8b8:	fb05                	bnez	a4,7e8 <_data_lma+0x14>
     8ba:	0018                	0x18
     8bc:	1b00                	addi	s0,sp,432
     8be:	0015                	c.nop	5
     8c0:	0500                	addi	s0,sp,640
     8c2:	1906                	slli	s2,s2,0x21
     8c4:	0000                	unimp
     8c6:	155d                	addi	a0,a0,-9
     8c8:	0000                	unimp
     8ca:	c510                	sw	a2,8(a0)
     8cc:	0018                	0x18
     8ce:	0000                	unimp
     8d0:	0000                	unimp
     8d2:	c000                	sw	s0,0(s0)
     8d4:	0001                	nop
     8d6:	0100                	addi	s0,sp,128
     8d8:	0141                	addi	sp,sp,16
     8da:	00091307          	0x91307
     8de:	0300                	addi	s0,sp,384
     8e0:	18f0                	addi	a2,sp,124
     8e2:	0000                	unimp
     8e4:	15ad                	addi	a1,a1,-21
     8e6:	0000                	unimp
     8e8:	0018e303          	0x18e303
     8ec:	1300                	addi	s0,sp,416
     8ee:	0016                	c.slli	zero,0x5
     8f0:	0300                	addi	s0,sp,384
     8f2:	18d6                	slli	a7,a7,0x35
     8f4:	0000                	unimp
     8f6:	163c                	addi	a5,sp,808
     8f8:	0000                	unimp
     8fa:	c011                	beqz	s0,8fe <_data_lma+0x12a>
     8fc:	0001                	nop
     8fe:	0500                	addi	s0,sp,640
     900:	000018fb          	0x18fb
     904:	1665                	addi	a2,a2,-7
     906:	0000                	unimp
     908:	0605                	addi	a2,a2,1
     90a:	0019                	c.nop	6
     90c:	8f00                	0x8f00
     90e:	0016                	c.slli	zero,0x5
     910:	0000                	unimp
     912:	1b00                	addi	s0,sp,432
     914:	0000                	unimp
     916:	0000                	unimp
     918:	0e76                	slli	t3,t3,0x1d
     91a:	0000                	unimp
     91c:	035a0107          	0x35a0107
     920:	075a01f3          	0x75a01f3
     924:	5b01                	li	s6,-32
     926:	5b01f303          	0x5b01f303
     92a:	035c0107          	0x35c0107
     92e:	005c01f3          	0x5c01f3
     932:	0200                	addi	s0,sp,256
     934:	1878                	addi	a4,sp,60
	...
     93e:	0000                	unimp
     940:	9c01                	0x9c01
     942:	0000096b          	0x96b
     946:	00188903          	lb	s2,1(a7)
     94a:	b900                	fsd	fs0,48(a0)
     94c:	0016                	c.slli	zero,0x5
     94e:	0300                	addi	s0,sp,384
     950:	1896                	slli	a7,a7,0x25
     952:	0000                	unimp
     954:	16da                	slli	a3,a3,0x36
     956:	0000                	unimp
     958:	0018a103          	lw	sp,1(a7)
     95c:	f800                	fsw	fs0,48(s0)
     95e:	0016                	c.slli	zero,0x5
     960:	0500                	addi	s0,sp,640
     962:	18ac                	addi	a1,sp,120
     964:	0000                	unimp
     966:	1719                	addi	a4,a4,-26
     968:	0000                	unimp
     96a:	0200                	addi	s0,sp,256
     96c:	1cec                	addi	a1,sp,636
	...
     976:	0000                	unimp
     978:	9c01                	0x9c01
     97a:	09b5                	addi	s3,s3,13
     97c:	0000                	unimp
     97e:	001cfc03          	0x1cfc03
     982:	2c00                	fld	fs0,24(s0)
     984:	03000017          	auipc	zero,0x3000
     988:	1d06                	slli	s10,s10,0x21
     98a:	0000                	unimp
     98c:	1758                	addi	a4,sp,932
     98e:	0000                	unimp
     990:	1005                	c.nop	-31
     992:	001d                	c.nop	7
     994:	8400                	0x8400
     996:	06000017          	auipc	zero,0x6000
     99a:	0000                	unimp
     99c:	0000                	unimp
     99e:	00000933          	add	s2,zero,zero
     9a2:	025a0107          	0x25a0107
     9a6:	0079                	c.nop	30
     9a8:	015b0107          	0x15b0107
     9ac:	0730                	addi	a2,sp,904
     9ae:	5c01                	li	s8,-32
     9b0:	7802                	flw	fa6,32(sp)
     9b2:	0000                	unimp
     9b4:	0200                	addi	s0,sp,256
     9b6:	1a60                	addi	s0,sp,316
	...
     9c0:	0000                	unimp
     9c2:	9c01                	0x9c01
     9c4:	0ac8                	addi	a0,sp,340
     9c6:	0000                	unimp
     9c8:	001a7003          	0x1a7003
     9cc:	9700                	0x9700
     9ce:	03000017          	auipc	zero,0x3000
     9d2:	1a7a                	slli	s4,s4,0x3e
     9d4:	0000                	unimp
     9d6:	0000180b          	0x180b
     9da:	8405                	srai	s0,s0,0x1
     9dc:	001a                	c.slli	zero,0x6
     9de:	6c00                	flw	fs0,24(s0)
     9e0:	0018                	0x18
     9e2:	0500                	addi	s0,sp,640
     9e4:	1a8e                	slli	s5,s5,0x23
     9e6:	0000                	unimp
     9e8:	18ad                	addi	a7,a7,-21
     9ea:	0000                	unimp
     9ec:	9805                	andi	s0,s0,-31
     9ee:	001a                	c.slli	zero,0x6
     9f0:	ef00                	fsw	fs0,24(a4)
     9f2:	0018                	0x18
     9f4:	0500                	addi	s0,sp,640
     9f6:	00001aa3          	sh	zero,21(zero) # 15 <InterruptVector+0x15>
     9fa:	1946                	slli	s2,s2,0x31
     9fc:	0000                	unimp
     9fe:	ae05                	j	d2e <_data_lma+0x55a>
     a00:	001a                	c.slli	zero,0x6
     a02:	bc00                	fsd	fs0,56(s0)
     a04:	0019                	c.nop	6
     a06:	0500                	addi	s0,sp,640
     a08:	1ab8                	addi	a4,sp,376
     a0a:	0000                	unimp
     a0c:	1a98                	addi	a4,sp,368
     a0e:	0000                	unimp
     a10:	c205                	beqz	a2,a30 <_data_lma+0x25c>
     a12:	001a                	c.slli	zero,0x6
     a14:	6100                	flw	fs0,0(a0)
     a16:	1700001b          	0x1700001b
     a1a:	1acd                	addi	s5,s5,-13
     a1c:	0000                	unimp
     a1e:	d805                	beqz	s0,94e <_data_lma+0x17a>
     a20:	001a                	c.slli	zero,0x6
     a22:	af00                	fsd	fs0,24(a4)
     a24:	0500001b          	0x500001b
     a28:	1ae4                	addi	s1,sp,380
     a2a:	0000                	unimp
     a2c:	00001c2b          	0x1c2b
     a30:	001af00b          	0x1af00b
     a34:	0300                	addi	s0,sp,384
     a36:	d491                	beqz	s1,942 <_data_lma+0x16e>
     a38:	1afc0b77          	0x1afc0b77
     a3c:	0000                	unimp
     a3e:	77f49103          	lh	sp,1919(s1)
     a42:	0808                	addi	a0,sp,16
     a44:	d800001b          	0xd800001b
     a48:	0001                	nop
     a4a:	8100                	0x8100
     a4c:	000a                	c.slli	zero,0x2
     a4e:	0500                	addi	s0,sp,640
     a50:	1b09                	addi	s6,s6,-30
     a52:	0000                	unimp
     a54:	00001c3f 001b1505 	0x1b150500001c3f
     a5c:	6c00                	flw	fs0,24(s0)
     a5e:	001c                	0x1c
     a60:	0600                	addi	s0,sp,768
     a62:	0000                	unimp
     a64:	0000                	unimp
     a66:	00000933          	add	s2,zero,zero
     a6a:	045a0107          	0x45a0107
     a6e:	c091                	beqz	s1,a72 <_data_lma+0x29e>
     a70:	01070677          	0x1070677
     a74:	0730015b          	0x730015b
     a78:	5c01                	li	s8,-32
     a7a:	9104                	0x9104
     a7c:	77bc                	flw	fa5,104(a5)
     a7e:	0006                	c.slli	zero,0x1
     a80:	1a00                	addi	s0,sp,304
     a82:	0000                	unimp
     a84:	0000                	unimp
     a86:	0e50                	addi	a2,sp,788
     a88:	0000                	unimp
     a8a:	0aa1                	addi	s5,s5,8
     a8c:	0000                	unimp
     a8e:	035a0107          	0x35a0107
     a92:	d491                	beqz	s1,99e <_data_lma+0x1ca>
     a94:	5b010777          	0x5b010777
     a98:	3001                	jal	298 <main+0x1d4>
     a9a:	025c0107          	0x25c0107
     a9e:	2008                	fld	fa0,0(s0)
     aa0:	0600                	addi	s0,sp,768
     aa2:	0000                	unimp
     aa4:	0000                	unimp
     aa6:	0000084b          	fnmsub.s	fa6,ft0,ft0,ft0,rne
     aaa:	045a0107          	0x45a0107
     aae:	bc91                	j	502 <SysTick_Handler+0x42>
     ab0:	01070677          	0x1070677
     ab4:	bc91095b          	0xbc91095b
     ab8:	b8910677          	0xb8910677
     abc:	07220677          	0x7220677
     ac0:	5c01                	li	s8,-32
     ac2:	06007203          	0x6007203
     ac6:	0000                	unimp
     ac8:	3802                	fld	fa6,32(sp)
     aca:	001a                	c.slli	zero,0x6
	...
     ad4:	0100                	addi	s0,sp,128
     ad6:	ce9c                	sw	a5,24(a3)
     ad8:	0300000b          	0x300000b
     adc:	1a49                	addi	s4,s4,-14
     ade:	0000                	unimp
     ae0:	1c8a                	slli	s9,s9,0x22
     ae2:	0000                	unimp
     ae4:	001a5403          	lhu	s0,1(s4)
     ae8:	c100                	sw	s0,0(a0)
     aea:	001c                	0x1c
     aec:	0e00                	addi	s0,sp,784
     aee:	1bb8                	addi	a4,sp,504
	...
     af8:	0000                	unimp
     afa:	1201                	addi	tp,tp,-32
     afc:	1401                	addi	s0,s0,-32
     afe:	00000b27          	0xb27
     b02:	001bd203          	lhu	tp,1(s7)
     b06:	1100                	addi	s0,sp,160
     b08:	001d                	c.nop	7
     b0a:	0300                	addi	s0,sp,384
     b0c:	1bc8                	addi	a0,sp,500
     b0e:	0000                	unimp
     b10:	1d24                	addi	s1,sp,696
     b12:	0000                	unimp
     b14:	dc05                	beqz	s0,a4c <_data_lma+0x278>
     b16:	5a00001b          	0x5a00001b
     b1a:	001d                	c.nop	7
     b1c:	0500                	addi	s0,sp,640
     b1e:	00001be7          	0x1be7
     b22:	1d85                	addi	s11,s11,-31
     b24:	0000                	unimp
     b26:	0e00                	addi	s0,sp,784
     b28:	1b7d                	addi	s6,s6,-1
	...
     b32:	0000                	unimp
     b34:	1401                	addi	s0,s0,-32
     b36:	1401                	addi	s0,s0,-32
     b38:	0b61                	addi	s6,s6,24
     b3a:	0000                	unimp
     b3c:	001b9703          	lh	a4,1(s7)
     b40:	a300                	fsd	fs0,0(a4)
     b42:	001d                	c.nop	7
     b44:	0300                	addi	s0,sp,384
     b46:	1b8d                	addi	s7,s7,-29
     b48:	0000                	unimp
     b4a:	1db6                	slli	s11,s11,0x2d
     b4c:	0000                	unimp
     b4e:	a105                	j	f6e <ch32v003fun.c.8affbd33+0xec>
     b50:	ec00001b          	0xec00001b
     b54:	001d                	c.nop	7
     b56:	0500                	addi	s0,sp,640
     b58:	1bac                	addi	a1,sp,504
     b5a:	0000                	unimp
     b5c:	1dff                	0x1dff
     b5e:	0000                	unimp
     b60:	1000                	addi	s0,sp,32
     b62:	1b42                	slli	s6,s6,0x30
     b64:	0000                	unimp
     b66:	0000                	unimp
     b68:	0000                	unimp
     b6a:	0200                	addi	s0,sp,256
     b6c:	0000                	unimp
     b6e:	1601                	addi	a2,a2,-32
     b70:	1401                	addi	s0,s0,-32
     b72:	0ba1                	addi	s7,s7,8
     b74:	0000                	unimp
     b76:	001b5c03          	lhu	s8,1(s6)
     b7a:	1d00                	addi	s0,sp,688
     b7c:	001e                	c.slli	zero,0x7
     b7e:	0300                	addi	s0,sp,384
     b80:	1b52                	slli	s6,s6,0x34
     b82:	0000                	unimp
     b84:	00001e3b          	0x1e3b
     b88:	0011                	c.nop	4
     b8a:	0002                	c.slli64	zero
     b8c:	0500                	addi	s0,sp,640
     b8e:	1b66                	slli	s6,s6,0x39
     b90:	0000                	unimp
     b92:	1e64                	addi	s1,sp,828
     b94:	0000                	unimp
     b96:	7105                	addi	sp,sp,-480
     b98:	8200001b          	0x8200001b
     b9c:	001e                	c.slli	zero,0x7
     b9e:	0000                	unimp
     ba0:	1a00                	addi	s0,sp,304
     ba2:	0000                	unimp
     ba4:	0000                	unimp
     ba6:	0742                	slli	a4,a4,0x10
     ba8:	0000                	unimp
     baa:	0bbc                	addi	a5,sp,472
     bac:	0000                	unimp
     bae:	035a0107          	0x35a0107
     bb2:	075a01f3          	0x75a01f3
     bb6:	5b01                	li	s6,-32
     bb8:	7902                	flw	fs2,32(sp)
     bba:	0000                	unimp
     bbc:	0000001b          	0x1b
     bc0:	b500                	fsd	fs0,40(a0)
     bc2:	0009                	c.nop	2
     bc4:	0700                	addi	s0,sp,896
     bc6:	5b01                	li	s6,-32
     bc8:	5b01f303          	0x5b01f303
     bcc:	0000                	unimp
     bce:	4f02                	lw	t5,0(sp)
     bd0:	0018                	0x18
	...
     bda:	0100                	addi	s0,sp,128
     bdc:	489c                	lw	a5,16(s1)
     bde:	000c                	0xc
     be0:	0300                	addi	s0,sp,384
     be2:	1860                	addi	s0,sp,60
     be4:	0000                	unimp
     be6:	00001eab          	0x1eab
     bea:	6b05                	lui	s6,0x1
     bec:	0018                	0x18
     bee:	d700                	sw	s0,40(a4)
     bf0:	001e                	c.slli	zero,0x7
     bf2:	1a00                	addi	s0,sp,304
     bf4:	0000                	unimp
     bf6:	0000                	unimp
     bf8:	0000036b          	0x36b
     bfc:	00000c07          	0xc07
     c00:	025a0107          	0x25a0107
     c04:	0079                	c.nop	30
     c06:	1a00                	addi	s0,sp,304
     c08:	0000                	unimp
     c0a:	0000                	unimp
     c0c:	00000273          	0x273
     c10:	0c28                	addi	a0,sp,536
     c12:	0000                	unimp
     c14:	025a0107          	0x25a0107
     c18:	0079                	c.nop	30
     c1a:	025b0107          	0x25b0107
     c1e:	0078                	addi	a4,sp,12
     c20:	00034713          	xori	a4,t1,0
     c24:	0100                	addi	s0,sp,128
     c26:	0030                	addi	a2,sp,8
     c28:	0006                	c.slli	zero,0x1
     c2a:	0000                	unimp
     c2c:	7300                	flw	fs0,32(a4)
     c2e:	0002                	c.slli64	zero
     c30:	0700                	addi	s0,sp,896
     c32:	5a01                	li	s4,-32
     c34:	0305                	addi	t1,t1,1
     c36:	0000                	unimp
     c38:	0000                	unimp
     c3a:	015b0107          	0x15b0107
     c3e:	1331                	addi	t1,t1,-20
     c40:	00000347          	fmsub.s	ft6,ft0,ft0,ft0,rne
     c44:	3001                	jal	444 <handle_reset+0x4>
     c46:	0000                	unimp
     c48:	e916                	fsw	ft5,144(sp)
     c4a:	0014                	0x14
     c4c:	0000                	unimp
     c4e:	0000                	unimp
     c50:	9c00                	0x9c00
     c52:	0000                	unimp
     c54:	0100                	addi	s0,sp,128
     c56:	029c                	addi	a5,sp,320
     c58:	000013d3          	fadd.s	ft7,ft0,ft0,rtz
	...
     c64:	9c01                	0x9c01
     c66:	0c7d                	addi	s8,s8,31
     c68:	0000                	unimp
     c6a:	0013e403          	0x13e403
     c6e:	f700                	fsw	fs0,40(a4)
     c70:	001e                	c.slli	zero,0x7
     c72:	0500                	addi	s0,sp,640
     c74:	000013ef          	jal	t2,1c74 <ch32v003fun.c.8affbd33+0xdf2>
     c78:	1f31                	addi	t5,t5,-20
     c7a:	0000                	unimp
     c7c:	0200                	addi	s0,sp,256
     c7e:	2859                	jal	d14 <_data_lma+0x540>
     c80:	0000                	unimp
     c82:	04c0                	addi	s0,sp,580
     c84:	0000                	unimp
     c86:	0308                	addi	a0,sp,384
     c88:	0000                	unimp
     c8a:	9c01                	0x9c01
     c8c:	00000db7          	lui	s11,0x0
     c90:	621c                	flw	fa5,0(a2)
     c92:	0028                	addi	a0,sp,8
     c94:	0c00                	addi	s0,sp,528
     c96:	0005                	c.nop	1
     c98:	1800                	addi	s0,sp,48
     c9a:	0002                	c.slli64	zero
     c9c:	0200                	addi	s0,sp,256
     c9e:	015c                	addi	a5,sp,132
     ca0:	0802                	c.slli64	a6
     ca2:	287c                	fld	fa5,208(s0)
     ca4:	0000                	unimp
     ca6:	0250                	addi	a2,sp,260
     ca8:	0000                	unimp
     caa:	0cee                	slli	s9,s9,0x1b
     cac:	0000                	unimp
     cae:	8105                	srli	a0,a0,0x1
     cb0:	0028                	addi	a0,sp,8
     cb2:	6e00                	flw	fs0,24(a2)
     cb4:	001f 1c00 2922      	0x29221c00001f
     cba:	0000                	unimp
     cbc:	0530                	addi	a2,sp,648
     cbe:	0000                	unimp
     cc0:	0268                	addi	a0,sp,268
     cc2:	0000                	unimp
     cc4:	2202                	fld	ft4,0(sp)
     cc6:	0301                	addi	t1,t1,0
     cc8:	00295203          	lhu	tp,2(s2)
     ccc:	b000                	fsd	fs0,32(s0)
     cce:	001f 0300 2946      	0x29460300001f
     cd4:	0000                	unimp
     cd6:	1fdd                	addi	t6,t6,-9
     cd8:	0000                	unimp
     cda:	00293a03          	0x293a03
     cde:	f000                	fsw	fs0,32(s0)
     ce0:	001f 0300 292e      	0x292e0300001f
     ce6:	0000                	unimp
     ce8:	00002003          	lw	zero,0(zero) # 0 <InterruptVector>
     cec:	0000                	unimp
     cee:	8d08                	0x8d08
     cf0:	0028                	addi	a0,sp,8
     cf2:	8000                	0x8000
     cf4:	0002                	c.slli64	zero
     cf6:	3200                	fld	fs0,32(a2)
     cf8:	000d                	c.nop	3
     cfa:	0500                	addi	s0,sp,640
     cfc:	2892                	fld	fa7,256(sp)
     cfe:	0000                	unimp
     d00:	2016                	fld	ft0,320(sp)
     d02:	0000                	unimp
     d04:	b41c                	fsd	fa5,40(s0)
     d06:	0028                	addi	a0,sp,8
     d08:	e400                	fsw	fs0,8(s0)
     d0a:	0005                	c.nop	1
     d0c:	9800                	0x9800
     d0e:	0002                	c.slli64	zero
     d10:	0200                	addi	s0,sp,256
     d12:	012e                	slli	sp,sp,0xb
     d14:	28d80303          	lb	t1,653(a6)
     d18:	0000                	unimp
     d1a:	2034                	fld	fa3,64(s0)
     d1c:	0000                	unimp
     d1e:	0028cc03          	lbu	s8,2(a7)
     d22:	5c00                	lw	s0,56(s0)
     d24:	0020                	addi	s0,sp,8
     d26:	0300                	addi	s0,sp,384
     d28:	28c0                	fld	fs0,144(s1)
     d2a:	0000                	unimp
     d2c:	207a                	fld	ft0,408(sp)
     d2e:	0000                	unimp
     d30:	0000                	unimp
     d32:	9e1d                	0x9e1d
     d34:	0028                	addi	a0,sp,8
     d36:	4800                	lw	s0,16(s0)
     d38:	0006                	c.slli	zero,0x1
     d3a:	9000                	0x9000
     d3c:	0000                	unimp
     d3e:	7f00                	flw	fs0,56(a4)
     d40:	000d                	c.nop	3
     d42:	0500                	addi	s0,sp,640
     d44:	289f 0000 2098      	0x20980000289f
     d4a:	0000                	unimp
     d4c:	e51c                	fsw	fa5,8(a0)
     d4e:	0028                	addi	a0,sp,8
     d50:	4800                	lw	s0,16(s0)
     d52:	0006                	c.slli	zero,0x1
     d54:	b800                	fsd	fs0,48(s0)
     d56:	0002                	c.slli64	zero
     d58:	0200                	addi	s0,sp,256
     d5a:	0136                	slli	sp,sp,0xd
     d5c:	29150303          	lb	t1,657(a0)
     d60:	0000                	unimp
     d62:	000020c3          	fmadd.s	ft1,ft0,ft0,ft0,rdn
     d66:	00290903          	lb	s2,2(s2)
     d6a:	d600                	sw	s0,40(a2)
     d6c:	0020                	addi	s0,sp,8
     d6e:	1500                	addi	s0,sp,672
     d70:	28fd                	jal	e6e <_data_lma+0x69a>
     d72:	0000                	unimp
     d74:	0028f103          	0x28f103
     d78:	e900                	fsw	fs0,16(a0)
     d7a:	0020                	addi	s0,sp,8
     d7c:	0000                	unimp
     d7e:	1c00                	addi	s0,sp,560
     d80:	295f 0000 0724      	0x7240000295f
     d86:	0000                	unimp
     d88:	02d8                	addi	a4,sp,324
     d8a:	0000                	unimp
     d8c:	3e02                	fld	ft8,32(sp)
     d8e:	0201                	addi	tp,tp,0
     d90:	00298f03          	lb	t5,2(s3)
     d94:	fc00                	fsw	fs0,56(s0)
     d96:	0020                	addi	s0,sp,8
     d98:	0300                	addi	s0,sp,384
     d9a:	00002983          	lw	s3,0(zero) # 0 <InterruptVector>
     d9e:	2129                	jal	11a8 <ch32v003fun.c.8affbd33+0x326>
     da0:	0000                	unimp
     da2:	00297703          	0x297703
     da6:	3c00                	fld	fs0,56(s0)
     da8:	0021                	c.nop	8
     daa:	0300                	addi	s0,sp,384
     dac:	0000296b          	0x296b
     db0:	0000214f          	fnmadd.s	ft2,ft0,ft0,ft0,rdn
     db4:	0000                	unimp
     db6:	0b00                	addi	s0,sp,400
     db8:	1295                	addi	t0,t0,-27
     dba:	0000                	unimp
     dbc:	0305                	addi	t1,t1,1
     dbe:	0090                	addi	a2,sp,64
     dc0:	2000                	fld	fs0,0(s0)
     dc2:	0012bc0b          	0x12bc0b
     dc6:	0500                	addi	s0,sp,640
     dc8:	0000a003          	lw	zero,0(ra)
     dcc:	0b20                	addi	s0,sp,408
     dce:	000023f7          	0x23f7
     dd2:	0305                	addi	t1,t1,1
     dd4:	00b4                	addi	a3,sp,72
     dd6:	2000                	fld	fs0,0(s0)
     dd8:	00241e0b          	0x241e0b
     ddc:	0500                	addi	s0,sp,640
     dde:	0000c403          	lbu	s0,0(ra)
     de2:	0b20                	addi	s0,sp,408
     de4:	00002d2f          	amoadd.w	s10,zero,(zero)
     de8:	0305                	addi	t1,t1,1
     dea:	00d8                	addi	a4,sp,68
     dec:	2000                	fld	fs0,0(s0)
     dee:	002d560b          	0x2d560b
     df2:	0500                	addi	s0,sp,640
     df4:	0000e803          	0xe803
     df8:	0b20                	addi	s0,sp,408
     dfa:	2760                	fld	fs0,200(a4)
     dfc:	0000                	unimp
     dfe:	0305                	addi	t1,t1,1
     e00:	00fc                	addi	a5,sp,76
     e02:	2000                	fld	fs0,0(s0)
     e04:	00276c0b          	0x276c0b
     e08:	0500                	addi	s0,sp,640
     e0a:	00010c03          	lb	s8,0(sp)
     e0e:	0b20                	addi	s0,sp,408
     e10:	2748                	fld	fa0,136(a4)
     e12:	0000                	unimp
     e14:	0305                	addi	t1,t1,1
     e16:	011c                	addi	a5,sp,128
     e18:	2000                	fld	fs0,0(s0)
     e1a:	0027540b          	0x27540b
     e1e:	0500                	addi	s0,sp,640
     e20:	00012c03          	lw	s8,0(sp)
     e24:	0b20                	addi	s0,sp,408
     e26:	27d5                	jal	160a <ch32v003fun.c.8affbd33+0x788>
     e28:	0000                	unimp
     e2a:	0305                	addi	t1,t1,1
     e2c:	0000                	unimp
     e2e:	2000                	fld	fs0,0(s0)
     e30:	0027fc0b          	0x27fc0b
     e34:	0500                	addi	s0,sp,640
     e36:	0007c803          	lbu	a6,0(a5)
     e3a:	1400                	addi	s0,sp,544
     e3c:	2862                	fld	fa6,24(sp)
     e3e:	0000                	unimp
     e40:	0e50                	addi	a2,sp,788
     e42:	0000                	unimp
     e44:	00286f0b          	0x286f0b
     e48:	0500                	addi	s0,sp,640
     e4a:	00014003          	lbu	zero,0(sp)
     e4e:	0020                	addi	s0,sp,8
     e50:	141e                	slli	s0,s0,0x27
     e52:	0000                	unimp
     e54:	0a00                	addi	s0,sp,272
     e56:	0000                	unimp
     e58:	0400                	addi	s0,sp,512
     e5a:	1f00                	addi	s0,sp,944
     e5c:	00c1                	addi	ra,ra,16
     e5e:	0000                	unimp
     e60:	00c1                	addi	ra,ra,16
     e62:	0000                	unimp
     e64:	001f 0000 0000      	0x1f
     e6a:	0000                	unimp
     e6c:	1f00                	addi	s0,sp,944
     e6e:	00d8                	addi	a4,sp,68
     e70:	0000                	unimp
     e72:	00d8                	addi	a4,sp,68
     e74:	0000                	unimp
     e76:	251e                	fld	fa0,448(sp)
     e78:	0000                	unimp
     e7a:	1b00                	addi	s0,sp,432
     e7c:	0000                	unimp
     e7e:	0400                	addi	s0,sp,512
	...

00000e82 <ch32v003fun.c.8affbd33>:
     e82:	0f36                	slli	t5,t5,0xd
     e84:	0000                	unimp
     e86:	0004                	0x4
     e88:	018d                	addi	gp,gp,3
     e8a:	0000                	unimp
     e8c:	0104                	addi	s1,sp,128
     e8e:	0581                	addi	a1,a1,0
     e90:	0000                	unimp
     e92:	430c                	lw	a1,0(a4)
     e94:	0001                	nop
     e96:	e100                	fsw	fs0,0(a0)
     e98:	0000                	unimp
     e9a:	d400                	sw	s0,40(s0)
     e9c:	02000027          	0x2000027
     ea0:	0601                	addi	a2,a2,0
     ea2:	00000533          	add	a0,zero,zero
     ea6:	0004f003          	0x4f003
     eaa:	0100                	addi	s0,sp,128
     eac:	0030182b          	0x30182b
     eb0:	0000                	unimp
     eb2:	0102                	c.slli64	sp
     eb4:	3108                	fld	fa0,32(a0)
     eb6:	0005                	c.nop	1
     eb8:	0400                	addi	s0,sp,512
     eba:	0030                	addi	a2,sp,8
     ebc:	0000                	unimp
     ebe:	0202                	c.slli64	tp
     ec0:	7305                	lui	t1,0xfffe1
     ec2:	0004                	0x4
     ec4:	0300                	addi	s0,sp,384
     ec6:	02b4                	addi	a3,sp,328
     ec8:	0000                	unimp
     eca:	3901                	jal	ada <_data_lma+0x306>
     ecc:	4f19                	li	t5,6
     ece:	0000                	unimp
     ed0:	0200                	addi	s0,sp,256
     ed2:	0702                	c.slli64	a4
     ed4:	05cc                	addi	a1,sp,708
     ed6:	0000                	unimp
     ed8:	00018103          	lb	sp,0(gp) # 20000940 <__global_pointer$>
     edc:	0100                	addi	s0,sp,128
     ede:	184d                	addi	a6,a6,-13
     ee0:	0062                	c.slli	zero,0x18
     ee2:	0000                	unimp
     ee4:	0402                	c.slli64	s0
     ee6:	7c05                	lui	s8,0xfffe1
     ee8:	03000003          	lb	zero,48(zero) # 30 <InterruptVector+0x30>
     eec:	0000053f 75194f01 	0x75194f010000053f
     ef4:	0000                	unimp
     ef6:	0200                	addi	s0,sp,256
     ef8:	0704                	addi	s1,sp,896
     efa:	00000273          	0x273
     efe:	0802                	c.slli64	a6
     f00:	7705                	lui	a4,0xfffe1
     f02:	02000003          	lb	zero,32(zero) # 20 <InterruptVector+0x20>
     f06:	0708                	addi	a0,sp,896
     f08:	026e                	slli	tp,tp,0x1b
     f0a:	0000                	unimp
     f0c:	0405                	addi	s0,s0,1
     f0e:	6905                	lui	s2,0x1
     f10:	746e                	flw	fs0,248(sp)
     f12:	0300                	addi	s0,sp,384
     f14:	0404                	addi	s1,sp,512
     f16:	0000                	unimp
     f18:	e801                	bnez	s0,f28 <ch32v003fun.c.8affbd33+0xa6>
     f1a:	9d1a                	add	s10,s10,t1
     f1c:	0000                	unimp
     f1e:	0200                	addi	s0,sp,256
     f20:	0704                	addi	s1,sp,896
     f22:	0278                	addi	a4,sp,268
     f24:	0000                	unimp
     f26:	0002ef03          	0x2ef03
     f2a:	0200                	addi	s0,sp,256
     f2c:	17d1                	addi	a5,a5,-12
     f2e:	009d                	addi	ra,ra,7
     f30:	0000                	unimp
     f32:	1002                	c.slli	zero,0x20
     f34:	eb04                	fsw	fs1,16(a4)
     f36:	03000003          	lb	zero,48(zero) # 30 <InterruptVector+0x30>
     f3a:	000002cb          	fnmsub.s	ft5,ft0,ft0,ft0,rne
     f3e:	c31b2803          	lw	a6,-975(s6) # c31 <_data_lma+0x45d>
     f42:	0000                	unimp
     f44:	0600                	addi	s0,sp,768
     f46:	df04                	sw	s1,56(a4)
     f48:	0005                	c.nop	1
     f4a:	0300                	addi	s0,sp,384
     f4c:	02d2                	slli	t0,t0,0x14
     f4e:	0000                	unimp
     f50:	2e04                	fld	fs1,24(a2)
     f52:	b718                	fsd	fa4,40(a4)
     f54:	0000                	unimp
     f56:	0700                	addi	s0,sp,896
     f58:	0804                	addi	s1,sp,16
     f5a:	3004                	fld	fs1,32(s0)
     f5c:	0000                	unimp
     f5e:	0800                	addi	s0,sp,16
     f60:	e304                	fsw	fs1,0(a4)
     f62:	0000                	unimp
     f64:	0200                	addi	s0,sp,256
     f66:	0801                	addi	a6,a6,0
     f68:	053a                	slli	a0,a0,0xe
     f6a:	0000                	unimp
     f6c:	e304                	fsw	fs1,0(a4)
     f6e:	0000                	unimp
     f70:	0800                	addi	s0,sp,16
     f72:	ea04                	fsw	fs1,16(a2)
     f74:	0000                	unimp
     f76:	0900                	addi	s0,sp,144
     f78:	000000e3          	beqz	zero,1778 <ch32v003fun.c.8affbd33+0x8f6>
     f7c:	0105                	addi	sp,sp,1
     f7e:	0000                	unimp
     f80:	9d0a                	add	s10,s10,sp
     f82:	0000                	unimp
     f84:	1700                	addi	s0,sp,928
     f86:	0300                	addi	s0,sp,384
     f88:	04f2                	slli	s1,s1,0x1c
     f8a:	0000                	unimp
     f8c:	1805                	addi	a6,a6,-31
     f8e:	00002413          	slti	s0,zero,0
     f92:	0400                	addi	s0,sp,512
     f94:	0105                	addi	sp,sp,1
     f96:	0000                	unimp
     f98:	0001110b          	0x1110b
     f9c:	0300                	addi	s0,sp,384
     f9e:	02b6                	slli	t0,t0,0xd
     fa0:	0000                	unimp
     fa2:	2405                	jal	11c2 <ch32v003fun.c.8affbd33+0x340>
     fa4:	4314                	lw	a3,0(a4)
     fa6:	0000                	unimp
     fa8:	0b00                	addi	s0,sp,400
     faa:	0000011b          	0x11b
     fae:	00018303          	lb	t1,0(gp) # 20000940 <__global_pointer$>
     fb2:	0500                	addi	s0,sp,640
     fb4:	132c                	addi	a1,sp,424
     fb6:	0056                	c.slli	zero,0x15
     fb8:	0000                	unimp
     fba:	00054103          	lbu	sp,0(a0)
     fbe:	0500                	addi	s0,sp,640
     fc0:	1430                	addi	a2,sp,552
     fc2:	0069                	c.nop	26
     fc4:	0000                	unimp
     fc6:	0001380b          	0x1380b
     fca:	0400                	addi	s0,sp,512
     fcc:	0144                	addi	s1,sp,132
     fce:	0000                	unimp
     fd0:	00040603          	lb	a2,0(s0)
     fd4:	0500                	addi	s0,sp,640
     fd6:	1552                	slli	a0,a0,0x34
     fd8:	0091                	addi	ra,ra,4
     fda:	0000                	unimp
     fdc:	2c0c                	fld	fa1,24(s0)
     fde:	ac06                	fsd	ft1,24(sp)
     fe0:	f309                	bnez	a4,ee2 <ch32v003fun.c.8affbd33+0x60>
     fe2:	0001                	nop
     fe4:	0d00                	addi	s0,sp,656
     fe6:	032a                	slli	t1,t1,0xa
     fe8:	0000                	unimp
     fea:	ae06                	fsd	ft1,280(sp)
     fec:	00014413          	xori	s0,sp,0
     ff0:	0000                	unimp
     ff2:	760d                	lui	a2,0xfffe3
     ff4:	0005                	c.nop	1
     ff6:	0600                	addi	s0,sp,768
     ff8:	014413af          	0x14413af
     ffc:	0000                	unimp
     ffe:	0d04                	addi	s1,sp,656
    1000:	0574                	addi	a3,sp,652
    1002:	0000                	unimp
    1004:	b006                	fsd	ft1,32(sp)
    1006:	00014413          	xori	s0,sp,0
    100a:	0800                	addi	s0,sp,16
    100c:	7b0d                	lui	s6,0xfffe3
    100e:	0005                	c.nop	1
    1010:	0600                	addi	s0,sp,768
    1012:	13b1                	addi	t2,t2,-20
    1014:	0144                	addi	s1,sp,132
    1016:	0000                	unimp
    1018:	0d0c                	addi	a1,sp,656
    101a:	0000032b          	0x32b
    101e:	b206                	fsd	ft1,288(sp)
    1020:	00014413          	xori	s0,sp,0
    1024:	1000                	addi	s0,sp,32
    1026:	2b0d                	jal	1558 <ch32v003fun.c.8affbd33+0x6d6>
    1028:	000a                	c.slli	zero,0x2
    102a:	0600                	addi	s0,sp,768
    102c:	014413b3          	sll	t2,s0,s4
    1030:	0000                	unimp
    1032:	0d14                	addi	a3,sp,656
    1034:	010d                	addi	sp,sp,3
    1036:	0000                	unimp
    1038:	b406                	fsd	ft1,40(sp)
    103a:	00014413          	xori	s0,sp,0
    103e:	1800                	addi	s0,sp,48
    1040:	4f0e                	lw	t5,192(sp)
    1042:	5242                	lw	tp,48(sp)
    1044:	0600                	addi	s0,sp,768
    1046:	13b5                	addi	t2,t2,-19
    1048:	0144                	addi	s1,sp,132
    104a:	0000                	unimp
    104c:	0e1c                	addi	a5,sp,784
    104e:	00525057          	0x525057
    1052:	b606                	fsd	ft1,296(sp)
    1054:	00014413          	xori	s0,sp,0
    1058:	2000                	fld	fs0,0(s0)
    105a:	1b0d                	addi	s6,s6,-29
    105c:	0001                	nop
    105e:	0600                	addi	s0,sp,768
    1060:	014413b7          	lui	t2,0x1441
    1064:	0000                	unimp
    1066:	0d24                	addi	s1,sp,664
    1068:	0116                	slli	sp,sp,0x5
    106a:	0000                	unimp
    106c:	b806                	fsd	ft1,48(sp)
    106e:	00014413          	xori	s0,sp,0
    1072:	2800                	fld	fs0,16(s0)
    1074:	0300                	addi	s0,sp,384
    1076:	00000303          	lb	t1,0(zero) # 0 <InterruptVector>
    107a:	b906                	fsd	ft1,176(sp)
    107c:	00015a03          	lhu	s4,0(sp)
    1080:	0f00                	addi	s0,sp,912
    1082:	061c                	addi	a5,sp,768
    1084:	6c090137          	lui	sp,0x6c090
    1088:	0002                	c.slli64	zero
    108a:	1000                	addi	s0,sp,32
    108c:	023c                	addi	a5,sp,264
    108e:	0000                	unimp
    1090:	3906                	fld	fs2,96(sp)
    1092:	1001                	c.nop	-32
    1094:	0144                	addi	s1,sp,132
    1096:	0000                	unimp
    1098:	1000                	addi	s0,sp,32
    109a:	000005fb          	0x5fb
    109e:	3a06                	fld	fs4,96(sp)
    10a0:	1001                	c.nop	-32
    10a2:	0144                	addi	s1,sp,132
    10a4:	0000                	unimp
    10a6:	1004                	addi	s1,sp,32
    10a8:	000001bb          	0x1bb
    10ac:	3b06                	fld	fs6,96(sp)
    10ae:	1001                	c.nop	-32
    10b0:	0149                	addi	sp,sp,18
    10b2:	0000                	unimp
    10b4:	1008                	addi	a0,sp,32
    10b6:	02f6                	slli	t0,t0,0x1d
    10b8:	0000                	unimp
    10ba:	3c06                	fld	fs8,96(sp)
    10bc:	1001                	c.nop	-32
    10be:	0144                	addi	s1,sp,132
    10c0:	0000                	unimp
    10c2:	100c                	addi	a1,sp,32
    10c4:	033e                	slli	t1,t1,0xf
    10c6:	0000                	unimp
    10c8:	3d06                	fld	fs10,96(sp)
    10ca:	1001                	c.nop	-32
    10cc:	0144                	addi	s1,sp,132
    10ce:	0000                	unimp
    10d0:	1110                	addi	a2,sp,160
    10d2:	4342                	lw	t1,16(sp)
    10d4:	0052                	c.slli	zero,0x14
    10d6:	3e06                	fld	ft8,96(sp)
    10d8:	1001                	c.nop	-32
    10da:	0144                	addi	s1,sp,132
    10dc:	0000                	unimp
    10de:	1014                	addi	a3,sp,32
    10e0:	0615                	addi	a2,a2,5
    10e2:	0000                	unimp
    10e4:	3f06                	fld	ft10,96(sp)
    10e6:	1001                	c.nop	-32
    10e8:	0144                	addi	s1,sp,132
    10ea:	0000                	unimp
    10ec:	0018                	0x18
    10ee:	fa12                	fsw	ft4,52(sp)
    10f0:	0004                	0x4
    10f2:	0600                	addi	s0,sp,768
    10f4:	0140                	addi	s0,sp,132
    10f6:	0001ff03          	0x1ff03
    10fa:	0f00                	addi	s0,sp,912
    10fc:	0628                	addi	a0,sp,776
    10fe:	10090177          	0x10090177
    1102:	10000003          	lb	zero,256(zero) # 100 <main+0x3c>
    1106:	0000032b          	0x32b
    110a:	7906                	flw	fs2,96(sp)
    110c:	1301                	addi	t1,t1,-32
    110e:	0144                	addi	s1,sp,132
    1110:	0000                	unimp
    1112:	1000                	addi	s0,sp,32
    1114:	000003b7          	lui	t2,0x0
    1118:	7a06                	flw	fs4,96(sp)
    111a:	1301                	addi	t1,t1,-32
    111c:	0144                	addi	s1,sp,132
    111e:	0000                	unimp
    1120:	1004                	addi	s1,sp,32
    1122:	0229                	addi	tp,tp,10
    1124:	0000                	unimp
    1126:	7b06                	flw	fs6,96(sp)
    1128:	1301                	addi	t1,t1,-32
    112a:	0144                	addi	s1,sp,132
    112c:	0000                	unimp
    112e:	1008                	addi	a0,sp,32
    1130:	04e0                	addi	s0,sp,588
    1132:	0000                	unimp
    1134:	7c06                	flw	fs8,96(sp)
    1136:	1301                	addi	t1,t1,-32
    1138:	0144                	addi	s1,sp,132
    113a:	0000                	unimp
    113c:	100c                	addi	a1,sp,32
    113e:	021f 0000 7d06      	0x7d060000021f
    1144:	1301                	addi	t1,t1,-32
    1146:	0144                	addi	s1,sp,132
    1148:	0000                	unimp
    114a:	1010                	addi	a2,sp,32
    114c:	03ae                	slli	t2,t2,0xb
    114e:	0000                	unimp
    1150:	7e06                	flw	ft8,96(sp)
    1152:	1301                	addi	t1,t1,-32
    1154:	0144                	addi	s1,sp,132
    1156:	0000                	unimp
    1158:	1014                	addi	a3,sp,32
    115a:	01b1                	addi	gp,gp,12
    115c:	0000                	unimp
    115e:	7f06                	flw	ft10,96(sp)
    1160:	1301                	addi	t1,t1,-32
    1162:	0144                	addi	s1,sp,132
    1164:	0000                	unimp
    1166:	1018                	addi	a4,sp,32
    1168:	000003cf          	fnmadd.s	ft7,ft0,ft0,ft0,rne
    116c:	8006                	c.mv	zero,ra
    116e:	1301                	addi	t1,t1,-32
    1170:	0144                	addi	s1,sp,132
    1172:	0000                	unimp
    1174:	101c                	addi	a5,sp,32
    1176:	042d                	addi	s0,s0,11
    1178:	0000                	unimp
    117a:	8106                	mv	sp,ra
    117c:	1301                	addi	t1,t1,-32
    117e:	0144                	addi	s1,sp,132
    1180:	0000                	unimp
    1182:	1020                	addi	s0,sp,40
    1184:	041e                	slli	s0,s0,0x7
    1186:	0000                	unimp
    1188:	8206                	mv	tp,ra
    118a:	1301                	addi	t1,t1,-32
    118c:	0144                	addi	s1,sp,132
    118e:	0000                	unimp
    1190:	0024                	addi	s1,sp,8
    1192:	1e12                	slli	t3,t3,0x24
    1194:	06000003          	lb	zero,96(zero) # 60 <InterruptVector+0x60>
    1198:	79030183          	lb	gp,1936(t1) # fffe1790 <__global_pointer$+0xdffe0e50>
    119c:	0002                	c.slli64	zero
    119e:	0f00                	addi	s0,sp,912
    11a0:	061c                	addi	a5,sp,768
    11a2:	01c6                	slli	gp,gp,0x11
    11a4:	ec09                	bnez	s0,11be <ch32v003fun.c.8affbd33+0x33c>
    11a6:	10000003          	lb	zero,256(zero) # 100 <main+0x3c>
    11aa:	0000057b          	0x57b
    11ae:	c806                	sw	ra,16(sp)
    11b0:	1301                	addi	t1,t1,-32
    11b2:	00000127          	0x127
    11b6:	1000                	addi	s0,sp,32
    11b8:	042d                	addi	s0,s0,11
    11ba:	0000                	unimp
    11bc:	c906                	sw	ra,144(sp)
    11be:	1301                	addi	t1,t1,-32
    11c0:	0000011b          	0x11b
    11c4:	1002                	c.slli	zero,0x20
    11c6:	08b6                	slli	a7,a7,0xd
    11c8:	0000                	unimp
    11ca:	ca06                	sw	ra,20(sp)
    11cc:	1301                	addi	t1,t1,-32
    11ce:	00000127          	0x127
    11d2:	1004                	addi	s1,sp,32
    11d4:	00000437          	lui	s0,0x0
    11d8:	cb06                	sw	ra,148(sp)
    11da:	1301                	addi	t1,t1,-32
    11dc:	0000011b          	0x11b
    11e0:	1106                	slli	sp,sp,0x21
    11e2:	5242                	lw	tp,48(sp)
    11e4:	0052                	c.slli	zero,0x14
    11e6:	cc06                	sw	ra,24(sp)
    11e8:	1301                	addi	t1,t1,-32
    11ea:	00000127          	0x127
    11ee:	1008                	addi	a0,sp,32
    11f0:	0441                	addi	s0,s0,16
    11f2:	0000                	unimp
    11f4:	cd06                	sw	ra,152(sp)
    11f6:	1301                	addi	t1,t1,-32
    11f8:	0000011b          	0x11b
    11fc:	100a                	c.slli	zero,0x22
    11fe:	06ae                	slli	a3,a3,0xb
    1200:	0000                	unimp
    1202:	ce06                	sw	ra,28(sp)
    1204:	1301                	addi	t1,t1,-32
    1206:	00000127          	0x127
    120a:	100c                	addi	a1,sp,32
    120c:	0000044b          	fnmsub.s	fs0,ft0,ft0,ft0,rne
    1210:	cf06                	sw	ra,156(sp)
    1212:	1301                	addi	t1,t1,-32
    1214:	0000011b          	0x11b
    1218:	100e                	c.slli	zero,0x23
    121a:	06b6                	slli	a3,a3,0xd
    121c:	0000                	unimp
    121e:	d006                	sw	ra,32(sp)
    1220:	1301                	addi	t1,t1,-32
    1222:	00000127          	0x127
    1226:	1010                	addi	a2,sp,32
    1228:	0455                	addi	s0,s0,21
    122a:	0000                	unimp
    122c:	d106                	sw	ra,160(sp)
    122e:	1301                	addi	t1,t1,-32
    1230:	0000011b          	0x11b
    1234:	1012                	c.slli	zero,0x24
    1236:	03fe                	slli	t2,t2,0x1f
    1238:	0000                	unimp
    123a:	d206                	sw	ra,36(sp)
    123c:	1301                	addi	t1,t1,-32
    123e:	00000127          	0x127
    1242:	1014                	addi	a3,sp,32
    1244:	045f 0000 d306      	0xd3060000045f
    124a:	1301                	addi	t1,t1,-32
    124c:	0000011b          	0x11b
    1250:	1116                	slli	sp,sp,0x25
    1252:	00525047          	fmsub.s	ft0,ft4,ft5,ft0,unknown
    1256:	d406                	sw	ra,40(sp)
    1258:	1301                	addi	t1,t1,-32
    125a:	00000127          	0x127
    125e:	1018                	addi	a4,sp,32
    1260:	0469                	addi	s0,s0,26
    1262:	0000                	unimp
    1264:	d506                	sw	ra,168(sp)
    1266:	1301                	addi	t1,t1,-32
    1268:	0000011b          	0x11b
    126c:	001a                	c.slli	zero,0x6
    126e:	4312                	lw	t1,4(sp)
    1270:	06000003          	lb	zero,96(zero) # 60 <InterruptVector+0x60>
    1274:	01d6                	slli	gp,gp,0x15
    1276:	00031d03          	lh	s10,0(t1)
    127a:	0900                	addi	s0,sp,144
    127c:	0116                	slli	sp,sp,0x5
    127e:	0000                	unimp
    1280:	0409                	addi	s0,s0,2
    1282:	0000                	unimp
    1284:	9d0a                	add	s10,s10,sp
    1286:	0000                	unimp
    1288:	0f00                	addi	s0,sp,912
    128a:	0400                	addi	s0,sp,512
    128c:	03f9                	addi	t2,t2,30
    128e:	0000                	unimp
    1290:	0004090b          	0x4090b
    1294:	1300                	addi	s0,sp,416
    1296:	048e                	slli	s1,s1,0x3
    1298:	0000                	unimp
    129a:	7306                	flw	ft6,96(sp)
    129c:	040e140b          	0x40e140b
    12a0:	0000                	unimp
    12a2:	1609                	addi	a2,a2,-30
    12a4:	0001                	nop
    12a6:	3000                	fld	fs0,32(s0)
    12a8:	0004                	0x4
    12aa:	0a00                	addi	s0,sp,272
    12ac:	009d                	addi	ra,ra,7
    12ae:	0000                	unimp
    12b0:	20040013          	addi	zero,s0,512 # 200 <main+0x13c>
    12b4:	0004                	0x4
    12b6:	0b00                	addi	s0,sp,400
    12b8:	0430                	addi	a2,sp,520
    12ba:	0000                	unimp
    12bc:	00016513          	ori	a0,sp,0
    12c0:	0600                	addi	s0,sp,768
    12c2:	0b74                	addi	a3,sp,412
    12c4:	3514                	fld	fa3,40(a0)
    12c6:	0004                	0x4
    12c8:	1400                	addi	s0,sp,544
    12ca:	009d0407          	0x9d0407
    12ce:	0000                	unimp
    12d0:	1306                	slli	t1,t1,0x21
    12d2:	010d                	addi	sp,sp,3
    12d4:	0469                	addi	s0,s0,26
    12d6:	0000                	unimp
    12d8:	5515                	li	a0,-27
    12da:	0002                	c.slli64	zero
    12dc:	0100                	addi	s0,sp,128
    12de:	cf15                	beqz	a4,131a <ch32v003fun.c.8affbd33+0x498>
    12e0:	0001                	nop
    12e2:	0200                	addi	s0,sp,256
    12e4:	4a15                	li	s4,5
    12e6:	0005                	c.nop	1
    12e8:	0300                	addi	s0,sp,384
    12ea:	0f00                	addi	s0,sp,912
    12ec:	0618                	addi	a4,sp,768
    12ee:	115c                	addi	a5,sp,164
    12f0:	c709                	beqz	a4,12fa <ch32v003fun.c.8affbd33+0x478>
    12f2:	0004                	0x4
    12f4:	1000                	addi	s0,sp,32
    12f6:	0000032b          	0x32b
    12fa:	5e06                	lw	t3,96(sp)
    12fc:	1311                	addi	t1,t1,-28
    12fe:	0144                	addi	s1,sp,132
    1300:	0000                	unimp
    1302:	1100                	addi	s0,sp,160
    1304:	06005253          	fadd.q	ft4,ft0,ft0,unknown
    1308:	115f 4413 0001      	0x14413115f
    130e:	0400                	addi	s0,sp,512
    1310:	4311                	li	t1,4
    1312:	544e                	lw	s0,240(sp)
    1314:	0600                	addi	s0,sp,768
    1316:	1160                	addi	s0,sp,172
    1318:	00014413          	xori	s0,sp,0
    131c:	0800                	addi	s0,sp,16
    131e:	2d10                	fld	fa2,24(a0)
    1320:	0004                	0x4
    1322:	0600                	addi	s0,sp,768
    1324:	1161                	addi	sp,sp,-8
    1326:	380e                	fld	fa6,224(sp)
    1328:	0001                	nop
    132a:	0c00                	addi	s0,sp,528
    132c:	4311                	li	t1,4
    132e:	504d                	c.li	zero,-13
    1330:	0600                	addi	s0,sp,768
    1332:	1162                	slli	sp,sp,0x38
    1334:	00014413          	xori	s0,sp,0
    1338:	1000                	addi	s0,sp,32
    133a:	3710                	fld	fa2,40(a4)
    133c:	0004                	0x4
    133e:	0600                	addi	s0,sp,768
    1340:	380e1163          	bnez	t3,16c2 <ch32v003fun.c.8affbd33+0x840>
    1344:	0001                	nop
    1346:	1400                	addi	s0,sp,544
    1348:	1200                	addi	s0,sp,288
    134a:	03de                	slli	t2,t2,0x17
    134c:	0000                	unimp
    134e:	6406                	flw	fs0,64(sp)
    1350:	0211                	addi	tp,tp,4
    1352:	0469                	addi	s0,s0,26
    1354:	0000                	unimp
    1356:	7316                	flw	ft6,100(sp)
    1358:	0001                	nop
    135a:	0700                	addi	s0,sp,896
    135c:	008a050f          	0x8a050f
    1360:	0000                	unimp
    1362:	0005f117          	auipc	sp,0x5f
    1366:	0c00                	addi	s0,sp,528
    1368:	0801d107          	0x801d107
    136c:	0519                	addi	a0,a0,6
    136e:	0000                	unimp
    1370:	8610                	0x8610
    1372:	07000003          	lb	zero,112(zero) # 70 <InterruptVector+0x70>
    1376:	01d2                	slli	gp,gp,0x14
    1378:	dd08                	sw	a0,56(a0)
    137a:	0000                	unimp
    137c:	0000                	unimp
    137e:	8510                	0x8510
    1380:	07000003          	lb	zero,112(zero) # 70 <InterruptVector+0x70>
    1384:	01d2                	slli	gp,gp,0x14
    1386:	dd11                	beqz	a0,12a2 <ch32v003fun.c.8affbd33+0x420>
    1388:	0000                	unimp
    138a:	0400                	addi	s0,sp,512
    138c:	1710                	addi	a2,sp,928
    138e:	0005                	c.nop	1
    1390:	0700                	addi	s0,sp,896
    1392:	9d0f01d3          	0x9d0f01d3
    1396:	0000                	unimp
    1398:	0800                	addi	s0,sp,16
    139a:	1800                	addi	s0,sp,48
    139c:	0000029b          	0x29b
    13a0:	0603d407          	0x603d407
    13a4:	0000053f 07006e19 	0x7006e190000053f
    13ac:	03d4                	addi	a3,sp,452
    13ae:	381d                	jal	be4 <_data_lma+0x410>
    13b0:	0001                	nop
    13b2:	1300                	addi	s0,sp,416
    13b4:	0000018b          	0x18b
    13b8:	0b03d607          	0xb03d607
    13bc:	0138                	addi	a4,sp,136
    13be:	0000                	unimp
    13c0:	1a00                	addi	s0,sp,304
    13c2:	01e9                	addi	gp,gp,26
    13c4:	0000                	unimp
    13c6:	0603cd07          	flq	fs10,96(t2) # 60 <InterruptVector+0x60>
    13ca:	7d1a                	flw	fs10,164(sp)
    13cc:	0004                	0x4
    13ce:	0700                	addi	s0,sp,896
    13d0:	03c6                	slli	t2,t2,0x11
    13d2:	1b06                	slli	s6,s6,0x21
    13d4:	01a9                	addi	gp,gp,10
    13d6:	0000                	unimp
    13d8:	0503be07          	fld	ft8,80(t2)
    13dc:	008a                	slli	ra,ra,0x2
    13de:	0000                	unimp
    13e0:	0000057b          	0x57b
    13e4:	6319                	lui	t1,0x6
    13e6:	0700                	addi	s0,sp,896
    13e8:	03be                	slli	t2,t2,0xf
    13ea:	8a11                	andi	a2,a2,4
    13ec:	0000                	unimp
    13ee:	1300                	addi	s0,sp,416
    13f0:	0000055b          	0x55b
    13f4:	0603c007          	flq	ft0,96(t2)
    13f8:	008a                	slli	ra,ra,0x2
    13fa:	0000                	unimp
    13fc:	1b00                	addi	s0,sp,432
    13fe:	000003f7          	0x3f7
    1402:	05039907          	0x5039907
    1406:	008a                	slli	ra,ra,0x2
    1408:	0000                	unimp
    140a:	05f4                	addi	a3,sp,716
    140c:	0000                	unimp
    140e:	6619                	lui	a2,0x6
    1410:	0064                	addi	s1,sp,12
    1412:	10039907          	0x10039907
    1416:	008a                	slli	ra,ra,0x2
    1418:	0000                	unimp
    141a:	6219                	lui	tp,0x6
    141c:	6675                	lui	a2,0x1d
    141e:	0700                	addi	s0,sp,896
    1420:	0399                	addi	t2,t2,6
    1422:	ef20                	fsw	fs0,88(a4)
    1424:	0000                	unimp
    1426:	1c00                	addi	s0,sp,560
    1428:	03a9                	addi	t2,t2,10
    142a:	0000                	unimp
    142c:	29039907          	0x29039907
    1430:	008a                	slli	ra,ra,0x2
    1432:	0000                	unimp
    1434:	00038613          	mv	a2,t2
    1438:	0700                	addi	s0,sp,896
    143a:	f407039b          	0xf407039b
    143e:	0005                	c.nop	1
    1440:	1300                	addi	s0,sp,416
    1442:	000002bf 06039c07 	0x6039c07000002bf
    144a:	008a                	slli	ra,ra,0x2
    144c:	0000                	unimp
    144e:	00055b13          	srli	s6,a0,0x0
    1452:	0700                	addi	s0,sp,896
    1454:	039d                	addi	t2,t2,7
    1456:	0001380b          	0x1380b
    145a:	1d00                	addi	s0,sp,688
    145c:	00052213          	slti	tp,a0,0
    1460:	0700                	addi	s0,sp,896
    1462:	03a0                	addi	s0,sp,456
    1464:	00008a07          	0x8a07
    1468:	1e00                	addi	s0,sp,816
    146a:	0074                	addi	a3,sp,12
    146c:	0703a707          	flw	fa4,112(t2)
    1470:	008a                	slli	ra,ra,0x2
    1472:	0000                	unimp
    1474:	0000                	unimp
    1476:	e309                	bnez	a4,1478 <ch32v003fun.c.8affbd33+0x5f6>
    1478:	0000                	unimp
    147a:	0400                	addi	s0,sp,512
    147c:	0006                	c.slli	zero,0x1
    147e:	0a00                	addi	s0,sp,272
    1480:	009d                	addi	ra,ra,7
    1482:	0000                	unimp
    1484:	4b180003          	lb	zero,1201(a6)
    1488:	0002                	c.slli64	zero
    148a:	0700                	addi	s0,sp,896
    148c:	036d                	addi	t1,t1,27
    148e:	1f06                	slli	t5,t5,0x21
    1490:	0006                	c.slli	zero,0x1
    1492:	1c00                	addi	s0,sp,560
    1494:	0266                	slli	tp,tp,0x19
    1496:	0000                	unimp
    1498:	15036d07          	0x15036d07
    149c:	008a                	slli	ra,ra,0x2
    149e:	0000                	unimp
    14a0:	1800                	addi	s0,sp,48
    14a2:	0366                	slli	t1,t1,0x19
    14a4:	0000                	unimp
    14a6:	06035c07          	0x6035c07
    14aa:	063a                	slli	a2,a2,0xe
    14ac:	0000                	unimp
    14ae:	fc1c                	fsw	fa5,56(s0)
    14b0:	0002                	c.slli64	zero
    14b2:	0700                	addi	s0,sp,896
    14b4:	035c                	addi	a5,sp,388
    14b6:	8a1c                	0x8a1c
    14b8:	0000                	unimp
    14ba:	0000                	unimp
    14bc:	1018                	addi	a4,sp,32
    14be:	0004                	0x4
    14c0:	0700                	addi	s0,sp,896
    14c2:	034e                	slli	t1,t1,0x13
    14c4:	5506                	lw	a0,96(sp)
    14c6:	0006                	c.slli	zero,0x1
    14c8:	1c00                	addi	s0,sp,560
    14ca:	02fc                	addi	a5,sp,332
    14cc:	0000                	unimp
    14ce:	19034e07          	flq	ft8,400(t1) # 6190 <wiring.c.7604182b+0x3797>
    14d2:	008a                	slli	ra,ra,0x2
    14d4:	0000                	unimp
    14d6:	1f00                	addi	s0,sp,944
    14d8:	00000193          	li	gp,0
    14dc:	06034507          	flq	fa0,96(t1)
    14e0:	d01f 0004 0700      	0x7000004d01f
    14e6:	1a060337          	lui	t1,0x1a060
    14ea:	0208                	addi	a0,sp,256
    14ec:	0000                	unimp
    14ee:	0602cf07          	flq	ft10,96(t0)
    14f2:	0003111b          	0x3111b
    14f6:	0700                	addi	s0,sp,896
    14f8:	0285                	addi	t0,t0,1
    14fa:	8a01                	andi	a2,a2,0
    14fc:	0000                	unimp
    14fe:	c300                	sw	s0,0(a4)
    1500:	0006                	c.slli	zero,0x1
    1502:	1c00                	addi	s0,sp,560
    1504:	03be                	slli	t2,t2,0xf
    1506:	0000                	unimp
    1508:	14028507          	0x14028507
    150c:	06dc                	addi	a5,sp,836
    150e:	0000                	unimp
    1510:	6219                	lui	tp,0x6
    1512:	6675                	lui	a2,0x1d
    1514:	0700                	addi	s0,sp,896
    1516:	0285                	addi	t0,t0,1
    1518:	d53d                	beqz	a0,1486 <ch32v003fun.c.8affbd33+0x604>
    151a:	0000                	unimp
    151c:	1900                	addi	s0,sp,176
    151e:	6d66                	flw	fs10,88(sp)
    1520:	0074                	addi	a3,sp,12
    1522:	4e028507          	0x4e028507
    1526:	000000ef          	jal	ra,1526 <ch32v003fun.c.8affbd33+0x6a4>
    152a:	1e20                	addi	s0,sp,824
    152c:	6572                	flw	fa0,28(sp)
    152e:	0074                	addi	a3,sp,12
    1530:	06028707          	0x6028707
    1534:	008a                	slli	ra,ra,0x2
    1536:	0000                	unimp
    1538:	761e                	flw	fa2,228(sp)
    153a:	0061                	c.nop	24
    153c:	0a028807          	0xa028807
    1540:	00c9                	addi	ra,ra,18
    1542:	0000                	unimp
    1544:	2100                	fld	fs0,0(a0)
    1546:	008a                	slli	ra,ra,0x2
    1548:	0000                	unimp
    154a:	06dc                	addi	a5,sp,836
    154c:	0000                	unimp
    154e:	dd22                	sw	s0,184(sp)
    1550:	0000                	unimp
    1552:	2200                	fld	fs0,0(a2)
    1554:	008a                	slli	ra,ra,0x2
    1556:	0000                	unimp
    1558:	d522                	sw	s0,168(sp)
    155a:	0000                	unimp
    155c:	0000                	unimp
    155e:	0408                	addi	a0,sp,512
    1560:	000006c3          	fmadd.s	fa3,ft0,ft0,ft0,rne
    1564:	0002851b          	0x2851b
    1568:	0700                	addi	s0,sp,896
    156a:	0279                	addi	tp,tp,30
    156c:	8a01                	andi	a2,a2,0
    156e:	0000                	unimp
    1570:	3500                	fld	fs0,40(a0)
    1572:	1c000007          	0x1c000007
    1576:	0386                	slli	t2,t2,0x1
    1578:	0000                	unimp
    157a:	15027907          	0x15027907
    157e:	00dd                	addi	ra,ra,23
    1580:	0000                	unimp
    1582:	171c                	addi	a5,sp,928
    1584:	0005                	c.nop	1
    1586:	0700                	addi	s0,sp,896
    1588:	0279                	addi	tp,tp,30
    158a:	9d2a                	add	s10,s10,a0
    158c:	0000                	unimp
    158e:	1900                	addi	s0,sp,176
    1590:	6d66                	flw	fs10,88(sp)
    1592:	0074                	addi	a3,sp,12
    1594:	42027907          	0x42027907
    1598:	000000ef          	jal	ra,1598 <ch32v003fun.c.8affbd33+0x716>
    159c:	1e20                	addi	s0,sp,824
    159e:	6572                	flw	fa0,28(sp)
    15a0:	0074                	addi	a3,sp,12
    15a2:	06027b07          	0x6027b07
    15a6:	008a                	slli	ra,ra,0x2
    15a8:	0000                	unimp
    15aa:	761e                	flw	fa2,228(sp)
    15ac:	0061                	c.nop	24
    15ae:	0a027c07          	0xa027c07
    15b2:	00c9                	addi	ra,ra,18
    15b4:	0000                	unimp
    15b6:	1b00                	addi	s0,sp,432
    15b8:	0358                	addi	a4,sp,388
    15ba:	0000                	unimp
    15bc:	01020807          	0x1020807
    15c0:	008a                	slli	ra,ra,0x2
    15c2:	0000                	unimp
    15c4:	07f6                	slli	a5,a5,0x1d
    15c6:	0000                	unimp
    15c8:	be1c                	fsd	fa5,56(a2)
    15ca:	07000003          	lb	zero,112(zero) # 70 <InterruptVector+0x70>
    15ce:	0208                	addi	a0,sp,256
    15d0:	dc15                	beqz	s0,150c <ch32v003fun.c.8affbd33+0x68a>
    15d2:	0006                	c.slli	zero,0x1
    15d4:	1900                	addi	s0,sp,176
    15d6:	7562                	flw	fa0,56(sp)
    15d8:	0066                	c.slli	zero,0x19
    15da:	3f020807          	0x3f020807
    15de:	00d5                	addi	ra,ra,21
    15e0:	0000                	unimp
    15e2:	6619                	lui	a2,0x6
    15e4:	746d                	lui	s0,0xffffb
    15e6:	0700                	addi	s0,sp,896
    15e8:	0208                	addi	a0,sp,256
    15ea:	ef50                	fsw	fa2,28(a4)
    15ec:	0000                	unimp
    15ee:	1900                	addi	s0,sp,176
    15f0:	6176                	flw	ft2,92(sp)
    15f2:	0700                	addi	s0,sp,896
    15f4:	0208                	addi	a0,sp,256
    15f6:	c95d                	beqz	a0,16ac <ch32v003fun.c.8affbd33+0x82a>
    15f8:	0000                	unimp
    15fa:	1e00                	addi	s0,sp,816
    15fc:	6662                	flw	fa2,24(sp)
    15fe:	0700                	addi	s0,sp,896
    1600:	020a                	slli	tp,tp,0x2
    1602:	0000f507          	0xf507
    1606:	1e00                	addi	s0,sp,816
    1608:	6662                	flw	fa2,24(sp)
    160a:	0032                	c.slli	zero,0xc
    160c:	07020b07          	0x7020b07
    1610:	00f5                	addi	ra,ra,29
    1612:	0000                	unimp
    1614:	631e                	flw	ft6,196(sp)
    1616:	0068                	addi	a0,sp,12
    1618:	07020c07          	0x7020c07
    161c:	000000e3          	beqz	zero,1e1c <main_pwm.c.3eb49e96+0x60>
    1620:	6e1e                	flw	ft8,196(sp)
    1622:	0700                	addi	s0,sp,896
    1624:	0214                	addi	a3,sp,256
    1626:	8a06                	mv	s4,ra
    1628:	0000                	unimp
    162a:	2300                	fld	fs0,0(a4)
    162c:	6e65                	lui	t3,0x19
    162e:	0064                	addi	s1,sp,12
    1630:	01027307          	0x1027307
    1634:	1e1d                	addi	t3,t3,-25
    1636:	656c                	flw	fa1,76(a0)
    1638:	006e                	c.slli	zero,0x1b
    163a:	07021607          	0x7021607
    163e:	008a                	slli	ra,ra,0x2
    1640:	0000                	unimp
    1642:	131d                	addi	t1,t1,-25
    1644:	038d                	addi	t2,t2,3
    1646:	0000                	unimp
    1648:	09021b07          	0x9021b07
    164c:	000000e3          	beqz	zero,1e4c <main_pwm.c.3eb49e96+0x90>
    1650:	0003c313          	xori	t1,t2,0
    1654:	0700                	addi	s0,sp,896
    1656:	021c                	addi	a5,sp,256
    1658:	8a08                	0x8a08
    165a:	0000                	unimp
    165c:	1e00                	addi	s0,sp,816
    165e:	006c                	addi	a1,sp,12
    1660:	09021d07          	0x9021d07
    1664:	000000e3          	beqz	zero,1e64 <main_pwm.c.3eb49e96+0xa8>
    1668:	701e                	flw	ft0,228(sp)
    166a:	7274                	flw	fa3,100(a2)
    166c:	0700                	addi	s0,sp,896
    166e:	021e                	slli	tp,tp,0x7
    1670:	dd0a                	sw	sp,184(sp)
    1672:	0000                	unimp
    1674:	0000                	unimp
    1676:	0000                	unimp
    1678:	0001c01b          	0x1c01b
    167c:	0700                	addi	s0,sp,896
    167e:	01f9                	addi	gp,gp,30
    1680:	8a01                	andi	a2,a2,0
    1682:	0000                	unimp
    1684:	5100                	lw	s0,32(a0)
    1686:	0008                	0x8
    1688:	1c00                	addi	s0,sp,560
    168a:	0386                	slli	t2,t2,0x1
    168c:	0000                	unimp
    168e:	1601f907          	0x1601f907
    1692:	00dd                	addi	ra,ra,23
    1694:	0000                	unimp
    1696:	171c                	addi	a5,sp,928
    1698:	0005                	c.nop	1
    169a:	0700                	addi	s0,sp,896
    169c:	01f9                	addi	gp,gp,30
    169e:	00009d2b          	0x9d2b
    16a2:	1900                	addi	s0,sp,176
    16a4:	6d66                	flw	fs10,88(sp)
    16a6:	0074                	addi	a3,sp,12
    16a8:	4301f907          	0x4301f907
    16ac:	000000ef          	jal	ra,16ac <ch32v003fun.c.8affbd33+0x82a>
    16b0:	7619                	lui	a2,0xfffe6
    16b2:	0061                	c.nop	24
    16b4:	5001f907          	0x5001f907
    16b8:	00c9                	addi	ra,ra,18
    16ba:	0000                	unimp
    16bc:	621e                	flw	ft4,196(sp)
    16be:	0700                	addi	s0,sp,896
    16c0:	e01301fb          	0xe01301fb
    16c4:	0004                	0x4
    16c6:	1e00                	addi	s0,sp,816
    16c8:	006e                	c.slli	zero,0x1b
    16ca:	06020007          	0x6020007
    16ce:	008a                	slli	ra,ra,0x2
    16d0:	0000                	unimp
    16d2:	2400                	fld	fs0,8(s0)
    16d4:	03bd                	addi	t2,t2,15
    16d6:	0000                	unimp
    16d8:	0101d707          	0x101d707
    16dc:	008a                	slli	ra,ra,0x2
    16de:	0000                	unimp
    16e0:	08aa                	slli	a7,a7,0xa
    16e2:	0000                	unimp
    16e4:	7319                	lui	t1,0xfffe6
    16e6:	0700                	addi	s0,sp,896
    16e8:	dd0d01d7          	0xdd0d01d7
    16ec:	0000                	unimp
    16ee:	1900                	addi	s0,sp,176
    16f0:	656c                	flw	fa1,76(a0)
    16f2:	006e                	c.slli	zero,0x1b
    16f4:	1401d707          	0x1401d707
    16f8:	008a                	slli	ra,ra,0x2
    16fa:	0000                	unimp
    16fc:	6219                	lui	tp,0x6
    16fe:	6675                	lui	a2,0x1d
    1700:	0700                	addi	s0,sp,896
    1702:	d51f01d7          	0xd51f01d7
    1706:	0000                	unimp
    1708:	1e00                	addi	s0,sp,816
    170a:	0062                	c.slli	zero,0x18
    170c:	1401da07          	0x1401da07
    1710:	08aa                	slli	a7,a7,0xa
    1712:	0000                	unimp
    1714:	701e                	flw	ft0,228(sp)
    1716:	0030                	addi	a2,sp,8
    1718:	0901db07          	0x901db07
    171c:	00dd                	addi	ra,ra,23
    171e:	0000                	unimp
    1720:	691e                	flw	fs2,196(sp)
    1722:	0700                	addi	s0,sp,896
    1724:	01dc                	addi	a5,sp,196
    1726:	8a06                	mv	s4,ra
    1728:	0000                	unimp
    172a:	0000                	unimp
    172c:	0408                	addi	a0,sp,512
    172e:	04e0                	addi	s0,sp,588
    1730:	0000                	unimp
    1732:	4224                	lw	s1,64(a2)
    1734:	0002                	c.slli64	zero
    1736:	0700                	addi	s0,sp,896
    1738:	01b8                	addi	a4,sp,200
    173a:	8a01                	andi	a2,a2,0
    173c:	0000                	unimp
    173e:	2800                	fld	fs0,16(s0)
    1740:	0009                	c.nop	2
    1742:	1900                	addi	s0,sp,176
    1744:	7470                	flw	fa2,108(s0)
    1746:	0072                	c.slli	zero,0x1c
    1748:	1001b807          	fld	fa6,256(gp) # 20000a40 <__global_pointer$+0x100>
    174c:	00dd                	addi	ra,ra,23
    174e:	0000                	unimp
    1750:	6c19                	lui	s8,0x6
    1752:	6e65                	lui	t3,0x19
    1754:	0700                	addi	s0,sp,896
    1756:	01b8                	addi	a4,sp,200
    1758:	8a19                	andi	a2,a2,6
    175a:	0000                	unimp
    175c:	1c00                	addi	s0,sp,560
    175e:	038d                	addi	t2,t2,3
    1760:	0000                	unimp
    1762:	2301b807          	fld	fa6,560(gp) # 20000b70 <__global_pointer$+0x230>
    1766:	000000e3          	beqz	zero,1f66 <main_pwm.c.3eb49e96+0x1aa>
    176a:	c31c                	sw	a5,0(a4)
    176c:	07000003          	lb	zero,112(zero) # 70 <InterruptVector+0x70>
    1770:	01b8                	addi	a4,sp,200
    1772:	8a31                	andi	a2,a2,12
    1774:	0000                	unimp
    1776:	1c00                	addi	s0,sp,560
    1778:	0386                	slli	t2,t2,0x1
    177a:	0000                	unimp
    177c:	3f01b807          	fld	fa6,1008(gp) # 20000d30 <__global_pointer$+0x3f0>
    1780:	00dd                	addi	ra,ra,23
    1782:	0000                	unimp
    1784:	691e                	flw	fs2,196(sp)
    1786:	0700                	addi	s0,sp,896
    1788:	01ba                	slli	gp,gp,0xe
    178a:	8a06                	mv	s4,ra
    178c:	0000                	unimp
    178e:	1300                	addi	s0,sp,416
    1790:	012c                	addi	a1,sp,136
    1792:	0000                	unimp
    1794:	0601bb07          	fld	fs6,96(gp) # 200009a0 <__global_pointer$+0x60>
    1798:	008a                	slli	ra,ra,0x2
    179a:	0000                	unimp
    179c:	00038513          	mv	a0,t2
    17a0:	0700                	addi	s0,sp,896
    17a2:	01bc                	addi	a5,sp,200
    17a4:	dd09                	beqz	a0,16be <ch32v003fun.c.8affbd33+0x83c>
    17a6:	0000                	unimp
    17a8:	0000                	unimp
    17aa:	df24                	sw	s1,120(a4)
    17ac:	0001                	nop
    17ae:	0700                	addi	s0,sp,896
    17b0:	8a01018f          	0x8a01018f
    17b4:	0000                	unimp
    17b6:	cd00                	sw	s0,24(a0)
    17b8:	0009                	c.nop	2
    17ba:	1c00                	addi	s0,sp,560
    17bc:	02c5                	addi	t0,t0,17
    17be:	0000                	unimp
    17c0:	10018f07          	0x10018f07
    17c4:	0062                	c.slli	zero,0x18
    17c6:	0000                	unimp
    17c8:	ea1c                	fsw	fa5,16(a2)
    17ca:	0004                	0x4
    17cc:	0700                	addi	s0,sp,896
    17ce:	9d24018f          	0x9d24018f
    17d2:	0000                	unimp
    17d4:	1c00                	addi	s0,sp,560
    17d6:	02e5                	addi	t0,t0,25
    17d8:	0000                	unimp
    17da:	2f018f07          	0x2f018f07
    17de:	008a                	slli	ra,ra,0x2
    17e0:	0000                	unimp
    17e2:	a31c                	fsd	fa5,0(a4)
    17e4:	0001                	nop
    17e6:	0700                	addi	s0,sp,896
    17e8:	8a3e018f          	0x8a3e018f
    17ec:	0000                	unimp
    17ee:	1c00                	addi	s0,sp,560
    17f0:	0386                	slli	t2,t2,0x1
    17f2:	0000                	unimp
    17f4:	09019007          	0x9019007
    17f8:	00dd                	addi	ra,ra,23
    17fa:	0000                	unimp
    17fc:	00038513          	mv	a0,t2
    1800:	0700                	addi	s0,sp,896
    1802:	0192                	slli	gp,gp,0x4
    1804:	dd08                	sw	a0,56(a0)
    1806:	0000                	unimp
    1808:	1300                	addi	s0,sp,416
    180a:	049f 0000 9307      	0x93070000049f
    1810:	0601                	addi	a2,a2,0
    1812:	008a                	slli	ra,ra,0x2
    1814:	0000                	unimp
    1816:	691e                	flw	fs2,196(sp)
    1818:	0700                	addi	s0,sp,896
    181a:	0194                	addi	a3,sp,192
    181c:	8a06                	mv	s4,ra
    181e:	0000                	unimp
    1820:	1e00                	addi	s0,sp,816
    1822:	656c                	flw	fa1,76(a0)
    1824:	006e                	c.slli	zero,0x1b
    1826:	09019407          	0x9019407
    182a:	008a                	slli	ra,ra,0x2
    182c:	0000                	unimp
    182e:	bf25                	j	1766 <ch32v003fun.c.8affbd33+0x8e4>
    1830:	0009                	c.nop	2
    1832:	1300                	addi	s0,sp,416
    1834:	0396                	slli	t2,t2,0x5
    1836:	0000                	unimp
    1838:	0701a107          	flw	ft2,112(gp) # 200009b0 <__global_pointer$+0x70>
    183c:	008a                	slli	ra,ra,0x2
    183e:	0000                	unimp
    1840:	1d00                	addi	s0,sp,688
    1842:	6a1e                	flw	fs4,196(sp)
    1844:	0700                	addi	s0,sp,896
    1846:	e30801af          	0xe30801af
    184a:	0000                	unimp
    184c:	0000                	unimp
    184e:	1b00                	addi	s0,sp,432
    1850:	03be                	slli	t2,t2,0xf
    1852:	0000                	unimp
    1854:	05015907          	0x5015907
    1858:	008a                	slli	ra,ra,0x2
    185a:	0000                	unimp
    185c:	09f6                	slli	s3,s3,0x1d
    185e:	0000                	unimp
    1860:	7319                	lui	t1,0xfffe6
    1862:	0700                	addi	s0,sp,896
    1864:	0159                	addi	sp,sp,22
    1866:	ef16                	fsw	ft5,156(sp)
    1868:	0000                	unimp
    186a:	1e00                	addi	s0,sp,816
    186c:	07006c73          	csrrsi	s8,0x70,0
    1870:	8a06015b          	0x8a06015b
    1874:	0000                	unimp
    1876:	0000                	unimp
    1878:	0003511b          	0x3511b
    187c:	0700                	addi	s0,sp,896
    187e:	0151                	addi	sp,sp,20
    1880:	0000d507          	0xd507
    1884:	3600                	fld	fs0,40(a2)
    1886:	000a                	c.slli	zero,0x2
    1888:	1900                	addi	s0,sp,176
    188a:	00637273          	csrrci	tp,0x6,6
    188e:	1a015107          	0x1a015107
    1892:	0a36                	slli	s4,s4,0xd
    1894:	0000                	unimp
    1896:	6319                	lui	t1,0x6
    1898:	0700                	addi	s0,sp,896
    189a:	0151                	addi	sp,sp,20
    189c:	00008a23          	sb	zero,20(ra)
    18a0:	1900                	addi	s0,sp,176
    18a2:	006e                	c.slli	zero,0x1b
    18a4:	2d015107          	0x2d015107
    18a8:	00a4                	addi	s1,sp,72
    18aa:	0000                	unimp
    18ac:	731e                	flw	ft6,228(sp)
    18ae:	0700                	addi	s0,sp,896
    18b0:	3d170153          	0x3d170153
    18b4:	000a                	c.slli	zero,0x2
    18b6:	0000                	unimp
    18b8:	0408                	addi	a0,sp,512
    18ba:	0a3c                	addi	a5,sp,280
    18bc:	0000                	unimp
    18be:	0826                	slli	a6,a6,0x9
    18c0:	3704                	fld	fs1,40(a4)
    18c2:	0000                	unimp
    18c4:	1b00                	addi	s0,sp,432
    18c6:	0234                	addi	a3,sp,264
    18c8:	0000                	unimp
    18ca:	07014107          	flq	ft2,112(sp) # 603d2 <wiring.c.7604182b+0x5d9d9>
    18ce:	00d5                	addi	ra,ra,21
    18d0:	0000                	unimp
    18d2:	0a90                	addi	a2,sp,336
    18d4:	0000                	unimp
    18d6:	011c                	addi	a5,sp,128
    18d8:	0006                	c.slli	zero,0x1
    18da:	0700                	addi	s0,sp,896
    18dc:	0141                	addi	sp,sp,16
    18de:	d515                	beqz	a0,180a <ch32v003fun.c.8affbd33+0x988>
    18e0:	0000                	unimp
    18e2:	1900                	addi	s0,sp,176
    18e4:	00637273          	csrrci	tp,0x6,6
    18e8:	27014107          	flq	ft2,624(sp)
    18ec:	0a36                	slli	s4,s4,0xd
    18ee:	0000                	unimp
    18f0:	6e19                	lui	t3,0x6
    18f2:	0700                	addi	s0,sp,896
    18f4:	0141                	addi	sp,sp,16
    18f6:	0000a433          	sltz	s0,ra
    18fa:	1e00                	addi	s0,sp,816
    18fc:	0064                	addi	s1,sp,12
    18fe:	08014307          	flq	ft6,128(sp)
    1902:	00dd                	addi	ra,ra,23
    1904:	0000                	unimp
    1906:	731e                	flw	ft6,228(sp)
    1908:	0700                	addi	s0,sp,896
    190a:	0144                	addi	s1,sp,132
    190c:	ef0e                	fsw	ft3,156(sp)
    190e:	0000                	unimp
    1910:	0000                	unimp
    1912:	0004ad1b          	0x4ad1b
    1916:	0700                	addi	s0,sp,896
    1918:	0139                	addi	sp,sp,14
    191a:	8a05                	andi	a2,a2,1
    191c:	0000                	unimp
    191e:	db00                	sw	s0,48(a4)
    1920:	000a                	c.slli	zero,0x2
    1922:	1900                	addi	s0,sp,176
    1924:	6c76                	flw	fs8,92(sp)
    1926:	0700                	addi	s0,sp,896
    1928:	0139                	addi	sp,sp,14
    192a:	3618                	fld	fa4,40(a2)
    192c:	000a                	c.slli	zero,0x2
    192e:	1900                	addi	s0,sp,176
    1930:	7276                	flw	ft4,124(sp)
    1932:	0700                	addi	s0,sp,896
    1934:	0139                	addi	sp,sp,14
    1936:	3628                	fld	fa0,104(a2)
    1938:	000a                	c.slli	zero,0x2
    193a:	1900                	addi	s0,sp,176
    193c:	006e                	c.slli	zero,0x1b
    193e:	33013907          	fld	fs2,816(sp)
    1942:	00a4                	addi	s1,sp,72
    1944:	0000                	unimp
    1946:	6c1e                	flw	fs8,196(sp)
    1948:	0700                	addi	s0,sp,896
    194a:	3d17013b          	0x3d17013b
    194e:	000a                	c.slli	zero,0x2
    1950:	1e00                	addi	s0,sp,816
    1952:	0072                	c.slli	zero,0x1c
    1954:	1e013b07          	fld	fs6,480(sp)
    1958:	0a3d                	addi	s4,s4,15
    195a:	0000                	unimp
    195c:	1b00                	addi	s0,sp,432
    195e:	0025                	c.nop	9
    1960:	0000                	unimp
    1962:	07013107          	fld	ft2,112(sp)
    1966:	00d5                	addi	ra,ra,21
    1968:	0000                	unimp
    196a:	0b28                	addi	a0,sp,408
    196c:	0000                	unimp
    196e:	011c                	addi	a5,sp,128
    1970:	0006                	c.slli	zero,0x1
    1972:	0700                	addi	s0,sp,896
    1974:	0131                	addi	sp,sp,12
    1976:	d514                	sw	a3,40(a0)
    1978:	0000                	unimp
    197a:	1900                	addi	s0,sp,176
    197c:	00637273          	csrrci	tp,0x6,6
    1980:	26013107          	fld	ft2,608(sp)
    1984:	0a36                	slli	s4,s4,0xd
    1986:	0000                	unimp
    1988:	6e19                	lui	t3,0x6
    198a:	0700                	addi	s0,sp,896
    198c:	0131                	addi	sp,sp,12
    198e:	a432                	fsd	fa2,8(sp)
    1990:	0000                	unimp
    1992:	1e00                	addi	s0,sp,816
    1994:	0064                	addi	s1,sp,12
    1996:	11013307          	fld	ft6,272(sp)
    199a:	000000d7          	0xd7
    199e:	731e                	flw	ft6,228(sp)
    19a0:	0700                	addi	s0,sp,896
    19a2:	0134                	addi	a3,sp,136
    19a4:	000a3d17          	auipc	s10,0xa3
    19a8:	0000                	unimp
    19aa:	0001241b          	0x1241b
    19ae:	0700                	addi	s0,sp,896
    19b0:	012c                	addi	a1,sp,136
    19b2:	0000dd07          	0xdd07
    19b6:	5000                	lw	s0,32(s0)
    19b8:	1900000b          	0x1900000b
    19bc:	2c070073          	0x2c070073
    19c0:	1b01                	addi	s6,s6,-32
    19c2:	000000ef          	jal	ra,19c2 <ch32v003fun.c.8affbd33+0xb40>
    19c6:	6319                	lui	t1,0x6
    19c8:	0700                	addi	s0,sp,896
    19ca:	012c                	addi	a1,sp,136
    19cc:	8a22                	mv	s4,s0
    19ce:	0000                	unimp
    19d0:	0000                	unimp
    19d2:	0004c61b          	0x4c61b
    19d6:	0700                	addi	s0,sp,896
    19d8:	0124                	addi	s1,sp,136
    19da:	0000d507          	0xd507
    19de:	8e00                	0x8e00
    19e0:	1900000b          	0x1900000b
    19e4:	006d                	c.nop	27
    19e6:	1d012407          	flw	fs0,464(sp)
    19ea:	0a36                	slli	s4,s4,0xd
    19ec:	0000                	unimp
    19ee:	6319                	lui	t1,0x6
    19f0:	0700                	addi	s0,sp,896
    19f2:	0124                	addi	s1,sp,136
    19f4:	8a24                	0x8a24
    19f6:	0000                	unimp
    19f8:	1900                	addi	s0,sp,176
    19fa:	006e                	c.slli	zero,0x1b
    19fc:	2e012407          	flw	fs0,736(sp)
    1a00:	00a4                	addi	s1,sp,72
    1a02:	0000                	unimp
    1a04:	731e                	flw	ft6,228(sp)
    1a06:	0700                	addi	s0,sp,896
    1a08:	0126                	slli	sp,sp,0x9
    1a0a:	000a3d17          	auipc	s10,0xa3
    1a0e:	0000                	unimp
    1a10:	0004261b          	0x4261b
    1a14:	0700                	addi	s0,sp,896
    1a16:	dd07011b          	0xdd07011b
    1a1a:	0000                	unimp
    1a1c:	b600                	fsd	fs0,40(a2)
    1a1e:	1900000b          	0x1900000b
    1a22:	1b070073          	0x1b070073
    1a26:	1a01                	addi	s4,s4,-32
    1a28:	000000ef          	jal	ra,1a28 <ch32v003fun.c.8affbd33+0xba6>
    1a2c:	6319                	lui	t1,0x6
    1a2e:	0700                	addi	s0,sp,896
    1a30:	8a21011b          	0x8a21011b
    1a34:	0000                	unimp
    1a36:	0000                	unimp
    1a38:	00056d1b          	0x56d1b
    1a3c:	0700                	addi	s0,sp,896
    1a3e:	0109                	addi	sp,sp,2
    1a40:	0000dd07          	0xdd07
    1a44:	de00                	sw	s0,56(a2)
    1a46:	1900000b          	0x1900000b
    1a4a:	0068                	addi	a0,sp,12
    1a4c:	1a010907          	0x1a010907
    1a50:	000000ef          	jal	ra,1a50 <ch32v003fun.c.8affbd33+0xbce>
    1a54:	6e19                	lui	t3,0x6
    1a56:	0700                	addi	s0,sp,896
    1a58:	0109                	addi	sp,sp,2
    1a5a:	ef29                	bnez	a4,1ab4 <ch32v003fun.c.8affbd33+0xc32>
    1a5c:	0000                	unimp
    1a5e:	0000                	unimp
    1a60:	00033027          	fsd	ft0,0(t1) # 6000 <wiring.c.7604182b+0x3607>
    1a64:	0700                	addi	s0,sp,896
    1a66:	0ea0                	addi	s0,sp,856
    1a68:	00dd                	addi	ra,ra,23
    1a6a:	0000                	unimp
    1a6c:	0ca0                	addi	s0,sp,600
    1a6e:	0000                	unimp
    1a70:	6828                	flw	fa0,80(s0)
    1a72:	0700                	addi	s0,sp,896
    1a74:	31a0                	fld	fs0,96(a1)
    1a76:	0a3d                	addi	s4,s4,15
    1a78:	0000                	unimp
    1a7a:	6e28                	flw	fa0,88(a2)
    1a7c:	0700                	addi	s0,sp,896
    1a7e:	49a0                	lw	s0,80(a1)
    1a80:	0a3d                	addi	s4,s4,15
    1a82:	0000                	unimp
    1a84:	7a29                	lui	s4,0xfffea
    1a86:	0700                	addi	s0,sp,896
    1a88:	17a2                	slli	a5,a5,0x28
    1a8a:	0a3d                	addi	s4,s4,15
    1a8c:	0000                	unimp
    1a8e:	6c29                	lui	s8,0xa
    1a90:	0700                	addi	s0,sp,896
    1a92:	00a409a3          	sb	a0,19(s0) # ffffb013 <__global_pointer$+0xdfffa6d3>
    1a96:	0000                	unimp
    1a98:	6929                	lui	s2,0xa
    1a9a:	0070                	addi	a2,sp,12
    1a9c:	a40ca307          	flw	ft6,-1472(s9)
    1aa0:	0000                	unimp
    1aa2:	2900                	fld	fs0,16(a0)
    1aa4:	706a                	flw	ft0,184(sp)
    1aa6:	0700                	addi	s0,sp,896
    1aa8:	00a410a3          	sh	a0,1(s0)
    1aac:	0000                	unimp
    1aae:	6b29                	lui	s6,0xa
    1ab0:	0700                	addi	s0,sp,896
    1ab2:	00a414a3          	sh	a0,9(s0)
    1ab6:	0000                	unimp
    1ab8:	7029                	c.lui	zero,0xfffea
    1aba:	0700                	addi	s0,sp,896
    1abc:	00a417a3          	sh	a0,15(s0)
    1ac0:	0000                	unimp
    1ac2:	6d29                	lui	s10,0xa
    1ac4:	a3070073          	0xa3070073
    1ac8:	a41a                	fsd	ft6,8(sp)
    1aca:	0000                	unimp
    1acc:	2900                	fld	fs0,16(a0)
    1ace:	3070                	fld	fa2,224(s0)
    1ad0:	0700                	addi	s0,sp,896
    1ad2:	00a41ea3          	sh	a0,29(s0)
    1ad6:	0000                	unimp
    1ad8:	6d29                	lui	s10,0xa
    1ada:	6d65                	lui	s10,0x19
    1adc:	0700                	addi	s0,sp,896
    1ade:	00a422a3          	sw	a0,5(s0)
    1ae2:	0000                	unimp
    1ae4:	a82a                	fsd	fa0,16(sp)
    1ae6:	0004                	0x4
    1ae8:	0700                	addi	s0,sp,896
    1aea:	00a427a3          	sw	a0,15(s0)
    1aee:	0000                	unimp
    1af0:	292a                	fld	fs2,136(sp)
    1af2:	0005                	c.nop	1
    1af4:	0700                	addi	s0,sp,896
    1af6:	09a4                	addi	s1,sp,216
    1af8:	0ca0                	addi	s0,sp,600
    1afa:	0000                	unimp
    1afc:	2e2a                	fld	ft8,136(sp)
    1afe:	0002                	c.slli64	zero
    1b00:	0700                	addi	s0,sp,896
    1b02:	09a5                	addi	s3,s3,9
    1b04:	0cb0                	addi	a2,sp,600
    1b06:	0000                	unimp
    1b08:	2a1d                	jal	1c3e <ch32v003fun.c.8affbd33+0xdbc>
    1b0a:	03ca                	slli	t2,t2,0x12
    1b0c:	0000                	unimp
    1b0e:	a40be307          	0xa40be307
    1b12:	0000                	unimp
    1b14:	2900                	fld	fs0,16(a0)
    1b16:	327a                	fld	ft4,440(sp)
    1b18:	0700                	addi	s0,sp,896
    1b1a:	19e4                	addi	s1,sp,252
    1b1c:	0a3d                	addi	s4,s4,15
    1b1e:	0000                	unimp
    1b20:	0000                	unimp
    1b22:	a409                	j	1d24 <ch32v003fun.c.8affbd33+0xea2>
    1b24:	0000                	unimp
    1b26:	b000                	fsd	fs0,32(s0)
    1b28:	000c                	0xc
    1b2a:	0a00                	addi	s0,sp,272
    1b2c:	009d                	addi	ra,ra,7
    1b2e:	0000                	unimp
    1b30:	a4090007          	0xa4090007
    1b34:	0000                	unimp
    1b36:	c000                	sw	s0,0(s0)
    1b38:	000c                	0xc
    1b3a:	0a00                	addi	s0,sp,272
    1b3c:	009d                	addi	ra,ra,7
    1b3e:	0000                	unimp
    1b40:	00ff                	0xff
    1b42:	00050727          	0x50727
    1b46:	0700                	addi	s0,sp,896
    1b48:	0e92                	slli	t4,t4,0x4
    1b4a:	00dd                	addi	ra,ra,23
    1b4c:	0000                	unimp
    1b4e:	00000cfb          	0xcfb
    1b52:	6828                	flw	fa0,80(s0)
    1b54:	0700                	addi	s0,sp,896
    1b56:	3392                	fld	ft7,288(sp)
    1b58:	0a3d                	addi	s4,s4,15
    1b5a:	0000                	unimp
    1b5c:	6e28                	flw	fa0,88(a2)
    1b5e:	0700                	addi	s0,sp,896
    1b60:	4b92                	lw	s7,4(sp)
    1b62:	0a3d                	addi	s4,s4,15
    1b64:	0000                	unimp
    1b66:	6e29                	lui	t3,0xa
    1b68:	94070077          	0x94070077
    1b6c:	0001380b          	0x1380b
    1b70:	2900                	fld	fs0,16(a0)
    1b72:	7768                	flw	fa0,108(a4)
    1b74:	0700                	addi	s0,sp,896
    1b76:	0b95                	addi	s7,s7,5
    1b78:	0138                	addi	a4,sp,136
    1b7a:	0000                	unimp
    1b7c:	2700                	fld	fs0,8(a4)
    1b7e:	00000563          	beqz	zero,1b88 <ch32v003fun.c.8affbd33+0xd06>
    1b82:	dd0e8a07          	0xdd0e8a07
    1b86:	0000                	unimp
    1b88:	3600                	fld	fs0,40(a2)
    1b8a:	000d                	c.nop	3
    1b8c:	2800                	fld	fs0,16(s0)
    1b8e:	0068                	addi	a0,sp,12
    1b90:	3d348a07          	0x3d348a07
    1b94:	000a                	c.slli	zero,0x2
    1b96:	2800                	fld	fs0,16(s0)
    1b98:	006e                	c.slli	zero,0x1b
    1b9a:	3d4c8a07          	0x3d4c8a07
    1b9e:	000a                	c.slli	zero,0x2
    1ba0:	2900                	fld	fs0,16(a0)
    1ba2:	776e                	flw	fa4,248(sp)
    1ba4:	0700                	addi	s0,sp,896
    1ba6:	0b8c                	addi	a1,sp,464
    1ba8:	0138                	addi	a4,sp,136
    1baa:	0000                	unimp
    1bac:	6829                	lui	a6,0xa
    1bae:	8d070077          	0x8d070077
    1bb2:	0001380b          	0x1380b
    1bb6:	0000                	unimp
    1bb8:	00060627          	0x60627
    1bbc:	0700                	addi	s0,sp,896
    1bbe:	00dd0e83          	lb	t4,13(s10) # 1900d <wiring.c.7604182b+0x16614>
    1bc2:	0000                	unimp
    1bc4:	0d71                	addi	s10,s10,28
    1bc6:	0000                	unimp
    1bc8:	6828                	flw	fa0,80(s0)
    1bca:	0700                	addi	s0,sp,896
    1bcc:	0a3d3283          	0xa3d3283
    1bd0:	0000                	unimp
    1bd2:	6e28                	flw	fa0,88(a2)
    1bd4:	0700                	addi	s0,sp,896
    1bd6:	0a3d4a83          	lbu	s5,163(s10)
    1bda:	0000                	unimp
    1bdc:	6e29                	lui	t3,0xa
    1bde:	85070077          	0x85070077
    1be2:	00011b0b          	0x11b0b
    1be6:	2900                	fld	fs0,16(a0)
    1be8:	7768                	flw	fa0,108(a4)
    1bea:	0700                	addi	s0,sp,896
    1bec:	2085                	jal	1c4c <ch32v003fun.c.8affbd33+0xdca>
    1bee:	0000011b          	0x11b
    1bf2:	2b00                	fld	fs0,16(a4)
    1bf4:	015d                	addi	sp,sp,23
    1bf6:	0000                	unimp
    1bf8:	8a057b07          	0x8a057b07
    1bfc:	0000                	unimp
    1bfe:	b600                	fsd	fs0,40(a2)
    1c00:	000d                	c.nop	3
    1c02:	2800                	fld	fs0,16(s0)
    1c04:	6c5f 0700 197b      	0x197b07006c5f
    1c0a:	000000ef          	jal	ra,1c0a <ch32v003fun.c.8affbd33+0xd88>
    1c0e:	5f28                	lw	a0,120(a4)
    1c10:	0072                	c.slli	zero,0x1c
    1c12:	ef297b07          	0xef297b07
    1c16:	0000                	unimp
    1c18:	2800                	fld	fs0,16(s0)
    1c1a:	006e                	c.slli	zero,0x1b
    1c1c:	a4347b07          	0xa4347b07
    1c20:	0000                	unimp
    1c22:	2900                	fld	fs0,16(a0)
    1c24:	006c                	addi	a1,sp,12
    1c26:	3d177d07          	0x3d177d07
    1c2a:	000a                	c.slli	zero,0x2
    1c2c:	2900                	fld	fs0,16(a0)
    1c2e:	0072                	c.slli	zero,0x1c
    1c30:	3d267d07          	0x3d267d07
    1c34:	000a                	c.slli	zero,0x2
    1c36:	0000                	unimp
    1c38:	00061a2b          	0x61a2b
    1c3c:	0700                	addi	s0,sp,896
    1c3e:	0576                	slli	a0,a0,0x1d
    1c40:	008a                	slli	ra,ra,0x2
    1c42:	0000                	unimp
    1c44:	00000ddb          	0xddb
    1c48:	6c28                	flw	fa0,88(s0)
    1c4a:	0700                	addi	s0,sp,896
    1c4c:	1876                	slli	a6,a6,0x3d
    1c4e:	000000ef          	jal	ra,1c4e <ch32v003fun.c.8affbd33+0xdcc>
    1c52:	7228                	flw	fa0,96(a2)
    1c54:	0700                	addi	s0,sp,896
    1c56:	2776                	fld	fa4,344(sp)
    1c58:	000000ef          	jal	ra,1c58 <ch32v003fun.c.8affbd33+0xdd6>
    1c5c:	2b00                	fld	fs0,16(a4)
    1c5e:	00000293          	li	t0,0
    1c62:	dd077507          	0xdd077507
    1c66:	0000                	unimp
    1c68:	0a00                	addi	s0,sp,272
    1c6a:	000e                	c.slli	zero,0x3
    1c6c:	2800                	fld	fs0,16(s0)
    1c6e:	0064                	addi	s1,sp,12
    1c70:	dd157507          	0xdd157507
    1c74:	0000                	unimp
    1c76:	2800                	fld	fs0,16(s0)
    1c78:	75070073          	0x75070073
    1c7c:	ef24                	fsw	fs1,88(a4)
    1c7e:	0000                	unimp
    1c80:	2800                	fld	fs0,16(s0)
    1c82:	006e                	c.slli	zero,0x1b
    1c84:	a42e7507          	0xa42e7507
    1c88:	0000                	unimp
    1c8a:	0000                	unimp
    1c8c:	0002012b          	0x2012b
    1c90:	0700                	addi	s0,sp,896
    1c92:	0774                	addi	a3,sp,908
    1c94:	00dd                	addi	ra,ra,23
    1c96:	0000                	unimp
    1c98:	00000e2f          	0xe2f
    1c9c:	6428                	flw	fa0,72(s0)
    1c9e:	0700                	addi	s0,sp,896
    1ca0:	1474                	addi	a3,sp,556
    1ca2:	00dd                	addi	ra,ra,23
    1ca4:	0000                	unimp
    1ca6:	7328                	flw	fa0,96(a4)
    1ca8:	0700                	addi	s0,sp,896
    1caa:	2374                	fld	fa3,192(a4)
    1cac:	000000ef          	jal	ra,1cac <ch32v003fun.c.8affbd33+0xe2a>
    1cb0:	2b00                	fld	fs0,16(a4)
    1cb2:	0014                	0x14
    1cb4:	0000                	unimp
    1cb6:	d5077307          	0xd5077307
    1cba:	0000                	unimp
    1cbc:	6a00                	flw	fs0,16(a2)
    1cbe:	000e                	c.slli	zero,0x3
    1cc0:	2c00                	fld	fs0,24(s0)
    1cc2:	0601                	addi	a2,a2,0
    1cc4:	0000                	unimp
    1cc6:	d5147307          	0xd5147307
    1cca:	0000                	unimp
    1ccc:	2800                	fld	fs0,16(s0)
    1cce:	73070063          	beq	a4,a6,23ee <main_pwm.c.3eb49e96+0x632>
    1cd2:	8a1e                	mv	s4,t2
    1cd4:	0000                	unimp
    1cd6:	2800                	fld	fs0,16(s0)
    1cd8:	006e                	c.slli	zero,0x1b
    1cda:	a4287307          	0xa4287307
    1cde:	0000                	unimp
    1ce0:	2900                	fld	fs0,16(a0)
    1ce2:	73070073          	0x73070073
    1ce6:	d73c                	sw	a5,104(a4)
    1ce8:	0000                	unimp
    1cea:	0000                	unimp
    1cec:	0001792b          	0x1792b
    1cf0:	0700                	addi	s0,sp,896
    1cf2:	0872                	slli	a6,a6,0x1c
    1cf4:	00a4                	addi	s1,sp,72
    1cf6:	0000                	unimp
    1cf8:	0e99                	addi	t4,t4,6
    1cfa:	0000                	unimp
    1cfc:	7328                	flw	fa0,96(a4)
    1cfe:	0700                	addi	s0,sp,896
    1d00:	1c72                	slli	s8,s8,0x3c
    1d02:	000000ef          	jal	ra,1d02 <ch32v003fun.c.8affbd33+0xe80>
    1d06:	6e28                	flw	fa0,88(a2)
    1d08:	0700                	addi	s0,sp,896
    1d0a:	2672                	fld	fa2,280(sp)
    1d0c:	00a4                	addi	s1,sp,72
    1d0e:	0000                	unimp
    1d10:	7029                	c.lui	zero,0xfffea
    1d12:	0700                	addi	s0,sp,896
    1d14:	3772                	fld	fa4,312(sp)
    1d16:	000000ef          	jal	ra,1d16 <ch32v003fun.c.8affbd33+0xe94>
    1d1a:	2b00                	fld	fs0,16(a4)
    1d1c:	0135                	addi	sp,sp,13
    1d1e:	0000                	unimp
    1d20:	a4087107          	0xa4087107
    1d24:	0000                	unimp
    1d26:	be00                	fsd	fs0,56(a2)
    1d28:	000e                	c.slli	zero,0x3
    1d2a:	2800                	fld	fs0,16(s0)
    1d2c:	71070073          	0x71070073
    1d30:	0000ef1b          	0xef1b
    1d34:	2900                	fld	fs0,16(a0)
    1d36:	0061                	c.nop	24
    1d38:	ef2c7107          	0xef2c7107
    1d3c:	0000                	unimp
    1d3e:	0000                	unimp
    1d40:	00028c2b          	0x28c2b
    1d44:	0700                	addi	s0,sp,896
    1d46:	051a                	slli	a0,a0,0x6
    1d48:	008a                	slli	ra,ra,0x2
    1d4a:	0000                	unimp
    1d4c:	0ef4                	addi	a3,sp,860
    1d4e:	0000                	unimp
    1d50:	3c2c                	fld	fa1,120(s0)
    1d52:	0001                	nop
    1d54:	0700                	addi	s0,sp,896
    1d56:	181a                	slli	a6,a6,0x26
    1d58:	000000ef          	jal	ra,1d58 <ch32v003fun.c.8affbd33+0xed6>
    1d5c:	2a20                	fld	fs0,80(a2)
    1d5e:	03d9                	addi	t2,t2,22
    1d60:	0000                	unimp
    1d62:	c90a1c07          	0xc90a1c07
    1d66:	0000                	unimp
    1d68:	2a00                	fld	fs0,16(a2)
    1d6a:	02da                	slli	t0,t0,0x16
    1d6c:	0000                	unimp
    1d6e:	8a061e07          	0x8a061e07
    1d72:	0000                	unimp
    1d74:	0000                	unimp
    1d76:	0002a827          	fsw	ft0,16(t0)
    1d7a:	0700                	addi	s0,sp,896
    1d7c:	0c14                	addi	a3,sp,528
    1d7e:	008a                	slli	ra,ra,0x2
    1d80:	0000                	unimp
    1d82:	00000f27          	0xf27
    1d86:	7328                	flw	fa0,96(a4)
    1d88:	0700                	addi	s0,sp,896
    1d8a:	1e14                	addi	a3,sp,816
    1d8c:	00dd                	addi	ra,ra,23
    1d8e:	0000                	unimp
    1d90:	6c28                	flw	fa0,88(s0)
    1d92:	6e65                	lui	t3,0x19
    1d94:	0700                	addi	s0,sp,896
    1d96:	2514                	fld	fa3,8(a0)
    1d98:	008a                	slli	ra,ra,0x2
    1d9a:	0000                	unimp
    1d9c:	6228                	flw	fa0,64(a2)
    1d9e:	6675                	lui	a2,0x1d
    1da0:	0700                	addi	s0,sp,896
    1da2:	3014                	fld	fa3,32(s0)
    1da4:	00d5                	addi	ra,ra,21
    1da6:	0000                	unimp
    1da8:	1f00                	addi	s0,sp,944
    1daa:	04b4                	addi	a3,sp,584
    1dac:	0000                	unimp
    1dae:	0602a707          	flw	fa4,96(t0)
    1db2:	9c1a                	add	s8,s8,t1
    1db4:	07000003          	lb	zero,112(zero) # 70 <InterruptVector+0x70>
    1db8:	02fe                	slli	t0,t0,0x1f
    1dba:	0006                	c.slli	zero,0x1

00001dbc <main_pwm.c.3eb49e96>:
    1dbc:	0c39                	addi	s8,s8,14
    1dbe:	0000                	unimp
    1dc0:	0004                	0x4
    1dc2:	03da                	slli	t2,t2,0x16
    1dc4:	0000                	unimp
    1dc6:	0104                	addi	s1,sp,128
    1dc8:	0581                	addi	a1,a1,0
    1dca:	0000                	unimp
    1dcc:	d70c                	sw	a1,40(a4)
    1dce:	0008                	0x8
    1dd0:	e100                	fsw	fs0,0(a0)
    1dd2:	0000                	unimp
    1dd4:	dc00                	sw	s0,56(s0)
    1dd6:	0028                	addi	a0,sp,8
    1dd8:	0200                	addi	s0,sp,256
    1dda:	062e                	slli	a2,a2,0xb
    1ddc:	0000                	unimp
    1dde:	00d20407          	0xd20407
    1de2:	0000                	unimp
    1de4:	4201                	li	tp,0
    1de6:	d20e                	sw	gp,36(sp)
    1de8:	0000                	unimp
    1dea:	0300                	addi	s0,sp,384
    1dec:	0930                	addi	a2,sp,152
    1dee:	0000                	unimp
    1df0:	0302                	c.slli64	t1
    1df2:	06e4                	addi	s1,sp,844
    1df4:	0000                	unimp
    1df6:	07f40303          	lb	t1,127(s0)
    1dfa:	0000                	unimp
    1dfc:	030c                	addi	a1,sp,384
    1dfe:	0722                	slli	a4,a4,0x8
    1e00:	0000                	unimp
    1e02:	030e                	slli	t1,t1,0x3
    1e04:	0860                	addi	s0,sp,28
    1e06:	0000                	unimp
    1e08:	0310                	addi	a2,sp,384
    1e0a:	000008a3          	sb	zero,17(zero) # 11 <InterruptVector+0x11>
    1e0e:	0311                	addi	t1,t1,4
    1e10:	06bc                	addi	a5,sp,840
    1e12:	0000                	unimp
    1e14:	0312                	slli	t1,t1,0x4
    1e16:	06f4                	addi	a3,sp,844
    1e18:	0000                	unimp
    1e1a:	06260313          	addi	t1,a2,98 # 1d062 <wiring.c.7604182b+0x1a669>
    1e1e:	0000                	unimp
    1e20:	0314                	addi	a3,sp,384
    1e22:	064c                	addi	a1,sp,772
    1e24:	0000                	unimp
    1e26:	0315                	addi	t1,t1,5
    1e28:	0826                	slli	a6,a6,0x9
    1e2a:	0000                	unimp
    1e2c:	0316                	slli	t1,t1,0x5
    1e2e:	0676                	slli	a2,a2,0x1d
    1e30:	0000                	unimp
    1e32:	08bc0317          	auipc	t1,0x8bc0
    1e36:	0000                	unimp
    1e38:	0318                	addi	a4,sp,384
    1e3a:	073a                	slli	a4,a4,0xe
    1e3c:	0000                	unimp
    1e3e:	0319                	addi	t1,t1,6
    1e40:	0a15                	addi	s4,s4,5
    1e42:	0000                	unimp
    1e44:	031a                	slli	t1,t1,0x6
    1e46:	00000813          	li	a6,0
    1e4a:	0655031b          	0x655031b
    1e4e:	0000                	unimp
    1e50:	031c                	addi	a5,sp,384
    1e52:	08ac                	addi	a1,sp,88
    1e54:	0000                	unimp
    1e56:	031d                	addi	t1,t1,7
    1e58:	000006c7          	fmsub.s	fa3,ft0,ft0,ft0,rne
    1e5c:	031e                	slli	t1,t1,0x7
    1e5e:	00000963          	beqz	zero,1e70 <main_pwm.c.3eb49e96+0xb4>
    1e62:	031f 0916 0000      	0x916031f
    1e68:	0320                	addi	s0,sp,392
    1e6a:	0730                	addi	a2,sp,904
    1e6c:	0000                	unimp
    1e6e:	0321                	addi	t1,t1,8
    1e70:	06fd                	addi	a3,a3,31
    1e72:	0000                	unimp
    1e74:	0322                	slli	t1,t1,0x8
    1e76:	08ed                	addi	a7,a7,27
    1e78:	0000                	unimp
    1e7a:	09510323          	sb	s5,134(sp)
    1e7e:	0000                	unimp
    1e80:	0324                	addi	s1,sp,392
    1e82:	0944                	addi	s1,sp,148
    1e84:	0000                	unimp
    1e86:	0325                	addi	t1,t1,9
    1e88:	0000098b          	0x98b
    1e8c:	0026                	c.slli	zero,0x9
    1e8e:	0404                	addi	s1,sp,512
    1e90:	00027807          	0x27807
    1e94:	0500                	addi	s0,sp,640
    1e96:	07ac                	addi	a1,sp,968
    1e98:	0000                	unimp
    1e9a:	6301                	0x6301
    1e9c:	00001d03          	lh	s10,0(zero) # 0 <InterruptVector>
    1ea0:	0400                	addi	s0,sp,512
    1ea2:	0601                	addi	a2,a2,0
    1ea4:	00000533          	add	a0,zero,zero
    1ea8:	f005                	bnez	s0,1dc8 <main_pwm.c.3eb49e96+0xc>
    1eaa:	0004                	0x4
    1eac:	0200                	addi	s0,sp,256
    1eae:	00f8182b          	0xf8182b
    1eb2:	0000                	unimp
    1eb4:	0104                	addi	s1,sp,128
    1eb6:	3108                	fld	fa0,32(a0)
    1eb8:	0005                	c.nop	1
    1eba:	0400                	addi	s0,sp,512
    1ebc:	0502                	c.slli64	a0
    1ebe:	00000473          	0x473
    1ec2:	b405                	j	18e2 <ch32v003fun.c.8affbd33+0xa60>
    1ec4:	0002                	c.slli64	zero
    1ec6:	0200                	addi	s0,sp,256
    1ec8:	1939                	addi	s2,s2,-18
    1eca:	0112                	slli	sp,sp,0x4
    1ecc:	0000                	unimp
    1ece:	0204                	addi	s1,sp,256
    1ed0:	0005cc07          	flq	fs8,0(a1) # 1000 <ch32v003fun.c.8affbd33+0x17e>
    1ed4:	0400                	addi	s0,sp,512
    1ed6:	0504                	addi	s1,sp,640
    1ed8:	037c                	addi	a5,sp,396
    1eda:	0000                	unimp
    1edc:	3f05                	jal	1e0c <main_pwm.c.3eb49e96+0x50>
    1ede:	0005                	c.nop	1
    1ee0:	0200                	addi	s0,sp,256
    1ee2:	012c194f          	fnmadd.s	fs2,fs8,fs2,ft0,rtz
    1ee6:	0000                	unimp
    1ee8:	0404                	addi	s1,sp,512
    1eea:	00027307          	0x27307
    1eee:	0400                	addi	s0,sp,512
    1ef0:	0508                	addi	a0,sp,640
    1ef2:	00000377          	0x377
    1ef6:	0804                	addi	s1,sp,16
    1ef8:	00026e07          	0x26e07
    1efc:	0600                	addi	s0,sp,768
    1efe:	0504                	addi	s1,sp,640
    1f00:	6e69                	lui	t3,0x1a
    1f02:	0074                	addi	a3,sp,12
    1f04:	f205                	bnez	a2,1e24 <main_pwm.c.3eb49e96+0x68>
    1f06:	0004                	0x4
    1f08:	0300                	addi	s0,sp,384
    1f0a:	1318                	addi	a4,sp,416
    1f0c:	00ec                	addi	a1,sp,76
    1f0e:	0000                	unimp
    1f10:	00014807          	flq	fa6,0(sp)
    1f14:	0800                	addi	s0,sp,16
    1f16:	0154                	addi	a3,sp,132
    1f18:	0000                	unimp
    1f1a:	4808                	lw	a0,16(s0)
    1f1c:	0001                	nop
    1f1e:	0500                	addi	s0,sp,640
    1f20:	02b6                	slli	t0,t0,0xd
    1f22:	0000                	unimp
    1f24:	06142403          	lw	s0,97(s0)
    1f28:	0001                	nop
    1f2a:	0800                	addi	s0,sp,16
    1f2c:	00000163          	beqz	zero,1f2e <main_pwm.c.3eb49e96+0x172>
    1f30:	4105                	li	sp,1
    1f32:	0005                	c.nop	1
    1f34:	0300                	addi	s0,sp,384
    1f36:	1430                	addi	a2,sp,552
    1f38:	0120                	addi	s0,sp,136
    1f3a:	0000                	unimp
    1f3c:	7408                	flw	fa0,40(s0)
    1f3e:	0001                	nop
    1f40:	0700                	addi	s0,sp,896
    1f42:	0180                	addi	s0,sp,192
    1f44:	0000                	unimp
    1f46:	5409                	li	s0,-30
    1f48:	7101                	addi	sp,sp,-512
    1f4a:	a509                	j	254c <main_pwm.c.3eb49e96+0x790>
    1f4c:	0002                	c.slli64	zero
    1f4e:	0a00                	addi	s0,sp,272
    1f50:	0000057b          	0x57b
    1f54:	7301                	lui	t1,0xfffe0
    1f56:	00018013          	mv	zero,gp
    1f5a:	0000                	unimp
    1f5c:	ae0a                	fsd	ft2,280(sp)
    1f5e:	0006                	c.slli	zero,0x1
    1f60:	0100                	addi	s0,sp,128
    1f62:	1374                	addi	a3,sp,428
    1f64:	0180                	addi	s0,sp,192
    1f66:	0000                	unimp
    1f68:	0a04                	addi	s1,sp,272
    1f6a:	06b6                	slli	a3,a3,0xd
    1f6c:	0000                	unimp
    1f6e:	7501                	lui	a0,0xfffe0
    1f70:	00018013          	mv	zero,gp
    1f74:	0800                	addi	s0,sp,16
    1f76:	4d0a                	lw	s10,128(sp)
    1f78:	01000007          	0x1000007
    1f7c:	1376                	slli	t1,t1,0x3d
    1f7e:	0180                	addi	s0,sp,192
    1f80:	0000                	unimp
    1f82:	0a0c                	addi	a1,sp,272
    1f84:	0755                	addi	a4,a4,21
    1f86:	0000                	unimp
    1f88:	7701                	lui	a4,0xfffe0
    1f8a:	00018013          	mv	zero,gp
    1f8e:	1000                	addi	s0,sp,32
    1f90:	8e0a                	mv	t3,sp
    1f92:	01000007          	0x1000007
    1f96:	1378                	addi	a4,sp,428
    1f98:	0180                	addi	s0,sp,192
    1f9a:	0000                	unimp
    1f9c:	0a14                	addi	a3,sp,272
    1f9e:	0794                	addi	a3,sp,960
    1fa0:	0000                	unimp
    1fa2:	7901                	lui	s2,0xfffe0
    1fa4:	00018013          	mv	zero,gp
    1fa8:	1800                	addi	s0,sp,48
    1faa:	9a0a                	add	s4,s4,sp
    1fac:	01000007          	0x1000007
    1fb0:	137a                	slli	t1,t1,0x3e
    1fb2:	0180                	addi	s0,sp,192
    1fb4:	0000                	unimp
    1fb6:	0a1c                	addi	a5,sp,272
    1fb8:	07a0                	addi	s0,sp,968
    1fba:	0000                	unimp
    1fbc:	7b01                	lui	s6,0xfffe0
    1fbe:	00018013          	mv	zero,gp
    1fc2:	2000                	fld	fs0,0(s0)
    1fc4:	380a                	fld	fa6,160(sp)
    1fc6:	0006                	c.slli	zero,0x1
    1fc8:	0100                	addi	s0,sp,128
    1fca:	137c                	addi	a5,sp,428
    1fcc:	0180                	addi	s0,sp,192
    1fce:	0000                	unimp
    1fd0:	0a24                	addi	s1,sp,280
    1fd2:	0690                	addi	a2,sp,832
    1fd4:	0000                	unimp
    1fd6:	7d01                	lui	s10,0xfffe0
    1fd8:	00018013          	mv	zero,gp
    1fdc:	2800                	fld	fs0,16(s0)
    1fde:	9f0a                	add	t5,t5,sp
    1fe0:	0009                	c.nop	2
    1fe2:	0100                	addi	s0,sp,128
    1fe4:	137e                	slli	t1,t1,0x3f
    1fe6:	0180                	addi	s0,sp,192
    1fe8:	0000                	unimp
    1fea:	0a2c                	addi	a1,sp,280
    1fec:	09a5                	addi	s3,s3,9
    1fee:	0000                	unimp
    1ff0:	7f01                	lui	t5,0xfffe0
    1ff2:	00018013          	mv	zero,gp
    1ff6:	3000                	fld	fs0,32(s0)
    1ff8:	ab0a                	fsd	ft2,400(sp)
    1ffa:	0009                	c.nop	2
    1ffc:	0100                	addi	s0,sp,128
    1ffe:	1380                	addi	s0,sp,480
    2000:	0180                	addi	s0,sp,192
    2002:	0000                	unimp
    2004:	0a34                	addi	a3,sp,280
    2006:	0621                	addi	a2,a2,8
    2008:	0000                	unimp
    200a:	8101                	c.srli64	a0
    200c:	00018013          	mv	zero,gp
    2010:	3800                	fld	fs0,48(s0)
    2012:	cf0a                	sw	sp,156(sp)
    2014:	01000007          	0x1000007
    2018:	1382                	slli	t2,t2,0x20
    201a:	0180                	addi	s0,sp,192
    201c:	0000                	unimp
    201e:	0a3c                	addi	a5,sp,280
    2020:	000007d7          	0x7d7
    2024:	8301                	c.srli64	a4
    2026:	00018013          	mv	zero,gp
    202a:	4000                	lw	s0,0(s0)
    202c:	df0a                	sw	sp,188(sp)
    202e:	01000007          	0x1000007
    2032:	1384                	addi	s1,sp,480
    2034:	0180                	addi	s0,sp,192
    2036:	0000                	unimp
    2038:	0a44                	addi	s1,sp,276
    203a:	000007e7          	jalr	a5,zero # 0 <InterruptVector>
    203e:	8501                	c.srai64	a0
    2040:	00018013          	mv	zero,gp
    2044:	4800                	lw	s0,16(s0)
    2046:	b50a                	fsd	ft2,168(sp)
    2048:	0008                	0x8
    204a:	0100                	addi	s0,sp,128
    204c:	1386                	slli	t2,t2,0x21
    204e:	0180                	addi	s0,sp,192
    2050:	0000                	unimp
    2052:	0a4c                	addi	a1,sp,276
    2054:	0a02                	c.slli64	s4
    2056:	0000                	unimp
    2058:	8701                	c.srai64	a4
    205a:	00018013          	mv	zero,gp
    205e:	5000                	lw	s0,32(s0)
    2060:	0500                	addi	s0,sp,640
    2062:	0854                	addi	a3,sp,20
    2064:	0000                	unimp
    2066:	8801                	andi	s0,s0,0
    2068:	00018a03          	lb	s4,0(gp) # 20000940 <__global_pointer$>
    206c:	0b00                	addi	s0,sp,400
    206e:	011c                	addi	a5,sp,128
    2070:	1e090137          	lui	sp,0x1e090
    2074:	0c000003          	lb	zero,192(zero) # c0 <__mulsi3+0x20>
    2078:	023c                	addi	a5,sp,264
    207a:	0000                	unimp
    207c:	3901                	jal	1c8c <ch32v003fun.c.8affbd33+0xe0a>
    207e:	1001                	c.nop	-32
    2080:	0180                	addi	s0,sp,192
    2082:	0000                	unimp
    2084:	0c00                	addi	s0,sp,528
    2086:	000005fb          	0x5fb
    208a:	3a01                	jal	199a <ch32v003fun.c.8affbd33+0xb18>
    208c:	1001                	c.nop	-32
    208e:	0180                	addi	s0,sp,192
    2090:	0000                	unimp
    2092:	0c04                	addi	s1,sp,528
    2094:	000001bb          	0x1bb
    2098:	3b01                	jal	1da8 <ch32v003fun.c.8affbd33+0xf26>
    209a:	1001                	c.nop	-32
    209c:	0185                	addi	gp,gp,1
    209e:	0000                	unimp
    20a0:	0c08                	addi	a0,sp,528
    20a2:	02f6                	slli	t0,t0,0x1d
    20a4:	0000                	unimp
    20a6:	3c01                	jal	1ab6 <ch32v003fun.c.8affbd33+0xc34>
    20a8:	1001                	c.nop	-32
    20aa:	0180                	addi	s0,sp,192
    20ac:	0000                	unimp
    20ae:	0c0c                	addi	a1,sp,528
    20b0:	033e                	slli	t1,t1,0xf
    20b2:	0000                	unimp
    20b4:	3d01                	jal	1ec4 <main_pwm.c.3eb49e96+0x108>
    20b6:	1001                	c.nop	-32
    20b8:	0180                	addi	s0,sp,192
    20ba:	0000                	unimp
    20bc:	0d10                	addi	a2,sp,656
    20be:	4342                	lw	t1,16(sp)
    20c0:	0052                	c.slli	zero,0x14
    20c2:	3e01                	jal	1bd2 <ch32v003fun.c.8affbd33+0xd50>
    20c4:	1001                	c.nop	-32
    20c6:	0180                	addi	s0,sp,192
    20c8:	0000                	unimp
    20ca:	0c14                	addi	a3,sp,528
    20cc:	0615                	addi	a2,a2,5
    20ce:	0000                	unimp
    20d0:	3f01                	jal	1fe0 <main_pwm.c.3eb49e96+0x224>
    20d2:	1001                	c.nop	-32
    20d4:	0180                	addi	s0,sp,192
    20d6:	0000                	unimp
    20d8:	0018                	0x18
    20da:	fa0e                	fsw	ft3,52(sp)
    20dc:	0004                	0x4
    20de:	0100                	addi	s0,sp,128
    20e0:	0140                	addi	s0,sp,132
    20e2:	0002b103          	0x2b103
    20e6:	0b00                	addi	s0,sp,400
    20e8:	010c                	addi	a1,sp,128
    20ea:	60090147          	fmsub.s	ft2,fs2,ft0,fa2,rne
    20ee:	0c000003          	lb	zero,192(zero) # c0 <__mulsi3+0x20>
    20f2:	042d                	addi	s0,s0,11
    20f4:	0000                	unimp
    20f6:	4901                	li	s2,0
    20f8:	0e01                	addi	t3,t3,0
    20fa:	0174                	addi	a3,sp,140
    20fc:	0000                	unimp
    20fe:	0c00                	addi	s0,sp,528
    2100:	00000a3b          	0xa3b
    2104:	4a01                	li	s4,0
    2106:	1301                	addi	t1,t1,-32
    2108:	0180                	addi	s0,sp,192
    210a:	0000                	unimp
    210c:	0c04                	addi	s1,sp,528
    210e:	00000843          	fmadd.s	fa6,ft0,ft0,ft0,rne
    2112:	4b01                	li	s6,0
    2114:	1301                	addi	t1,t1,-32
    2116:	0180                	addi	s0,sp,192
    2118:	0000                	unimp
    211a:	0008                	0x8
    211c:	060e                	slli	a2,a2,0x3
    211e:	0008                	0x8
    2120:	0100                	addi	s0,sp,128
    2122:	014c                	addi	a1,sp,132
    2124:	00032b03          	lw	s6,0(t1) # fffe0000 <__global_pointer$+0xdffdf6c0>
    2128:	0b00                	addi	s0,sp,400
    212a:	0128                	addi	a0,sp,136
    212c:	04090177          	0x4090177
    2130:	0004                	0x4
    2132:	0c00                	addi	s0,sp,528
    2134:	0000032b          	0x32b
    2138:	7901                	lui	s2,0xfffe0
    213a:	1301                	addi	t1,t1,-32
    213c:	0180                	addi	s0,sp,192
    213e:	0000                	unimp
    2140:	0c00                	addi	s0,sp,528
    2142:	000003b7          	lui	t2,0x0
    2146:	7a01                	lui	s4,0xfffe0
    2148:	1301                	addi	t1,t1,-32
    214a:	0180                	addi	s0,sp,192
    214c:	0000                	unimp
    214e:	0c04                	addi	s1,sp,528
    2150:	0229                	addi	tp,tp,10
    2152:	0000                	unimp
    2154:	7b01                	lui	s6,0xfffe0
    2156:	1301                	addi	t1,t1,-32
    2158:	0180                	addi	s0,sp,192
    215a:	0000                	unimp
    215c:	0c08                	addi	a0,sp,528
    215e:	04e0                	addi	s0,sp,588
    2160:	0000                	unimp
    2162:	7c01                	lui	s8,0xfffe0
    2164:	1301                	addi	t1,t1,-32
    2166:	0180                	addi	s0,sp,192
    2168:	0000                	unimp
    216a:	0c0c                	addi	a1,sp,528
    216c:	021f 0000 7d01      	0x7d010000021f
    2172:	1301                	addi	t1,t1,-32
    2174:	0180                	addi	s0,sp,192
    2176:	0000                	unimp
    2178:	0c10                	addi	a2,sp,528
    217a:	03ae                	slli	t2,t2,0xb
    217c:	0000                	unimp
    217e:	7e01                	lui	t3,0xfffe0
    2180:	1301                	addi	t1,t1,-32
    2182:	0180                	addi	s0,sp,192
    2184:	0000                	unimp
    2186:	0c14                	addi	a3,sp,528
    2188:	01b1                	addi	gp,gp,12
    218a:	0000                	unimp
    218c:	7f01                	lui	t5,0xfffe0
    218e:	1301                	addi	t1,t1,-32
    2190:	0180                	addi	s0,sp,192
    2192:	0000                	unimp
    2194:	0c18                	addi	a4,sp,528
    2196:	000003cf          	fnmadd.s	ft7,ft0,ft0,ft0,rne
    219a:	8001                	c.srli64	s0
    219c:	1301                	addi	t1,t1,-32
    219e:	0180                	addi	s0,sp,192
    21a0:	0000                	unimp
    21a2:	0c1c                	addi	a5,sp,528
    21a4:	042d                	addi	s0,s0,11
    21a6:	0000                	unimp
    21a8:	8101                	c.srli64	a0
    21aa:	1301                	addi	t1,t1,-32
    21ac:	0180                	addi	s0,sp,192
    21ae:	0000                	unimp
    21b0:	0c20                	addi	s0,sp,536
    21b2:	041e                	slli	s0,s0,0x7
    21b4:	0000                	unimp
    21b6:	8201                	c.srli64	a2
    21b8:	1301                	addi	t1,t1,-32
    21ba:	0180                	addi	s0,sp,192
    21bc:	0000                	unimp
    21be:	0024                	addi	s1,sp,8
    21c0:	1e0e                	slli	t3,t3,0x23
    21c2:	01000003          	lb	zero,16(zero) # 10 <InterruptVector+0x10>
    21c6:	6d030183          	lb	gp,1744(t1)
    21ca:	0b000003          	lb	zero,176(zero) # b0 <__mulsi3+0x10>
    21ce:	0150                	addi	a2,sp,132
    21d0:	019d                	addi	gp,gp,7
    21d2:	1409                	addi	s0,s0,-30
    21d4:	0006                	c.slli	zero,0x1
    21d6:	0c00                	addi	s0,sp,528
    21d8:	06ae                	slli	a3,a3,0xb
    21da:	0000                	unimp
    21dc:	9f01                	0x9f01
    21de:	1301                	addi	t1,t1,-32
    21e0:	0000016f          	jal	sp,21e0 <main_pwm.c.3eb49e96+0x424>
    21e4:	0c00                	addi	s0,sp,528
    21e6:	042d                	addi	s0,s0,11
    21e8:	0000                	unimp
    21ea:	a001                	j	21ea <main_pwm.c.3eb49e96+0x42e>
    21ec:	1301                	addi	t1,t1,-32
    21ee:	00000163          	beqz	zero,21f0 <main_pwm.c.3eb49e96+0x434>
    21f2:	0c02                	c.slli64	s8
    21f4:	06b6                	slli	a3,a3,0xd
    21f6:	0000                	unimp
    21f8:	a101                	j	25f8 <main_pwm.c.3eb49e96+0x83c>
    21fa:	1301                	addi	t1,t1,-32
    21fc:	0000016f          	jal	sp,21fc <main_pwm.c.3eb49e96+0x440>
    2200:	0c04                	addi	s1,sp,528
    2202:	00000437          	lui	s0,0x0
    2206:	a201                	j	2306 <main_pwm.c.3eb49e96+0x54a>
    2208:	1301                	addi	t1,t1,-32
    220a:	00000163          	beqz	zero,220c <main_pwm.c.3eb49e96+0x450>
    220e:	0c06                	slli	s8,s8,0x1
    2210:	0689                	addi	a3,a3,2
    2212:	0000                	unimp
    2214:	a301                	j	2714 <main_pwm.c.3eb49e96+0x958>
    2216:	1301                	addi	t1,t1,-32
    2218:	0000016f          	jal	sp,2218 <main_pwm.c.3eb49e96+0x45c>
    221c:	0c08                	addi	a0,sp,528
    221e:	0441                	addi	s0,s0,16
    2220:	0000                	unimp
    2222:	a401                	j	2422 <main_pwm.c.3eb49e96+0x666>
    2224:	1301                	addi	t1,t1,-32
    2226:	00000163          	beqz	zero,2228 <main_pwm.c.3eb49e96+0x46c>
    222a:	0c0a                	slli	s8,s8,0x2
    222c:	0970                	addi	a2,sp,156
    222e:	0000                	unimp
    2230:	a501                	j	2830 <main_pwm.c.3eb49e96+0xa74>
    2232:	1301                	addi	t1,t1,-32
    2234:	0000016f          	jal	sp,2234 <main_pwm.c.3eb49e96+0x478>
    2238:	0c0c                	addi	a1,sp,528
    223a:	0000044b          	fnmsub.s	fs0,ft0,ft0,ft0,rne
    223e:	a601                	j	253e <main_pwm.c.3eb49e96+0x782>
    2240:	1301                	addi	t1,t1,-32
    2242:	00000163          	beqz	zero,2244 <main_pwm.c.3eb49e96+0x488>
    2246:	0c0e                	slli	s8,s8,0x3
    2248:	086a                	slli	a6,a6,0x1a
    224a:	0000                	unimp
    224c:	a701                	j	294c <main_pwm.c.3eb49e96+0xb90>
    224e:	1301                	addi	t1,t1,-32
    2250:	0000016f          	jal	sp,2250 <main_pwm.c.3eb49e96+0x494>
    2254:	0c10                	addi	a2,sp,528
    2256:	0455                	addi	s0,s0,21
    2258:	0000                	unimp
    225a:	a801                	j	226a <main_pwm.c.3eb49e96+0x4ae>
    225c:	1301                	addi	t1,t1,-32
    225e:	00000163          	beqz	zero,2260 <main_pwm.c.3eb49e96+0x4a4>
    2262:	0c12                	slli	s8,s8,0x4
    2264:	06a5                	addi	a3,a3,9
    2266:	0000                	unimp
    2268:	a901                	j	2678 <main_pwm.c.3eb49e96+0x8bc>
    226a:	1301                	addi	t1,t1,-32
    226c:	0000016f          	jal	sp,226c <main_pwm.c.3eb49e96+0x4b0>
    2270:	0c14                	addi	a3,sp,528
    2272:	045f 0000 aa01      	0xaa010000045f
    2278:	1301                	addi	t1,t1,-32
    227a:	00000163          	beqz	zero,227c <main_pwm.c.3eb49e96+0x4c0>
    227e:	0c16                	slli	s8,s8,0x5
    2280:	06ac                	addi	a1,sp,840
    2282:	0000                	unimp
    2284:	ab01                	j	2794 <main_pwm.c.3eb49e96+0x9d8>
    2286:	1301                	addi	t1,t1,-32
    2288:	0000016f          	jal	sp,2288 <main_pwm.c.3eb49e96+0x4cc>
    228c:	0c18                	addi	a4,sp,528
    228e:	0469                	addi	s0,s0,26
    2290:	0000                	unimp
    2292:	ac01                	j	24a2 <main_pwm.c.3eb49e96+0x6e6>
    2294:	1301                	addi	t1,t1,-32
    2296:	00000163          	beqz	zero,2298 <main_pwm.c.3eb49e96+0x4dc>
    229a:	0c1a                	slli	s8,s8,0x6
    229c:	06b4                	addi	a3,sp,840
    229e:	0000                	unimp
    22a0:	ad01                	j	28b0 <main_pwm.c.3eb49e96+0xaf4>
    22a2:	1301                	addi	t1,t1,-32
    22a4:	0000016f          	jal	sp,22a4 <main_pwm.c.3eb49e96+0x4e8>
    22a8:	0c1c                	addi	a5,sp,528
    22aa:	00000a4b          	fnmsub.s	fs4,ft0,ft0,ft0,rne
    22ae:	ae01                	j	25be <main_pwm.c.3eb49e96+0x802>
    22b0:	1301                	addi	t1,t1,-32
    22b2:	00000163          	beqz	zero,22b4 <main_pwm.c.3eb49e96+0x4f8>
    22b6:	0c1e                	slli	s8,s8,0x7
    22b8:	0801                	addi	a6,a6,0
    22ba:	0000                	unimp
    22bc:	af01                	j	29cc <main_pwm.c.3eb49e96+0xc10>
    22be:	1301                	addi	t1,t1,-32
    22c0:	0000016f          	jal	sp,22c0 <main_pwm.c.3eb49e96+0x504>
    22c4:	0c20                	addi	s0,sp,536
    22c6:	0902                	c.slli64	s2
    22c8:	0000                	unimp
    22ca:	b001                	j	1aca <ch32v003fun.c.8affbd33+0xc48>
    22cc:	1301                	addi	t1,t1,-32
    22ce:	00000163          	beqz	zero,22d0 <main_pwm.c.3eb49e96+0x514>
    22d2:	0d22                	slli	s10,s10,0x8
    22d4:	00544e43          	fmadd.s	ft8,fs0,ft5,ft0,rmm
    22d8:	b101                	j	1ed8 <main_pwm.c.3eb49e96+0x11c>
    22da:	1301                	addi	t1,t1,-32
    22dc:	0000016f          	jal	sp,22dc <main_pwm.c.3eb49e96+0x520>
    22e0:	0c24                	addi	s1,sp,536
    22e2:	090c                	addi	a1,sp,144
    22e4:	0000                	unimp
    22e6:	b201                	j	1be6 <ch32v003fun.c.8affbd33+0xd64>
    22e8:	1301                	addi	t1,t1,-32
    22ea:	00000163          	beqz	zero,22ec <main_pwm.c.3eb49e96+0x530>
    22ee:	0d26                	slli	s10,s10,0x9
    22f0:	5350                	lw	a2,36(a4)
    22f2:	b3010043          	fmadd.d	ft0,ft2,fa6,fs6,rne
    22f6:	1301                	addi	t1,t1,-32
    22f8:	0000016f          	jal	sp,22f8 <main_pwm.c.3eb49e96+0x53c>
    22fc:	0c28                	addi	a0,sp,536
    22fe:	09c0                	addi	s0,sp,212
    2300:	0000                	unimp
    2302:	b401                	j	1d02 <ch32v003fun.c.8affbd33+0xe80>
    2304:	1301                	addi	t1,t1,-32
    2306:	00000163          	beqz	zero,2308 <main_pwm.c.3eb49e96+0x54c>
    230a:	0c2a                	slli	s8,s8,0xa
    230c:	07c9                	addi	a5,a5,18
    230e:	0000                	unimp
    2310:	b501                	j	2110 <main_pwm.c.3eb49e96+0x354>
    2312:	1301                	addi	t1,t1,-32
    2314:	0000016f          	jal	sp,2314 <main_pwm.c.3eb49e96+0x558>
    2318:	0c2c                	addi	a1,sp,536
    231a:	000009cb          	fnmsub.s	fs3,ft0,ft0,ft0,rne
    231e:	b601                	j	1e1e <main_pwm.c.3eb49e96+0x62>
    2320:	1301                	addi	t1,t1,-32
    2322:	00000163          	beqz	zero,2324 <main_pwm.c.3eb49e96+0x568>
    2326:	0c2e                	slli	s8,s8,0xb
    2328:	07bc                	addi	a5,sp,968
    232a:	0000                	unimp
    232c:	b701                	j	222c <main_pwm.c.3eb49e96+0x470>
    232e:	1301                	addi	t1,t1,-32
    2330:	0000016f          	jal	sp,2330 <main_pwm.c.3eb49e96+0x574>
    2334:	0c30                	addi	a2,sp,536
    2336:	09d6                	slli	s3,s3,0x15
    2338:	0000                	unimp
    233a:	b801                	j	1b4a <ch32v003fun.c.8affbd33+0xcc8>
    233c:	1301                	addi	t1,t1,-32
    233e:	00000163          	beqz	zero,2340 <main_pwm.c.3eb49e96+0x584>
    2342:	0c32                	slli	s8,s8,0xc
    2344:	0894                	addi	a3,sp,80
    2346:	0000                	unimp
    2348:	b901                	j	1f58 <main_pwm.c.3eb49e96+0x19c>
    234a:	1301                	addi	t1,t1,-32
    234c:	0180                	addi	s0,sp,192
    234e:	0000                	unimp
    2350:	0c34                	addi	a3,sp,536
    2352:	06dd                	addi	a3,a3,23
    2354:	0000                	unimp
    2356:	ba01                	j	1c66 <ch32v003fun.c.8affbd33+0xde4>
    2358:	1301                	addi	t1,t1,-32
    235a:	0180                	addi	s0,sp,192
    235c:	0000                	unimp
    235e:	0c38                	addi	a4,sp,536
    2360:	0929                	addi	s2,s2,10
    2362:	0000                	unimp
    2364:	bb01                	j	2074 <main_pwm.c.3eb49e96+0x2b8>
    2366:	1301                	addi	t1,t1,-32
    2368:	0180                	addi	s0,sp,192
    236a:	0000                	unimp
    236c:	0c3c                	addi	a5,sp,536
    236e:	0762                	slli	a4,a4,0x18
    2370:	0000                	unimp
    2372:	bc01                	j	1d82 <ch32v003fun.c.8affbd33+0xf00>
    2374:	1301                	addi	t1,t1,-32
    2376:	0180                	addi	s0,sp,192
    2378:	0000                	unimp
    237a:	0c40                	addi	s0,sp,532
    237c:	071d                	addi	a4,a4,7
    237e:	0000                	unimp
    2380:	bd01                	j	2190 <main_pwm.c.3eb49e96+0x3d4>
    2382:	1301                	addi	t1,t1,-32
    2384:	0000016f          	jal	sp,2384 <main_pwm.c.3eb49e96+0x5c8>
    2388:	0c44                	addi	s1,sp,532
    238a:	09e1                	addi	s3,s3,24
    238c:	0000                	unimp
    238e:	be01                	j	1e9e <main_pwm.c.3eb49e96+0xe2>
    2390:	1301                	addi	t1,t1,-32
    2392:	00000163          	beqz	zero,2394 <main_pwm.c.3eb49e96+0x5d8>
    2396:	0c46                	slli	s8,s8,0x11
    2398:	0000089b          	0x89b
    239c:	bf01                	j	22ac <main_pwm.c.3eb49e96+0x4f0>
    239e:	1301                	addi	t1,t1,-32
    23a0:	0000016f          	jal	sp,23a0 <main_pwm.c.3eb49e96+0x5e4>
    23a4:	0c48                	addi	a0,sp,532
    23a6:	09ec                	addi	a1,sp,220
    23a8:	0000                	unimp
    23aa:	c001                	beqz	s0,23aa <main_pwm.c.3eb49e96+0x5ee>
    23ac:	1301                	addi	t1,t1,-32
    23ae:	00000163          	beqz	zero,23b0 <main_pwm.c.3eb49e96+0x5f4>
    23b2:	0c4a                	slli	s8,s8,0x12
    23b4:	0922                	slli	s2,s2,0x8
    23b6:	0000                	unimp
    23b8:	c101                	beqz	a0,23b8 <main_pwm.c.3eb49e96+0x5fc>
    23ba:	1301                	addi	t1,t1,-32
    23bc:	0000016f          	jal	sp,23bc <main_pwm.c.3eb49e96+0x600>
    23c0:	0c4c                	addi	a1,sp,532
    23c2:	000009f7          	0x9f7
    23c6:	c201                	beqz	a2,23c6 <main_pwm.c.3eb49e96+0x60a>
    23c8:	1301                	addi	t1,t1,-32
    23ca:	00000163          	beqz	zero,23cc <main_pwm.c.3eb49e96+0x610>
    23ce:	004e                	c.slli	zero,0x13
    23d0:	110e                	slli	sp,sp,0x23
    23d2:	01000007          	0x1000007
    23d6:	110301c3          	fmadd.s	ft3,ft6,fa6,ft2,rne
    23da:	0004                	0x4
    23dc:	0f00                	addi	s0,sp,912
    23de:	0159                	addi	sp,sp,22
    23e0:	0000                	unimp
    23e2:	0631                	addi	a2,a2,12
    23e4:	0000                	unimp
    23e6:	d210                	sw	a2,32(a2)
    23e8:	0000                	unimp
    23ea:	0f00                	addi	s0,sp,912
    23ec:	0700                	addi	s0,sp,896
    23ee:	0621                	addi	a2,a2,8
    23f0:	0000                	unimp
    23f2:	3108                	fld	fa0,32(a0)
    23f4:	0006                	c.slli	zero,0x1
    23f6:	1100                	addi	s0,sp,160
    23f8:	048e                	slli	s1,s1,0x3
    23fa:	0000                	unimp
    23fc:	7301                	lui	t1,0xfffe0
    23fe:	0636140b          	0x636140b
    2402:	0000                	unimp
    2404:	0001590f          	0x1590f
    2408:	5800                	lw	s0,48(s0)
    240a:	0006                	c.slli	zero,0x1
    240c:	1000                	addi	s0,sp,32
    240e:	00d2                	slli	ra,ra,0x14
    2410:	0000                	unimp
    2412:	48070013          	addi	zero,a4,1152 # fffe0480 <__global_pointer$+0xdffdfb40>
    2416:	0006                	c.slli	zero,0x1
    2418:	0800                	addi	s0,sp,16
    241a:	0658                	addi	a4,sp,772
    241c:	0000                	unimp
    241e:	6511                	lui	a0,0x4
    2420:	0001                	nop
    2422:	0100                	addi	s0,sp,128
    2424:	0b74                	addi	a3,sp,412
    2426:	5d14                	lw	a3,56(a0)
    2428:	0006                	c.slli	zero,0x1
    242a:	1200                	addi	s0,sp,288
    242c:	00d20407          	0xd20407
    2430:	0000                	unimp
    2432:	1301                	addi	t1,t1,-32
    2434:	010d                	addi	sp,sp,3
    2436:	0691                	addi	a3,a3,4
    2438:	0000                	unimp
    243a:	00025503          	lhu	a0,0(tp) # 6000 <wiring.c.7604182b+0x3607>
    243e:	0100                	addi	s0,sp,128
    2440:	0001cf03          	lbu	t5,0(gp) # 20000940 <__global_pointer$>
    2444:	0200                	addi	s0,sp,256
    2446:	00054a03          	lbu	s4,0(a0) # 4000 <wiring.c.7604182b+0x1607>
    244a:	0300                	addi	s0,sp,384
    244c:	1300                	addi	s0,sp,416
    244e:	0d14                	addi	a3,sp,656
    2450:	4101                	li	sp,0
    2452:	0911                	addi	s2,s2,4
    2454:	07ec                	addi	a1,sp,972
    2456:	0000                	unimp
    2458:	490d                	li	s2,3
    245a:	01005253          	fadd.s	ft4,ft0,fa6,unknown
    245e:	1142                	slli	sp,sp,0x30
    2460:	00080113          	mv	sp,a6
    2464:	0000                	unimp
    2466:	490d                	li	s2,3
    2468:	5250                	lw	a2,36(a2)
    246a:	0100                	addi	s0,sp,128
    246c:	06131143          	fmadd.q	ft2,ft6,ft1,ft0,rtz
    2470:	0008                	0x8
    2472:	2000                	fld	fs0,0(s0)
    2474:	d40c                	sw	a1,40(s0)
    2476:	0006                	c.slli	zero,0x1
    2478:	0100                	addi	s0,sp,128
    247a:	1144                	addi	s1,sp,164
    247c:	00018013          	mv	zero,gp
    2480:	4000                	lw	s0,0(s0)
    2482:	0d0c                	addi	a1,sp,656
    2484:	0001                	nop
    2486:	0100                	addi	s0,sp,128
    2488:	1145                	addi	sp,sp,-15
    248a:	00018013          	mv	zero,gp
    248e:	4400                	lw	s0,8(s0)
    2490:	9e0c                	0x9e0c
    2492:	0008                	0x8
    2494:	0100                	addi	s0,sp,128
    2496:	1146                	slli	sp,sp,0x31
    2498:	00018013          	mv	zero,gp
    249c:	4800                	lw	s0,16(s0)
    249e:	330c                	fld	fa1,32(a4)
    24a0:	0006                	c.slli	zero,0x1
    24a2:	0100                	addi	s0,sp,128
    24a4:	85131147          	0x85131147
    24a8:	0001                	nop
    24aa:	4c00                	lw	s0,24(s0)
    24ac:	ed0c                	fsw	fa1,24(a0)
    24ae:	0006                	c.slli	zero,0x1
    24b0:	0100                	addi	s0,sp,128
    24b2:	1148                	addi	a0,sp,164
    24b4:	1b12                	slli	s6,s6,0x24
    24b6:	0008                	0x8
    24b8:	5000                	lw	s0,32(s0)
    24ba:	2d0c                	fld	fa1,24(a0)
    24bc:	0004                	0x4
    24be:	0100                	addi	s0,sp,128
    24c0:	1149                	addi	sp,sp,-14
    24c2:	200d                	jal	24e4 <main_pwm.c.3eb49e96+0x728>
    24c4:	0008                	0x8
    24c6:	5400                	lw	s0,40(s0)
    24c8:	280c                	fld	fa1,16(s0)
    24ca:	000a                	c.slli	zero,0x2
    24cc:	0100                	addi	s0,sp,128
    24ce:	114a                	slli	sp,sp,0x32
    24d0:	00084013          	xori	zero,a6,0
    24d4:	6000                	flw	fs0,0(s0)
    24d6:	370c                	fld	fa1,40(a4)
    24d8:	0004                	0x4
    24da:	0100                	addi	s0,sp,128
    24dc:	450d114b          	0x450d114b
    24e0:	0008                	0x8
    24e2:	7000                	flw	fs0,32(s0)
    24e4:	5d14                	lw	a3,56(a0)
    24e6:	01000007          	0x1000007
    24ea:	114c                	addi	a1,sp,164
    24ec:	00086513          	ori	a0,a6,0
    24f0:	0000                	unimp
    24f2:	1401                	addi	s0,s0,-32
    24f4:	0441                	addi	s0,s0,16
    24f6:	0000                	unimp
    24f8:	4d01                	li	s10,0
    24fa:	0d11                	addi	s10,s10,4
    24fc:	086a                	slli	a6,a6,0x1a
    24fe:	0000                	unimp
    2500:	0120                	addi	s0,sp,136
    2502:	9a14                	0x9a14
    2504:	0009                	c.nop	2
    2506:	0100                	addi	s0,sp,128
    2508:	114e                	slli	sp,sp,0x33
    250a:	00086513          	ori	a0,a6,0
    250e:	8000                	0x8000
    2510:	1401                	addi	s0,s0,-32
    2512:	0000044b          	fnmsub.s	fs0,ft0,ft0,ft0,rne
    2516:	4f01                	li	t5,0
    2518:	0d11                	addi	s10,s10,4
    251a:	086a                	slli	a6,a6,0x1a
    251c:	0000                	unimp
    251e:	01a0                	addi	s0,sp,200
    2520:	4614                	lw	a3,8(a2)
    2522:	000a                	c.slli	zero,0x2
    2524:	0100                	addi	s0,sp,128
    2526:	1150                	addi	a2,sp,164
    2528:	00086513          	ori	a0,a6,0
    252c:	0000                	unimp
    252e:	1402                	slli	s0,s0,0x20
    2530:	0455                	addi	s0,s0,21
    2532:	0000                	unimp
    2534:	5101                	li	sp,-32
    2536:	0d11                	addi	s10,s10,4
    2538:	086a                	slli	a6,a6,0x1a
    253a:	0000                	unimp
    253c:	0220                	addi	s0,sp,264
    253e:	1014                	addi	a3,sp,32
    2540:	000a                	c.slli	zero,0x2
    2542:	0100                	addi	s0,sp,128
    2544:	1152                	slli	sp,sp,0x34
    2546:	00086513          	ori	a0,a6,0
    254a:	8000                	0x8000
    254c:	1402                	slli	s0,s0,0x20
    254e:	045f 0000 5301      	0x53010000045f
    2554:	0d11                	addi	s10,s10,4
    2556:	086a                	slli	a6,a6,0x1a
    2558:	0000                	unimp
    255a:	02a0                	addi	s0,sp,328
    255c:	0b14                	addi	a3,sp,400
    255e:	01000007          	0x1000007
    2562:	1154                	addi	a3,sp,164
    2564:	00086513          	ori	a0,a6,0
    2568:	0000                	unimp
    256a:	04691403          	lh	s0,70(s2) # fffe0046 <__global_pointer$+0xdffdf706>
    256e:	0000                	unimp
    2570:	5501                	li	a0,-32
    2572:	0d11                	addi	s10,s10,4
    2574:	087a                	slli	a6,a6,0x1e
    2576:	0000                	unimp
    2578:	0320                	addi	s0,sp,392
    257a:	c214                	sw	a3,0(a2)
    257c:	01000007          	0x1000007
    2580:	1156                	slli	sp,sp,0x35
    2582:	9a12                	add	s4,s4,tp
    2584:	0008                	0x8
    2586:	0000                	unimp
    2588:	1404                	addi	s1,sp,544
    258a:	00000a4b          	fnmsub.s	fs4,ft0,ft0,ft0,rne
    258e:	5701                	li	a4,-32
    2590:	0d11                	addi	s10,s10,4
    2592:	089f 0000 0500      	0x5000000089f
    2598:	7014                	flw	fa3,32(s0)
    259a:	0006                	c.slli	zero,0x1
    259c:	0100                	addi	s0,sp,128
    259e:	1158                	addi	a4,sp,164
    25a0:	00018013          	mv	zero,gp
    25a4:	1000                	addi	s0,sp,32
    25a6:	000d                	c.nop	3
    25a8:	0001850f          	0x1850f
    25ac:	fc00                	fsw	fs0,56(s0)
    25ae:	10000007          	0x10000007
    25b2:	00d2                	slli	ra,ra,0x14
    25b4:	0000                	unimp
    25b6:	ec070007          	0xec070007
    25ba:	08000007          	0x8000007
    25be:	07fc                	addi	a5,sp,972
    25c0:	0000                	unimp
    25c2:	fc08                	fsw	fa0,56(s0)
    25c4:	0f000007          	0xf000007
    25c8:	015e                	slli	sp,sp,0x17
    25ca:	0000                	unimp
    25cc:	0000081b          	0x81b
    25d0:	d210                	sw	a2,32(a2)
    25d2:	0000                	unimp
    25d4:	0300                	addi	s0,sp,384
    25d6:	0800                	addi	s0,sp,16
    25d8:	0000080b          	0x80b
    25dc:	0001480f          	0x1480f
    25e0:	3000                	fld	fs0,32(s0)
    25e2:	0008                	0x8
    25e4:	1000                	addi	s0,sp,32
    25e6:	00d2                	slli	ra,ra,0x14
    25e8:	0000                	unimp
    25ea:	800f000b          	0x800f000b
    25ee:	0001                	nop
    25f0:	4000                	lw	s0,0(s0)
    25f2:	0008                	0x8
    25f4:	1000                	addi	s0,sp,32
    25f6:	00d2                	slli	ra,ra,0x14
    25f8:	0000                	unimp
    25fa:	30080003          	lb	zero,768(a6) # a300 <wiring.c.7604182b+0x7907>
    25fe:	0008                	0x8
    2600:	0f00                	addi	s0,sp,912
    2602:	0148                	addi	a0,sp,132
    2604:	0000                	unimp
    2606:	0855                	addi	a6,a6,21
    2608:	0000                	unimp
    260a:	d210                	sw	a2,32(a2)
    260c:	0000                	unimp
    260e:	8f00                	0x8f00
    2610:	0f00                	addi	s0,sp,912
    2612:	0180                	addi	s0,sp,192
    2614:	0000                	unimp
    2616:	0865                	addi	a6,a6,25
    2618:	0000                	unimp
    261a:	d210                	sw	a2,32(a2)
    261c:	0000                	unimp
    261e:	0700                	addi	s0,sp,896
    2620:	0800                	addi	s0,sp,16
    2622:	0855                	addi	a6,a6,21
    2624:	0000                	unimp
    2626:	0001480f          	0x1480f
    262a:	7a00                	flw	fs0,48(a2)
    262c:	0008                	0x8
    262e:	1000                	addi	s0,sp,32
    2630:	00d2                	slli	ra,ra,0x14
    2632:	0000                	unimp
    2634:	005f 480f 0001      	0x1480f005f
    263a:	8a00                	0x8a00
    263c:	0008                	0x8
    263e:	1000                	addi	s0,sp,32
    2640:	00d2                	slli	ra,ra,0x14
    2642:	0000                	unimp
    2644:	00df 5e0f 0001      	0x15e0f00df
    264a:	9a00                	0x9a00
    264c:	0008                	0x8
    264e:	1000                	addi	s0,sp,32
    2650:	00d2                	slli	ra,ra,0x14
    2652:	0000                	unimp
    2654:	00ff                	0xff
    2656:	8a08                	0x8a08
    2658:	0008                	0x8
    265a:	0f00                	addi	s0,sp,912
    265c:	0148                	addi	a0,sp,132
    265e:	0000                	unimp
    2660:	08b0                	addi	a2,sp,88
    2662:	0000                	unimp
    2664:	d215                	beqz	a2,2588 <main_pwm.c.3eb49e96+0x7cc>
    2666:	0000                	unimp
    2668:	0f00                	addi	s0,sp,912
    266a:	0008                	0x8
    266c:	4a0e                	lw	s4,192(sp)
    266e:	0008                	0x8
    2670:	0100                	addi	s0,sp,128
    2672:	1159                	addi	sp,sp,-10
    2674:	9102                	jalr	sp
    2676:	0006                	c.slli	zero,0x1
    2678:	0b00                	addi	s0,sp,400
    267a:	0118                	addi	a4,sp,128
    267c:	115c                	addi	a5,sp,164
    267e:	1b09                	addi	s6,s6,-30
    2680:	0009                	c.nop	2
    2682:	0c00                	addi	s0,sp,528
    2684:	0000032b          	0x32b
    2688:	5e01                	li	t3,-32
    268a:	1311                	addi	t1,t1,-28
    268c:	0180                	addi	s0,sp,192
    268e:	0000                	unimp
    2690:	0d00                	addi	s0,sp,656
    2692:	01005253          	fadd.s	ft4,ft0,fa6,unknown
    2696:	115f 8013 0001      	0x18013115f
    269c:	0400                	addi	s0,sp,512
    269e:	430d                	li	t1,3
    26a0:	544e                	lw	s0,240(sp)
    26a2:	0100                	addi	s0,sp,128
    26a4:	1160                	addi	s0,sp,172
    26a6:	00018013          	mv	zero,gp
    26aa:	0800                	addi	s0,sp,16
    26ac:	2d0c                	fld	fa1,24(a0)
    26ae:	0004                	0x4
    26b0:	0100                	addi	s0,sp,128
    26b2:	1161                	addi	sp,sp,-8
    26b4:	740e                	flw	fs0,224(sp)
    26b6:	0001                	nop
    26b8:	0c00                	addi	s0,sp,528
    26ba:	430d                	li	t1,3
    26bc:	504d                	c.li	zero,-13
    26be:	0100                	addi	s0,sp,128
    26c0:	1162                	slli	sp,sp,0x38
    26c2:	00018013          	mv	zero,gp
    26c6:	1000                	addi	s0,sp,32
    26c8:	370c                	fld	fa1,40(a4)
    26ca:	0004                	0x4
    26cc:	0100                	addi	s0,sp,128
    26ce:	740e1163          	bnez	t3,2e10 <wiring.c.7604182b+0x417>
    26d2:	0001                	nop
    26d4:	1400                	addi	s0,sp,544
    26d6:	0e00                	addi	s0,sp,784
    26d8:	03de                	slli	t2,t2,0x17
    26da:	0000                	unimp
    26dc:	6401                	0x6401
    26de:	0211                	addi	tp,tp,4
    26e0:	08bd                	addi	a7,a7,15
    26e2:	0000                	unimp
    26e4:	1004                	addi	s1,sp,32
    26e6:	eb04                	fsw	fs1,16(a4)
    26e8:	04000003          	lb	zero,64(zero) # 40 <InterruptVector+0x40>
    26ec:	0801                	addi	a6,a6,0
    26ee:	053a                	slli	a0,a0,0xe
    26f0:	0000                	unimp
    26f2:	1009                	c.nop	-30
    26f4:	2f04                	fld	fs1,24(a4)
    26f6:	7409                	lui	s0,0xfffe2
    26f8:	0009                	c.nop	2
    26fa:	0a00                	addi	s0,sp,272
    26fc:	0995                	addi	s3,s3,5
    26fe:	0000                	unimp
    2700:	3004                	fld	fs1,32(s0)
    2702:	7410                	flw	fa2,40(s0)
    2704:	0009                	c.nop	2
    2706:	0000                	unimp
    2708:	7016                	flw	ft0,100(sp)
    270a:	6e69                	lui	t3,0x1a
    270c:	0400                	addi	s0,sp,512
    270e:	0a31                	addi	s4,s4,12
    2710:	0148                	addi	a0,sp,132
    2712:	0000                	unimp
    2714:	0a04                	addi	s1,sp,272
    2716:	0a55                	addi	s4,s4,21
    2718:	0000                	unimp
    271a:	3204                	fld	fs1,32(a2)
    271c:	00097a0f          	0x97a0f
    2720:	0800                	addi	s0,sp,16
    2722:	fa0a                	fsw	ft2,52(sp)
    2724:	0008                	0x8
    2726:	0400                	addi	s0,sp,512
    2728:	01630b33          	add	s6,t1,s6
    272c:	0000                	unimp
    272e:	000c                	0xc
    2730:	031e0417          	auipc	s0,0x31e0
    2734:	0000                	unimp
    2736:	06140417          	auipc	s0,0x6140
    273a:	0000                	unimp
    273c:	7a05                	lui	s4,0xfffe1
    273e:	0009                	c.nop	2
    2740:	0400                	addi	s0,sp,512
    2742:	0334                	addi	a3,sp,392
    2744:	0936                	slli	s2,s2,0xd
    2746:	0000                	unimp
    2748:	5018                	lw	a4,32(s0)
    274a:	3141                	jal	23ca <main_pwm.c.3eb49e96+0x60e>
    274c:	0400                	addi	s0,sp,512
    274e:	1236                	slli	tp,tp,0x2d
    2750:	0980                	addi	s0,sp,208
    2752:	0000                	unimp
    2754:	5018                	lw	a4,32(s0)
    2756:	04003443          	0x4003443
    275a:	09801237          	lui	tp,0x9801
    275e:	0000                	unimp
    2760:	5018                	lw	a4,32(s0)
    2762:	04003243          	0x4003243
    2766:	1238                	addi	a4,sp,296
    2768:	0980                	addi	s0,sp,208
    276a:	0000                	unimp
    276c:	5018                	lw	a4,32(s0)
    276e:	04003143          	0x4003143
    2772:	1239                	addi	tp,tp,-18
    2774:	0980                	addi	s0,sp,208
    2776:	0000                	unimp
    2778:	0c09                	addi	s8,s8,2
    277a:	3f04                	fld	fs1,56(a4)
    277c:	ed09                	bnez	a0,2796 <main_pwm.c.3eb49e96+0x9da>
    277e:	0009                	c.nop	2
    2780:	0a00                	addi	s0,sp,272
    2782:	07a6                	slli	a5,a5,0x9
    2784:	0000                	unimp
    2786:	4004                	lw	s1,0(s0)
    2788:	ed14                	fsw	fa3,24(a0)
    278a:	0009                	c.nop	2
    278c:	0000                	unimp
    278e:	cf0a                	sw	sp,156(sp)
    2790:	0008                	0x8
    2792:	0400                	addi	s0,sp,512
    2794:	1441                	addi	s0,s0,-16
    2796:	09ed                	addi	s3,s3,27
    2798:	0000                	unimp
    279a:	0a04                	addi	s1,sp,272
    279c:	0870                	addi	a2,sp,28
    279e:	0000                	unimp
    27a0:	4204                	lw	s1,0(a2)
    27a2:	00015e13          	srli	t3,sp,0x0
    27a6:	0800                	addi	s0,sp,16
    27a8:	1700                	addi	s0,sp,928
    27aa:	8004                	0x8004
    27ac:	0009                	c.nop	2
    27ae:	0500                	addi	s0,sp,640
    27b0:	0a30                	addi	a2,sp,280
    27b2:	0000                	unimp
    27b4:	4304                	lw	s1,0(a4)
    27b6:	0009bc03          	0x9bc03
    27ba:	0800                	addi	s0,sp,16
    27bc:	000009f3          	0x9f3
    27c0:	0009ff0f          	0x9ff0f
    27c4:	1400                	addi	s0,sp,544
    27c6:	000a                	c.slli	zero,0x2
    27c8:	1000                	addi	s0,sp,32
    27ca:	00d2                	slli	ra,ra,0x14
    27cc:	0000                	unimp
    27ce:	0408000b          	0x408000b
    27d2:	000a                	c.slli	zero,0x2
    27d4:	1900                	addi	s0,sp,176
    27d6:	0789                	addi	a5,a5,2
    27d8:	0000                	unimp
    27da:	4704                	lw	s1,8(a4)
    27dc:	1415                	addi	s0,s0,-27
    27de:	000a                	c.slli	zero,0x2
    27e0:	0f00                	addi	s0,sp,912
    27e2:	0154                	addi	a3,sp,132
    27e4:	0000                	unimp
    27e6:	00000a3b          	0xa3b
    27ea:	d210                	sw	a2,32(a2)
    27ec:	0000                	unimp
    27ee:	0300                	addi	s0,sp,384
    27f0:	d210                	sw	a2,32(a2)
    27f2:	0000                	unimp
    27f4:	0200                	addi	s0,sp,256
    27f6:	0700                	addi	s0,sp,896
    27f8:	0a25                	addi	s4,s4,9
    27fa:	0000                	unimp
    27fc:	7d1a                	flw	fs10,164(sp)
    27fe:	04000007          	0x4000007
    2802:	165c                	addi	a5,sp,804
    2804:	00000a3b          	0xa3b
    2808:	000a411b          	0xa411b
    280c:	0400                	addi	s0,sp,512
    280e:	019d                	addi	gp,gp,7
    2810:	4105                	li	sp,1
    2812:	0001                	nop
    2814:	8700                	0x8700
    2816:	000a                	c.slli	zero,0x2
    2818:	1c00                	addi	s0,sp,560
    281a:	ba11                	j	212e <main_pwm.c.3eb49e96+0x372>
    281c:	0009                	c.nop	2
    281e:	0400                	addi	s0,sp,512
    2820:	01b0                	addi	a2,sp,200
    2822:	4115                	li	sp,5
    2824:	0001                	nop
    2826:	1100                	addi	s0,sp,160
    2828:	000007ef          	jal	a5,2828 <main_pwm.c.3eb49e96+0xa6c>
    282c:	b204                	fsd	fs1,32(a2)
    282e:	1501                	addi	a0,a0,-32
    2830:	0141                	addi	sp,sp,16
    2832:	0000                	unimp
    2834:	1d1c                	addi	a5,sp,688
    2836:	0069                	c.nop	26
    2838:	b304                	fsd	fs1,32(a4)
    283a:	1901                	addi	s2,s2,-32
    283c:	0141                	addi	sp,sp,16
    283e:	0000                	unimp
    2840:	0000                	unimp
    2842:	1e00                	addi	s0,sp,816
    2844:	0668                	addi	a0,sp,780
    2846:	0000                	unimp
    2848:	8e04                	0x8e04
    284a:	0a01                	addi	s4,s4,0
    284c:	00000163          	beqz	zero,284e <main_pwm.c.3eb49e96+0xa92>
    2850:	8b1f 0008 0400      	0x40000088b1f
    2856:	0165                	addi	sp,sp,25
    2858:	1f06                	slli	t5,t5,0x21
    285a:	0000087b          	0x87b
    285e:	5104                	lw	s1,32(a0)
    2860:	0601                	addi	a2,a2,0
    2862:	8320                	0x8320
    2864:	04000007          	0x4000007
    2868:	0110                	addi	a2,sp,128
    286a:	f006                	fsw	ft1,32(sp)
    286c:	000a                	c.slli	zero,0x2
    286e:	1100                	addi	s0,sp,160
    2870:	0776                	slli	a4,a4,0x1d
    2872:	0000                	unimp
    2874:	1e04                	addi	s1,sp,816
    2876:	1101                	addi	sp,sp,-32
    2878:	0148                	addi	a0,sp,132
    287a:	0000                	unimp
    287c:	d121                	beqz	a0,27bc <main_pwm.c.3eb49e96+0xa00>
    287e:	000a                	c.slli	zero,0x2
    2880:	1d00                	addi	s0,sp,688
    2882:	0069                	c.nop	26
    2884:	2104                	fld	fs1,0(a0)
    2886:	0a01                	addi	s4,s4,0
    2888:	0141                	addi	sp,sp,16
    288a:	0000                	unimp
    288c:	2100                	fld	fs0,0(a0)
    288e:	0ae2                	slli	s5,s5,0x18
    2890:	0000                	unimp
    2892:	691d                	lui	s2,0x7
    2894:	0400                	addi	s0,sp,512
    2896:	012d                	addi	sp,sp,11
    2898:	410a                	lw	sp,128(sp)
    289a:	0001                	nop
    289c:	0000                	unimp
    289e:	1d1c                	addi	a5,sp,688
    28a0:	0069                	c.nop	26
    28a2:	3504                	fld	fs1,40(a0)
    28a4:	0a01                	addi	s4,s4,0
    28a6:	0141                	addi	sp,sp,16
    28a8:	0000                	unimp
    28aa:	0000                	unimp
    28ac:	6922                	flw	fs2,8(sp)
    28ae:	04000007          	0x4000007
    28b2:	06fe                	slli	a3,a3,0x1f
    28b4:	00083923          	0x83923
    28b8:	0400                	addi	s0,sp,512
    28ba:	06ee                	slli	a3,a3,0x1b
    28bc:	0b29                	addi	s6,s6,10
    28be:	0000                	unimp
    28c0:	5524                	lw	s1,104(a0)
    28c2:	000a                	c.slli	zero,0x2
    28c4:	0400                	addi	s0,sp,512
    28c6:	1dee                	slli	s11,s11,0x3b
    28c8:	097a                	slli	s2,s2,0x1e
    28ca:	0000                	unimp
    28cc:	6325                	lui	t1,0x9
    28ce:	6c68                	flw	fa0,92(s0)
    28d0:	0400                	addi	s0,sp,512
    28d2:	2dee                	fld	fs11,216(sp)
    28d4:	00000163          	beqz	zero,28d6 <main_pwm.c.3eb49e96+0xb1a>
    28d8:	b624                	fsd	fs1,104(a2)
    28da:	04000007          	0x4000007
    28de:	3bee                	fld	fs7,248(sp)
    28e0:	00000163          	beqz	zero,28e2 <main_pwm.c.3eb49e96+0xb26>
    28e4:	2300                	fld	fs0,0(a4)
    28e6:	09b1                	addi	s3,s3,12
    28e8:	0000                	unimp
    28ea:	e304                	fsw	fs1,0(a4)
    28ec:	6606                	flw	fa2,64(sp)
    28ee:	2400000b          	0x2400000b
    28f2:	0995                	addi	s3,s3,5
    28f4:	0000                	unimp
    28f6:	e304                	fsw	fs1,0(a4)
    28f8:	741d                	lui	s0,0xfffe7
    28fa:	0009                	c.nop	2
    28fc:	2500                	fld	fs0,8(a0)
    28fe:	6970                	flw	fa2,84(a0)
    2900:	006e                	c.slli	zero,0x1b
    2902:	e304                	fsw	fs1,0(a4)
    2904:	0001482b          	0x1482b
    2908:	2400                	fld	fs0,8(s0)
    290a:	0a55                	addi	s4,s4,21
    290c:	0000                	unimp
    290e:	e304                	fsw	fs1,0(a4)
    2910:	7a3d                	lui	s4,0xfffef
    2912:	0009                	c.nop	2
    2914:	2400                	fld	fs0,8(s0)
    2916:	08fa                	slli	a7,a7,0x1e
    2918:	0000                	unimp
    291a:	e304                	fsw	fs1,0(a4)
    291c:	634d                	lui	t1,0x13
    291e:	0001                	nop
    2920:	0000                	unimp
    2922:	0008e223          	0x8e223
    2926:	0400                	addi	s0,sp,512
    2928:	06d5                	addi	a3,a3,21
    292a:	00000ba3          	sb	zero,23(zero) # 17 <InterruptVector+0x17>
    292e:	9524                	0x9524
    2930:	0009                	c.nop	2
    2932:	0400                	addi	s0,sp,512
    2934:	1fd5                	addi	t6,t6,-11
    2936:	0974                	addi	a3,sp,156
    2938:	0000                	unimp
    293a:	7025                	c.lui	zero,0xfffe9
    293c:	6e69                	lui	t3,0x1a
    293e:	0400                	addi	s0,sp,512
    2940:	2dd5                	jal	3034 <wiring.c.7604182b+0x63b>
    2942:	0148                	addi	a0,sp,132
    2944:	0000                	unimp
    2946:	5524                	lw	s1,104(a0)
    2948:	000a                	c.slli	zero,0x2
    294a:	0400                	addi	s0,sp,512
    294c:	3fd5                	jal	2940 <main_pwm.c.3eb49e96+0xb84>
    294e:	097a                	slli	s2,s2,0x1e
    2950:	0000                	unimp
    2952:	fa24                	fsw	fs1,112(a2)
    2954:	0008                	0x8
    2956:	0400                	addi	s0,sp,512
    2958:	4fd5                	li	t6,21
    295a:	00000163          	beqz	zero,295c <main_pwm.c.3eb49e96+0xba0>
    295e:	2300                	fld	fs0,0(a4)
    2960:	00000a5b          	0xa5b
    2964:	c804                	sw	s1,16(s0)
    2966:	e006                	fsw	ft1,0(sp)
    2968:	2400000b          	0x2400000b
    296c:	0995                	addi	s3,s3,5
    296e:	0000                	unimp
    2970:	c804                	sw	s1,16(s0)
    2972:	741e                	flw	fs0,228(sp)
    2974:	0009                	c.nop	2
    2976:	2500                	fld	fs0,8(a0)
    2978:	6970                	flw	fa2,84(a0)
    297a:	006e                	c.slli	zero,0x1b
    297c:	c804                	sw	s1,16(s0)
    297e:	482c                	lw	a1,80(s0)
    2980:	0001                	nop
    2982:	2400                	fld	fs0,8(s0)
    2984:	0a55                	addi	s4,s4,21
    2986:	0000                	unimp
    2988:	c804                	sw	s1,16(s0)
    298a:	7a3e                	flw	fs4,236(sp)
    298c:	0009                	c.nop	2
    298e:	2400                	fld	fs0,8(s0)
    2990:	08fa                	slli	a7,a7,0x1e
    2992:	0000                	unimp
    2994:	c804                	sw	s1,16(s0)
    2996:	634e                	flw	ft6,208(sp)
    2998:	0001                	nop
    299a:	0000                	unimp
    299c:	000a0723          	sb	zero,14(s4) # fffef00e <__global_pointer$+0xdffee6ce>
    29a0:	0400                	addi	s0,sp,512
    29a2:	0c1d06bb          	0xc1d06bb
    29a6:	0000                	unimp
    29a8:	9524                	0x9524
    29aa:	0009                	c.nop	2
    29ac:	0400                	addi	s0,sp,512
    29ae:	09741dbb          	0x9741dbb
    29b2:	0000                	unimp
    29b4:	7025                	c.lui	zero,0xfffe9
    29b6:	6e69                	lui	t3,0x1a
    29b8:	0400                	addi	s0,sp,512
    29ba:	01482bbb          	0x1482bbb
    29be:	0000                	unimp
    29c0:	5524                	lw	s1,104(a0)
    29c2:	000a                	c.slli	zero,0x2
    29c4:	0400                	addi	s0,sp,512
    29c6:	097a3dbb          	0x97a3dbb
    29ca:	0000                	unimp
    29cc:	fa24                	fsw	fs1,112(a2)
    29ce:	0008                	0x8
    29d0:	0400                	addi	s0,sp,512
    29d2:	01634dbb          	0x1634dbb
    29d6:	0000                	unimp
    29d8:	2200                	fld	fs0,0(a2)
    29da:	063e                	slli	a2,a2,0xf
    29dc:	0000                	unimp
    29de:	6a04                	flw	fs1,16(a2)
    29e0:	2606                	fld	fa2,64(sp)
    29e2:	0696                	slli	a3,a3,0x5
    29e4:	0000                	unimp
    29e6:	a701                	j	30e6 <wiring.c.7604182b+0x6ed>
    29e8:	1711                	addi	a4,a4,-28
    29ea:	00062e27          	fsw	ft0,28(a2)
    29ee:	0100                	addi	s0,sp,128
    29f0:	d93011a7          	0xd93011a7
    29f4:	0000                	unimp
    29f6:	0000                	unimp
	...

000029f9 <wiring.c.7604182b>:
    29f9:	06ba                	slli	a3,a3,0xe
    29fb:	0000                	unimp
    29fd:	0004                	0x4
    29ff:	0608                	addi	a0,sp,768
    2a01:	0000                	unimp
    2a03:	0104                	addi	s1,sp,128
    2a05:	0581                	addi	a1,a1,0
    2a07:	0000                	unimp
    2a09:	990c                	0x990c
    2a0b:	000a                	c.slli	zero,0x2
    2a0d:	e100                	fsw	fs0,0(a0)
    2a0f:	0000                	unimp
    2a11:	7a00                	flw	fs0,48(a2)
    2a13:	0029                	c.nop	10
    2a15:	0200                	addi	s0,sp,256
    2a17:	0704                	addi	s1,sp,896
    2a19:	0278                	addi	a4,sp,268
    2a1b:	0000                	unimp
    2a1d:	000c2603          	lw	a2,0(s8) # fffe0000 <__global_pointer$+0xdffdf6c0>
    2a21:	0100                	addi	s0,sp,128
    2a23:	1729                	addi	a4,a4,-22
    2a25:	0030                	addi	a2,sp,8
    2a27:	0000                	unimp
    2a29:	0102                	c.slli64	sp
    2a2b:	3306                	fld	ft6,96(sp)
    2a2d:	0005                	c.nop	1
    2a2f:	0300                	addi	s0,sp,384
    2a31:	04f0                	addi	a2,sp,588
    2a33:	0000                	unimp
    2a35:	2b01                	jal	2f45 <wiring.c.7604182b+0x54c>
    2a37:	4318                	lw	a4,0(a4)
    2a39:	0000                	unimp
    2a3b:	0200                	addi	s0,sp,256
    2a3d:	0801                	addi	a6,a6,0
    2a3f:	0531                	addi	a0,a0,12
    2a41:	0000                	unimp
    2a43:	0202                	c.slli64	tp
    2a45:	7305                	lui	t1,0xfffe1
    2a47:	0004                	0x4
    2a49:	0300                	addi	s0,sp,384
    2a4b:	02b4                	addi	a3,sp,328
    2a4d:	0000                	unimp
    2a4f:	3901                	jal	265f <main_pwm.c.3eb49e96+0x8a3>
    2a51:	5d19                	li	s10,-26
    2a53:	0000                	unimp
    2a55:	0200                	addi	s0,sp,256
    2a57:	0702                	c.slli64	a4
    2a59:	05cc                	addi	a1,sp,708
    2a5b:	0000                	unimp
    2a5d:	0402                	c.slli64	s0
    2a5f:	7c05                	lui	s8,0xfffe1
    2a61:	03000003          	lb	zero,48(zero) # 30 <InterruptVector+0x30>
    2a65:	0000053f 77194f01 	0x77194f010000053f
    2a6d:	0000                	unimp
    2a6f:	0200                	addi	s0,sp,256
    2a71:	0704                	addi	s1,sp,896
    2a73:	00000273          	0x273
    2a77:	0802                	c.slli64	a6
    2a79:	7705                	lui	a4,0xfffe1
    2a7b:	02000003          	lb	zero,32(zero) # 20 <InterruptVector+0x20>
    2a7f:	0708                	addi	a0,sp,896
    2a81:	026e                	slli	tp,tp,0x1b
    2a83:	0000                	unimp
    2a85:	0404                	addi	s1,sp,512
    2a87:	6905                	lui	s2,0x1
    2a89:	746e                	flw	fs0,248(sp)
    2a8b:	0300                	addi	s0,sp,384
    2a8d:	0c28                	addi	a0,sp,536
    2a8f:	0000                	unimp
    2a91:	1402                	slli	s0,s0,0x20
    2a93:	2412                	fld	fs0,256(sp)
    2a95:	0000                	unimp
    2a97:	0300                	addi	s0,sp,384
    2a99:	04f2                	slli	s1,s1,0x1c
    2a9b:	0000                	unimp
    2a9d:	1802                	slli	a6,a6,0x20
    2a9f:	00003713          	sltiu	a4,zero,0
    2aa3:	0500                	addi	s0,sp,640
    2aa5:	009f 0000 ab06      	0xab060000009f
    2aab:	0000                	unimp
    2aad:	0300                	addi	s0,sp,384
    2aaf:	02b6                	slli	t0,t0,0xd
    2ab1:	0000                	unimp
    2ab3:	2402                	fld	fs0,0(sp)
    2ab5:	5114                	lw	a3,32(a0)
    2ab7:	0000                	unimp
    2ab9:	0300                	addi	s0,sp,384
    2abb:	0541                	addi	a0,a0,16
    2abd:	0000                	unimp
    2abf:	3002                	fld	ft0,32(sp)
    2ac1:	6b14                	flw	fa3,16(a4)
    2ac3:	0000                	unimp
    2ac5:	0600                	addi	s0,sp,768
    2ac7:	00c1                	addi	ra,ra,16
    2ac9:	0000                	unimp
    2acb:	cd05                	beqz	a0,2b03 <wiring.c.7604182b+0x10a>
    2acd:	0000                	unimp
    2acf:	0700                	addi	s0,sp,896
    2ad1:	0354                	addi	a3,sp,388
    2ad3:	0971                	addi	s2,s2,28
    2ad5:	01f2                	slli	gp,gp,0x1c
    2ad7:	0000                	unimp
    2ad9:	7b08                	flw	fa0,48(a4)
    2adb:	0005                	c.nop	1
    2add:	0300                	addi	s0,sp,384
    2adf:	00cd1373          	csrrw	t1,0xc,s10
    2ae3:	0000                	unimp
    2ae5:	0800                	addi	s0,sp,16
    2ae7:	06ae                	slli	a3,a3,0xb
    2ae9:	0000                	unimp
    2aeb:	cd137403          	0xcd137403
    2aef:	0000                	unimp
    2af1:	0400                	addi	s0,sp,512
    2af3:	b608                	fsd	fa0,40(a2)
    2af5:	0006                	c.slli	zero,0x1
    2af7:	0300                	addi	s0,sp,384
    2af9:	1375                	addi	t1,t1,-3
    2afb:	00cd                	addi	ra,ra,19
    2afd:	0000                	unimp
    2aff:	0808                	addi	a0,sp,16
    2b01:	074d                	addi	a4,a4,19
    2b03:	0000                	unimp
    2b05:	cd137603          	0xcd137603
    2b09:	0000                	unimp
    2b0b:	0c00                	addi	s0,sp,528
    2b0d:	5508                	lw	a0,40(a0)
    2b0f:	03000007          	0x3000007
    2b13:	00cd1377          	0xcd1377
    2b17:	0000                	unimp
    2b19:	0810                	addi	a2,sp,16
    2b1b:	078e                	slli	a5,a5,0x3
    2b1d:	0000                	unimp
    2b1f:	cd137803          	0xcd137803
    2b23:	0000                	unimp
    2b25:	1400                	addi	s0,sp,544
    2b27:	9408                	0x9408
    2b29:	03000007          	0x3000007
    2b2d:	1379                	addi	t1,t1,-2
    2b2f:	00cd                	addi	ra,ra,19
    2b31:	0000                	unimp
    2b33:	0818                	addi	a4,sp,16
    2b35:	079a                	slli	a5,a5,0x6
    2b37:	0000                	unimp
    2b39:	cd137a03          	0xcd137a03
    2b3d:	0000                	unimp
    2b3f:	1c00                	addi	s0,sp,560
    2b41:	a008                	fsd	fa0,0(s0)
    2b43:	03000007          	0x3000007
    2b47:	00cd137b          	0xcd137b
    2b4b:	0000                	unimp
    2b4d:	0820                	addi	s0,sp,24
    2b4f:	0638                	addi	a4,sp,776
    2b51:	0000                	unimp
    2b53:	cd137c03          	0xcd137c03
    2b57:	0000                	unimp
    2b59:	2400                	fld	fs0,8(s0)
    2b5b:	9008                	0x9008
    2b5d:	0006                	c.slli	zero,0x1
    2b5f:	0300                	addi	s0,sp,384
    2b61:	137d                	addi	t1,t1,-1
    2b63:	00cd                	addi	ra,ra,19
    2b65:	0000                	unimp
    2b67:	0828                	addi	a0,sp,24
    2b69:	099f 0000 7e03      	0x7e030000099f
    2b6f:	0000cd13          	xori	s10,ra,0
    2b73:	2c00                	fld	fs0,24(s0)
    2b75:	a508                	fsd	fa0,8(a0)
    2b77:	0009                	c.nop	2
    2b79:	0300                	addi	s0,sp,384
    2b7b:	137f                	0x137f
    2b7d:	00cd                	addi	ra,ra,19
    2b7f:	0000                	unimp
    2b81:	0830                	addi	a2,sp,24
    2b83:	000009ab          	0x9ab
    2b87:	cd138003          	lb	zero,-815(t2) # fffffcd1 <__global_pointer$+0xdffff391>
    2b8b:	0000                	unimp
    2b8d:	3400                	fld	fs0,40(s0)
    2b8f:	2108                	fld	fa0,0(a0)
    2b91:	0006                	c.slli	zero,0x1
    2b93:	0300                	addi	s0,sp,384
    2b95:	1381                	addi	t2,t2,-32
    2b97:	00cd                	addi	ra,ra,19
    2b99:	0000                	unimp
    2b9b:	0838                	addi	a4,sp,24
    2b9d:	000007cf          	fnmadd.s	fa5,ft0,ft0,ft0,rne
    2ba1:	cd138203          	lb	tp,-815(t2)
    2ba5:	0000                	unimp
    2ba7:	3c00                	fld	fs0,56(s0)
    2ba9:	d708                	sw	a0,40(a4)
    2bab:	03000007          	0x3000007
    2baf:	00cd1383          	lh	t2,12(s10) # fffe000c <__global_pointer$+0xdffdf6cc>
    2bb3:	0000                	unimp
    2bb5:	0840                	addi	s0,sp,20
    2bb7:	07df 0000 8403      	0x8403000007df
    2bbd:	0000cd13          	xori	s10,ra,0
    2bc1:	4400                	lw	s0,8(s0)
    2bc3:	e708                	fsw	fa0,8(a4)
    2bc5:	03000007          	0x3000007
    2bc9:	1385                	addi	t2,t2,-31
    2bcb:	00cd                	addi	ra,ra,19
    2bcd:	0000                	unimp
    2bcf:	0848                	addi	a0,sp,20
    2bd1:	08b5                	addi	a7,a7,13
    2bd3:	0000                	unimp
    2bd5:	cd138603          	lb	a2,-815(t2)
    2bd9:	0000                	unimp
    2bdb:	4c00                	lw	s0,24(s0)
    2bdd:	0208                	addi	a0,sp,256
    2bdf:	000a                	c.slli	zero,0x2
    2be1:	0300                	addi	s0,sp,384
    2be3:	00cd1387          	0xcd1387
    2be7:	0000                	unimp
    2be9:	0050                	addi	a2,sp,4
    2beb:	00085403          	lhu	s0,0(a6)
    2bef:	0300                	addi	s0,sp,384
    2bf1:	0388                	addi	a0,sp,448
    2bf3:	000000d7          	0xd7
    2bf7:	1c09                	addi	s8,s8,-30
    2bf9:	09013703          	0x9013703
    2bfd:	0000026b          	0x26b
    2c01:	3c0a                	fld	fs8,160(sp)
    2c03:	0002                	c.slli64	zero
    2c05:	0300                	addi	s0,sp,384
    2c07:	0139                	addi	sp,sp,14
    2c09:	cd10                	sw	a2,24(a0)
    2c0b:	0000                	unimp
    2c0d:	0000                	unimp
    2c0f:	fb0a                	fsw	ft2,180(sp)
    2c11:	0005                	c.nop	1
    2c13:	0300                	addi	s0,sp,384
    2c15:	013a                	slli	sp,sp,0xe
    2c17:	cd10                	sw	a2,24(a0)
    2c19:	0000                	unimp
    2c1b:	0400                	addi	s0,sp,512
    2c1d:	bb0a                	fsd	ft2,432(sp)
    2c1f:	0001                	nop
    2c21:	0300                	addi	s0,sp,384
    2c23:	d210013b          	0xd210013b
    2c27:	0000                	unimp
    2c29:	0800                	addi	s0,sp,16
    2c2b:	f60a                	fsw	ft2,44(sp)
    2c2d:	0002                	c.slli64	zero
    2c2f:	0300                	addi	s0,sp,384
    2c31:	013c                	addi	a5,sp,136
    2c33:	cd10                	sw	a2,24(a0)
    2c35:	0000                	unimp
    2c37:	0c00                	addi	s0,sp,528
    2c39:	3e0a                	fld	ft8,160(sp)
    2c3b:	03000003          	lb	zero,48(zero) # 30 <InterruptVector+0x30>
    2c3f:	013d                	addi	sp,sp,15
    2c41:	cd10                	sw	a2,24(a0)
    2c43:	0000                	unimp
    2c45:	1000                	addi	s0,sp,32
    2c47:	5243420b          	0x5243420b
    2c4b:	0300                	addi	s0,sp,384
    2c4d:	013e                	slli	sp,sp,0xf
    2c4f:	cd10                	sw	a2,24(a0)
    2c51:	0000                	unimp
    2c53:	1400                	addi	s0,sp,544
    2c55:	150a                	slli	a0,a0,0x22
    2c57:	0006                	c.slli	zero,0x1
    2c59:	0300                	addi	s0,sp,384
    2c5b:	cd10013f 18000000 	0x18000000cd10013f
    2c63:	0c00                	addi	s0,sp,528
    2c65:	04fa                	slli	s1,s1,0x1e
    2c67:	0000                	unimp
    2c69:	03014003          	lbu	zero,48(sp) # 1e090030 <wiring.c.7604182b+0x1e08d637>
    2c6d:	01fe                	slli	gp,gp,0x1f
    2c6f:	0000                	unimp
    2c71:	2809                	jal	2c83 <wiring.c.7604182b+0x28a>
    2c73:	09017703          	0x9017703
    2c77:	0000030f          	0x30f
    2c7b:	2b0a                	fld	fs6,128(sp)
    2c7d:	03000003          	lb	zero,48(zero) # 30 <InterruptVector+0x30>
    2c81:	0179                	addi	sp,sp,30
    2c83:	0000cd13          	xori	s10,ra,0
    2c87:	0000                	unimp
    2c89:	b70a                	fsd	ft2,424(sp)
    2c8b:	03000003          	lb	zero,48(zero) # 30 <InterruptVector+0x30>
    2c8f:	017a                	slli	sp,sp,0x1e
    2c91:	0000cd13          	xori	s10,ra,0
    2c95:	0400                	addi	s0,sp,512
    2c97:	290a                	fld	fs2,128(sp)
    2c99:	0002                	c.slli64	zero
    2c9b:	0300                	addi	s0,sp,384
    2c9d:	cd13017b          	0xcd13017b
    2ca1:	0000                	unimp
    2ca3:	0800                	addi	s0,sp,16
    2ca5:	e00a                	fsw	ft2,0(sp)
    2ca7:	0004                	0x4
    2ca9:	0300                	addi	s0,sp,384
    2cab:	017c                	addi	a5,sp,140
    2cad:	0000cd13          	xori	s10,ra,0
    2cb1:	0c00                	addi	s0,sp,528
    2cb3:	1f0a                	slli	t5,t5,0x22
    2cb5:	0002                	c.slli64	zero
    2cb7:	0300                	addi	s0,sp,384
    2cb9:	017d                	addi	sp,sp,31
    2cbb:	0000cd13          	xori	s10,ra,0
    2cbf:	1000                	addi	s0,sp,32
    2cc1:	ae0a                	fsd	ft2,280(sp)
    2cc3:	03000003          	lb	zero,48(zero) # 30 <InterruptVector+0x30>
    2cc7:	017e                	slli	sp,sp,0x1f
    2cc9:	0000cd13          	xori	s10,ra,0
    2ccd:	1400                	addi	s0,sp,544
    2ccf:	b10a                	fsd	ft2,160(sp)
    2cd1:	0001                	nop
    2cd3:	0300                	addi	s0,sp,384
    2cd5:	017f                	0x17f
    2cd7:	0000cd13          	xori	s10,ra,0
    2cdb:	1800                	addi	s0,sp,48
    2cdd:	cf0a                	sw	sp,156(sp)
    2cdf:	03000003          	lb	zero,48(zero) # 30 <InterruptVector+0x30>
    2ce3:	0180                	addi	s0,sp,192
    2ce5:	0000cd13          	xori	s10,ra,0
    2ce9:	1c00                	addi	s0,sp,560
    2ceb:	2d0a                	fld	fs10,128(sp)
    2ced:	0004                	0x4
    2cef:	0300                	addi	s0,sp,384
    2cf1:	0181                	addi	gp,gp,0
    2cf3:	0000cd13          	xori	s10,ra,0
    2cf7:	2000                	fld	fs0,0(s0)
    2cf9:	1e0a                	slli	t3,t3,0x22
    2cfb:	0004                	0x4
    2cfd:	0300                	addi	s0,sp,384
    2cff:	0182                	c.slli64	gp
    2d01:	0000cd13          	xori	s10,ra,0
    2d05:	2400                	fld	fs0,8(s0)
    2d07:	0c00                	addi	s0,sp,528
    2d09:	031e                	slli	t1,t1,0x7
    2d0b:	0000                	unimp
    2d0d:	03018303          	lb	t1,48(gp) # 20000970 <__global_pointer$+0x30>
    2d11:	0278                	addi	a4,sp,268
    2d13:	0000                	unimp
    2d15:	b00d                	j	2537 <main_pwm.c.3eb49e96+0x77b>
    2d17:	0000                	unimp
    2d19:	2c00                	fld	fs0,24(s0)
    2d1b:	0e000003          	lb	zero,224(zero) # e0 <main+0x1c>
    2d1f:	001d                	c.nop	7
    2d21:	0000                	unimp
    2d23:	1c05000f          	0x1c05000f
    2d27:	06000003          	lb	zero,96(zero) # 60 <InterruptVector+0x60>
    2d2b:	032c                	addi	a1,sp,392
    2d2d:	0000                	unimp
    2d2f:	00048e0f          	0x48e0f
    2d33:	0300                	addi	s0,sp,384
    2d35:	31140b73          	0x31140b73
    2d39:	0d000003          	lb	zero,208(zero) # d0 <main+0xc>
    2d3d:	00b0                	addi	a2,sp,72
    2d3f:	0000                	unimp
    2d41:	00000353          	fadd.s	ft6,ft0,ft0,rne
    2d45:	1d0e                	slli	s10,s10,0x23
    2d47:	0000                	unimp
    2d49:	1300                	addi	s0,sp,416
    2d4b:	0500                	addi	s0,sp,640
    2d4d:	00000343          	fmadd.s	ft6,ft0,ft0,ft0,rne
    2d51:	5306                	lw	t1,96(sp)
    2d53:	0f000003          	lb	zero,240(zero) # f0 <main+0x2c>
    2d57:	0165                	addi	sp,sp,25
    2d59:	0000                	unimp
    2d5b:	140b7403          	0x140b7403
    2d5f:	0358                	addi	a4,sp,388
    2d61:	0000                	unimp
    2d63:	0710                	addi	a2,sp,896
    2d65:	1d04                	addi	s1,sp,688
    2d67:	0000                	unimp
    2d69:	0300                	addi	s0,sp,384
    2d6b:	8c010d13          	addi	s10,sp,-1856
    2d6f:	11000003          	lb	zero,272(zero) # 110 <main+0x4c>
    2d73:	0255                	addi	tp,tp,21
    2d75:	0000                	unimp
    2d77:	1101                	addi	sp,sp,-32
    2d79:	000001cf          	fnmadd.s	ft3,ft0,ft0,ft0,rne
    2d7d:	1102                	slli	sp,sp,0x20
    2d7f:	054a                	slli	a0,a0,0x12
    2d81:	0000                	unimp
    2d83:	60120003          	lb	zero,1537(tp) # 9801601 <wiring.c.7604182b+0x97fec08>
    2d87:	000d                	c.nop	3
    2d89:	0700                	addi	s0,sp,896
    2d8b:	1d04                	addi	s1,sp,688
    2d8d:	0000                	unimp
    2d8f:	0400                	addi	s0,sp,512
    2d91:	03b7060f          	0x3b7060f
    2d95:	0000                	unimp
    2d97:	7511                	lui	a0,0xfffe4
    2d99:	000c                	0xc
    2d9b:	0000                	unimp
    2d9d:	7c11                	lui	s8,0xfffe4
    2d9f:	000c                	0xc
    2da1:	0100                	addi	s0,sp,128
    2da3:	8311                	srli	a4,a4,0x4
    2da5:	000c                	0xc
    2da7:	0200                	addi	s0,sp,256
    2da9:	6a11                	lui	s4,0x4
    2dab:	000d                	c.nop	3
    2dad:	0300                	addi	s0,sp,384
    2daf:	1200                	addi	s0,sp,288
    2db1:	0aa2                	slli	s5,s5,0x8
    2db3:	0000                	unimp
    2db5:	001d0407          	0x1d0407
    2db9:	0000                	unimp
    2dbb:	1604                	addi	s1,sp,800
    2dbd:	3c06                	fld	fs8,96(sp)
    2dbf:	0004                	0x4
    2dc1:	1100                	addi	s0,sp,160
    2dc3:	0bfd                	addi	s7,s7,31
    2dc5:	0000                	unimp
    2dc7:	1100                	addi	s0,sp,160
    2dc9:	0ac0                	addi	s0,sp,340
    2dcb:	0000                	unimp
    2dcd:	1101                	addi	sp,sp,-32
    2dcf:	0b12                	slli	s6,s6,0x4
    2dd1:	0000                	unimp
    2dd3:	1102                	slli	sp,sp,0x20
    2dd5:	0b19                	addi	s6,s6,6
    2dd7:	0000                	unimp
    2dd9:	0b201103          	lh	sp,178(zero) # b2 <__mulsi3+0x12>
    2ddd:	0000                	unimp
    2ddf:	1104                	addi	s1,sp,160
    2de1:	00000b27          	0xb27
    2de5:	1105                	addi	sp,sp,-31
    2de7:	0b2e                	slli	s6,s6,0xb
    2de9:	0000                	unimp
    2deb:	1106                	slli	sp,sp,0x21
    2ded:	0b35                	addi	s6,s6,13
    2def:	0000                	unimp
    2df1:	0b3c1107          	0xb3c1107
    2df5:	0000                	unimp
    2df7:	1108                	addi	a0,sp,160
    2df9:	00000b43          	fmadd.s	fs6,ft0,ft0,ft0,rne
    2dfd:	1109                	addi	sp,sp,-30
    2dff:	00000b7b          	0xb7b
    2e03:	110a                	slli	sp,sp,0x22
    2e05:	0b82                	c.slli64	s7
    2e07:	0000                	unimp
    2e09:	0d2b110b          	0xd2b110b
    2e0d:	0000                	unimp
    2e0f:	110c                	addi	a1,sp,160
    2e11:	0b89                	addi	s7,s7,2
    2e13:	0000                	unimp
    2e15:	110d                	addi	sp,sp,-29
    2e17:	0b90                	addi	a2,sp,464
    2e19:	0000                	unimp
    2e1b:	110e                	slli	sp,sp,0x23
    2e1d:	00000b97          	auipc	s7,0x0
    2e21:	0b9e110f          	0xb9e110f
    2e25:	0000                	unimp
    2e27:	1110                	addi	a2,sp,160
    2e29:	0ba5                	addi	s7,s7,9
    2e2b:	0000                	unimp
    2e2d:	1111                	addi	sp,sp,-28
    2e2f:	0d3e                	slli	s10,s10,0xf
    2e31:	0000                	unimp
    2e33:	0012                	c.slli	zero,0x4
    2e35:	3212                	fld	ft4,288(sp)
    2e37:	000d                	c.nop	3
    2e39:	0700                	addi	s0,sp,896
    2e3b:	1d04                	addi	s1,sp,688
    2e3d:	0000                	unimp
    2e3f:	0400                	addi	s0,sp,512
    2e41:	062d                	addi	a2,a2,11
    2e43:	047f                	0x47f
    2e45:	0000                	unimp
    2e47:	b511                	j	2c4b <wiring.c.7604182b+0x252>
    2e49:	0000000b          	0xb
    2e4d:	e011                	bnez	s0,2e51 <wiring.c.7604182b+0x458>
    2e4f:	000c                	0xc
    2e51:	0100                	addi	s0,sp,128
    2e53:	bc11                	j	2867 <main_pwm.c.3eb49e96+0xaab>
    2e55:	000c                	0xc
    2e57:	0200                	addi	s0,sp,256
    2e59:	2f11                	jal	356d <wiring.c.7604182b+0xb74>
    2e5b:	000c                	0xc
    2e5d:	0300                	addi	s0,sp,384
    2e5f:	5c11                	li	s8,-28
    2e61:	0400000b          	0x400000b
    2e65:	6b11                	lui	s6,0x4
    2e67:	000a                	c.slli	zero,0x2
    2e69:	0500                	addi	s0,sp,640
    2e6b:	4e11                	li	t3,4
    2e6d:	000c                	0xc
    2e6f:	0600                	addi	s0,sp,768
    2e71:	a511                	j	3475 <wiring.c.7604182b+0xa7c>
    2e73:	000c                	0xc
    2e75:	0700                	addi	s0,sp,896
    2e77:	1200                	addi	s0,sp,288
    2e79:	0ae4                	addi	s1,sp,348
    2e7b:	0000                	unimp
    2e7d:	001d0407          	0x1d0407
    2e81:	0000                	unimp
    2e83:	3804                	fld	fs1,48(s0)
    2e85:	a406                	fsd	ft1,8(sp)
    2e87:	0004                	0x4
    2e89:	1100                	addi	s0,sp,160
    2e8b:	0b00                	addi	s0,sp,400
    2e8d:	0000                	unimp
    2e8f:	1100                	addi	s0,sp,160
    2e91:	00000bdb          	0xbdb
    2e95:	1101                	addi	sp,sp,-32
    2e97:	0d0c                	addi	a1,sp,656
    2e99:	0000                	unimp
    2e9b:	0002                	c.slli64	zero
    2e9d:	7f12                	flw	ft10,36(sp)
    2e9f:	000a                	c.slli	zero,0x2
    2ea1:	0700                	addi	s0,sp,896
    2ea3:	1d04                	addi	s1,sp,688
    2ea5:	0000                	unimp
    2ea7:	0400                	addi	s0,sp,512
    2ea9:	063e                	slli	a2,a2,0xf
    2eab:	000004f3          	0x4f3
    2eaf:	4611                	li	a2,4
    2eb1:	000c                	0xc
    2eb3:	0000                	unimp
    2eb5:	f111                	bnez	a0,2db9 <wiring.c.7604182b+0x3c0>
    2eb7:	000a                	c.slli	zero,0x2
    2eb9:	0100                	addi	s0,sp,128
    2ebb:	2311                	jal	33bf <wiring.c.7604182b+0x9c6>
    2ebd:	000d                	c.nop	3
    2ebf:	0200                	addi	s0,sp,256
    2ec1:	0c11                	addi	s8,s8,4
    2ec3:	000c                	0xc
    2ec5:	0300                	addi	s0,sp,384
    2ec7:	b811                	j	26db <main_pwm.c.3eb49e96+0x91f>
    2ec9:	000a                	c.slli	zero,0x2
    2ecb:	0400                	addi	s0,sp,512
    2ecd:	9611                	srai	a2,a2,0x24
    2ecf:	000c                	0xc
    2ed1:	0500                	addi	s0,sp,640
    2ed3:	7411                	lui	s0,0xfffe4
    2ed5:	000d                	c.nop	3
    2ed7:	0600                	addi	s0,sp,768
    2ed9:	fa11                	bnez	a2,2ded <wiring.c.7604182b+0x3f4>
    2edb:	000c                	0xc
    2edd:	0700                	addi	s0,sp,896
    2edf:	f511                	bnez	a0,2deb <wiring.c.7604182b+0x3f2>
    2ee1:	0800000b          	0x800000b
    2ee5:	0411                	addi	s0,s0,4
    2ee7:	000c                	0xc
    2ee9:	0900                	addi	s0,sp,144
    2eeb:	1200                	addi	s0,sp,288
    2eed:	0c14                	addi	a3,sp,528
    2eef:	0000                	unimp
    2ef1:	001d0407          	0x1d0407
    2ef5:	0000                	unimp
    2ef7:	4b04                	lw	s1,16(a4)
    2ef9:	3606                	fld	fa2,96(sp)
    2efb:	0005                	c.nop	1
    2efd:	1100                	addi	s0,sp,160
    2eff:	00000aab          	0xaab
    2f03:	1100                	addi	s0,sp,160
    2f05:	0d58                	addi	a4,sp,660
    2f07:	0000                	unimp
    2f09:	1101                	addi	sp,sp,-32
    2f0b:	00000b53          	fadd.s	fs6,ft0,ft0,rne
    2f0f:	1102                	slli	sp,sp,0x20
    2f11:	0bac                	addi	a1,sp,472
    2f13:	0000                	unimp
    2f15:	0d1a1103          	lh	sp,209(s4) # 40d1 <wiring.c.7604182b+0x16d8>
    2f19:	0000                	unimp
    2f1b:	1104                	addi	s1,sp,160
    2f1d:	0b4a                	slli	s6,s6,0x12
    2f1f:	0000                	unimp
    2f21:	1105                	addi	sp,sp,-31
    2f23:	0cf1                	addi	s9,s9,28
    2f25:	0000                	unimp
    2f27:	1106                	slli	sp,sp,0x21
    2f29:	0ad2                	slli	s5,s5,0x14
    2f2b:	0000                	unimp
    2f2d:	c8130007          	0xc8130007
    2f31:	0500000b          	0x500000b
    2f35:	0aec                	addi	a1,sp,348
    2f37:	00b5                	addi	ra,ra,13
    2f39:	0000                	unimp
    2f3b:	00000553          	fadd.s	fa0,ft0,ft0,rne
    2f3f:	6514                	flw	fa3,8(a0)
    2f41:	000a                	c.slli	zero,0x2
    2f43:	0500                	addi	s0,sp,640
    2f45:	27ec                	fld	fa1,200(a5)
    2f47:	04a4                	addi	s1,sp,584
    2f49:	0000                	unimp
    2f4b:	1500                	addi	s0,sp,672
    2f4d:	0be8                	addi	a0,sp,476
    2f4f:	0000                	unimp
    2f51:	df05                	beqz	a4,2e89 <wiring.c.7604182b+0x490>
    2f53:	1606                	slli	a2,a2,0x21
    2f55:	00000b6f          	jal	s6,2f55 <wiring.c.7604182b+0x55c>
    2f59:	cf05                	beqz	a4,2f91 <wiring.c.7604182b+0x598>
    2f5b:	7406                	flw	fs0,96(sp)
    2f5d:	0005                	c.nop	1
    2f5f:	1400                	addi	s0,sp,544
    2f61:	0c9e                	slli	s9,s9,0x7
    2f63:	0000                	unimp
    2f65:	cf05                	beqz	a4,2f9d <wiring.c.7604182b+0x5a4>
    2f67:	9f1a                	add	t5,t5,t1
    2f69:	0000                	unimp
    2f6b:	0000                	unimp
    2f6d:	6416                	flw	fs0,68(sp)
    2f6f:	000c                	0xc
    2f71:	0500                	addi	s0,sp,640
    2f73:	06c6                	slli	a3,a3,0x11
    2f75:	0599                	addi	a1,a1,6
    2f77:	0000                	unimp
    2f79:	6514                	flw	fa3,8(a0)
    2f7b:	000a                	c.slli	zero,0x2
    2f7d:	0500                	addi	s0,sp,640
    2f7f:	29c6                	fld	fs3,80(sp)
    2f81:	04a4                	addi	s1,sp,584
    2f83:	0000                	unimp
    2f85:	7014                	flw	fa3,32(s0)
    2f87:	000c                	0xc
    2f89:	0500                	addi	s0,sp,640
    2f8b:	47c6                	lw	a5,80(sp)
    2f8d:	000004f3          	0x4f3
    2f91:	1700                	addi	s0,sp,928
    2f93:	0cd8                	addi	a4,sp,596
    2f95:	0000                	unimp
    2f97:	a705                	j	36b7 <wiring.c.7604182b+0xcbe>
    2f99:	b206                	fsd	ft1,288(sp)
    2f9b:	0005                	c.nop	1
    2f9d:	1800                	addi	s0,sp,48
    2f9f:	6919                	lui	s2,0x6
    2fa1:	0500                	addi	s0,sp,640
    2fa3:	0fb4                	addi	a3,sp,984
    2fa5:	009f 0000 0000      	0x9f
    2fab:	000c8a13          	mv	s4,s9
    2faf:	0500                	addi	s0,sp,640
    2fb1:	009f098b          	0x9f098b
    2fb5:	0000                	unimp
    2fb7:	000005f3          	0x5f3
    2fbb:	701a                	flw	ft0,164(sp)
    2fbd:	6e69                	lui	t3,0x1a
    2fbf:	0500                	addi	s0,sp,640
    2fc1:	009f1d8b          	0x9f1d8b
    2fc5:	0000                	unimp
    2fc7:	000c401b          	0xc401b
    2fcb:	0500                	addi	s0,sp,640
    2fcd:	118c                	addi	a1,sp,224
    2fcf:	000005f3          	0x5f3
    2fd3:	000d021b          	0xd021b
    2fd7:	0500                	addi	s0,sp,640
    2fd9:	0b8d                	addi	s7,s7,3
    2fdb:	00b5                	addi	ra,ra,13
    2fdd:	0000                	unimp
    2fdf:	000af91b          	0xaf91b
    2fe3:	0500                	addi	s0,sp,640
    2fe5:	099f 0093 0000      	0x93099f
    2feb:	1c00                	addi	s0,sp,560
    2fed:	6b04                	flw	fs1,16(a4)
    2fef:	0002                	c.slli64	zero
    2ff1:	1600                	addi	s0,sp,800
    2ff3:	0a8c                	addi	a1,sp,336
    2ff5:	0000                	unimp
    2ff7:	6c05                	lui	s8,0x1
    2ff9:	3606                	fld	fa2,96(sp)
    2ffb:	0006                	c.slli	zero,0x1
    2ffd:	1a00                	addi	s0,sp,304
    2fff:	6970                	flw	fa2,84(a0)
    3001:	006e                	c.slli	zero,0x1b
    3003:	6c05                	lui	s8,0x1
    3005:	b721                	j	2f0d <wiring.c.7604182b+0x514>
    3007:	14000003          	lb	zero,320(zero) # 140 <main+0x7c>
    300b:	02c5                	addi	t0,t0,17
    300d:	0000                	unimp
    300f:	6c05                	lui	s8,0x1
    3011:	9f2e                	add	t5,t5,a1
    3013:	0000                	unimp
    3015:	1b00                	addi	s0,sp,432
    3017:	0c40                	addi	s0,sp,532
    3019:	0000                	unimp
    301b:	6e05                	lui	t3,0x1
    301d:	f311                	bnez	a4,2f21 <wiring.c.7604182b+0x528>
    301f:	0005                	c.nop	1
    3021:	1b00                	addi	s0,sp,432
    3023:	0d02                	c.slli64	s10
    3025:	0000                	unimp
    3027:	6f05                	lui	t5,0x1
    3029:	0000b50b          	0xb50b
    302d:	0000                	unimp
    302f:	3616                	fld	fa2,352(sp)
    3031:	000d                	c.nop	3
    3033:	0500                	addi	s0,sp,640
    3035:	062a                	slli	a2,a2,0xa
    3037:	0000068b          	0x68b
    303b:	701a                	flw	ft0,164(sp)
    303d:	6e69                	lui	t3,0x1a
    303f:	0500                	addi	s0,sp,640
    3041:	1c2a                	slli	s8,s8,0x2a
    3043:	000003b7          	lui	t2,0x0
    3047:	b314                	fsd	fa3,32(a4)
    3049:	000a                	c.slli	zero,0x2
    304b:	0500                	addi	s0,sp,640
    304d:	322a                	fld	ft4,168(sp)
    304f:	043c                	addi	a5,sp,520
    3051:	0000                	unimp
    3053:	000c401b          	0xc401b
    3057:	0500                	addi	s0,sp,640
    3059:	05f3112b          	0x5f3112b
    305d:	0000                	unimp
    305f:	000d021b          	0xd021b
    3063:	0500                	addi	s0,sp,640
    3065:	0b2c                	addi	a1,sp,408
    3067:	00b5                	addi	ra,ra,13
    3069:	0000                	unimp
    306b:	000d471b          	0xd471b
    306f:	0500                	addi	s0,sp,640
    3071:	0a40                	addi	s0,sp,276
    3073:	009f 0000 cf1b      	0xcf1b0000009f
    3079:	000c                	0xc
    307b:	0500                	addi	s0,sp,640
    307d:	0a42                	slli	s4,s4,0x10
    307f:	009f 0000 1600      	0x16000000009f
    3085:	00000ac7          	fmsub.s	fs5,ft0,ft0,ft0,rne
    3089:	1705                	addi	a4,a4,-31
    308b:	a406                	fsd	ft1,8(sp)
    308d:	0006                	c.slli	zero,0x1
    308f:	1400                	addi	s0,sp,544
    3091:	0995                	addi	s3,s3,5
    3093:	0000                	unimp
    3095:	1705                	addi	a4,a4,-31
    3097:	8c20                	0x8c20
    3099:	00000003          	lb	zero,0(zero) # 0 <InterruptVector>
    309d:	d31d                	beqz	a4,2fc3 <wiring.c.7604182b+0x5ca>
    309f:	0500000b          	0x500000b
    30a3:	1008                	addi	a0,sp,32
    30a5:	038c                	addi	a1,sp,448
    30a7:	0000                	unimp
    30a9:	701a                	flw	ft0,164(sp)
    30ab:	6e69                	lui	t3,0x1a
    30ad:	0500                	addi	s0,sp,640
    30af:	2708                	fld	fa0,8(a4)
    30b1:	000003b7          	lui	t2,0x0
    30b5:	0000                	unimp
    30b7:	0022                	c.slli	zero,0x8
    30b9:	0000                	unimp
    30bb:	0002                	c.slli64	zero
    30bd:	07a2                	slli	a5,a5,0x8
    30bf:	0000                	unimp
    30c1:	0104                	addi	s1,sp,128
    30c3:	2a22                	fld	fs4,8(sp)
    30c5:	0000                	unimp
    30c7:	00a0                	addi	s0,sp,72
    30c9:	0000                	unimp
    30cb:	00c4                	addi	s1,sp,68
    30cd:	0000                	unimp
    30cf:	0d7c                	addi	a5,sp,668
    30d1:	0000                	unimp
    30d3:	0da8                	addi	a0,sp,728
    30d5:	0000                	unimp
    30d7:	00000e1b          	0xe1b
    30db:	8001                	c.srli64	s0

Disassembly of section .debug_abbrev:

00000000 <.debug_abbrev>:
	asm volatile( "\n\
   0:	1101                	addi	sp,sp,-32
   2:	2501                	jal	602 <SysTick_Handler+0x142>
   4:	130e                	slli	t1,t1,0x23
   6:	1b0e030b          	0x1b0e030b
   a:	550e                	lw	a0,224(sp)
   c:	10011117          	auipc	sp,0x10011
  10:	02000017          	auipc	zero,0x2000
  14:	012e                	slli	sp,sp,0xb
  16:	1031                	c.nop	-20
  18:	0111                	addi	sp,sp,4
  1a:	0612                	slli	a2,a2,0x4
  1c:	1840                	addi	s0,sp,52
  1e:	01194297          	auipc	t0,0x1194
  22:	03000013          	li	zero,48
  26:	0005                	c.nop	1
  28:	1031                	c.nop	-20
  2a:	1702                	slli	a4,a4,0x20
  2c:	0000                	unimp
  2e:	0504                	addi	s1,sp,640
  30:	3100                	fld	fs0,32(a0)
  32:	0210                	addi	a2,sp,256
  34:	0018                	0x18
  36:	0500                	addi	s0,sp,640
  38:	0034                	addi	a3,sp,8
  3a:	1031                	c.nop	-20
  3c:	1702                	slli	a4,a4,0x20
  3e:	0000                	unimp
  40:	8906                	mv	s2,ra
  42:	0182                	c.slli64	gp
  44:	1101                	addi	sp,sp,-32
  46:	3101                	jal	fffffc46 <__global_pointer$+0xdffff306>
  48:	07000013          	li	zero,112
  4c:	828a                	mv	t0,sp
  4e:	0001                	nop
  50:	1802                	slli	a6,a6,0x20
  52:	4291                	li	t0,4
  54:	0018                	0x18
  56:	0800                	addi	s0,sp,16
  58:	1031010b          	0x1031010b
  5c:	1755                	addi	a4,a4,-11
  5e:	1301                	addi	t1,t1,-32
  60:	0000                	unimp
  62:	8909                	andi	a0,a0,2
  64:	0182                	c.slli64	gp
  66:	1100                	addi	s0,sp,160
  68:	3101                	jal	fffffc68 <__global_pointer$+0xdffff328>
  6a:	0a000013          	li	zero,160
  6e:	1031010b          	0x1031010b
  72:	1755                	addi	a4,a4,-11
  74:	0000                	unimp
  76:	3100340b          	0x3100340b
  7a:	0210                	addi	a2,sp,256
  7c:	0018                	0x18
  7e:	0c00                	addi	s0,sp,528
  80:	001d                	c.nop	7
  82:	1031                	c.nop	-20
  84:	0152                	slli	sp,sp,0x14
  86:	1755                	addi	a4,a4,-11
  88:	0b58                	addi	a4,sp,404
  8a:	0559                	addi	a0,a0,22
  8c:	00000b57          	0xb57
  90:	1d0d                	addi	s10,s10,-29
  92:	3100                	fld	fs0,32(a0)
  94:	1110                	addi	a2,sp,160
  96:	1201                	addi	tp,tp,-32
  98:	5806                	lw	a6,96(sp)
  9a:	5705590b          	0x5705590b
  9e:	0e00000b          	0xe00000b
  a2:	011d                	addi	sp,sp,7
  a4:	1031                	c.nop	-20
  a6:	0111                	addi	sp,sp,4
  a8:	0612                	slli	a2,a2,0x4
  aa:	0b58                	addi	a4,sp,404
  ac:	0559                	addi	a0,a0,22
  ae:	13010b57          	0x13010b57
  b2:	0000                	unimp
  b4:	31011d0f          	0x31011d0f
  b8:	1110                	addi	a2,sp,160
  ba:	1201                	addi	tp,tp,-32
  bc:	5806                	lw	a6,96(sp)
  be:	5705590b          	0x5705590b
  c2:	1000000b          	0x1000000b
int main() {
  c6:	011d                	addi	sp,sp,7
  c8:	1031                	c.nop	-20
  ca:	0152                	slli	sp,sp,0x14
	RCC->CFGR0 = RCC_HPRE_DIV1 | RCC_PLLSRC_HSI_Mul2;      // PLLCLK = HSI * 2 = 48 MHz; HCLK = SYSCLK = APB1
  cc:	1755                	addi	a4,a4,-11
  ce:	0b58                	addi	a4,sp,404
	RCC->CTLR  = RCC_HSION | RCC_PLLON | ((HSITRIM) << 3); // Use HSI, but enable PLL.
  d0:	0559                	addi	a0,a0,22
  d2:	13010b57          	0x13010b57
	RCC->CFGR0 = RCC_HPRE_DIV1 | RCC_PLLSRC_HSI_Mul2;      // PLLCLK = HSI * 2 = 48 MHz; HCLK = SYSCLK = APB1
  d6:	0000                	unimp
	RCC->CTLR  = RCC_HSION | RCC_PLLON | ((HSITRIM) << 3); // Use HSI, but enable PLL.
  d8:	0b11                	addi	s6,s6,4
  da:	5501                	li	a0,-32
  dc:	12000017          	auipc	zero,0x12000
	FLASH->ACTLR = FLASH_ACTLR_LATENCY_1;                  // 1 Cycle Latency
  e0:	0005                	c.nop	1
  e2:	1031                	c.nop	-20
  e4:	0b1c                	addi	a5,sp,400
	RCC->INTR  = 0x009F0000;                               // Clear PLL, CSSC, HSE, HSI and LSI ready flags.
  e6:	0000                	unimp
  e8:	01828a13          	addi	s4,t0,24 # 1194036 <wiring.c.7604182b+0x119163d>
	while((RCC->CTLR & RCC_PLLRDY) == 0);                                      // Wait till PLL is ready
  ec:	3100                	fld	fs0,32(a0)
  ee:	18429113          	0x18429113
  f2:	0000                	unimp
  f4:	2e14                	fld	fa3,24(a2)
  f6:	3101                	jal	fffffcf6 <__global_pointer$+0xdffff3b6>
  f8:	0110                	addi	a2,sp,128
	RCC->CFGR0 = ( RCC->CFGR0 & ((uint32_t)~(RCC_SW))) | (uint32_t)RCC_SW_PLL; // Select PLL as system clock source
  fa:	15000013          	li	zero,336
  fe:	0005                	c.nop	1
 100:	1031                	c.nop	-20
 102:	0000                	unimp
 104:	2e16                	fld	ft8,320(sp)
	while ((RCC->CFGR0 & (uint32_t)RCC_SWS) != (uint32_t)0x08);                // Wait till PLL is used as system clock source
 106:	3100                	fld	fs0,32(a0)
 108:	1110                	addi	a2,sp,160
 10a:	1201                	addi	tp,tp,-32
 10c:	4006                	0x4006
 10e:	9718                	0x9718
 110:	1942                	slli	s2,s2,0x30
	RCC->APB2PCENR |=	RCC_APB2Periph_GPIOA | RCC_APB2Periph_GPIOC |
 112:	0000                	unimp
 114:	31003417          	auipc	s0,0x31003
 118:	0010                	0x10
 11a:	1800                	addi	s0,sp,48
 11c:	011d                	addi	sp,sp,7
	RCC->APB1PCENR |=	RCC_APB1Periph_TIM2;
 11e:	1031                	c.nop	-20
	RCC->APB2PRSTR |=  RCC_APB2Periph_TIM1;
 120:	0152                	slli	sp,sp,0x14
 122:	1755                	addi	a4,a4,-11
	RCC->APB2PRSTR &= ~RCC_APB2Periph_TIM1;
 124:	0b58                	addi	a4,sp,404
	RCC->APB1PCENR |=	RCC_APB1Periph_TIM2;
 126:	0b59                	addi	s6,s6,22
 128:	00000b57          	0xb57
	RCC->APB2PRSTR |=  RCC_APB2Periph_TIM1;
 12c:	0a19                	addi	s4,s4,6
	GPIOC->CFGLR &= ~(0xf<<(4*GPIO_PinSource4));
 12e:	3100                	fld	fs0,32(a0)
 130:	1110                	addi	a2,sp,160
 132:	0001                	nop
	RCC->APB2PRSTR |=  RCC_APB2Periph_TIM1;
 134:	1a00                	addi	s0,sp,304
 136:	8289                	srli	a3,a3,0x2
	RCC->APB2PRSTR &= ~RCC_APB2Periph_TIM1;
 138:	0101                	addi	sp,sp,0
 13a:	0111                	addi	sp,sp,4
 13c:	1331                	addi	t1,t1,-20
	GPIOC->CFGLR &= ~(0xf<<(4*GPIO_PinSource2));
 13e:	1301                	addi	t1,t1,-32
 140:	0000                	unimp
	RCC->APB2PRSTR &= ~RCC_APB2Periph_TIM1;
 142:	0182891b          	0x182891b
	RCC->APB1PRSTR |=  RCC_APB1Periph_TIM2;
 146:	1101                	addi	sp,sp,-32
	TIM1->PSC = 0x0000;
 148:	9501                	srai	a0,a0,0x20
 14a:	1942                	slli	s2,s2,0x30
	TIM1->ATRLR = 255;
 14c:	1331                	addi	t1,t1,-20
 14e:	0000                	unimp
	RCC->APB1PRSTR |=  RCC_APB1Periph_TIM2;
 150:	1d1c                	addi	a5,sp,688
 152:	3101                	jal	fffffd52 <__global_pointer$+0xdffff412>
 154:	5210                	lw	a2,32(a2)
	RCC->APB1PRSTR &= ~RCC_APB1Periph_TIM2;
 156:	5501                	li	a0,-32
	TIM1->CCER |= TIM_CC4E | TIM_CC4P;	// Enable T1CH4 output, positive pol
 158:	590b5817          	auipc	a6,0x590b5
	RCC->APB1PRSTR &= ~RCC_APB1Periph_TIM2;
 15c:	5705                	li	a4,-31
	GPIOC->CFGLR &= ~(0xf<<(4*GPIO_PinSource4));
 15e:	1d00000b          	0x1d00000b
 162:	1031010b          	0x1031010b
 166:	0111                	addi	sp,sp,4
	GPIOC->CFGLR |= (GPIO_Speed_10MHz | GPIO_CNF_OUT_OD_AF)<<(4*GPIO_PinSource4);
 168:	0612                	slli	a2,a2,0x4
 16a:	1301                	addi	t1,t1,-32
 16c:	0000                	unimp
 16e:	2e1e                	fld	ft8,448(sp)
 170:	3f00                	fld	fs0,56(a4)
	GPIOA->CFGLR &= ~(0xf<<(4*GPIO_PinSource1));
 172:	3c19                	jal	fffffb88 <__global_pointer$+0xdffff248>
 174:	6e19                	lui	t3,0x6
	GPIOC->CFGLR |= (GPIO_Speed_10MHz | GPIO_CNF_OUT_OD_AF)<<(4*GPIO_PinSource2);
 176:	030e                	slli	t1,t1,0x3
 178:	3a0e                	fld	fs4,224(sp)
	GPIOA->CFGLR &= ~(0xf<<(4*GPIO_PinSource1));
 17a:	000b3b0b          	0xb3b0b
 17e:	1f00                	addi	s0,sp,944
 180:	002e                	c.slli	zero,0xb
	GPIOA->CFGLR |= (GPIO_Speed_10MHz | GPIO_CNF_OUT_OD_AF)<<(4*GPIO_PinSource1);
 182:	193c193f 0e030e6e 	0xe030e6e193c193f
 18a:	0000                	unimp
 18c:	0100                	addi	s0,sp,128
	GPIOC->CFGLR &= ~(0xf<<(4*GPIO_PinSource2));
 18e:	0111                	addi	sp,sp,4
 190:	0e25                	addi	t3,t3,9
 192:	0e030b13          	addi	s6,t1,224 # fffe10e0 <__global_pointer$+0xdffe07a0>
	GPIOC->CFGLR |= (GPIO_Speed_10MHz | GPIO_CNF_OUT_OD_AF)<<(4*GPIO_PinSource2);
 196:	17100e1b          	0x17100e1b
 19a:	0000                	unimp
	GPIOC->CFGLR &= ~(0xf<<(4*GPIO_PinSource1));
 19c:	2402                	fld	fs0,0(sp)
	AFIO->PCFR1 |= AFIO_PCFR1_TIM2_REMAP_PARTIALREMAP1;
 19e:	0b00                	addi	s0,sp,400
 1a0:	030b3e0b          	0x30b3e0b
	GPIOC->CFGLR &= ~(0xf<<(4*GPIO_PinSource1));
 1a4:	000e                	c.slli	zero,0x3
 1a6:	0300                	addi	s0,sp,384
	GPIOC->CFGLR |= (GPIO_Speed_10MHz | GPIO_CNF_OUT_OD_AF)<<(4*GPIO_PinSource1);
 1a8:	0016                	c.slli	zero,0x5
 1aa:	0b3a0e03          	lb	t3,179(s4)
 1ae:	0b390b3b          	0xb390b3b
	AFIO->PCFR1 |= AFIO_PCFR1_TIM2_REMAP_PARTIALREMAP1;
 1b2:	1349                	addi	t1,t1,-14
 1b4:	0000                	unimp
 1b6:	2604                	fld	fs1,8(a2)
	TIM1->PSC = 0x0000;
 1b8:	4900                	lw	s0,16(a0)
 1ba:	05000013          	li	zero,80
	TIM2->PSC = 0x0000;
 1be:	0024                	addi	s1,sp,8
 1c0:	0b3e0b0b          	0xb3e0b0b
	TIM1->ATRLR = 255;
 1c4:	00000803          	lb	a6,0(zero) # 0 <InterruptVector>
	TIM2->ATRLR = 255;
 1c8:	0f06                	slli	t5,t5,0x1
 1ca:	0b00                	addi	s0,sp,400
	TIM1->SWEVGR |= TIM_UG;
 1cc:	000e030b          	0xe030b
 1d0:	0700                	addi	s0,sp,896
 1d2:	0b0b000f          	0xb0b000f
 1d6:	0000                	unimp
 1d8:	0f08                	addi	a0,sp,912
 1da:	0b00                	addi	s0,sp,400
	TIM2->SWEVGR |= TIM_UG;
 1dc:	0013490b          	0x13490b
 1e0:	0900                	addi	s0,sp,144
 1e2:	0101                	addi	sp,sp,0
 1e4:	1349                	addi	t1,t1,-14
 1e6:	1301                	addi	t1,t1,-32
 1e8:	0000                	unimp
 1ea:	210a                	fld	ft2,128(sp)
	TIM1->CTLR1 |= TIM_ARPE;
 1ec:	4900                	lw	s0,16(a0)
 1ee:	000b2f13          	slti	t5,s6,0
 1f2:	0b00                	addi	s0,sp,400
 1f4:	0035                	c.nop	13
 1f6:	1349                	addi	t1,t1,-14
 1f8:	0000                	unimp
 1fa:	130c                	addi	a1,sp,416
	TIM2->CTLR1 |= TIM_ARPE;
 1fc:	0b01                	addi	s6,s6,0
 1fe:	3b0b3a0b          	0x3b0b3a0b
 202:	010b390b          	0x10b390b
 206:	0d000013          	li	zero,208
 20a:	000d                	c.nop	3
	TIM1->CH2CVR = 16; //T1CH2/PA1/pin1
 20c:	0b3a0e03          	lb	t3,179(s4)
 210:	0b390b3b          	0xb390b3b
	TIM1->CH4CVR = 16; //T1CH4/PC4/pin7
 214:	1349                	addi	t1,t1,-14
	TIM2->CH2CVR = 16; //T2CH2/PC2/pin6*
 216:	0b38                	addi	a4,sp,408
	TIM2->CH4CVR = 16; //T2CH4/PC1/pin5*
 218:	0000                	unimp
	TIM1->CCER |= TIM_CC2E | TIM_CC2P;	// Enable T1CH2 output, positive pol
 21a:	0d0e                	slli	s10,s10,0x3
 21c:	0300                	addi	s0,sp,384
 21e:	3a08                	fld	fa0,48(a2)
 220:	390b3b0b          	0x390b3b0b
 224:	3813490b          	0x3813490b
 228:	0f00000b          	0xf00000b
	TIM1->CCER |= TIM_CC4E | TIM_CC4P;	// Enable T1CH4 output, positive pol
 22c:	0b0b0113          	addi	sp,s6,176 # 40b0 <wiring.c.7604182b+0x16b7>
 230:	0b3a                	slli	s6,s6,0xe
 232:	0b39053b          	0xb39053b
 236:	1301                	addi	t1,t1,-32
 238:	0000                	unimp
 23a:	0d10                	addi	a2,sp,656
 23c:	0300                	addi	s0,sp,384
	TIM2->CCER |= TIM_CC2E | TIM_CC2P;	// Enable T2CH2 output, positive pol
 23e:	3a0e                	fld	fs4,224(sp)
 240:	39053b0b          	0x39053b0b
 244:	3813490b          	0x3813490b
 248:	1100000b          	0x1100000b
 24c:	000d                	c.nop	3
	TIM2->CCER |= TIM_CC4E | TIM_CC4P;	// Enable T2CH4 output, positive pol
 24e:	0b3a0803          	lb	a6,179(s4)
 252:	0b39053b          	0xb39053b
 256:	1349                	addi	t1,t1,-14
 258:	0b38                	addi	a4,sp,408
 25a:	0000                	unimp
 25c:	1612                	slli	a2,a2,0x24
 25e:	0300                	addi	s0,sp,384
 260:	3a0e                	fld	fs4,224(sp)
	TIM1->CHCTLR1 |= TIM_OC2M_2 | TIM_OC2M_1;	// CH2 Mode is output, PWM1 (CC1S = 00, OC1M = 110)
 262:	39053b0b          	0x39053b0b
 266:	0013490b          	0x13490b
 26a:	1300                	addi	s0,sp,416
 26c:	0034                	addi	a3,sp,8
 26e:	0b3a0e03          	lb	t3,179(s4)
 272:	0b39053b          	0xb39053b
 276:	1349                	addi	t1,t1,-14
	TIM1->CHCTLR2 |= TIM_OC4M_2 | TIM_OC4M_1;	// CH4 Mode is output, PWM1 (CC1S = 00, OC1M = 110)
 278:	0000                	unimp
 27a:	0414                	addi	a3,sp,512
 27c:	3e01                	jal	fffffd8c <__global_pointer$+0xdffff44c>
 27e:	490b0b0b          	0x490b0b0b
 282:	3b0b3a13          	sltiu	s4,s6,944
 286:	3905                	jal	fffffeb6 <__global_pointer$+0xdffff576>
 288:	0013010b          	0x13010b
	TIM2->CHCTLR1 |= TIM_OC2M_2 | TIM_OC2M_1 | TIM_OC2PE;
 28c:	1500                	addi	s0,sp,672
 28e:	0028                	addi	a0,sp,8
 290:	0b1c0e03          	lb	t3,177(s8) # 10b1 <ch32v003fun.c.8affbd33+0x22f>
 294:	0000                	unimp
 296:	3416                	fld	fs0,352(sp)
 298:	0300                	addi	s0,sp,384
 29a:	3a0e                	fld	fs4,224(sp)
 29c:	390b3b0b          	0x390b3b0b
 2a0:	3f13490b          	0x3f13490b
 2a4:	0019                	c.nop	6
	TIM2->CHCTLR2 |= TIM_OC4M_2 | TIM_OC4M_1 | TIM_OC4PE;
 2a6:	1700                	addi	s0,sp,928
 2a8:	0e030113          	addi	sp,t1,224
 2ac:	0b3a0b0b          	0xb3a0b0b
 2b0:	0b39053b          	0xb39053b
 2b4:	1301                	addi	t1,t1,-32
 2b6:	0000                	unimp
 2b8:	2e18                	fld	fa4,24(a2)
 2ba:	3f01                	jal	1ca <main+0x106>
	TIM1->BDTR  |= TIM_MOE;	// Brake and deadband registers
 2bc:	0319                	addi	t1,t1,6
 2be:	3a0e                	fld	fs4,224(sp)
 2c0:	39053b0b          	0x39053b0b
 2c4:	0119270b          	0x119270b
 2c8:	19000013          	li	zero,400
	TIM1->CTLR1 |= TIM_CEN;	// Enable TIM1
 2cc:	0005                	c.nop	1
 2ce:	0b3a0803          	lb	a6,179(s4)
 2d2:	0b39053b          	0xb39053b
 2d6:	1349                	addi	t1,t1,-14
 2d8:	0000                	unimp
	TIM2->CTLR1 |= TIM_CEN;	// Enable TIM2
 2da:	2e1a                	fld	ft8,384(sp)
 2dc:	3f00                	fld	fs0,56(a4)
 2de:	0319                	addi	t1,t1,6
 2e0:	3a0e                	fld	fs4,224(sp)
 2e2:	39053b0b          	0x39053b0b
 2e6:	1b00000b          	0x1b00000b
	SysTick->CTLR = 0;
 2ea:	012e                	slli	sp,sp,0xb
 2ec:	0e03193f 053b0b3a 	0x53b0b3a0e03193f
 2f4:	0b39                	addi	s6,s6,14
 2f6:	13491927          	0x13491927
	SysTick->CMP = (SYSTEM_CORE_CLOCK/SYSTICKHZ)-1;
 2fa:	1301                	addi	t1,t1,-32
 2fc:	0000                	unimp
 2fe:	051c                	addi	a5,sp,640
 300:	0300                	addi	s0,sp,384
	SysTick->CNT = 0;
 302:	3a0e                	fld	fs4,224(sp)
 304:	39053b0b          	0x39053b0b
	SysTick->CTLR = SYSTICK_CTLR_STE | SYSTICK_CTLR_STIE |
 308:	0013490b          	0x13490b
	RCC->CFGR0 &= ~(0x1F<<11);
 30c:	1d00                	addi	s0,sp,688
 30e:	0000010b          	0x10b
 312:	341e                	fld	fs0,480(sp)
 314:	0300                	addi	s0,sp,384
	RCC->APB2PCENR |= RCC_APB2Periph_GPIOA | RCC_APB2Periph_ADC1;
 316:	3a08                	fld	fa0,48(a2)
 318:	39053b0b          	0x39053b0b
 31c:	0013490b          	0x13490b
	GPIOA->CFGLR &= ~(0xf<<(4*GPIO_PinSource2));	// CNF = 00: Analog, MODE = 00: Input
 320:	1f00                	addi	s0,sp,944
 322:	002e                	c.slli	zero,0xb
 324:	0e03193f 053b0b3a 	0x53b0b3a0e03193f
	ADC1->CTLR2 |= ADC_ADON | ADC_EXTSEL;
 32c:	0b39                	addi	s6,s6,14
 32e:	00001927          	0x1927
	RCC->APB2PRSTR |= RCC_APB2Periph_ADC1;
 332:	1820                	addi	s0,sp,56
 334:	0000                	unimp
 336:	2100                	fld	fs0,0(a0)
	RCC->APB2PRSTR &= ~RCC_APB2Periph_ADC1;
 338:	0115                	addi	sp,sp,5
 33a:	13491927          	0x13491927
 33e:	1301                	addi	t1,t1,-32
	ADC1->RSQR1 = 0;
 340:	0000                	unimp
 342:	0522                	slli	a0,a0,0x8
 344:	4900                	lw	s0,16(a0)
 346:	23000013          	li	zero,560
	ADC1->RSQR2 = 0;
 34a:	000a                	c.slli	zero,0x2
	ADC1->RSQR3 = ADC_Channel_0;	// 0-9 for 8 ext inputs and two internals
 34c:	0b3a0803          	lb	a6,179(s4)
	ADC1->SAMPTR2 &= ~ADC_SMP2;
 350:	0b39053b          	0xb39053b
 354:	0000                	unimp
 356:	2e24                	fld	fs1,88(a2)
 358:	0301                	addi	t1,t1,0
 35a:	3a0e                	fld	fs4,224(sp)
	ADC1->SAMPTR2 |= ( ADC_SampleTime_3Cycles << (3 * ADC_Channel_0 ) );	// 0:7 => 3/9/15/30/43/57/73/241 cycles
 35c:	39053b0b          	0x39053b0b
 360:	4919270b          	0x4919270b
	ADC1->CTLR2 |= ADC_ADON | ADC_EXTSEL;
 364:	00130113          	addi	sp,t1,1
 368:	2500                	fld	fs0,8(a0)
 36a:	1301010b          	0x1301010b
	ADC1->CTLR2 |= ADC_RSTCAL;
 36e:	0000                	unimp
 370:	2626                	fld	fa2,72(sp)
	while(ADC1->CTLR2 & ADC_RSTCAL);
 372:	0000                	unimp
 374:	2700                	fld	fs0,8(a4)
	ADC1->CTLR2 |= ADC_RSTCAL;
 376:	012e                	slli	sp,sp,0xb
 378:	0b3a0e03          	lb	t3,179(s4)
 37c:	0b390b3b          	0xb390b3b
	while(ADC1->CTLR2 & ADC_RSTCAL);
 380:	13491927          	0x13491927
 384:	1301                	addi	t1,t1,-32
	ADC1->CTLR2 |= ADC_CAL;
 386:	0000                	unimp
 388:	0528                	addi	a0,sp,648
 38a:	0300                	addi	s0,sp,384
 38c:	3a08                	fld	fa0,48(a2)
 38e:	390b3b0b          	0x390b3b0b
	while(ADC1->CTLR2 & ADC_CAL);
 392:	0013490b          	0x13490b
 396:	2900                	fld	fs0,16(a0)
 398:	0034                	addi	a3,sp,8
 39a:	0b3a0803          	lb	a6,179(s4)
                Delay_Ms(( Delay >> 3 ) + 5 );
 39e:	0b390b3b          	0xb390b3b
                int temp=LEDs[0].brightness;
 3a2:	1349                	addi	t1,t1,-14
 3a4:	0000                	unimp
	ADC1->CTLR2 |= ADC_SWSTART;
 3a6:	342a                	fld	fs0,168(sp)
 3a8:	0300                	addi	s0,sp,384
 3aa:	3a0e                	fld	fs4,224(sp)
 3ac:	390b3b0b          	0x390b3b0b
	uint32_t targend = SysTick->CNT + n;
 3b0:	0013490b          	0x13490b
                Delay_Ms(( Delay >> 3 ) + 5 );
 3b4:	2b00                	fld	fs0,16(a4)
 3b6:	012e                	slli	sp,sp,0xb
                int temp=LEDs[0].brightness;
 3b8:	0e03193f 0b3b0b3a 	0xb3b0b3a0e03193f
	ADC1->CTLR2 |= ADC_SWSTART;
 3c0:	0b39                	addi	s6,s6,14
 3c2:	13491927          	0x13491927
 3c6:	1301                	addi	t1,t1,-32
	while(!(ADC1->STATR & ADC_EOC));
 3c8:	0000                	unimp
 3ca:	052c                	addi	a1,sp,648
 3cc:	0300                	addi	s0,sp,384
 3ce:	3a0e                	fld	fs4,224(sp)
	return ADC1->RDATAR;
 3d0:	390b3b0b          	0x390b3b0b
 3d4:	0013490b          	0x13490b
                Delay_Ms(( Delay >> 3 ) + 5 );
 3d8:	0000                	unimp
 3da:	1101                	addi	sp,sp,-32
 3dc:	2501                	jal	9dc <_data_lma+0x208>
 3de:	130e                	slli	t1,t1,0x23
 3e0:	1b0e030b          	0x1b0e030b
 3e4:	100e                	c.slli	zero,0x23
 3e6:	02000017          	auipc	zero,0x2000
 3ea:	0104                	addi	s1,sp,128
 3ec:	0b3e0e03          	lb	t3,179(t3) # 60b3 <wiring.c.7604182b+0x36ba>
 3f0:	13490b0b          	0x13490b0b
 3f4:	0b3a                	slli	s6,s6,0xe
 3f6:	0b390b3b          	0xb390b3b
	while( ((int32_t)( SysTick->CNT - targend )) < 0 );
 3fa:	1301                	addi	t1,t1,-32
 3fc:	0000                	unimp
 3fe:	03002803          	lw	a6,48(zero) # 30 <InterruptVector+0x30>
 402:	1c0e                	slli	s8,s8,0x23
                int temp=LEDs[0].brightness;
 404:	0400000b          	0x400000b
                for(int i=1; i<12; i++){
 408:	0024                	addi	s1,sp,8
 40a:	0b3e0b0b          	0xb3e0b0b
                int temp=LEDs[0].brightness;
 40e:	00000e03          	lb	t3,0(zero) # 0 <InterruptVector>
                        LEDs[i-1].brightness=LEDs[i].brightness;
 412:	1605                	addi	a2,a2,-31
 414:	0300                	addi	s0,sp,384
 416:	3a0e                	fld	fs4,224(sp)
 418:	390b3b0b          	0x390b3b0b
 41c:	0013490b          	0x13490b
 420:	0600                	addi	s0,sp,768
 422:	0024                	addi	s1,sp,8
 424:	0b3e0b0b          	0xb3e0b0b
 428:	00000803          	lb	a6,0(zero) # 0 <InterruptVector>
 42c:	49002607          	flw	fa2,1168(zero) # 490 <handle_reset+0x50>
 430:	08000013          	li	zero,128
                for(int i=1; i<12; i++){
 434:	0035                	c.nop	13
 436:	1349                	addi	t1,t1,-14
 438:	0000                	unimp
                LEDs[11].brightness=temp;
 43a:	1309                	addi	t1,t1,-30
 43c:	0b01                	addi	s6,s6,0
	while(1){
 43e:	3b0b3a0b          	0x3b0b3a0b
	asm volatile( "\n\
 442:	010b390b          	0x10b390b
 446:	0a000013          	li	zero,160
 44a:	000d                	c.nop	3
 44c:	0b3a0e03          	lb	t3,179(s4)
 450:	0b390b3b          	0xb390b3b
 454:	1349                	addi	t1,t1,-14
 456:	0b38                	addi	a4,sp,408
 458:	0000                	unimp
 45a:	0b01130b          	0xb01130b
 45e:	3b0b3a0b          	0x3b0b3a0b
 462:	3905                	jal	92 <InterruptVector+0x92>
 464:	0013010b          	0x13010b
asm volatile(
 468:	0c00                	addi	s0,sp,528
 46a:	000d                	c.nop	3
 46c:	0b3a0e03          	lb	t3,179(s4)
 470:	0b39053b          	0xb39053b
 474:	1349                	addi	t1,t1,-14
 476:	0b38                	addi	a4,sp,408
 478:	0000                	unimp
 47a:	0d0d                	addi	s10,s10,3
 47c:	0300                	addi	s0,sp,384
 47e:	3a08                	fld	fa0,48(a2)
 480:	39053b0b          	0x39053b0b
 484:	3813490b          	0x3813490b
 488:	0e00000b          	0xe00000b
 48c:	0016                	c.slli	zero,0x5
 48e:	0b3a0e03          	lb	t3,179(s4)
 492:	0b39053b          	0xb39053b
 496:	1349                	addi	t1,t1,-14
 498:	0000                	unimp
 49a:	4901010f          	0x4901010f
 49e:	00130113          	addi	sp,t1,1
 4a2:	1000                	addi	s0,sp,32
 4a4:	0021                	c.nop	8
 4a6:	1349                	addi	t1,t1,-14
 4a8:	00000b2f          	0xb2f
	SETUP_SYSTICK_HCLK
 4ac:	3411                	jal	fffffeb0 <__global_pointer$+0xdffff570>
 4ae:	0300                	addi	s0,sp,384
 4b0:	3a0e                	fld	fs4,224(sp)
asm volatile(
 4b2:	39053b0b          	0x39053b0b
 4b6:	0013490b          	0x13490b
 4ba:	1200                	addi	s0,sp,288
 4bc:	0104                	addi	s1,sp,128
	asm volatile( "1: j 1b" );
 4be:	0b3e                	slli	s6,s6,0xf
{
 4c0:	13490b0b          	0x13490b0b
 4c4:	0b3a                	slli	s6,s6,0xe
 4c6:	0b39053b          	0xb39053b
	SysTick->CMP += (SYSTEM_CORE_CLOCK/SYSTICKHZ); 
 4ca:	1301                	addi	t1,t1,-32
{
 4cc:	0000                	unimp
 4ce:	0b011313          	0xb011313
	SysTick->CMP += (SYSTEM_CORE_CLOCK/SYSTICKHZ); 
 4d2:	3a05                	jal	fffffe02 <__global_pointer$+0xdffff4c2>
{
 4d4:	39053b0b          	0x39053b0b
	SysTick->CMP += (SYSTEM_CORE_CLOCK/SYSTICKHZ); 
 4d8:	0013010b          	0x13010b
 4dc:	1400                	addi	s0,sp,544
 4de:	000d                	c.nop	3
{
 4e0:	0b3a0e03          	lb	t3,179(s4)
 4e4:	0b39053b          	0xb39053b
 4e8:	1349                	addi	t1,t1,-14
 4ea:	0538                	addi	a4,sp,648
 4ec:	0000                	unimp
 4ee:	2115                	jal	912 <_data_lma+0x13e>
	SysTick->CMP += (SYSTEM_CORE_CLOCK/SYSTICKHZ); 
 4f0:	4900                	lw	s0,16(a0)
 4f2:	00052f13          	slti	t5,a0,0
{
 4f6:	1600                	addi	s0,sp,800
 4f8:	000d                	c.nop	3
 4fa:	0b3a0803          	lb	a6,179(s4)
 4fe:	0b390b3b          	0xb390b3b
 502:	1349                	addi	t1,t1,-14
	SysTick->CMP += (SYSTEM_CORE_CLOCK/SYSTICKHZ); 
 504:	0b38                	addi	a4,sp,408
 506:	0000                	unimp
	SysTick->SR = 0;
 508:	0b000f17          	auipc	t5,0xb000
		GPIO_Float(	LEDs[group[currentgroup][i]].cathode->port,
 50c:	0013490b          	0x13490b
 510:	1800                	addi	s0,sp,48
 512:	0034                	addi	a3,sp,8
 514:	0b3a0803          	lb	a6,179(s4)
 518:	0b390b3b          	0xb390b3b
 51c:	1349                	addi	t1,t1,-14
 51e:	0000193f 03003419 	0x30034190000193f
 526:	3a0e                	fld	fs4,224(sp)
	for(int i=0;i<3;i++){
 528:	390b3b0b          	0x390b3b0b
		GPIO_Float(	LEDs[group[currentgroup][i]].cathode->port,
 52c:	3f13490b          	0x3f13490b
        port->CFGLR &= ~(0xf<<(4*pin)); //clear GPIO config - default config is as an input, Hi-Z
 530:	0019                	c.nop	6
 532:	1a00                	addi	s0,sp,304
		GPIO_Float(	LEDs[group[currentgroup][i]].cathode->port,
 534:	0034                	addi	a3,sp,8
 536:	0b3a0e03          	lb	t3,179(s4)
 53a:	0b390b3b          	0xb390b3b
	for(int i=0;i<3;i++){
 53e:	1349                	addi	t1,t1,-14
		GPIO_Float(	LEDs[group[currentgroup][i]].cathode->port,
 540:	0000                	unimp
 542:	3f012e1b          	0x3f012e1b
 546:	0319                	addi	t1,t1,6
 548:	3a0e                	fld	fs4,224(sp)
 54a:	39053b0b          	0x39053b0b
 54e:	0113490b          	0x113490b
 552:	1c000013          	li	zero,448
 556:	0000010b          	0x10b
 55a:	341d                	jal	ffffff80 <__global_pointer$+0xdffff640>
 55c:	0300                	addi	s0,sp,384
 55e:	3a08                	fld	fa0,48(a2)
				LEDs[group[currentgroup][i]].cathode->pin,
 560:	39053b0b          	0x39053b0b
				LEDs[group[currentgroup][i]].cathode->timer,
 564:	0013490b          	0x13490b
				LEDs[group[currentgroup][i]].cathode->channel
 568:	1e00                	addi	s0,sp,816
 56a:	002e                	c.slli	zero,0xb
		GPIO_Float(	LEDs[group[currentgroup][i]].cathode->port,
 56c:	0e03193f 053b0b3a 	0x53b0b3a0e03193f
        timer->CCER &= ~channel;        //disable this channel output
 574:	0b39                	addi	s6,s6,14
 576:	13491927          	0x13491927
        port->CFGLR &= ~(0xf<<(4*pin)); //clear GPIO config - default config is as an input, Hi-Z
 57a:	0000                	unimp
        timer->CCER &= ~channel;        //disable this channel output
 57c:	2e1f 3f00 0319      	0x3193f002e1f
 582:	3a0e                	fld	fs4,224(sp)
        port->CFGLR &= ~(0xf<<(4*pin)); //clear GPIO config - default config is as an input, Hi-Z
 584:	39053b0b          	0x39053b0b
        timer->CCER &= ~channel;        //disable this channel output
 588:	0019270b          	0x19270b
 58c:	2000                	fld	fs0,0(s0)
 58e:	012e                	slli	sp,sp,0xb
 590:	0e03193f 053b0b3a 	0x53b0b3a0e03193f
        port->CFGLR &= ~(0xf<<(4*pin)); //clear GPIO config - default config is as an input, Hi-Z
 598:	0b39                	addi	s6,s6,14
 59a:	13011927          	0x13011927
 59e:	0000                	unimp
 5a0:	0b21                	addi	s6,s6,8
 5a2:	0101                	addi	sp,sp,0
 5a4:	22000013          	li	zero,544
	for(int i=0;i<3;i++){
 5a8:	002e                	c.slli	zero,0xb
 5aa:	0e03193f 0b3b0b3a 	0xb3b0b3a0e03193f
	if(++currentgroup == 4) currentgroup=0;
 5b2:	0b39                	addi	s6,s6,14
 5b4:	00001927          	0x1927
 5b8:	3f012e23          	sw	a6,1020(sp) # 10011408 <wiring.c.7604182b+0x1000ea0f>
 5bc:	0319                	addi	t1,t1,6
 5be:	3a0e                	fld	fs4,224(sp)
 5c0:	390b3b0b          	0x390b3b0b
		pwm_setpw(	LEDs[group[currentgroup][i]].cathode->timer,
 5c4:	0119270b          	0x119270b
 5c8:	24000013          	li	zero,576
 5cc:	0005                	c.nop	1
 5ce:	0b3a0e03          	lb	t3,179(s4)
 5d2:	0b390b3b          	0xb390b3b
 5d6:	1349                	addi	t1,t1,-14
 5d8:	0000                	unimp
 5da:	0525                	addi	a0,a0,9
 5dc:	0300                	addi	s0,sp,384
 5de:	3a08                	fld	fa0,48(a2)
 5e0:	390b3b0b          	0x390b3b0b
    	switch( chl )
 5e4:	0013490b          	0x13490b
 5e8:	2600                	fld	fs0,8(a2)
 5ea:	012e                	slli	sp,sp,0xb
 5ec:	0b3a0e03          	lb	t3,179(s4)
 5f0:	0b39053b          	0xb39053b
	for(int i=0;i<3;i++){
 5f4:	00001927          	0x1927
		pwm_setpw(	LEDs[group[currentgroup][i]].cathode->timer,
 5f8:	03000527          	0x3000527
 5fc:	3a0e                	fld	fs4,224(sp)
 5fe:	39053b0b          	0x39053b0b
 602:	0013490b          	0x13490b
 606:	0000                	unimp
 608:	1101                	addi	sp,sp,-32
 60a:	2501                	jal	c0a <_data_lma+0x436>
 60c:	130e                	slli	t1,t1,0x23
 60e:	1b0e030b          	0x1b0e030b
 612:	100e                	c.slli	zero,0x23
 614:	02000017          	auipc	zero,0x2000
 618:	0024                	addi	s1,sp,8
 61a:	0b3e0b0b          	0xb3e0b0b
				LEDs[group[currentgroup][i]].cathode->channel,
 61e:	00000e03          	lb	t3,0(zero) # 0 <InterruptVector>
				LEDs[group[currentgroup][i]].brightness
 622:	03001603          	lh	a2,48(zero) # 30 <InterruptVector+0x30>
		pwm_setpw(	LEDs[group[currentgroup][i]].cathode->timer,
 626:	3a0e                	fld	fs4,224(sp)
				LEDs[group[currentgroup][i]].brightness
 628:	390b3b0b          	0x390b3b0b
    	switch( chl )
 62c:	0013490b          	0x13490b
 630:	0400                	addi	s0,sp,512
 632:	0024                	addi	s1,sp,8
 634:	0b3e0b0b          	0xb3e0b0b
 638:	00000803          	lb	a6,0(zero) # 0 <InterruptVector>
	for(int i=0;i<3;i++){
 63c:	2605                	jal	95c <_data_lma+0x188>
 63e:	4900                	lw	s0,16(a0)
 640:	06000013          	li	zero,96
	for(int i=0;i<3;i++){
 644:	0035                	c.nop	13
 646:	1349                	addi	t1,t1,-14
        port->CFGLR &= ~(0xf<<(4*pin)); //clear GPIO config - this appears to be necessary. 
 648:	0000                	unimp
 64a:	0b011307          	0xb011307
        port->CFGLR |= (GPIO_Speed_10MHz | GPIO_CNF_OUT_OD_AF)<<(4*pin);//Sets mode to OD_AF
 64e:	3b0b3a0b          	0x3b0b3a0b
		GPIO_PWM(	LEDs[group[currentgroup][i]].cathode->port,
 652:	010b390b          	0x10b390b
 656:	08000013          	li	zero,128
 65a:	000d                	c.nop	3
	for(int i=0;i<3;i++){
 65c:	0b3a0e03          	lb	t3,179(s4)
		GPIO_PWM(	LEDs[group[currentgroup][i]].cathode->port,
 660:	0b390b3b          	0xb390b3b
 664:	1349                	addi	t1,t1,-14
 666:	0b38                	addi	a4,sp,408
 668:	0000                	unimp
 66a:	1309                	addi	t1,t1,-30
 66c:	0b01                	addi	s6,s6,0
 66e:	3b0b3a0b          	0x3b0b3a0b
 672:	3905                	jal	2a2 <main+0x1de>
 674:	0013010b          	0x13010b
				LEDs[group[currentgroup][i]].cathode->pin,
 678:	0a00                	addi	s0,sp,272
 67a:	000d                	c.nop	3
				LEDs[group[currentgroup][i]].cathode->timer,
 67c:	0b3a0e03          	lb	t3,179(s4)
				LEDs[group[currentgroup][i]].cathode->channel
 680:	0b39053b          	0xb39053b
        port->CFGLR &= ~(0xf<<(4*pin)); //clear GPIO config - this appears to be necessary. 
 684:	1349                	addi	t1,t1,-14
 686:	0b38                	addi	a4,sp,408
		GPIO_PWM(	LEDs[group[currentgroup][i]].cathode->port,
 688:	0000                	unimp
 68a:	03000d0b          	0x3000d0b
 68e:	3a08                	fld	fa0,48(a2)
        port->CFGLR &= ~(0xf<<(4*pin)); //clear GPIO config - this appears to be necessary. 
 690:	39053b0b          	0x39053b0b
 694:	3813490b          	0x3813490b
 698:	0c00000b          	0xc00000b
 69c:	0016                	c.slli	zero,0x5
 69e:	0b3a0e03          	lb	t3,179(s4)
 6a2:	0b39053b          	0xb39053b
 6a6:	1349                	addi	t1,t1,-14
 6a8:	0000                	unimp
 6aa:	010d                	addi	sp,sp,3
        port->CFGLR |= (GPIO_Speed_10MHz | GPIO_CNF_OUT_OD_AF)<<(4*pin);//Sets mode to OD_AF
 6ac:	4901                	li	s2,0
 6ae:	00130113          	addi	sp,t1,1
 6b2:	0e00                	addi	s0,sp,784
 6b4:	0021                	c.nop	8
 6b6:	1349                	addi	t1,t1,-14
 6b8:	00000b2f          	0xb2f
        timer->CCER |= channel;         //enable this channel output
 6bc:	0300340f          	0x300340f
 6c0:	3a0e                	fld	fs4,224(sp)
 6c2:	39053b0b          	0x39053b0b
 6c6:	0013490b          	0x13490b
 6ca:	1000                	addi	s0,sp,32
 6cc:	0104                	addi	s1,sp,128
 6ce:	0b3e                	slli	s6,s6,0xf
	for(int i=0;i<3;i++){
 6d0:	13490b0b          	0x13490b0b
 6d4:	0b3a                	slli	s6,s6,0xe
 6d6:	0b39053b          	0xb39053b
	GPIO_High(	LEDs[group[currentgroup][0]].anode->port,
 6da:	1301                	addi	t1,t1,-32
}
 6dc:	0000                	unimp
 6de:	2811                	jal	6f2 <SysTick_Handler+0x232>
 6e0:	0300                	addi	s0,sp,384
 6e2:	1c0e                	slli	s8,s8,0x23
	GPIO_High(	LEDs[group[currentgroup][0]].anode->port,
 6e4:	1200000b          	0x1200000b
 6e8:	0104                	addi	s1,sp,128
 6ea:	0b3e0e03          	lb	t3,179(t3)
 6ee:	13490b0b          	0x13490b0b
 6f2:	0b3a                	slli	s6,s6,0xe
}
 6f4:	0b390b3b          	0xb390b3b
	GPIO_High(	LEDs[group[currentgroup][0]].anode->port,
 6f8:	1301                	addi	t1,t1,-32
 6fa:	0000                	unimp
 6fc:	3f012e13          	slti	t3,sp,1008
 700:	0319                	addi	t1,t1,6
 702:	3a0e                	fld	fs4,224(sp)
 704:	390b3b0b          	0x390b3b0b
 708:	4919270b          	0x4919270b
			LEDs[group[currentgroup][0]].anode->pin,
 70c:	00130113          	addi	sp,t1,1
			LEDs[group[currentgroup][0]].anode->timer,
 710:	1400                	addi	s0,sp,544
 712:	0005                	c.nop	1
			LEDs[group[currentgroup][0]].anode->channel
 714:	0b3a0e03          	lb	t3,179(s4)
	GPIO_High(	LEDs[group[currentgroup][0]].anode->port,
 718:	0b390b3b          	0xb390b3b
 71c:	1349                	addi	t1,t1,-14
 71e:	0000                	unimp
 720:	2e15                	jal	a54 <_data_lma+0x280>
 722:	3f00                	fld	fs0,56(a4)
}
 724:	0319                	addi	t1,t1,6
 726:	3a0e                	fld	fs4,224(sp)
        timer->CCER &= ~channel;        //disable this channel output
 728:	390b3b0b          	0x390b3b0b
 72c:	1600000b          	0x1600000b
 730:	012e                	slli	sp,sp,0xb
 732:	0e03193f 0b3b0b3a 	0xb3b0b3a0e03193f
}
 73a:	0b39                	addi	s6,s6,14
        timer->CCER &= ~channel;        //disable this channel output
 73c:	13011927          	0x13011927
 740:	0000                	unimp
 742:	3f012e17          	auipc	t3,0x3f012
 746:	0319                	addi	t1,t1,6
        port->CFGLR &= ~(0xf<<(4*pin)); //clear GPIO config - this appears to be necessary. 
 748:	3a0e                	fld	fs4,224(sp)
 74a:	390b3b0b          	0x390b3b0b
 74e:	0013010b          	0x13010b
 752:	1800                	addi	s0,sp,48
 754:	0000010b          	0x10b
 758:	3419                	jal	15e <main+0x9a>
 75a:	0300                	addi	s0,sp,384
 75c:	3a08                	fld	fa0,48(a2)
 75e:	390b3b0b          	0x390b3b0b
        port->CFGLR |= (GPIO_Speed_10MHz | GPIO_CNF_OUT_PP)<<(4*pin); //Sets output mode to GPIO, PP
 762:	0013490b          	0x13490b
 766:	1a00                	addi	s0,sp,304
 768:	0005                	c.nop	1
 76a:	0b3a0803          	lb	a6,179(s4)
 76e:	0b390b3b          	0xb390b3b
 772:	1349                	addi	t1,t1,-14
        port->BSHR = (1<<(pin));                //set GPIO 'high'
 774:	0000                	unimp
 776:	0300341b          	0x300341b
 77a:	3a0e                	fld	fs4,224(sp)
}
 77c:	390b3b0b          	0x390b3b0b
 780:	0013490b          	0x13490b
 784:	1c00                	addi	s0,sp,560
 786:	0b0b000f          	0xb0b000f
 78a:	1349                	addi	t1,t1,-14
 78c:	0000                	unimp
 78e:	2e1d                	jal	ac4 <_data_lma+0x2f0>
 790:	3f01                	jal	6a0 <SysTick_Handler+0x1e0>
 792:	0319                	addi	t1,t1,6
 794:	3a0e                	fld	fs4,224(sp)
 796:	390b3b0b          	0x390b3b0b
 79a:	4919270b          	0x4919270b
	if(++currentgroup == 4) currentgroup=0;
 79e:	00000013          	nop
 7a2:	1101                	addi	sp,sp,-32
    	switch( chl )
 7a4:	1000                	addi	s0,sp,32
 7a6:	1106                	slli	sp,sp,0x21
	    	case TIM_CC4E: timer->CH4CVR = width; break;
 7a8:	1201                	addi	tp,tp,-32
 7aa:	0301                	addi	t1,t1,0
 7ac:	1b0e                	slli	s6,s6,0x23
 7ae:	250e                	fld	fa0,192(sp)
	    	case TIM_CC1E: timer->CH1CVR = width; break;
 7b0:	130e                	slli	t1,t1,0x23
 7b2:	0005                	c.nop	1
	...

Disassembly of section .debug_loc:

00000000 <.debug_loc>:
	...
	asm volatile( "\n\
       8:	0001                	nop
       a:	005a                	c.slli	zero,0x16
       c:	0000                	unimp
       e:	0000                	unimp
      10:	0000                	unimp
      12:	0100                	addi	s0,sp,128
      14:	5600                	lw	s0,40(a2)
	...
      26:	0001                	nop
      28:	0000005b          	0x5b
      2c:	0000                	unimp
      2e:	0000                	unimp
      30:	0100                	addi	s0,sp,128
      32:	5a00                	lw	s0,48(a2)
	...
      3c:	0004                	0x4
      3e:	9f5b01f3          	0x9f5b01f3
	...
      4a:	0001                	nop
      4c:	005a                	c.slli	zero,0x16
	...
      5a:	0000                	unimp
      5c:	0100                	addi	s0,sp,128
      5e:	5c00                	lw	s0,56(s0)
	...
      68:	0001                	nop
      6a:	005c                	addi	a5,sp,4
	...
      78:	0000                	unimp
      7a:	0100                	addi	s0,sp,128
      7c:	5500                	lw	s0,40(a0)
	...
      86:	0001                	nop
      88:	0055                	c.nop	21
	...
      96:	0000                	unimp
      98:	0200                	addi	s0,sp,256
      9a:	3000                	fld	fs0,32(s0)
      9c:	009f 0000 0000      	0x9f
      a2:	0000                	unimp
      a4:	0100                	addi	s0,sp,128
      a6:	5e00                	lw	s0,56(a2)
	...
      b0:	0001                	nop
      b2:	005e                	c.slli	zero,0x17
      b4:	0000                	unimp
      b6:	0000                	unimp
      b8:	0000                	unimp
      ba:	0300                	addi	s0,sp,384
      bc:	7e00                	flw	fs0,56(a2)
      be:	9f7f                	0x9f7f
	...
int main() {
      c8:	0001                	nop
      ca:	005e                	c.slli	zero,0x17
	...
	RCC->CTLR  = RCC_HSION | RCC_PLLON | ((HSITRIM) << 3); // Use HSI, but enable PLL.
      d8:	0000                	unimp
      da:	0100                	addi	s0,sp,128
      dc:	5a00                	lw	s0,48(a2)
	...
	RCC->INTR  = 0x009F0000;                               // Clear PLL, CSSC, HSE, HSI and LSI ready flags.
      e6:	0001                	nop
      e8:	005f 0000 0000      	0x5f
	while((RCC->CTLR & RCC_PLLRDY) == 0);                                      // Wait till PLL is ready
      ee:	0000                	unimp
      f0:	0200                	addi	s0,sp,256
      f2:	9100                	0x9100
      f4:	0070                	addi	a2,sp,12
      f6:	0000                	unimp
      f8:	0000                	unimp
	RCC->CFGR0 = ( RCC->CFGR0 & ((uint32_t)~(RCC_SW))) | (uint32_t)RCC_SW_PLL; // Select PLL as system clock source
      fa:	0000                	unimp
	while ((RCC->CFGR0 & (uint32_t)RCC_SWS) != (uint32_t)0x08);                // Wait till PLL is used as system clock source
      fc:	0600                	addi	s0,sp,768
	RCC->CFGR0 = ( RCC->CFGR0 & ((uint32_t)~(RCC_SW))) | (uint32_t)RCC_SW_PLL; // Select PLL as system clock source
      fe:	7f00                	flw	fs0,56(a4)
     100:	7c00                	flw	fs0,56(s0)
     102:	2200                	fld	fs0,0(a2)
     104:	009f 0000 0000      	0x9f
	while ((RCC->CFGR0 & (uint32_t)RCC_SWS) != (uint32_t)0x08);                // Wait till PLL is used as system clock source
     10a:	0000                	unimp
     10c:	0100                	addi	s0,sp,128
     10e:	5a00                	lw	s0,48(a2)
	...
	RCC->APB2PCENR |=	RCC_APB2Periph_GPIOA | RCC_APB2Periph_GPIOC |
     118:	0008                	0x8
     11a:	007f                	0x7f
     11c:	007c                	addi	a5,sp,12
	RCC->APB1PCENR |=	RCC_APB1Periph_TIM2;
     11e:	2322                	fld	ft6,8(sp)
	RCC->APB2PRSTR |=  RCC_APB2Periph_TIM1;
     120:	9f01                	0x9f01
	...
	RCC->APB1PCENR |=	RCC_APB1Periph_TIM2;
     12a:	0006                	c.slli	zero,0x1
	RCC->APB2PRSTR |=  RCC_APB2Periph_TIM1;
     12c:	007f                	0x7f
	GPIOC->CFGLR &= ~(0xf<<(4*GPIO_PinSource4));
     12e:	007c                	addi	a5,sp,12
     130:	9f22                	add	t5,t5,s0
	...
	RCC->APB2PRSTR &= ~RCC_APB2Periph_TIM1;
     142:	0001                	nop
     144:	0000005b          	0x5b
	TIM1->PSC = 0x0000;
     148:	0000                	unimp
     14a:	0000                	unimp
	TIM1->ATRLR = 255;
     14c:	0100                	addi	s0,sp,128
     14e:	5900                	lw	s0,48(a0)
	...
	TIM1->CCER |= TIM_CC4E | TIM_CC4P;	// Enable T1CH4 output, positive pol
     158:	0004                	0x4
	RCC->APB1PRSTR &= ~RCC_APB1Periph_TIM2;
     15a:	9f5b01f3          	0x9f5b01f3
	...
	GPIOC->CFGLR &= ~(0xf<<(4*GPIO_PinSource4));
     166:	0001                	nop
	GPIOC->CFGLR |= (GPIO_Speed_10MHz | GPIO_CNF_OUT_OD_AF)<<(4*GPIO_PinSource4);
     168:	0059                	c.nop	22
     16a:	0000                	unimp
     16c:	0000                	unimp
     16e:	0000                	unimp
     170:	0100                	addi	s0,sp,128
	GPIOA->CFGLR &= ~(0xf<<(4*GPIO_PinSource1));
     172:	5a00                	lw	s0,48(a2)
	...
     17c:	0001                	nop
     17e:	0059                	c.nop	22
	...
	GPIOA->CFGLR |= (GPIO_Speed_10MHz | GPIO_CNF_OUT_OD_AF)<<(4*GPIO_PinSource1);
     18c:	0000                	unimp
	GPIOC->CFGLR &= ~(0xf<<(4*GPIO_PinSource2));
     18e:	0100                	addi	s0,sp,128
     190:	5c00                	lw	s0,56(s0)
	...
	GPIOC->CFGLR |= (GPIO_Speed_10MHz | GPIO_CNF_OUT_OD_AF)<<(4*GPIO_PinSource2);
     19a:	0004                	0x4
	GPIOC->CFGLR &= ~(0xf<<(4*GPIO_PinSource1));
     19c:	9f5c01f3          	0x9f5c01f3
	...
	GPIOC->CFGLR |= (GPIO_Speed_10MHz | GPIO_CNF_OUT_OD_AF)<<(4*GPIO_PinSource1);
     1a8:	0001                	nop
     1aa:	005c                	addi	a5,sp,4
     1ac:	0000                	unimp
     1ae:	0000                	unimp
	AFIO->PCFR1 |= AFIO_PCFR1_TIM2_REMAP_PARTIALREMAP1;
     1b0:	0000                	unimp
     1b2:	0400                	addi	s0,sp,512
     1b4:	f300                	fsw	fs0,32(a4)
     1b6:	5c01                	li	s8,-32
	TIM1->PSC = 0x0000;
     1b8:	009f 0000 0000      	0x9f
	...
	TIM1->ATRLR = 255;
     1c6:	0000                	unimp
	TIM2->ATRLR = 255;
     1c8:	0100                	addi	s0,sp,128
     1ca:	5d00                	lw	s0,56(a0)
	...
	TIM1->SWEVGR |= TIM_UG;
     1d4:	0001                	nop
     1d6:	005d                	c.nop	23
     1d8:	0000                	unimp
     1da:	0000                	unimp
	TIM2->SWEVGR |= TIM_UG;
     1dc:	0000                	unimp
     1de:	0400                	addi	s0,sp,512
     1e0:	f300                	fsw	fs0,32(a4)
     1e2:	5d01                	li	s10,-32
     1e4:	009f 0000 0000      	0x9f
	...
	TIM1->CTLR1 |= TIM_ARPE;
     1f2:	0000                	unimp
     1f4:	0100                	addi	s0,sp,128
     1f6:	5e00                	lw	s0,56(a2)
	...
	TIM2->CTLR1 |= TIM_ARPE;
     200:	0004                	0x4
     202:	9f5e01f3          	0x9f5e01f3
	...
	TIM1->CH2CVR = 16; //T1CH2/PA1/pin1
     20e:	0001                	nop
     210:	005e                	c.slli	zero,0x17
	TIM1->CH4CVR = 16; //T1CH4/PC4/pin7
     212:	0000                	unimp
     214:	0000                	unimp
	TIM2->CH2CVR = 16; //T2CH2/PC2/pin6*
     216:	0000                	unimp
	TIM2->CH4CVR = 16; //T2CH4/PC1/pin5*
     218:	0400                	addi	s0,sp,512
	TIM1->CCER |= TIM_CC2E | TIM_CC2P;	// Enable T1CH2 output, positive pol
     21a:	f300                	fsw	fs0,32(a4)
     21c:	5e01                	li	t3,-32
     21e:	009f 0000 0000      	0x9f
	...
	TIM1->CCER |= TIM_CC4E | TIM_CC4P;	// Enable T1CH4 output, positive pol
     22c:	0000                	unimp
     22e:	0600                	addi	s0,sp,768
     230:	7d00                	flw	fs0,56(a0)
     232:	7900                	flw	fs0,48(a0)
     234:	1c00                	addi	s0,sp,560
     236:	009f 0000 0000      	0x9f
     23c:	0000                	unimp
	TIM2->CCER |= TIM_CC2E | TIM_CC2P;	// Enable T2CH2 output, positive pol
     23e:	0100                	addi	s0,sp,128
     240:	5800                	lw	s0,48(s0)
	...
     24a:	0006                	c.slli	zero,0x1
     24c:	007d                	c.nop	31
	TIM2->CCER |= TIM_CC4E | TIM_CC4P;	// Enable T2CH4 output, positive pol
     24e:	0079                	c.nop	30
     250:	9f1c                	0x9f1c
	...
     25a:	0006                	c.slli	zero,0x1
     25c:	0079                	c.nop	30
     25e:	007c                	addi	a5,sp,12
     260:	9f1c                	0x9f1c
	...
	TIM1->CHCTLR1 |= TIM_OC2M_2 | TIM_OC2M_1;	// CH2 Mode is output, PWM1 (CC1S = 00, OC1M = 110)
     26a:	0001                	nop
     26c:	0000005b          	0x5b
     270:	0000                	unimp
     272:	0000                	unimp
     274:	0200                	addi	s0,sp,256
     276:	3000                	fld	fs0,32(s0)
	TIM1->CHCTLR2 |= TIM_OC4M_2 | TIM_OC4M_1;	// CH4 Mode is output, PWM1 (CC1S = 00, OC1M = 110)
     278:	009f 0000 0000      	0x9f
     27e:	0000                	unimp
     280:	0200                	addi	s0,sp,256
     282:	3100                	fld	fs0,32(a0)
     284:	009f 0000 0000      	0x9f
     28a:	0000                	unimp
	TIM2->CHCTLR1 |= TIM_OC2M_2 | TIM_OC2M_1 | TIM_OC2PE;
     28c:	0200                	addi	s0,sp,256
     28e:	3200                	fld	fs0,32(a2)
     290:	009f 0000 0000      	0x9f
     296:	0000                	unimp
     298:	0100                	addi	s0,sp,128
     29a:	5b00                	lw	s0,48(a4)
	...
     2a4:	0006                	c.slli	zero,0x1
	TIM2->CHCTLR2 |= TIM_OC4M_2 | TIM_OC4M_1 | TIM_OC4PE;
     2a6:	0079                	c.nop	30
     2a8:	007c                	addi	a5,sp,12
	TIM1->BDTR  |= TIM_MOE;	// Brake and deadband registers
     2aa:	9f1c                	0x9f1c
	...
	TIM2->CHCTLR2 |= TIM_OC4M_2 | TIM_OC4M_1 | TIM_OC4PE;
     2b4:	0008                	0x8
     2b6:	0079                	c.nop	30
     2b8:	007c                	addi	a5,sp,12
     2ba:	231c                	fld	fa5,0(a4)
	TIM1->BDTR  |= TIM_MOE;	// Brake and deadband registers
     2bc:	9f01                	0x9f01
	...
	TIM1->CTLR1 |= TIM_CEN;	// Enable TIM1
     2ce:	0002                	c.slli64	zero
     2d0:	9f30                	0x9f30
	...
	TIM2->CTLR1 |= TIM_CEN;	// Enable TIM2
     2da:	0001                	nop
     2dc:	0056                	c.slli	zero,0x15
     2de:	0000                	unimp
     2e0:	0000                	unimp
     2e2:	0000                	unimp
     2e4:	0200                	addi	s0,sp,256
     2e6:	7200                	flw	fs0,32(a2)
	...
	SysTick->CTLR = 0;
     2f0:	0200                	addi	s0,sp,256
     2f2:	7200                	flw	fs0,32(a2)
     2f4:	006c                	addi	a1,sp,12
     2f6:	0000                	unimp
     2f8:	0000                	unimp
	SysTick->CMP = (SYSTEM_CORE_CLOCK/SYSTICKHZ)-1;
     2fa:	0000                	unimp
     2fc:	0200                	addi	s0,sp,256
     2fe:	3000                	fld	fs0,32(s0)
     300:	009f 0000 0000      	0x9f
	SysTick->CTLR = SYSTICK_CTLR_STE | SYSTICK_CTLR_STIE |
     306:	0000                	unimp
     308:	0200                	addi	s0,sp,256
	RCC->CFGR0 &= ~(0x1F<<11);
     30a:	7200                	flw	fs0,32(a2)
	...
	RCC->APB2PCENR |= RCC_APB2Periph_GPIOA | RCC_APB2Periph_ADC1;
     31c:	0100                	addi	s0,sp,128
	GPIOA->CFGLR &= ~(0xf<<(4*GPIO_PinSource2));	// CNF = 00: Analog, MODE = 00: Input
     31e:	5e00                	lw	s0,56(a2)
	...
     328:	0004                	0x4
	RCC->APB2PRSTR |= RCC_APB2Periph_ADC1;
     32a:	9f5e01f3          	0x9f5e01f3
	...
     336:	0006                	c.slli	zero,0x1
	RCC->APB2PRSTR &= ~RCC_APB2Periph_ADC1;
     338:	007d                	c.nop	31
     33a:	007c                	addi	a5,sp,12
     33c:	9f22                	add	t5,t5,s0
	...
	ADC1->RSQR1 = 0;
     346:	0001                	nop
	ADC1->RSQR2 = 0;
     348:	005c                	addi	a5,sp,4
     34a:	0000                	unimp
	ADC1->RSQR3 = ADC_Channel_0;	// 0-9 for 8 ext inputs and two internals
     34c:	0000                	unimp
     34e:	0000                	unimp
	ADC1->SAMPTR2 &= ~ADC_SMP2;
     350:	0300                	addi	s0,sp,384
     352:	7c00                	flw	fs0,56(s0)
     354:	9f7f                	0x9f7f
	...
	ADC1->SAMPTR2 |= ( ADC_SampleTime_3Cycles << (3 * ADC_Channel_0 ) );	// 0:7 => 3/9/15/30/43/57/73/241 cycles
     35e:	0001                	nop
     360:	005d                	c.nop	23
     362:	0000                	unimp
	ADC1->CTLR2 |= ADC_ADON | ADC_EXTSEL;
     364:	0000                	unimp
     366:	0000                	unimp
     368:	0300                	addi	s0,sp,384
     36a:	7c00                	flw	fs0,56(s0)
     36c:	9f7e                	add	t5,t5,t6
	...
	ADC1->CTLR2 |= ADC_RSTCAL;
     376:	0001                	nop
     378:	005d                	c.nop	23
     37a:	0000                	unimp
     37c:	0000                	unimp
	while(ADC1->CTLR2 & ADC_RSTCAL);
     37e:	0000                	unimp
     380:	0300                	addi	s0,sp,384
     382:	7d00                	flw	fs0,56(a0)
     384:	9f7f                	0x9f7f
	...
	ADC1->CTLR2 |= ADC_CAL;
     38e:	0001                	nop
     390:	005e                	c.slli	zero,0x17
	while(ADC1->CTLR2 & ADC_CAL);
     392:	0000                	unimp
     394:	0000                	unimp
     396:	0000                	unimp
     398:	0800                	addi	s0,sp,16
     39a:	7d00                	flw	fs0,56(a0)
     39c:	7c00                	flw	fs0,56(s0)
                Delay_Ms(( Delay >> 3 ) + 5 );
     39e:	2200                	fld	fs0,0(a2)
     3a0:	009f0123          	sb	s1,2(t5) # b00050a <wiring.c.7604182b+0xaffdb11>
                int temp=LEDs[0].brightness;
     3a4:	0000                	unimp
	ADC1->CTLR2 |= ADC_SWSTART;
     3a6:	0000                	unimp
     3a8:	0000                	unimp
     3aa:	0600                	addi	s0,sp,768
     3ac:	7d00                	flw	fs0,56(a0)
	uint32_t targend = SysTick->CNT + n;
     3ae:	7c00                	flw	fs0,56(s0)
     3b0:	2200                	fld	fs0,0(a2)
                Delay_Ms(( Delay >> 3 ) + 5 );
     3b2:	009f 0000 0000      	0x9f
	...
	ADC1->CTLR2 |= ADC_SWSTART;
     3c0:	0000                	unimp
     3c2:	0100                	addi	s0,sp,128
     3c4:	5a00                	lw	s0,48(a2)
	...
	while(!(ADC1->STATR & ADC_EOC));
     3ce:	0001                	nop
	return ADC1->RDATAR;
     3d0:	0056                	c.slli	zero,0x15
     3d2:	0000                	unimp
     3d4:	0000                	unimp
     3d6:	0000                	unimp
                Delay_Ms(( Delay >> 3 ) + 5 );
     3d8:	0100                	addi	s0,sp,128
     3da:	5a00                	lw	s0,48(a2)
	...
     3e4:	0002                	c.slli64	zero
     3e6:	6491                	lui	s1,0x4
	...
     3f0:	0001                	nop
     3f2:	0056                	c.slli	zero,0x15
     3f4:	0000                	unimp
     3f6:	0000                	unimp
     3f8:	0000                	unimp
	while( ((int32_t)( SysTick->CNT - targend )) < 0 );
     3fa:	0100                	addi	s0,sp,128
     3fc:	5600                	lw	s0,40(a2)
	...
                int temp=LEDs[0].brightness;
     40e:	0001                	nop
                        LEDs[i-1].brightness=LEDs[i].brightness;
     410:	0000005b          	0x5b
     414:	0000                	unimp
     416:	0000                	unimp
     418:	0200                	addi	s0,sp,256
     41a:	9100                	0x9100
     41c:	006c                	addi	a1,sp,12
     41e:	0000                	unimp
     420:	0000                	unimp
     422:	0000                	unimp
     424:	0100                	addi	s0,sp,128
     426:	5b00                	lw	s0,48(a4)
	...
     430:	0002                	c.slli64	zero
     432:	6891                	lui	a7,0x4
	...
                LEDs[11].brightness=temp;
     43c:	0001                	nop
	while(1){
     43e:	0000005b          	0x5b
	asm volatile( "\n\
     442:	0000                	unimp
     444:	0000                	unimp
     446:	0200                	addi	s0,sp,256
     448:	9100                	0x9100
     44a:	0068                	addi	a0,sp,12
     44c:	0000                	unimp
     44e:	0000                	unimp
     450:	0000                	unimp
     452:	0200                	addi	s0,sp,256
     454:	7200                	flw	fs0,32(a2)
     456:	0068                	addi	a0,sp,12
     458:	0000                	unimp
     45a:	0000                	unimp
     45c:	0000                	unimp
     45e:	0100                	addi	s0,sp,128
     460:	5b00                	lw	s0,48(a4)
	...
asm volatile(
     46a:	0002                	c.slli64	zero
     46c:	6891                	lui	a7,0x4
	...
     47e:	0001                	nop
     480:	005c                	addi	a5,sp,4
     482:	0000                	unimp
     484:	0000                	unimp
     486:	0000                	unimp
     488:	0400                	addi	s0,sp,512
     48a:	f300                	fsw	fs0,32(a4)
     48c:	5c01                	li	s8,-32
     48e:	009f 0000 0000      	0x9f
	...
     49c:	0000                	unimp
     49e:	0100                	addi	s0,sp,128
     4a0:	5d00                	lw	s0,56(a0)
	...
	SETUP_SYSTICK_HCLK
     4aa:	0004                	0x4
     4ac:	9f5d01f3          	0x9f5d01f3
	...
{
     4c0:	0001                	nop
     4c2:	005e                	c.slli	zero,0x17
     4c4:	0000                	unimp
     4c6:	0000                	unimp
	SysTick->CMP += (SYSTEM_CORE_CLOCK/SYSTICKHZ); 
     4c8:	0000                	unimp
     4ca:	0200                	addi	s0,sp,256
{
     4cc:	9100                	0x9100
     4ce:	0070                	addi	a2,sp,12
	SysTick->CMP += (SYSTEM_CORE_CLOCK/SYSTICKHZ); 
     4d0:	0000                	unimp
     4d2:	0000                	unimp
{
     4d4:	0000                	unimp
     4d6:	0100                	addi	s0,sp,128
	SysTick->CMP += (SYSTEM_CORE_CLOCK/SYSTICKHZ); 
     4d8:	5e00                	lw	s0,56(a2)
	...
{
     4e2:	0002                	c.slli64	zero
     4e4:	7091                	lui	ra,0xfffe4
	...
     4ee:	0001                	nop
	SysTick->CMP += (SYSTEM_CORE_CLOCK/SYSTICKHZ); 
     4f0:	005e                	c.slli	zero,0x17
	...
{
     4fe:	0000                	unimp
     500:	0100                	addi	s0,sp,128
     502:	5900                	lw	s0,48(a0)
	...
		GPIO_Float(	LEDs[group[currentgroup][i]].cathode->port,
     50c:	0001                	nop
     50e:	005f 0000 0000      	0x5f
     514:	0000                	unimp
     516:	0200                	addi	s0,sp,256
     518:	9100                	0x9100
     51a:	006c                	addi	a1,sp,12
     51c:	0000                	unimp
     51e:	0000                	unimp
     520:	0000                	unimp
     522:	0300                	addi	s0,sp,384
     524:	7900                	flw	fs0,48(a0)
     526:	9f02                	jalr	t5
	...
        port->CFGLR &= ~(0xf<<(4*pin)); //clear GPIO config - default config is as an input, Hi-Z
     530:	0001                	nop
     532:	005f 0000 0000      	0x5f
		GPIO_Float(	LEDs[group[currentgroup][i]].cathode->port,
     538:	0000                	unimp
     53a:	0100                	addi	s0,sp,128
	for(int i=0;i<3;i++){
     53c:	5f00                	lw	s0,56(a4)
	...
		GPIO_Float(	LEDs[group[currentgroup][i]].cathode->port,
     546:	0001                	nop
     548:	0059                	c.nop	22
	...
     556:	0000                	unimp
     558:	0200                	addi	s0,sp,256
     55a:	3100                	fld	fs0,32(a0)
     55c:	009f 0000 0000      	0x9f
				LEDs[group[currentgroup][i]].cathode->pin,
     562:	0000                	unimp
				LEDs[group[currentgroup][i]].cathode->timer,
     564:	0200                	addi	s0,sp,256
     566:	7200                	flw	fs0,32(a2)
	...
		GPIO_Float(	LEDs[group[currentgroup][i]].cathode->port,
     570:	0200                	addi	s0,sp,256
     572:	7200                	flw	fs0,32(a2)
        timer->CCER &= ~channel;        //disable this channel output
     574:	0060                	addi	s0,sp,12
     576:	0000                	unimp
        port->CFGLR &= ~(0xf<<(4*pin)); //clear GPIO config - default config is as an input, Hi-Z
     578:	0000                	unimp
     57a:	0000                	unimp
        timer->CCER &= ~channel;        //disable this channel output
     57c:	0200                	addi	s0,sp,256
     57e:	7200                	flw	fs0,32(a2)
	...
     590:	0200                	addi	s0,sp,256
     592:	3000                	fld	fs0,32(s0)
     594:	009f 0000 0000      	0x9f
        port->CFGLR &= ~(0xf<<(4*pin)); //clear GPIO config - default config is as an input, Hi-Z
     59a:	0000                	unimp
     59c:	0100                	addi	s0,sp,128
     59e:	5c00                	lw	s0,56(s0)
	...
	for(int i=0;i<3;i++){
     5a8:	0001                	nop
     5aa:	005c                	addi	a5,sp,4
     5ac:	0000                	unimp
     5ae:	0000                	unimp
	if(++currentgroup == 4) currentgroup=0;
     5b0:	0000                	unimp
     5b2:	0300                	addi	s0,sp,384
     5b4:	7c00                	flw	fs0,56(s0)
     5b6:	9f7f                	0x9f7f
	...
     5c0:	0001                	nop
     5c2:	005c                	addi	a5,sp,4
	...
		pwm_setpw(	LEDs[group[currentgroup][i]].cathode->timer,
     5d0:	0000                	unimp
     5d2:	0100                	addi	s0,sp,128
     5d4:	5a00                	lw	s0,48(a2)
	...
     5de:	0001                	nop
     5e0:	005a                	c.slli	zero,0x16
	...
    	switch( chl )
     5ee:	0000                	unimp
     5f0:	0100                	addi	s0,sp,128
     5f2:	5a00                	lw	s0,48(a2)
	...
		pwm_setpw(	LEDs[group[currentgroup][i]].cathode->timer,
     5fc:	0001                	nop
     5fe:	005a                	c.slli	zero,0x16
     600:	0000                	unimp
     602:	0000                	unimp
     604:	0000                	unimp
     606:	f200                	fsw	fs0,32(a2)
     608:	0002                	c.slli64	zero
     60a:	fa00                	fsw	fs0,48(a2)
     60c:	0002                	c.slli64	zero
     60e:	0200                	addi	s0,sp,256
     610:	3c00                	fld	fs0,56(s0)
     612:	009f 0000 0000      	0x9f
     618:	0000                	unimp
     61a:	d400                	sw	s0,40(s0)
				LEDs[group[currentgroup][i]].cathode->channel,
     61c:	da000003          	lb	zero,-608(zero) # fffffda0 <__global_pointer$+0xdffff460>
				LEDs[group[currentgroup][i]].brightness
     620:	07000003          	lb	zero,112(zero) # 70 <InterruptVector+0x70>
		pwm_setpw(	LEDs[group[currentgroup][i]].cathode->timer,
     624:	7a00                	flw	fs0,48(a2)
     626:	0a00                	addi	s0,sp,272
				LEDs[group[currentgroup][i]].brightness
     628:	ffff                	0xffff
     62a:	9f1a                	add	t5,t5,t1
	...
    	switch( chl )
     634:	03d4                	addi	a3,sp,452
     636:	0000                	unimp
     638:	03da                	slli	t2,t2,0x16
     63a:	0000                	unimp
	for(int i=0;i<3;i++){
     63c:	007a000f          	0x7a000f
     640:	ff0a2633          	0xff0a2633
	for(int i=0;i<3;i++){
     644:	1a1f 0523 800a      	0x800a05231a1f
        port->CFGLR &= ~(0xf<<(4*pin)); //clear GPIO config - this appears to be necessary. 
     64a:	009f1ebb          	0x9f1ebb
        port->CFGLR |= (GPIO_Speed_10MHz | GPIO_CNF_OUT_OD_AF)<<(4*pin);//Sets mode to OD_AF
     64e:	0000                	unimp
		GPIO_PWM(	LEDs[group[currentgroup][i]].cathode->port,
     650:	0000                	unimp
     652:	0000                	unimp
     654:	fa00                	fsw	fs0,48(a2)
     656:	04000003          	lb	zero,64(zero) # 40 <InterruptVector+0x40>
     65a:	0004                	0x4
	for(int i=0;i<3;i++){
     65c:	0100                	addi	s0,sp,128
     65e:	5f00                	lw	s0,56(a4)
	...
		GPIO_PWM(	LEDs[group[currentgroup][i]].cathode->port,
     670:	0001                	nop
     672:	005a                	c.slli	zero,0x16
     674:	0000                	unimp
     676:	0000                	unimp
				LEDs[group[currentgroup][i]].cathode->pin,
     678:	0000                	unimp
     67a:	0400                	addi	s0,sp,512
				LEDs[group[currentgroup][i]].cathode->timer,
     67c:	f300                	fsw	fs0,32(a4)
     67e:	5a01                	li	s4,-32
				LEDs[group[currentgroup][i]].cathode->channel
     680:	009f 0000 0000      	0x9f
	...
		GPIO_PWM(	LEDs[group[currentgroup][i]].cathode->port,
     68e:	0000                	unimp
        port->CFGLR &= ~(0xf<<(4*pin)); //clear GPIO config - this appears to be necessary. 
     690:	0100                	addi	s0,sp,128
     692:	5b00                	lw	s0,48(a4)
	...
     69c:	0001                	nop
     69e:	0059                	c.nop	22
     6a0:	0000                	unimp
     6a2:	0000                	unimp
     6a4:	0000                	unimp
     6a6:	0400                	addi	s0,sp,512
     6a8:	f300                	fsw	fs0,32(a4)
     6aa:	5b01                	li	s6,-32
        port->CFGLR |= (GPIO_Speed_10MHz | GPIO_CNF_OUT_OD_AF)<<(4*pin);//Sets mode to OD_AF
     6ac:	009f 0000 0000      	0x9f
	...
     6ba:	0000                	unimp
        timer->CCER |= channel;         //enable this channel output
     6bc:	0200                	addi	s0,sp,256
     6be:	3000                	fld	fs0,32(s0)
     6c0:	009f 0000 0000      	0x9f
     6c6:	0000                	unimp
     6c8:	0100                	addi	s0,sp,128
     6ca:	5800                	lw	s0,48(s0)
	...
	for(int i=0;i<3;i++){
     6d4:	0001                	nop
     6d6:	0058                	addi	a4,sp,4
	...
	GPIO_High(	LEDs[group[currentgroup][0]].anode->port,
     6e4:	0000                	unimp
     6e6:	0600                	addi	s0,sp,768
     6e8:	0c00                	addi	s0,sp,528
     6ea:	7100                	flw	fs0,32(a0)
     6ec:	0002                	c.slli64	zero
     6ee:	009f 0000 0000      	0x9f
}
     6f4:	0000                	unimp
     6f6:	0300                	addi	s0,sp,384
	GPIO_High(	LEDs[group[currentgroup][0]].anode->port,
     6f8:	7e00                	flw	fs0,56(a2)
     6fa:	9f7f                	0x9f7f
	...
     704:	7e7e0003          	lb	zero,2023(t3) # 3f012f29 <__global_pointer$+0x1f0125e9>
     708:	009f 0000 0000      	0x9f
			LEDs[group[currentgroup][0]].anode->pin,
     70e:	0000                	unimp
			LEDs[group[currentgroup][0]].anode->timer,
     710:	0300                	addi	s0,sp,384
     712:	7e00                	flw	fs0,56(a2)
			LEDs[group[currentgroup][0]].anode->channel
     714:	9f7f                	0x9f7f
	...
}
     726:	0001                	nop
        timer->CCER &= ~channel;        //disable this channel output
     728:	0000005b          	0x5b
     72c:	0000                	unimp
     72e:	0000                	unimp
     730:	0100                	addi	s0,sp,128
     732:	5f00                	lw	s0,56(a4)
	...
     73c:	0002                	c.slli64	zero
     73e:	6c91                	lui	s9,0x4
	...
        port->CFGLR &= ~(0xf<<(4*pin)); //clear GPIO config - this appears to be necessary. 
     748:	0001                	nop
     74a:	005f 0000 0000      	0x5f
	...
     758:	0000                	unimp
     75a:	0200                	addi	s0,sp,256
     75c:	3000                	fld	fs0,32(s0)
     75e:	009f 0000 0000      	0x9f
        port->CFGLR |= (GPIO_Speed_10MHz | GPIO_CNF_OUT_PP)<<(4*pin); //Sets output mode to GPIO, PP
     764:	0000                	unimp
     766:	0100                	addi	s0,sp,128
     768:	5e00                	lw	s0,56(a2)
	...
     772:	7f7e0003          	lb	zero,2039(t3)
        port->BSHR = (1<<(pin));                //set GPIO 'high'
     776:	009f 0000 0000      	0x9f
}
     77c:	0000                	unimp
     77e:	0100                	addi	s0,sp,128
     780:	5e00                	lw	s0,56(a2)
	...
     792:	0001                	nop
     794:	005a                	c.slli	zero,0x16
     796:	0000                	unimp
     798:	0000                	unimp
     79a:	0000                	unimp
	if(++currentgroup == 4) currentgroup=0;
     79c:	0400                	addi	s0,sp,512
     79e:	f300                	fsw	fs0,32(a4)
     7a0:	5a01                	li	s4,-32
     7a2:	009f 0000 0000      	0x9f
	...
	    	case TIM_CC1E: timer->CH1CVR = width; break;
     7b0:	0000                	unimp
     7b2:	0100                	addi	s0,sp,128
     7b4:	5b00                	lw	s0,48(a4)
	...
	    	case TIM_CC2E: timer->CH2CVR = width; break;
     7be:	0001                	nop
	    	case TIM_CC3E: timer->CH3CVR = width; break;
     7c0:	0058                	addi	a4,sp,4
     7c2:	0000                	unimp
     7c4:	0000                	unimp
     7c6:	0000                	unimp
     7c8:	0100                	addi	s0,sp,128
     7ca:	5a00                	lw	s0,48(a2)
	...
     7dc:	0001                	nop
     7de:	005c                	addi	a5,sp,4
     7e0:	0000                	unimp
     7e2:	0000                	unimp
     7e4:	0000                	unimp
     7e6:	0400                	addi	s0,sp,512
     7e8:	f300                	fsw	fs0,32(a4)
     7ea:	5c01                	li	s8,-32
     7ec:	009f 0000 0000      	0x9f
	...
     7fa:	0000                	unimp
     7fc:	0100                	addi	s0,sp,128
     7fe:	5a00                	lw	s0,48(a2)
	...
     808:	0001                	nop
     80a:	005f 0000 0000      	0x5f
	...
     818:	0000                	unimp
     81a:	0100                	addi	s0,sp,128
     81c:	5a00                	lw	s0,48(a2)
	...
     826:	0004                	0x4
     828:	9f5a01f3          	0x9f5a01f3
	...
     834:	0001                	nop
     836:	005a                	c.slli	zero,0x16
	...
     844:	0000                	unimp
     846:	0100                	addi	s0,sp,128
     848:	5a00                	lw	s0,48(a2)
	...
     852:	0004                	0x4
     854:	9f5a01f3          	0x9f5a01f3
	...
     868:	0001                	nop
     86a:	005f 0000 0000      	0x5f
     870:	0000                	unimp
     872:	0200                	addi	s0,sp,256
     874:	7200                	flw	fs0,32(a2)
	...
     87e:	0100                	addi	s0,sp,128
     880:	5f00                	lw	s0,56(a4)
	...
     88a:	7c7e0003          	lb	zero,1991(t3)
     88e:	009f 0000 0000      	0x9f
     894:	0000                	unimp
     896:	0100                	addi	s0,sp,128
     898:	5e00                	lw	s0,56(a2)
	...
     8a2:	0002                	c.slli64	zero
     8a4:	0072                	c.slli	zero,0x1c
	...
     8ae:	0001                	nop
     8b0:	005f 0000 0000      	0x5f
     8b6:	0000                	unimp
     8b8:	0100                	addi	s0,sp,128
     8ba:	5e00                	lw	s0,56(a2)
	...
     8c4:	0002                	c.slli64	zero
     8c6:	0072                	c.slli	zero,0x1c
	...
     8d0:	0002                	c.slli64	zero
     8d2:	0072                	c.slli	zero,0x1c
	...
     8dc:	0001                	nop
     8de:	005f 0000 0000      	0x5f
     8e4:	0000                	unimp
     8e6:	0300                	addi	s0,sp,384
     8e8:	7f00                	flw	fs0,56(a4)
     8ea:	9f04                	0x9f04
	...
     8f4:	0001                	nop
     8f6:	005f 0000 0000      	0x5f
     8fc:	0000                	unimp
     8fe:	0100                	addi	s0,sp,128
     900:	5e00                	lw	s0,56(a2)
	...
     90a:	0002                	c.slli64	zero
     90c:	0072                	c.slli	zero,0x1c
	...
     916:	0001                	nop
     918:	005f 0000 0000      	0x5f
     91e:	0000                	unimp
     920:	0300                	addi	s0,sp,384
     922:	7e00                	flw	fs0,56(a2)
     924:	9f7c                	0x9f7c
	...
     92e:	0001                	nop
     930:	005e                	c.slli	zero,0x17
     932:	0000                	unimp
     934:	0000                	unimp
     936:	0000                	unimp
     938:	0200                	addi	s0,sp,256
     93a:	7200                	flw	fs0,32(a2)
	...
     94c:	0100                	addi	s0,sp,128
     94e:	5a00                	lw	s0,48(a2)
	...
     958:	0001                	nop
     95a:	0059                	c.nop	22
     95c:	0000                	unimp
     95e:	0000                	unimp
     960:	0000                	unimp
     962:	0100                	addi	s0,sp,128
     964:	5800                	lw	s0,48(s0)
	...
     96e:	0001                	nop
     970:	0058                	addi	a4,sp,4
     972:	0000                	unimp
     974:	0000                	unimp
     976:	0000                	unimp
     978:	0100                	addi	s0,sp,128
     97a:	5900                	lw	s0,48(a0)
	...
     984:	0001                	nop
     986:	0058                	addi	a4,sp,4
     988:	0000                	unimp
     98a:	0000                	unimp
     98c:	0000                	unimp
     98e:	0100                	addi	s0,sp,128
     990:	5e00                	lw	s0,56(a2)
	...
     99a:	0001                	nop
     99c:	0059                	c.nop	22
     99e:	0000                	unimp
     9a0:	0000                	unimp
     9a2:	0000                	unimp
     9a4:	0300                	addi	s0,sp,384
     9a6:	7900                	flw	fs0,48(a0)
     9a8:	9f7f                	0x9f7f
	...
     9b2:	0001                	nop
     9b4:	0059                	c.nop	22
     9b6:	0000                	unimp
     9b8:	0000                	unimp
     9ba:	0000                	unimp
     9bc:	0300                	addi	s0,sp,384
     9be:	7900                	flw	fs0,48(a0)
     9c0:	9f01                	0x9f01
	...
     9ca:	0001                	nop
     9cc:	0059                	c.nop	22
     9ce:	0000                	unimp
     9d0:	0000                	unimp
     9d2:	0000                	unimp
     9d4:	0100                	addi	s0,sp,128
     9d6:	5e00                	lw	s0,56(a2)
	...
     9e0:	0001                	nop
     9e2:	0059                	c.nop	22
	...
     9f0:	0000                	unimp
     9f2:	0200                	addi	s0,sp,256
     9f4:	3000                	fld	fs0,32(s0)
     9f6:	009f 0000 0000      	0x9f
     9fc:	0000                	unimp
     9fe:	0300                	addi	s0,sp,384
     a00:	9100                	0x9100
     a02:	7f9c                	flw	fa5,56(a5)
	...
     a0c:	9c720003          	lb	zero,-1593(tp) # fffff9c7 <__global_pointer$+0xdffff087>
     a10:	007f                	0x7f
     a12:	0000                	unimp
     a14:	0000                	unimp
     a16:	0000                	unimp
     a18:	0300                	addi	s0,sp,384
     a1a:	9100                	0x9100
     a1c:	7f9c                	flw	fa5,56(a5)
	...
     a26:	0001                	nop
     a28:	005f 0000 0000      	0x5f
     a2e:	0000                	unimp
     a30:	0300                	addi	s0,sp,384
     a32:	9100                	0x9100
     a34:	7f9c                	flw	fa5,56(a5)
	...
     a46:	0002                	c.slli64	zero
     a48:	9f31                	0x9f31
	...
     a52:	0001                	nop
     a54:	005a                	c.slli	zero,0x16
     a56:	0000                	unimp
     a58:	0000                	unimp
     a5a:	0000                	unimp
     a5c:	0200                	addi	s0,sp,256
     a5e:	3100                	fld	fs0,32(a0)
     a60:	009f 0000 0000      	0x9f
     a66:	0000                	unimp
     a68:	0100                	addi	s0,sp,128
     a6a:	5a00                	lw	s0,48(a2)
	...
     a74:	0001                	nop
     a76:	0000005b          	0x5b
     a7a:	0000                	unimp
     a7c:	0000                	unimp
     a7e:	0100                	addi	s0,sp,128
     a80:	5a00                	lw	s0,48(a2)
	...
     a8a:	0001                	nop
     a8c:	005a                	c.slli	zero,0x16
     a8e:	0000                	unimp
     a90:	0000                	unimp
     a92:	0000                	unimp
     a94:	0100                	addi	s0,sp,128
     a96:	5a00                	lw	s0,48(a2)
	...
     aa0:	0001                	nop
     aa2:	005a                	c.slli	zero,0x16
     aa4:	0000                	unimp
     aa6:	0000                	unimp
     aa8:	0000                	unimp
     aaa:	0100                	addi	s0,sp,128
     aac:	5a00                	lw	s0,48(a2)
	...
     ab6:	0001                	nop
     ab8:	0000005b          	0x5b
	...
     ac8:	0300                	addi	s0,sp,384
     aca:	0800                	addi	s0,sp,16
     acc:	9f20                	0x9f20
	...
     ad6:	0001                	nop
     ad8:	0058                	addi	a4,sp,4
     ada:	0000                	unimp
     adc:	0000                	unimp
     ade:	0000                	unimp
     ae0:	0300                	addi	s0,sp,384
     ae2:	0800                	addi	s0,sp,16
     ae4:	9f20                	0x9f20
	...
     aee:	0001                	nop
     af0:	0058                	addi	a4,sp,4
	...
     afe:	0000                	unimp
     b00:	0200                	addi	s0,sp,256
     b02:	3000                	fld	fs0,32(s0)
     b04:	009f 0000 0000      	0x9f
     b0a:	0000                	unimp
     b0c:	0100                	addi	s0,sp,128
     b0e:	5e00                	lw	s0,56(a2)
	...
     b18:	0001                	nop
     b1a:	005e                	c.slli	zero,0x17
     b1c:	0000                	unimp
     b1e:	0000                	unimp
     b20:	0000                	unimp
     b22:	0300                	addi	s0,sp,384
     b24:	9100                	0x9100
     b26:	7f98                	flw	fa4,56(a5)
	...
     b30:	0002                	c.slli64	zero
     b32:	9f30                	0x9f30
	...
     b3c:	98910003          	lb	zero,-1655(sp)
     b40:	007f                	0x7f
	...
     b4e:	0000                	unimp
     b50:	0200                	addi	s0,sp,256
     b52:	3000                	fld	fs0,32(s0)
     b54:	009f 0000 0000      	0x9f
     b5a:	0000                	unimp
     b5c:	0200                	addi	s0,sp,256
     b5e:	3100                	fld	fs0,32(a0)
     b60:	009f 0000 0000      	0x9f
     b66:	0000                	unimp
     b68:	0100                	addi	s0,sp,128
     b6a:	5c00                	lw	s0,56(s0)
	...
     b74:	0002                	c.slli64	zero
     b76:	9f30                	0x9f30
	...
     b80:	0001                	nop
     b82:	005c                	addi	a5,sp,4
     b84:	0000                	unimp
     b86:	0000                	unimp
     b88:	0000                	unimp
     b8a:	0100                	addi	s0,sp,128
     b8c:	5c00                	lw	s0,56(s0)
	...
     b96:	0001                	nop
     b98:	005c                	addi	a5,sp,4
     b9a:	0000                	unimp
     b9c:	0000                	unimp
     b9e:	0000                	unimp
     ba0:	0100                	addi	s0,sp,128
     ba2:	5c00                	lw	s0,56(s0)
	...
     bb4:	48910003          	lb	zero,1161(sp)
     bb8:	009f 0000 0000      	0x9f
     bbe:	0000                	unimp
     bc0:	0100                	addi	s0,sp,128
     bc2:	5e00                	lw	s0,56(a2)
	...
     bd4:	000c                	0xc
     bd6:	007d                	c.nop	31
     bd8:	ff08                	fsw	fa0,56(a4)
     bda:	081a                	slli	a6,a6,0x6
     bdc:	2975                	jal	1098 <ch32v003fun.c.8affbd33+0x216>
     bde:	ff08                	fsw	fa0,56(a4)
     be0:	9f1a                	add	t5,t5,t1
	...
     bf2:	0002                	c.slli64	zero
     bf4:	9f30                	0x9f30
	...
     c06:	0002                	c.slli64	zero
     c08:	9f3a                	add	t5,t5,a4
	...
     c1a:	0002                	c.slli64	zero
     c1c:	007f                	0x7f
	...
     c2e:	48910003          	lb	zero,1161(sp)
     c32:	009f 0000 0000      	0x9f
     c38:	0000                	unimp
     c3a:	0100                	addi	s0,sp,128
     c3c:	5e00                	lw	s0,56(a2)
	...
     c4e:	0002                	c.slli64	zero
     c50:	9f30                	0x9f30
	...
     c62:	0002                	c.slli64	zero
     c64:	9f3a                	add	t5,t5,a4
	...
     c76:	48910003          	lb	zero,1161(sp)
     c7a:	009f 0000 0000      	0x9f
     c80:	0000                	unimp
     c82:	0100                	addi	s0,sp,128
     c84:	5e00                	lw	s0,56(a2)
	...
     c96:	0002                	c.slli64	zero
     c98:	9f31                	0x9f31
	...
     caa:	0002                	c.slli64	zero
     cac:	9f30                	0x9f30
	...
     cbe:	0002                	c.slli64	zero
     cc0:	9f3a                	add	t5,t5,a4
	...
     cd2:	0002                	c.slli64	zero
     cd4:	007f                	0x7f
	...
     ce6:	48910003          	lb	zero,1161(sp)
     cea:	009f 0000 0000      	0x9f
     cf0:	0000                	unimp
     cf2:	0100                	addi	s0,sp,128
     cf4:	5e00                	lw	s0,56(a2)
	...
     cfe:	48910003          	lb	zero,1161(sp)
     d02:	009f 0000 0000      	0x9f
	...
     d10:	0000                	unimp
     d12:	0200                	addi	s0,sp,256
     d14:	3100                	fld	fs0,32(a0)
     d16:	009f 0000 0000      	0x9f
	...
     d24:	0000                	unimp
     d26:	0c00                	addi	s0,sp,528
     d28:	7d00                	flw	fs0,56(a0)
     d2a:	0800                	addi	s0,sp,16
     d2c:	1aff                	0x1aff
     d2e:	5808                	lw	a0,48(s0)
     d30:	0829                	addi	a6,a6,10
     d32:	1aff                	0x1aff
     d34:	009f 0000 0000      	0x9f
     d3a:	0000                	unimp
     d3c:	0c00                	addi	s0,sp,528
     d3e:	9100                	0x9100
     d40:	01947fab          	0x1947fab
     d44:	5808                	lw	a0,48(s0)
     d46:	0829                	addi	a6,a6,10
     d48:	1aff                	0x1aff
     d4a:	009f 0000 0000      	0x9f
	...
     d58:	0000                	unimp
     d5a:	0200                	addi	s0,sp,256
     d5c:	4000                	lw	s0,0(s0)
     d5e:	009f 0000 0000      	0x9f
	...
     d6c:	0000                	unimp
     d6e:	0100                	addi	s0,sp,128
     d70:	5a00                	lw	s0,48(a2)
	...
     d82:	48910003          	lb	zero,1161(sp)
     d86:	009f 0000 0000      	0x9f
     d8c:	0000                	unimp
     d8e:	0100                	addi	s0,sp,128
     d90:	5e00                	lw	s0,56(a2)
	...
     d9a:	48910003          	lb	zero,1161(sp)
     d9e:	009f 0000 0000      	0x9f
	...
     dac:	0000                	unimp
     dae:	0200                	addi	s0,sp,256
     db0:	3000                	fld	fs0,32(s0)
     db2:	009f 0000 0000      	0x9f
	...
     dc0:	0000                	unimp
     dc2:	0100                	addi	s0,sp,128
     dc4:	5c00                	lw	s0,56(s0)
	...
     dce:	0004                	0x4
     dd0:	9f5c01f3          	0x9f5c01f3
	...
     ddc:	000a                	c.slli	zero,0x2
     dde:	007a                	c.slli	zero,0x1e
     de0:	007f                	0x7f
     de2:	f31c                	fsw	fa5,32(a4)
     de4:	5c01                	li	s8,-32
     de6:	9f22                	add	t5,t5,s0
	...
     df0:	007f000b          	0x7f000b
     df4:	f320                	fsw	fs0,96(a4)
     df6:	5c01                	li	s8,-32
     df8:	7a22                	flw	fs4,40(sp)
     dfa:	2200                	fld	fs0,0(a2)
     dfc:	009f 0000 0000      	0x9f
     e02:	0000                	unimp
     e04:	0a00                	addi	s0,sp,272
     e06:	7a00                	flw	fs0,48(a2)
     e08:	7f00                	flw	fs0,56(a4)
     e0a:	1c00                	addi	s0,sp,560
     e0c:	225c01f3          	0x225c01f3
     e10:	009f 0000 0000      	0x9f
	...
     e1e:	0000                	unimp
     e20:	0100                	addi	s0,sp,128
     e22:	5a00                	lw	s0,48(a2)
	...
     e2c:	0001                	nop
     e2e:	005f 0000 0000      	0x5f
	...
     e3c:	0000                	unimp
     e3e:	0100                	addi	s0,sp,128
     e40:	5a00                	lw	s0,48(a2)
	...
     e4a:	0001                	nop
     e4c:	005a                	c.slli	zero,0x16
	...
     e5a:	0000                	unimp
     e5c:	0100                	addi	s0,sp,128
     e5e:	5b00                	lw	s0,48(a4)
	...
     e68:	0001                	nop
     e6a:	0000005b          	0x5b
	...
     e7a:	0100                	addi	s0,sp,128
     e7c:	5a00                	lw	s0,48(a2)
	...
     e86:	0001                	nop
     e88:	005a                	c.slli	zero,0x16
	...
     e96:	0000                	unimp
     e98:	0100                	addi	s0,sp,128
     e9a:	5b00                	lw	s0,48(a4)
	...
     ea4:	0001                	nop
     ea6:	0000005b          	0x5b
	...
     eb6:	0100                	addi	s0,sp,128
     eb8:	5c00                	lw	s0,56(s0)
	...
     ec2:	0004                	0x4
     ec4:	9f5c01f3          	0x9f5c01f3
	...
     ed0:	0006                	c.slli	zero,0x1
     ed2:	315c01f3          	0x315c01f3
     ed6:	9f1c                	0x9f1c
	...
     ee8:	0001                	nop
     eea:	005a                	c.slli	zero,0x16
     eec:	0000                	unimp
     eee:	0000                	unimp
     ef0:	0000                	unimp
     ef2:	0100                	addi	s0,sp,128
     ef4:	5a00                	lw	s0,48(a2)
	...
     f06:	0001                	nop
     f08:	0000005b          	0x5b
     f0c:	0000                	unimp
     f0e:	0000                	unimp
     f10:	0100                	addi	s0,sp,128
     f12:	5b00                	lw	s0,48(a4)
	...
     f24:	0001                	nop
     f26:	005a                	c.slli	zero,0x16
     f28:	0000                	unimp
     f2a:	0000                	unimp
     f2c:	0000                	unimp
     f2e:	0400                	addi	s0,sp,512
     f30:	f300                	fsw	fs0,32(a4)
     f32:	5a01                	li	s4,-32
     f34:	009f 0000 0000      	0x9f
     f3a:	0000                	unimp
     f3c:	0100                	addi	s0,sp,128
     f3e:	5a00                	lw	s0,48(a2)
	...
     f48:	0004                	0x4
     f4a:	9f5a01f3          	0x9f5a01f3
	...
     f5e:	0001                	nop
     f60:	005c                	addi	a5,sp,4
     f62:	0000                	unimp
     f64:	0000                	unimp
     f66:	0000                	unimp
     f68:	0300                	addi	s0,sp,384
     f6a:	7c00                	flw	fs0,56(s0)
     f6c:	9f7f                	0x9f7f
	...
     f76:	0001                	nop
     f78:	005c                	addi	a5,sp,4
     f7a:	0000                	unimp
     f7c:	0000                	unimp
     f7e:	0000                	unimp
     f80:	0600                	addi	s0,sp,768
     f82:	7c00                	flw	fs0,56(s0)
     f84:	7e00                	flw	fs0,56(a2)
     f86:	1c00                	addi	s0,sp,560
     f88:	009f 0000 0000      	0x9f
     f8e:	0000                	unimp
     f90:	0800                	addi	s0,sp,16
     f92:	7c00                	flw	fs0,56(s0)
     f94:	7e00                	flw	fs0,56(a2)
     f96:	1c00                	addi	s0,sp,560
     f98:	009f0123          	sb	s1,2(t5)
     f9c:	0000                	unimp
     f9e:	0000                	unimp
     fa0:	0000                	unimp
     fa2:	0300                	addi	s0,sp,384
     fa4:	7c00                	flw	fs0,56(s0)
     fa6:	9f7f                	0x9f7f
	...
     fb8:	0001                	nop
     fba:	005a                	c.slli	zero,0x16
     fbc:	0000                	unimp
     fbe:	0000                	unimp
     fc0:	0000                	unimp
     fc2:	0600                	addi	s0,sp,768
     fc4:	7a00                	flw	fs0,48(a2)
     fc6:	7e00                	flw	fs0,56(a2)
     fc8:	2200                	fld	fs0,0(a2)
     fca:	009f 0000 0000      	0x9f
     fd0:	0000                	unimp
     fd2:	0100                	addi	s0,sp,128
     fd4:	5f00                	lw	s0,56(a4)
	...
     fde:	0006                	c.slli	zero,0x1
     fe0:	007a                	c.slli	zero,0x1e
     fe2:	007e                	c.slli	zero,0x1f
     fe4:	9f22                	add	t5,t5,s0
	...
     fee:	0008                	0x8
     ff0:	007a                	c.slli	zero,0x1e
     ff2:	007e                	c.slli	zero,0x1f
     ff4:	3122                	fld	ft2,40(sp)
     ff6:	9f1c                	0x9f1c
	...
    1000:	0001                	nop
    1002:	005a                	c.slli	zero,0x16
    1004:	0000                	unimp
    1006:	0000                	unimp
    1008:	0000                	unimp
    100a:	0400                	addi	s0,sp,512
    100c:	f300                	fsw	fs0,32(a4)
    100e:	5a01                	li	s4,-32
    1010:	009f 0000 0000      	0x9f
	...
    101e:	0000                	unimp
    1020:	0100                	addi	s0,sp,128
    1022:	5b00                	lw	s0,48(a4)
	...
    102c:	0006                	c.slli	zero,0x1
    102e:	007e007b          	0x7e007b
    1032:	9f22                	add	t5,t5,s0
	...
    103c:	0001                	nop
    103e:	005d                	c.nop	23
    1040:	0000                	unimp
    1042:	0000                	unimp
    1044:	0000                	unimp
    1046:	0600                	addi	s0,sp,768
    1048:	7b00                	flw	fs0,48(a4)
    104a:	7e00                	flw	fs0,56(a2)
    104c:	2200                	fld	fs0,0(a2)
    104e:	009f 0000 0000      	0x9f
    1054:	0000                	unimp
    1056:	0800                	addi	s0,sp,16
    1058:	7b00                	flw	fs0,48(a4)
    105a:	7e00                	flw	fs0,56(a2)
    105c:	2200                	fld	fs0,0(a2)
    105e:	1c31                	addi	s8,s8,-20
    1060:	009f 0000 0000      	0x9f
    1066:	0000                	unimp
    1068:	0100                	addi	s0,sp,128
    106a:	5b00                	lw	s0,48(a4)
	...
    107c:	0001                	nop
    107e:	005a                	c.slli	zero,0x16
    1080:	0000                	unimp
    1082:	0000                	unimp
    1084:	0000                	unimp
    1086:	0100                	addi	s0,sp,128
    1088:	5800                	lw	s0,48(s0)
	...
    1092:	0001                	nop
    1094:	0058                	addi	a4,sp,4
	...
    10a2:	0000                	unimp
    10a4:	0100                	addi	s0,sp,128
    10a6:	5b00                	lw	s0,48(a4)
	...
    10b0:	0004                	0x4
    10b2:	9f5b01f3          	0x9f5b01f3
	...
    10be:	0001                	nop
    10c0:	0000005b          	0x5b
    10c4:	0000                	unimp
    10c6:	0000                	unimp
    10c8:	0700                	addi	s0,sp,896
    10ca:	f300                	fsw	fs0,32(a4)
    10cc:	5b01                	li	s6,-32
    10ce:	ff08                	fsw	fa0,56(a4)
    10d0:	9f1a                	add	t5,t5,t1
	...
    10da:	0001                	nop
    10dc:	0000005b          	0x5b
	...
    10ec:	0100                	addi	s0,sp,128
    10ee:	5a00                	lw	s0,48(a2)
	...
    10f8:	0001                	nop
    10fa:	0058                	addi	a4,sp,4
	...
    1108:	0000                	unimp
    110a:	0100                	addi	s0,sp,128
    110c:	5a00                	lw	s0,48(a2)
	...
    1116:	0001                	nop
    1118:	0058                	addi	a4,sp,4
    111a:	0000                	unimp
    111c:	0000                	unimp
    111e:	0000                	unimp
    1120:	0300                	addi	s0,sp,384
    1122:	7800                	flw	fs0,48(s0)
    1124:	9f01                	0x9f01
	...
    112e:	0004                	0x4
    1130:	9f5a01f3          	0x9f5a01f3
	...
    1144:	0001                	nop
    1146:	0000005b          	0x5b
    114a:	0000                	unimp
    114c:	0000                	unimp
    114e:	0100                	addi	s0,sp,128
    1150:	5900                	lw	s0,48(a0)
	...
    115a:	0004                	0x4
    115c:	9f5b01f3          	0x9f5b01f3
	...
    1170:	017a0003          	lb	zero,23(s4)
    1174:	009f 0000 0000      	0x9f
    117a:	0000                	unimp
    117c:	0700                	addi	s0,sp,896
    117e:	7800                	flw	fs0,48(s0)
    1180:	2000                	fld	fs0,0(s0)
    1182:	007f                	0x7f
    1184:	9f22                	add	t5,t5,s0
	...
    118e:	00780007          	0x780007
    1192:	7f20                	flw	fs0,120(a4)
    1194:	2200                	fld	fs0,0(a2)
    1196:	009f 0000 0000      	0x9f
    119c:	0000                	unimp
    119e:	0700                	addi	s0,sp,896
    11a0:	7800                	flw	fs0,48(s0)
    11a2:	2000                	fld	fs0,0(s0)
    11a4:	007a                	c.slli	zero,0x1e
    11a6:	9f22                	add	t5,t5,s0
	...
    11b8:	0001                	nop
    11ba:	0059                	c.nop	22
    11bc:	0000                	unimp
    11be:	0000                	unimp
    11c0:	0000                	unimp
    11c2:	0100                	addi	s0,sp,128
    11c4:	5900                	lw	s0,48(a0)
	...
    11d6:	0001                	nop
    11d8:	0058                	addi	a4,sp,4
    11da:	0000                	unimp
    11dc:	0000                	unimp
    11de:	0000                	unimp
    11e0:	0300                	addi	s0,sp,384
    11e2:	7800                	flw	fs0,48(s0)
    11e4:	9f01                	0x9f01
	...
    11ee:	01780003          	lb	zero,23(a6) # 590b516f <__global_pointer$+0x390b482f>
    11f2:	009f 0000 0000      	0x9f
	...
    1200:	0000                	unimp
    1202:	0100                	addi	s0,sp,128
    1204:	5800                	lw	s0,48(s0)
	...
    120e:	01780003          	lb	zero,23(a6)
    1212:	009f 0000 0000      	0x9f
    1218:	0000                	unimp
    121a:	0400                	addi	s0,sp,512
    121c:	f300                	fsw	fs0,32(a4)
    121e:	5a01                	li	s4,-32
    1220:	009f 0000 0000      	0x9f
	...
    122e:	0000                	unimp
    1230:	0100                	addi	s0,sp,128
    1232:	5c00                	lw	s0,56(s0)
	...
    123c:	0006                	c.slli	zero,0x1
    123e:	007c                	addi	a5,sp,12
    1240:	007f                	0x7f
    1242:	9f1c                	0x9f1c
	...
    124c:	0008                	0x8
    124e:	007c                	addi	a5,sp,12
    1250:	007f                	0x7f
    1252:	231c                	fld	fa5,0(a4)
    1254:	9f01                	0x9f01
	...
    1266:	0001                	nop
    1268:	005a                	c.slli	zero,0x16
    126a:	0000                	unimp
    126c:	0000                	unimp
    126e:	0000                	unimp
    1270:	0600                	addi	s0,sp,768
    1272:	7a00                	flw	fs0,48(a2)
    1274:	7f00                	flw	fs0,56(a4)
    1276:	2200                	fld	fs0,0(a2)
    1278:	009f 0000 0000      	0x9f
    127e:	0000                	unimp
    1280:	0800                	addi	s0,sp,16
    1282:	7a00                	flw	fs0,48(a2)
    1284:	7f00                	flw	fs0,56(a4)
    1286:	2200                	fld	fs0,0(a2)
    1288:	009f0123          	sb	s1,2(t5)
    128c:	0000                	unimp
    128e:	0000                	unimp
    1290:	0000                	unimp
    1292:	0600                	addi	s0,sp,768
    1294:	7a00                	flw	fs0,48(a2)
    1296:	7f00                	flw	fs0,56(a4)
    1298:	2200                	fld	fs0,0(a2)
    129a:	009f 0000 0000      	0x9f
	...
    12a8:	0000                	unimp
    12aa:	0100                	addi	s0,sp,128
    12ac:	5b00                	lw	s0,48(a4)
	...
    12b6:	0006                	c.slli	zero,0x1
    12b8:	007f007b          	0x7f007b
    12bc:	9f22                	add	t5,t5,s0
	...
    12c6:	0008                	0x8
    12c8:	007f007b          	0x7f007b
    12cc:	2322                	fld	ft6,8(sp)
    12ce:	9f01                	0x9f01
	...
    12d8:	0006                	c.slli	zero,0x1
    12da:	007f007b          	0x7f007b
    12de:	9f22                	add	t5,t5,s0
	...
    12f0:	0001                	nop
    12f2:	005a                	c.slli	zero,0x16
    12f4:	0000                	unimp
    12f6:	0000                	unimp
    12f8:	0000                	unimp
    12fa:	0400                	addi	s0,sp,512
    12fc:	f300                	fsw	fs0,32(a4)
    12fe:	5a01                	li	s4,-32
    1300:	009f 0000 0000      	0x9f
    1306:	0000                	unimp
    1308:	0100                	addi	s0,sp,128
    130a:	5a00                	lw	s0,48(a2)
	...
    1314:	0004                	0x4
    1316:	9f5a01f3          	0x9f5a01f3
	...
    132a:	0001                	nop
    132c:	005c                	addi	a5,sp,4
    132e:	0000                	unimp
    1330:	0000                	unimp
    1332:	0000                	unimp
    1334:	0600                	addi	s0,sp,768
    1336:	7c00                	flw	fs0,56(s0)
    1338:	7e00                	flw	fs0,56(a2)
    133a:	1c00                	addi	s0,sp,560
    133c:	009f 0000 0000      	0x9f
    1342:	0000                	unimp
    1344:	0800                	addi	s0,sp,16
    1346:	7c00                	flw	fs0,56(s0)
    1348:	7e00                	flw	fs0,56(a2)
    134a:	1c00                	addi	s0,sp,560
    134c:	009f0123          	sb	s1,2(t5)
    1350:	0000                	unimp
    1352:	0000                	unimp
    1354:	0000                	unimp
    1356:	0600                	addi	s0,sp,768
    1358:	7c00                	flw	fs0,56(s0)
    135a:	7e00                	flw	fs0,56(a2)
    135c:	1c00                	addi	s0,sp,560
    135e:	009f 0000 0000      	0x9f
	...
    136c:	0000                	unimp
    136e:	0100                	addi	s0,sp,128
    1370:	5a00                	lw	s0,48(a2)
	...
    137a:	0006                	c.slli	zero,0x1
    137c:	007a                	c.slli	zero,0x1e
    137e:	007e                	c.slli	zero,0x1f
    1380:	9f22                	add	t5,t5,s0
	...
    138a:	0001                	nop
    138c:	005f 0000 0000      	0x5f
    1392:	0000                	unimp
    1394:	0800                	addi	s0,sp,16
    1396:	7a00                	flw	fs0,48(a2)
    1398:	7e00                	flw	fs0,56(a2)
    139a:	2200                	fld	fs0,0(a2)
    139c:	1c31                	addi	s8,s8,-20
    139e:	009f 0000 0000      	0x9f
    13a4:	0000                	unimp
    13a6:	0900                	addi	s0,sp,144
    13a8:	7e00                	flw	fs0,56(a2)
    13aa:	f300                	fsw	fs0,32(a4)
    13ac:	5a01                	li	s4,-32
    13ae:	3122                	fld	ft2,40(sp)
    13b0:	9f1c                	0x9f1c
	...
    13ba:	0006                	c.slli	zero,0x1
    13bc:	007a                	c.slli	zero,0x1e
    13be:	007e                	c.slli	zero,0x1f
    13c0:	9f22                	add	t5,t5,s0
	...
    13ca:	01f30007          	0x1f30007
    13ce:	7e5a                	flw	ft8,180(sp)
    13d0:	2200                	fld	fs0,0(a2)
    13d2:	009f 0000 0000      	0x9f
	...
    13e0:	0000                	unimp
    13e2:	0100                	addi	s0,sp,128
    13e4:	5b00                	lw	s0,48(a4)
	...
    13ee:	0006                	c.slli	zero,0x1
    13f0:	007e007b          	0x7e007b
    13f4:	9f22                	add	t5,t5,s0
	...
    13fe:	0008                	0x8
    1400:	007e007b          	0x7e007b
    1404:	3122                	fld	ft2,40(sp)
    1406:	9f1c                	0x9f1c
	...
    1410:	0006                	c.slli	zero,0x1
    1412:	007e007b          	0x7e007b
    1416:	9f22                	add	t5,t5,s0
	...
    1428:	0001                	nop
    142a:	005a                	c.slli	zero,0x16
    142c:	0000                	unimp
    142e:	0000                	unimp
    1430:	0000                	unimp
    1432:	0400                	addi	s0,sp,512
    1434:	f300                	fsw	fs0,32(a4)
    1436:	5a01                	li	s4,-32
    1438:	009f 0000 0000      	0x9f
    143e:	0000                	unimp
    1440:	0100                	addi	s0,sp,128
    1442:	5a00                	lw	s0,48(a2)
	...
    144c:	0001                	nop
    144e:	005d                	c.nop	23
    1450:	0000                	unimp
    1452:	0000                	unimp
    1454:	0000                	unimp
    1456:	0100                	addi	s0,sp,128
    1458:	5a00                	lw	s0,48(a2)
	...
    146a:	0001                	nop
    146c:	0000005b          	0x5b
    1470:	0000                	unimp
    1472:	0000                	unimp
    1474:	0400                	addi	s0,sp,512
    1476:	f300                	fsw	fs0,32(a4)
    1478:	5b01                	li	s6,-32
    147a:	009f 0000 0000      	0x9f
    1480:	0000                	unimp
    1482:	0100                	addi	s0,sp,128
    1484:	5b00                	lw	s0,48(a4)
	...
    148e:	0001                	nop
    1490:	005e                	c.slli	zero,0x17
    1492:	0000                	unimp
    1494:	0000                	unimp
    1496:	0000                	unimp
    1498:	0400                	addi	s0,sp,512
    149a:	f300                	fsw	fs0,32(a4)
    149c:	5b01                	li	s6,-32
    149e:	009f 0000 0000      	0x9f
    14a4:	0000                	unimp
    14a6:	0100                	addi	s0,sp,128
    14a8:	5b00                	lw	s0,48(a4)
	...
    14ba:	0001                	nop
    14bc:	005c                	addi	a5,sp,4
    14be:	0000                	unimp
    14c0:	0000                	unimp
    14c2:	0000                	unimp
    14c4:	0400                	addi	s0,sp,512
    14c6:	f300                	fsw	fs0,32(a4)
    14c8:	5c01                	li	s8,-32
    14ca:	009f 0000 0000      	0x9f
    14d0:	0000                	unimp
    14d2:	0100                	addi	s0,sp,128
    14d4:	5c00                	lw	s0,56(s0)
	...
    14de:	0004                	0x4
    14e0:	9f5c01f3          	0x9f5c01f3
	...
    14ec:	0001                	nop
    14ee:	005f 0000 0000      	0x5f
    14f4:	0000                	unimp
    14f6:	0400                	addi	s0,sp,512
    14f8:	f300                	fsw	fs0,32(a4)
    14fa:	5c01                	li	s8,-32
    14fc:	009f 0000 0000      	0x9f
    1502:	0000                	unimp
    1504:	0100                	addi	s0,sp,128
    1506:	5c00                	lw	s0,56(s0)
	...
    1510:	0001                	nop
    1512:	005f 0000 0000      	0x5f
	...
    1520:	0000                	unimp
    1522:	0100                	addi	s0,sp,128
    1524:	5a00                	lw	s0,48(a2)
	...
    152e:	0004                	0x4
    1530:	9f5a01f3          	0x9f5a01f3
	...
    153c:	0001                	nop
    153e:	005a                	c.slli	zero,0x16
    1540:	0000                	unimp
    1542:	0000                	unimp
    1544:	0000                	unimp
    1546:	0100                	addi	s0,sp,128
    1548:	5d00                	lw	s0,56(a0)
	...
    1552:	0001                	nop
    1554:	005a                	c.slli	zero,0x16
	...
    1562:	0000                	unimp
    1564:	0100                	addi	s0,sp,128
    1566:	5b00                	lw	s0,48(a4)
	...
    1570:	0004                	0x4
    1572:	9f5b01f3          	0x9f5b01f3
	...
    157e:	0001                	nop
    1580:	0000005b          	0x5b
    1584:	0000                	unimp
    1586:	0000                	unimp
    1588:	0100                	addi	s0,sp,128
    158a:	5e00                	lw	s0,56(a2)
	...
    1594:	0004                	0x4
    1596:	9f5b01f3          	0x9f5b01f3
	...
    15a2:	0001                	nop
    15a4:	0000005b          	0x5b
	...
    15b4:	0100                	addi	s0,sp,128
    15b6:	5c00                	lw	s0,56(s0)
	...
    15c0:	0001                	nop
    15c2:	005f 0000 0000      	0x5f
    15c8:	0000                	unimp
    15ca:	0600                	addi	s0,sp,768
    15cc:	7f00                	flw	fs0,56(a4)
    15ce:	7c00                	flw	fs0,56(s0)
    15d0:	1c00                	addi	s0,sp,560
    15d2:	009f 0000 0000      	0x9f
    15d8:	0000                	unimp
    15da:	0800                	addi	s0,sp,16
    15dc:	7f00                	flw	fs0,56(a4)
    15de:	7c00                	flw	fs0,56(s0)
    15e0:	1c00                	addi	s0,sp,560
    15e2:	009f0123          	sb	s1,2(t5)
    15e6:	0000                	unimp
    15e8:	0000                	unimp
    15ea:	0000                	unimp
    15ec:	0600                	addi	s0,sp,768
    15ee:	7f00                	flw	fs0,56(a4)
    15f0:	7c00                	flw	fs0,56(s0)
    15f2:	1c00                	addi	s0,sp,560
    15f4:	009f 0000 0000      	0x9f
    15fa:	0000                	unimp
    15fc:	0100                	addi	s0,sp,128
    15fe:	5c00                	lw	s0,56(s0)
	...
    1608:	0001                	nop
    160a:	005f 0000 0000      	0x5f
	...
    1618:	0000                	unimp
    161a:	0100                	addi	s0,sp,128
    161c:	5b00                	lw	s0,48(a4)
	...
    1626:	0001                	nop
    1628:	005e                	c.slli	zero,0x17
    162a:	0000                	unimp
    162c:	0000                	unimp
    162e:	0000                	unimp
    1630:	0100                	addi	s0,sp,128
    1632:	5b00                	lw	s0,48(a4)
	...
    1644:	0001                	nop
    1646:	005a                	c.slli	zero,0x16
    1648:	0000                	unimp
    164a:	0000                	unimp
    164c:	0000                	unimp
    164e:	0100                	addi	s0,sp,128
    1650:	5d00                	lw	s0,56(a0)
	...
    165a:	0001                	nop
    165c:	005a                	c.slli	zero,0x16
	...
    166a:	0000                	unimp
    166c:	0800                	addi	s0,sp,16
    166e:	7d00                	flw	fs0,56(a0)
    1670:	7c00                	flw	fs0,56(s0)
    1672:	2200                	fld	fs0,0(a2)
    1674:	009f0123          	sb	s1,2(t5)
    1678:	0000                	unimp
    167a:	0000                	unimp
    167c:	0000                	unimp
    167e:	0600                	addi	s0,sp,768
    1680:	7d00                	flw	fs0,56(a0)
    1682:	7c00                	flw	fs0,56(s0)
    1684:	2200                	fld	fs0,0(a2)
    1686:	009f 0000 0000      	0x9f
	...
    1694:	0000                	unimp
    1696:	0800                	addi	s0,sp,16
    1698:	7e00                	flw	fs0,56(a2)
    169a:	7c00                	flw	fs0,56(s0)
    169c:	2200                	fld	fs0,0(a2)
    169e:	009f0123          	sb	s1,2(t5)
    16a2:	0000                	unimp
    16a4:	0000                	unimp
    16a6:	0000                	unimp
    16a8:	0600                	addi	s0,sp,768
    16aa:	7e00                	flw	fs0,56(a2)
    16ac:	7c00                	flw	fs0,56(s0)
    16ae:	2200                	fld	fs0,0(a2)
    16b0:	009f 0000 0000      	0x9f
	...
    16be:	0000                	unimp
    16c0:	0100                	addi	s0,sp,128
    16c2:	5a00                	lw	s0,48(a2)
	...
    16cc:	0004                	0x4
    16ce:	9f5a01f3          	0x9f5a01f3
	...
    16e2:	0001                	nop
    16e4:	0000005b          	0x5b
    16e8:	0000                	unimp
    16ea:	0000                	unimp
    16ec:	0100                	addi	s0,sp,128
    16ee:	5b00                	lw	s0,48(a4)
	...
    1700:	0001                	nop
    1702:	005c                	addi	a5,sp,4
    1704:	0000                	unimp
    1706:	0000                	unimp
    1708:	0000                	unimp
    170a:	0400                	addi	s0,sp,512
    170c:	f300                	fsw	fs0,32(a4)
    170e:	5c01                	li	s8,-32
    1710:	009f 0000 0000      	0x9f
	...
    171e:	0000                	unimp
    1720:	0100                	addi	s0,sp,128
    1722:	5a00                	lw	s0,48(a2)
	...
    1734:	0001                	nop
    1736:	005a                	c.slli	zero,0x16
    1738:	0000                	unimp
    173a:	0000                	unimp
    173c:	0000                	unimp
    173e:	0100                	addi	s0,sp,128
    1740:	5900                	lw	s0,48(a0)
	...
    174a:	0004                	0x4
    174c:	9f5a01f3          	0x9f5a01f3
	...
    1760:	0001                	nop
    1762:	0000005b          	0x5b
    1766:	0000                	unimp
    1768:	0000                	unimp
    176a:	0100                	addi	s0,sp,128
    176c:	5800                	lw	s0,48(s0)
	...
    1776:	0004                	0x4
    1778:	9f5b01f3          	0x9f5b01f3
	...
    178c:	0001                	nop
    178e:	005a                	c.slli	zero,0x16
	...
    179c:	0000                	unimp
    179e:	0100                	addi	s0,sp,128
    17a0:	5a00                	lw	s0,48(a2)
	...
    17aa:	b8910003          	lb	zero,-1143(sp)
    17ae:	00000077          	0x77
    17b2:	0000                	unimp
    17b4:	0000                	unimp
    17b6:	0300                	addi	s0,sp,384
    17b8:	9100                	0x9100
    17ba:	77b8                	flw	fa4,104(a5)
	...
    17c4:	0004                	0x4
    17c6:	9f5a01f3          	0x9f5a01f3
	...
    17d2:	0001                	nop
    17d4:	0058                	addi	a4,sp,4
    17d6:	0000                	unimp
    17d8:	0000                	unimp
    17da:	0000                	unimp
    17dc:	0300                	addi	s0,sp,384
    17de:	9100                	0x9100
    17e0:	77b8                	flw	fa4,104(a5)
	...
    17ea:	0001                	nop
    17ec:	0058                	addi	a4,sp,4
    17ee:	0000                	unimp
    17f0:	0000                	unimp
    17f2:	0000                	unimp
    17f4:	0100                	addi	s0,sp,128
    17f6:	5700                	lw	s0,40(a4)
	...
    1800:	0001                	nop
    1802:	0058                	addi	a4,sp,4
	...
    1810:	0000                	unimp
    1812:	0100                	addi	s0,sp,128
    1814:	5b00                	lw	s0,48(a4)
	...
    181e:	0002                	c.slli64	zero
    1820:	0072                	c.slli	zero,0x1c
	...
    182a:	0004                	0x4
    182c:	9f5b01f3          	0x9f5b01f3
	...
    1838:	0002                	c.slli64	zero
    183a:	0072                	c.slli	zero,0x1c
	...
    1844:	0004                	0x4
    1846:	9f5b01f3          	0x9f5b01f3
	...
    1852:	0002                	c.slli64	zero
    1854:	0072                	c.slli	zero,0x1c
	...
    185e:	0004                	0x4
    1860:	9f5b01f3          	0x9f5b01f3
	...
    1874:	0001                	nop
    1876:	0056                	c.slli	zero,0x15
    1878:	0000                	unimp
    187a:	0000                	unimp
    187c:	0000                	unimp
    187e:	0300                	addi	s0,sp,384
    1880:	9100                	0x9100
    1882:	77c0                	flw	fs0,44(a5)
	...
    188c:	0001                	nop
    188e:	005a                	c.slli	zero,0x16
    1890:	0000                	unimp
    1892:	0000                	unimp
    1894:	0000                	unimp
    1896:	0100                	addi	s0,sp,128
    1898:	5600                	lw	s0,40(a2)
	...
    18a2:	0001                	nop
    18a4:	0056                	c.slli	zero,0x15
	...
    18b2:	0000                	unimp
    18b4:	0200                	addi	s0,sp,256
    18b6:	3000                	fld	fs0,32(s0)
    18b8:	009f 0000 0000      	0x9f
    18be:	0000                	unimp
    18c0:	0100                	addi	s0,sp,128
    18c2:	5900                	lw	s0,48(a0)
	...
    18cc:	0001                	nop
    18ce:	0059                	c.nop	22
    18d0:	0000                	unimp
    18d2:	0000                	unimp
    18d4:	0000                	unimp
    18d6:	0300                	addi	s0,sp,384
    18d8:	7900                	flw	fs0,48(a0)
    18da:	9f7f                	0x9f7f
	...
    18e4:	0001                	nop
    18e6:	0059                	c.nop	22
	...
    18f4:	0000                	unimp
    18f6:	0100                	addi	s0,sp,128
    18f8:	5b00                	lw	s0,48(a4)
	...
    1902:	0001                	nop
    1904:	005d                	c.nop	23
    1906:	0000                	unimp
    1908:	0000                	unimp
    190a:	0000                	unimp
    190c:	0300                	addi	s0,sp,384
    190e:	7c00                	flw	fs0,56(s0)
    1910:	9f7f                	0x9f7f
	...
    191a:	0001                	nop
    191c:	0000005b          	0x5b
    1920:	0000                	unimp
    1922:	0000                	unimp
    1924:	0100                	addi	s0,sp,128
    1926:	5500                	lw	s0,40(a0)
	...
    1930:	0001                	nop
    1932:	005d                	c.nop	23
    1934:	0000                	unimp
    1936:	0000                	unimp
    1938:	0000                	unimp
    193a:	0100                	addi	s0,sp,128
    193c:	5800                	lw	s0,48(s0)
	...
    194e:	0001                	nop
    1950:	0055                	c.nop	21
    1952:	0000                	unimp
    1954:	0000                	unimp
    1956:	0000                	unimp
    1958:	0100                	addi	s0,sp,128
    195a:	5500                	lw	s0,40(a0)
	...
    1964:	0001                	nop
    1966:	0055                	c.nop	21
    1968:	0000                	unimp
    196a:	0000                	unimp
    196c:	0000                	unimp
    196e:	0100                	addi	s0,sp,128
    1970:	5800                	lw	s0,48(s0)
	...
    197a:	0001                	nop
    197c:	0055                	c.nop	21
    197e:	0000                	unimp
    1980:	0000                	unimp
    1982:	0000                	unimp
    1984:	0100                	addi	s0,sp,128
    1986:	5c00                	lw	s0,56(s0)
	...
    1990:	0001                	nop
    1992:	0058                	addi	a4,sp,4
    1994:	0000                	unimp
    1996:	0000                	unimp
    1998:	0000                	unimp
    199a:	0100                	addi	s0,sp,128
    199c:	5800                	lw	s0,48(s0)
	...
    19a6:	0001                	nop
    19a8:	0058                	addi	a4,sp,4
    19aa:	0000                	unimp
    19ac:	0000                	unimp
    19ae:	0000                	unimp
    19b0:	0100                	addi	s0,sp,128
    19b2:	5700                	lw	s0,40(a4)
	...
    19c4:	0001                	nop
    19c6:	005f 0000 0000      	0x5f
    19cc:	0000                	unimp
    19ce:	0100                	addi	s0,sp,128
    19d0:	5f00                	lw	s0,56(a4)
	...
    19da:	0001                	nop
    19dc:	005f 0000 0000      	0x5f
    19e2:	0000                	unimp
    19e4:	0100                	addi	s0,sp,128
    19e6:	5c00                	lw	s0,56(s0)
	...
    19f0:	0001                	nop
    19f2:	005c                	addi	a5,sp,4
    19f4:	0000                	unimp
    19f6:	0000                	unimp
    19f8:	0000                	unimp
    19fa:	1600                	addi	s0,sp,800
    19fc:	7500                	flw	fs0,40(a0)
    19fe:	1200                	addi	s0,sp,288
    1a00:	4b40                	lw	s0,20(a4)
    1a02:	2224                	fld	fs1,64(a2)
    1a04:	007c                	addi	a5,sp,12
    1a06:	1416                	slli	s0,s0,0x25
    1a08:	4b40                	lw	s0,20(a4)
    1a0a:	2224                	fld	fs1,64(a2)
    1a0c:	0001282b          	0x1282b
    1a10:	1316                	slli	t1,t1,0x25
    1a12:	009f 0000 0000      	0x9f
    1a18:	0000                	unimp
    1a1a:	0100                	addi	s0,sp,128
    1a1c:	5f00                	lw	s0,56(a4)
	...
    1a26:	0002                	c.slli64	zero
    1a28:	9f31                	0x9f31
	...
    1a32:	0001                	nop
    1a34:	005c                	addi	a5,sp,4
    1a36:	0000                	unimp
    1a38:	0000                	unimp
    1a3a:	0000                	unimp
    1a3c:	0100                	addi	s0,sp,128
    1a3e:	5c00                	lw	s0,56(s0)
	...
    1a48:	0001                	nop
    1a4a:	005c                	addi	a5,sp,4
    1a4c:	0000                	unimp
    1a4e:	0000                	unimp
    1a50:	0000                	unimp
    1a52:	0200                	addi	s0,sp,256
    1a54:	3100                	fld	fs0,32(a0)
    1a56:	009f 0000 0000      	0x9f
    1a5c:	0000                	unimp
    1a5e:	0100                	addi	s0,sp,128
    1a60:	5c00                	lw	s0,56(s0)
	...
    1a6a:	0001                	nop
    1a6c:	0000005b          	0x5b
    1a70:	0000                	unimp
    1a72:	0000                	unimp
    1a74:	0100                	addi	s0,sp,128
    1a76:	5b00                	lw	s0,48(a4)
	...
    1a80:	0001                	nop
    1a82:	005c                	addi	a5,sp,4
    1a84:	0000                	unimp
    1a86:	0000                	unimp
    1a88:	0000                	unimp
    1a8a:	0300                	addi	s0,sp,384
    1a8c:	7c00                	flw	fs0,56(s0)
    1a8e:	9f01                	0x9f01
	...
    1aa0:	0001                	nop
    1aa2:	005a                	c.slli	zero,0x16
    1aa4:	0000                	unimp
    1aa6:	0000                	unimp
    1aa8:	0000                	unimp
    1aaa:	0100                	addi	s0,sp,128
    1aac:	5a00                	lw	s0,48(a2)
	...
    1ab6:	0001                	nop
    1ab8:	005a                	c.slli	zero,0x16
    1aba:	0000                	unimp
    1abc:	0000                	unimp
    1abe:	0000                	unimp
    1ac0:	0100                	addi	s0,sp,128
    1ac2:	5f00                	lw	s0,56(a4)
	...
    1acc:	0001                	nop
    1ace:	005f 0000 0000      	0x5f
    1ad4:	0000                	unimp
    1ad6:	0300                	addi	s0,sp,384
    1ad8:	9100                	0x9100
    1ada:	77b8                	flw	fa4,104(a5)
	...
    1ae4:	0001                	nop
    1ae6:	005f 0000 0000      	0x5f
    1aec:	0000                	unimp
    1aee:	0100                	addi	s0,sp,128
    1af0:	5f00                	lw	s0,56(a4)
	...
    1afa:	c4910003          	lb	zero,-951(sp)
    1afe:	00000077          	0x77
    1b02:	0000                	unimp
    1b04:	0000                	unimp
    1b06:	0100                	addi	s0,sp,128
    1b08:	5f00                	lw	s0,56(a4)
	...
    1b12:	0001                	nop
    1b14:	005a                	c.slli	zero,0x16
    1b16:	0000                	unimp
    1b18:	0000                	unimp
    1b1a:	0000                	unimp
    1b1c:	0200                	addi	s0,sp,256
    1b1e:	3100                	fld	fs0,32(a0)
    1b20:	009f 0000 0000      	0x9f
    1b26:	0000                	unimp
    1b28:	0100                	addi	s0,sp,128
    1b2a:	5f00                	lw	s0,56(a4)
	...
    1b34:	0001                	nop
    1b36:	005f 0000 0000      	0x5f
    1b3c:	0000                	unimp
    1b3e:	0100                	addi	s0,sp,128
    1b40:	5f00                	lw	s0,56(a4)
	...
    1b4a:	0002                	c.slli64	zero
    1b4c:	9f31                	0x9f31
	...
    1b56:	0001                	nop
    1b58:	005f 0000 0000      	0x5f
	...
    1b66:	0000                	unimp
    1b68:	0100                	addi	s0,sp,128
    1b6a:	5d00                	lw	s0,56(a0)
	...
    1b74:	c0910003          	lb	zero,-1015(sp)
    1b78:	00000077          	0x77
    1b7c:	0000                	unimp
    1b7e:	0000                	unimp
    1b80:	0100                	addi	s0,sp,128
    1b82:	5d00                	lw	s0,56(a0)
	...
    1b8c:	c8910003          	lb	zero,-887(sp)
    1b90:	00000077          	0x77
    1b94:	0000                	unimp
    1b96:	0000                	unimp
    1b98:	0100                	addi	s0,sp,128
    1b9a:	5d00                	lw	s0,56(a0)
	...
    1ba4:	0001                	nop
    1ba6:	005d                	c.nop	23
	...
    1bb4:	0000                	unimp
    1bb6:	0200                	addi	s0,sp,256
    1bb8:	3000                	fld	fs0,32(s0)
    1bba:	009f 0000 0000      	0x9f
    1bc0:	0000                	unimp
    1bc2:	0100                	addi	s0,sp,128
    1bc4:	5500                	lw	s0,40(a0)
	...
    1bce:	cc910003          	lb	zero,-823(sp)
    1bd2:	00000077          	0x77
    1bd6:	0000                	unimp
    1bd8:	0000                	unimp
    1bda:	0100                	addi	s0,sp,128
    1bdc:	5500                	lw	s0,40(a0)
	...
    1be6:	0002                	c.slli64	zero
    1be8:	9f30                	0x9f30
	...
    1bf2:	0001                	nop
    1bf4:	0055                	c.nop	21
    1bf6:	0000                	unimp
    1bf8:	0000                	unimp
    1bfa:	0000                	unimp
    1bfc:	0200                	addi	s0,sp,256
    1bfe:	3000                	fld	fs0,32(s0)
    1c00:	009f 0000 0000      	0x9f
    1c06:	0000                	unimp
    1c08:	0100                	addi	s0,sp,128
    1c0a:	5500                	lw	s0,40(a0)
	...
    1c14:	0002                	c.slli64	zero
    1c16:	9f30                	0x9f30
	...
    1c20:	0001                	nop
    1c22:	0055                	c.nop	21
	...
    1c30:	0000                	unimp
    1c32:	0200                	addi	s0,sp,256
    1c34:	3000                	fld	fs0,32(s0)
    1c36:	009f 0000 0000      	0x9f
	...
    1c44:	0000                	unimp
    1c46:	0100                	addi	s0,sp,128
    1c48:	5c00                	lw	s0,56(s0)
	...
    1c52:	bc910003          	lb	zero,-1079(sp)
    1c56:	00000077          	0x77
    1c5a:	0000                	unimp
    1c5c:	0000                	unimp
    1c5e:	0300                	addi	s0,sp,384
    1c60:	9100                	0x9100
    1c62:	77bc                	flw	fa5,104(a5)
	...
    1c74:	0001                	nop
    1c76:	005a                	c.slli	zero,0x16
    1c78:	0000                	unimp
    1c7a:	0000                	unimp
    1c7c:	0000                	unimp
    1c7e:	0100                	addi	s0,sp,128
    1c80:	5a00                	lw	s0,48(a2)
	...
    1c92:	0001                	nop
    1c94:	005a                	c.slli	zero,0x16
    1c96:	0000                	unimp
    1c98:	0000                	unimp
    1c9a:	0000                	unimp
    1c9c:	0400                	addi	s0,sp,512
    1c9e:	f300                	fsw	fs0,32(a4)
    1ca0:	5a01                	li	s4,-32
    1ca2:	009f 0000 0000      	0x9f
    1ca8:	0000                	unimp
    1caa:	0100                	addi	s0,sp,128
    1cac:	5a00                	lw	s0,48(a2)
	...
    1cb6:	0001                	nop
    1cb8:	005a                	c.slli	zero,0x16
	...
    1cc6:	0000                	unimp
    1cc8:	0100                	addi	s0,sp,128
    1cca:	5b00                	lw	s0,48(a4)
	...
    1cd4:	0001                	nop
    1cd6:	0058                	addi	a4,sp,4
    1cd8:	0000                	unimp
    1cda:	0000                	unimp
    1cdc:	0000                	unimp
    1cde:	0100                	addi	s0,sp,128
    1ce0:	5b00                	lw	s0,48(a4)
	...
    1cea:	0004                	0x4
    1cec:	9f5b01f3          	0x9f5b01f3
	...
    1cf8:	0001                	nop
    1cfa:	0058                	addi	a4,sp,4
    1cfc:	0000                	unimp
    1cfe:	0000                	unimp
    1d00:	0000                	unimp
    1d02:	0400                	addi	s0,sp,512
    1d04:	f300                	fsw	fs0,32(a4)
    1d06:	5b01                	li	s6,-32
    1d08:	009f 0000 0000      	0x9f
	...
    1d16:	0000                	unimp
    1d18:	0100                	addi	s0,sp,128
    1d1a:	5800                	lw	s0,48(s0)
	...
    1d2c:	0001                	nop
    1d2e:	005a                	c.slli	zero,0x16
    1d30:	0000                	unimp
    1d32:	0000                	unimp
    1d34:	0000                	unimp
    1d36:	0100                	addi	s0,sp,128
    1d38:	5f00                	lw	s0,56(a4)
	...
    1d42:	017f0003          	lb	zero,23(t5)
    1d46:	009f 0000 0000      	0x9f
    1d4c:	0000                	unimp
    1d4e:	0100                	addi	s0,sp,128
    1d50:	5f00                	lw	s0,56(a4)
	...
    1d62:	0019                	c.nop	6
    1d64:	0078                	addi	a4,sp,12
    1d66:	0294                	addi	a3,sp,320
    1d68:	1438                	addi	a4,sp,552
    1d6a:	1f14                	addi	a3,sp,944
    1d6c:	0a241023          	sh	sp,160(s0) # 310031b4 <__global_pointer$+0x11002874>
    1d70:	ffff                	0xffff
    1d72:	171a                	slli	a4,a4,0x26
    1d74:	0a16                	slli	s4,s4,0x5
    1d76:	ffff                	0xffff
    1d78:	161a                	slli	a2,a2,0x26
    1d7a:	2125                	jal	21a2 <main_pwm.c.3eb49e96+0x3e6>
    1d7c:	009f 0000 0000      	0x9f
	...
    1d8a:	0000                	unimp
    1d8c:	0100                	addi	s0,sp,128
    1d8e:	5e00                	lw	s0,56(a2)
	...
    1d98:	0001                	nop
    1d9a:	005e                	c.slli	zero,0x17
	...
    1da8:	0000                	unimp
    1daa:	0100                	addi	s0,sp,128
    1dac:	5800                	lw	s0,48(s0)
	...
    1dbe:	0001                	nop
    1dc0:	005a                	c.slli	zero,0x16
    1dc2:	0000                	unimp
    1dc4:	0000                	unimp
    1dc6:	0000                	unimp
    1dc8:	0100                	addi	s0,sp,128
    1dca:	5f00                	lw	s0,56(a4)
	...
    1dd4:	027f0003          	lb	zero,39(t5)
    1dd8:	009f 0000 0000      	0x9f
    1dde:	0000                	unimp
    1de0:	0100                	addi	s0,sp,128
    1de2:	5f00                	lw	s0,56(a4)
	...
    1df4:	0001                	nop
    1df6:	005c                	addi	a5,sp,4
	...
    1e04:	0000                	unimp
    1e06:	0100                	addi	s0,sp,128
    1e08:	5e00                	lw	s0,56(a2)
	...
    1e12:	0001                	nop
    1e14:	005e                	c.slli	zero,0x17
	...
    1e22:	0000                	unimp
    1e24:	0100                	addi	s0,sp,128
    1e26:	5800                	lw	s0,48(s0)
	...
    1e30:	0001                	nop
    1e32:	0058                	addi	a4,sp,4
	...
    1e40:	0000                	unimp
    1e42:	0100                	addi	s0,sp,128
    1e44:	5a00                	lw	s0,48(a2)
	...
    1e4e:	0001                	nop
    1e50:	005f 0000 0000      	0x5f
    1e56:	0000                	unimp
    1e58:	0100                	addi	s0,sp,128
    1e5a:	5f00                	lw	s0,56(a4)
	...
    1e6c:	0001                	nop
    1e6e:	005d                	c.nop	23
    1e70:	0000                	unimp
    1e72:	0000                	unimp
    1e74:	0000                	unimp
    1e76:	0100                	addi	s0,sp,128
    1e78:	5d00                	lw	s0,56(a0)
	...
    1e8a:	0001                	nop
    1e8c:	005e                	c.slli	zero,0x17
    1e8e:	0000                	unimp
    1e90:	0000                	unimp
    1e92:	0000                	unimp
    1e94:	0100                	addi	s0,sp,128
    1e96:	5e00                	lw	s0,56(a2)
	...
    1ea0:	0001                	nop
    1ea2:	005e                	c.slli	zero,0x17
	...
    1eb0:	0000                	unimp
    1eb2:	0100                	addi	s0,sp,128
    1eb4:	5a00                	lw	s0,48(a2)
	...
    1ebe:	0001                	nop
    1ec0:	0059                	c.nop	22
    1ec2:	0000                	unimp
    1ec4:	0000                	unimp
    1ec6:	0000                	unimp
    1ec8:	0400                	addi	s0,sp,512
    1eca:	f300                	fsw	fs0,32(a4)
    1ecc:	5a01                	li	s4,-32
    1ece:	009f 0000 0000      	0x9f
	...
    1edc:	0000                	unimp
    1ede:	0100                	addi	s0,sp,128
    1ee0:	5800                	lw	s0,48(s0)
	...
    1eea:	7f7a0003          	lb	zero,2039(s4)
    1eee:	009f 0000 0000      	0x9f
	...
    1efc:	0000                	unimp
    1efe:	0100                	addi	s0,sp,128
    1f00:	5a00                	lw	s0,48(a2)
	...
    1f0a:	0004                	0x4
    1f0c:	9f5a01f3          	0x9f5a01f3
	...
    1f18:	0001                	nop
    1f1a:	005a                	c.slli	zero,0x16
    1f1c:	0000                	unimp
    1f1e:	0000                	unimp
    1f20:	0000                	unimp
    1f22:	0400                	addi	s0,sp,512
    1f24:	f300                	fsw	fs0,32(a4)
    1f26:	5a01                	li	s4,-32
    1f28:	009f 0000 0000      	0x9f
	...
    1f36:	0000                	unimp
    1f38:	0400                	addi	s0,sp,512
    1f3a:	0a00                	addi	s0,sp,272
    1f3c:	3e80                	fld	fs0,56(a3)
    1f3e:	009f 0000 0000      	0x9f
    1f44:	0000                	unimp
    1f46:	0300                	addi	s0,sp,384
    1f48:	7f00                	flw	fs0,56(a4)
    1f4a:	9f7f                	0x9f7f
	...
    1f54:	7e7f0003          	lb	zero,2023(t5)
    1f58:	009f 0000 0000      	0x9f
    1f5e:	0000                	unimp
    1f60:	0300                	addi	s0,sp,384
    1f62:	7f00                	flw	fs0,56(a4)
    1f64:	9f7f                	0x9f7f
	...
    1f6e:	050c                	addi	a1,sp,640
    1f70:	0000                	unimp
    1f72:	0534                	addi	a3,sp,648
    1f74:	0000                	unimp
    1f76:	0002                	c.slli64	zero
    1f78:	9f30                	0x9f30
    1f7a:	0534                	addi	a3,sp,648
    1f7c:	0000                	unimp
    1f7e:	0540                	addi	s0,sp,644
    1f80:	0000                	unimp
    1f82:	0001                	nop
    1f84:	0005405b          	0x5405b
    1f88:	a800                	fsd	fs0,16(s0)
    1f8a:	0005                	c.nop	1
    1f8c:	0300                	addi	s0,sp,384
    1f8e:	7b00                	flw	fs0,48(a4)
    1f90:	9f7f                	0x9f7f
    1f92:	05a8                	addi	a0,sp,712
    1f94:	0000                	unimp
    1f96:	05e8                	addi	a0,sp,716
    1f98:	0000                	unimp
    1f9a:	0001                	nop
    1f9c:	00079c5b          	0x79c5b
    1fa0:	a400                	fsd	fs0,8(s0)
    1fa2:	01000007          	0x1000007
    1fa6:	5b00                	lw	s0,48(a4)
	...
    1fb0:	0574                	addi	a3,sp,652
    1fb2:	0000                	unimp
    1fb4:	0578                	addi	a4,sp,652
    1fb6:	0000                	unimp
    1fb8:	0002                	c.slli64	zero
    1fba:	0c7c                	addi	a5,sp,540
    1fbc:	0578                	addi	a4,sp,652
    1fbe:	0000                	unimp
    1fc0:	0584                	addi	s1,sp,704
    1fc2:	0000                	unimp
    1fc4:	0001                	nop
    1fc6:	845c                	0x845c
    1fc8:	0005                	c.nop	1
    1fca:	9400                	0x9400
    1fcc:	0005                	c.nop	1
    1fce:	0400                	addi	s0,sp,512
    1fd0:	7c00                	flw	fs0,56(s0)
    1fd2:	2000                	fld	fs0,0(s0)
    1fd4:	009f 0000 0000      	0x9f
    1fda:	0000                	unimp
    1fdc:	7400                	flw	fs0,40(s0)
    1fde:	0005                	c.nop	1
    1fe0:	a800                	fsd	fs0,16(s0)
    1fe2:	0005                	c.nop	1
    1fe4:	0100                	addi	s0,sp,128
    1fe6:	5700                	lw	s0,40(a4)
	...
    1ff0:	0570                	addi	a2,sp,652
    1ff2:	0000                	unimp
    1ff4:	057c                	addi	a5,sp,652
    1ff6:	0000                	unimp
    1ff8:	0001                	nop
    1ffa:	005f 0000 0000      	0x5f
    2000:	0000                	unimp
    2002:	6c00                	flw	fs0,24(s0)
    2004:	0005                	c.nop	1
    2006:	a800                	fsd	fs0,16(s0)
    2008:	0005                	c.nop	1
    200a:	0100                	addi	s0,sp,128
    200c:	5500                	lw	s0,40(a0)
	...
    2016:	05f8                	addi	a4,sp,716
    2018:	0000                	unimp
    201a:	0650                	addi	a2,sp,772
    201c:	0000                	unimp
    201e:	0001                	nop
    2020:	a45d                	j	22c6 <main_pwm.c.3eb49e96+0x50a>
    2022:	c8000007          	0xc8000007
    2026:	01000007          	0x1000007
    202a:	5d00                	lw	s0,56(a0)
	...
    2034:	062c                	addi	a1,sp,776
    2036:	0000                	unimp
    2038:	063c                	addi	a5,sp,776
    203a:	0000                	unimp
    203c:	0006                	c.slli	zero,0x1
    203e:	007f                	0x7f
    2040:	ff08                	fsw	fa0,56(a4)
    2042:	9f1a                	add	t5,t5,t1
    2044:	07a4                	addi	s1,sp,968
    2046:	0000                	unimp
    2048:	07c8                	addi	a0,sp,964
    204a:	0000                	unimp
    204c:	0006                	c.slli	zero,0x1
    204e:	007f                	0x7f
    2050:	ff08                	fsw	fa0,56(a4)
    2052:	9f1a                	add	t5,t5,t1
	...
    205c:	062c                	addi	a1,sp,776
    205e:	0000                	unimp
    2060:	063c                	addi	a5,sp,776
    2062:	0000                	unimp
    2064:	0001                	nop
    2066:	a45e                	fsd	fs7,8(sp)
    2068:	c8000007          	0xc8000007
    206c:	01000007          	0x1000007
    2070:	5e00                	lw	s0,56(a2)
	...
    207a:	062c                	addi	a1,sp,776
    207c:	0000                	unimp
    207e:	063c                	addi	a5,sp,776
    2080:	0000                	unimp
    2082:	0001                	nop
    2084:	a45c                	fsd	fa5,136(s0)
    2086:	c8000007          	0xc8000007
    208a:	01000007          	0x1000007
    208e:	5c00                	lw	s0,56(s0)
	...
    2098:	0650                	addi	a2,sp,772
    209a:	0000                	unimp
    209c:	0660                	addi	s0,sp,780
    209e:	0000                	unimp
    20a0:	0001                	nop
    20a2:	605c                	flw	fa5,4(s0)
    20a4:	0006                	c.slli	zero,0x1
    20a6:	d000                	sw	s0,32(s0)
    20a8:	0006                	c.slli	zero,0x1
    20aa:	0300                	addi	s0,sp,384
    20ac:	7c00                	flw	fs0,56(s0)
    20ae:	9f7f                	0x9f7f
    20b0:	06d0                	addi	a2,sp,836
    20b2:	0000                	unimp
    20b4:	0710                	addi	a2,sp,896
    20b6:	0000                	unimp
    20b8:	0001                	nop
    20ba:	005c                	addi	a5,sp,4
    20bc:	0000                	unimp
    20be:	0000                	unimp
    20c0:	0000                	unimp
    20c2:	9000                	0x9000
    20c4:	0006                	c.slli	zero,0x1
    20c6:	d000                	sw	s0,32(s0)
    20c8:	0006                	c.slli	zero,0x1
    20ca:	0100                	addi	s0,sp,128
    20cc:	5a00                	lw	s0,48(a2)
	...
    20d6:	0690                	addi	a2,sp,832
    20d8:	0000                	unimp
    20da:	06d0                	addi	a2,sp,836
    20dc:	0000                	unimp
    20de:	0001                	nop
    20e0:	0056                	c.slli	zero,0x15
    20e2:	0000                	unimp
    20e4:	0000                	unimp
    20e6:	0000                	unimp
    20e8:	9000                	0x9000
    20ea:	0006                	c.slli	zero,0x1
    20ec:	d000                	sw	s0,32(s0)
    20ee:	0006                	c.slli	zero,0x1
    20f0:	0100                	addi	s0,sp,128
    20f2:	5b00                	lw	s0,48(a4)
	...
    20fc:	0724                	addi	s1,sp,904
    20fe:	0000                	unimp
    2100:	073c                	addi	a5,sp,904
    2102:	0000                	unimp
    2104:	0002                	c.slli64	zero
    2106:	0c76                	slli	s8,s8,0x1d
    2108:	073c                	addi	a5,sp,904
    210a:	0000                	unimp
    210c:	0740                	addi	s0,sp,900
    210e:	0000                	unimp
    2110:	0001                	nop
    2112:	405e                	0x405e
    2114:	44000007          	0x44000007
    2118:	04000007          	0x4000007
    211c:	7e00                	flw	fs0,56(a2)
    211e:	2000                	fld	fs0,0(s0)
    2120:	009f 0000 0000      	0x9f
    2126:	0000                	unimp
    2128:	2400                	fld	fs0,8(s0)
    212a:	7c000007          	0x7c000007
    212e:	01000007          	0x1000007
    2132:	5a00                	lw	s0,48(a2)
	...
    213c:	0724                	addi	s1,sp,904
    213e:	0000                	unimp
    2140:	077c                	addi	a5,sp,908
    2142:	0000                	unimp
    2144:	0001                	nop
    2146:	005c                	addi	a5,sp,4
    2148:	0000                	unimp
    214a:	0000                	unimp
    214c:	0000                	unimp
    214e:	1c00                	addi	s0,sp,560
    2150:	7c000007          	0x7c000007
    2154:	01000007          	0x1000007
    2158:	5d00                	lw	s0,56(a0)
	...

Disassembly of section .debug_aranges:

00000000 <.debug_aranges>:
	asm volatile( "\n\
   0:	00f4                	addi	a3,sp,76
   2:	0000                	unimp
   4:	0002                	c.slli64	zero
   6:	0000                	unimp
   8:	0000                	unimp
   a:	0004                	0x4
	...
  28:	00c4                	addi	s1,sp,68
  2a:	0000                	unimp
  2c:	037c                	addi	a5,sp,396
	...
  3e:	0000                	unimp
  40:	0440                	addi	s0,sp,516
  42:	0000                	unimp
  44:	007e                	c.slli	zero,0x1f
  46:	0000                	unimp
  48:	04be                	slli	s1,s1,0xf
  4a:	0000                	unimp
  4c:	0002                	c.slli64	zero
	...
	RCC->CTLR  = RCC_HSION | RCC_PLLON | ((HSITRIM) << 3); // Use HSI, but enable PLL.
  da:	0000                	unimp
  dc:	009c                	addi	a5,sp,64
	...
	RCC->INTR  = 0x009F0000;                               // Clear PLL, CSSC, HSE, HSI and LSI ready flags.
  e6:	0000                	unimp
  e8:	04c0                	addi	s0,sp,580
  ea:	0000                	unimp
	while((RCC->CTLR & RCC_PLLRDY) == 0);                                      // Wait till PLL is ready
  ec:	0308                	addi	a0,sp,384
	...
  f6:	0000                	unimp
  f8:	001c                	0x1c
	RCC->CFGR0 = ( RCC->CFGR0 & ((uint32_t)~(RCC_SW))) | (uint32_t)RCC_SW_PLL; // Select PLL as system clock source
  fa:	0000                	unimp
	while ((RCC->CFGR0 & (uint32_t)RCC_SWS) != (uint32_t)0x08);                // Wait till PLL is used as system clock source
  fc:	0002                	c.slli64	zero
	RCC->CFGR0 = ( RCC->CFGR0 & ((uint32_t)~(RCC_SW))) | (uint32_t)RCC_SW_PLL; // Select PLL as system clock source
  fe:	000030b7          	lui	ra,0x3
 102:	0004                	0x4
 104:	0000                	unimp
	while ((RCC->CFGR0 & (uint32_t)RCC_SWS) != (uint32_t)0x08);                // Wait till PLL is used as system clock source
 106:	0000                	unimp
 108:	00a0                	addi	s0,sp,72
 10a:	0000                	unimp
 10c:	0024                	addi	s1,sp,8
	...

Disassembly of section .debug_ranges:

00000000 <.debug_ranges>:
	asm volatile( "\n\
   0:	0001                	nop
   2:	0000                	unimp
   4:	0001                	nop
   6:	0000                	unimp
   8:	0001                	nop
   a:	0000                	unimp
   c:	0001                	nop
   e:	0000                	unimp
  10:	0001                	nop
  12:	0000                	unimp
  14:	0001                	nop
  16:	0000                	unimp
  18:	0001                	nop
  1a:	0000                	unimp
  1c:	0001                	nop
	...
  26:	0000                	unimp
  28:	0001                	nop
  2a:	0000                	unimp
  2c:	0001                	nop
  2e:	0000                	unimp
  30:	0001                	nop
  32:	0000                	unimp
  34:	0001                	nop
	...
  3e:	0000                	unimp
  40:	00c4                	addi	s1,sp,68
  42:	0000                	unimp
  44:	00c4                	addi	s1,sp,68
  46:	0000                	unimp
  48:	00cc                	addi	a1,sp,68
  4a:	0000                	unimp
  4c:	0112                	slli	sp,sp,0x4
	...
  56:	0000                	unimp
  58:	039e                	slli	t2,t2,0x7
  5a:	0000                	unimp
  5c:	03bc                	addi	a5,sp,456
  5e:	0000                	unimp
  60:	03bc                	addi	a5,sp,456
  62:	0000                	unimp
  64:	0408                	addi	a0,sp,512
  66:	0000                	unimp
  68:	040a                	slli	s0,s0,0x2
  6a:	0000                	unimp
  6c:	043e                	slli	s0,s0,0xf
	...
  76:	0000                	unimp
  78:	03a6                	slli	t2,t2,0x9
  7a:	0000                	unimp
  7c:	03ae                	slli	t2,t2,0xb
  7e:	0000                	unimp
  80:	03bc                	addi	a5,sp,456
  82:	0000                	unimp
  84:	03d4                	addi	a3,sp,452
	...
  8e:	0000                	unimp
  90:	03ae                	slli	t2,t2,0xb
  92:	0000                	unimp
  94:	03b2                	slli	t2,t2,0xc
  96:	0000                	unimp
  98:	03d4                	addi	a3,sp,452
  9a:	0000                	unimp
  9c:	03d8                	addi	a4,sp,452
  9e:	0000                	unimp
  a0:	03de                	slli	t2,t2,0x17
  a2:	0000                	unimp
  a4:	03e0                	addi	s0,sp,460
  a6:	0000                	unimp
  a8:	03e2                	slli	t2,t2,0x18
  aa:	0000                	unimp
  ac:	0404                	addi	s1,sp,512
	...
  b6:	0000                	unimp
  b8:	040a                	slli	s0,s0,0x2
  ba:	0000                	unimp
  bc:	040c                	addi	a1,sp,512
  be:	0000                	unimp
  c0:	0410                	addi	a2,sp,512
  c2:	0000                	unimp
int main() {
  c4:	043a                	slli	s0,s0,0xe
	...
	RCC->CFGR0 = RCC_HPRE_DIV1 | RCC_PLLSRC_HSI_Mul2;      // PLLCLK = HSI * 2 = 48 MHz; HCLK = SYSCLK = APB1
  ce:	0000                	unimp
	RCC->CTLR  = RCC_HSION | RCC_PLLON | ((HSITRIM) << 3); // Use HSI, but enable PLL.
  d0:	0001                	nop
  d2:	0000                	unimp
	RCC->CFGR0 = RCC_HPRE_DIV1 | RCC_PLLSRC_HSI_Mul2;      // PLLCLK = HSI * 2 = 48 MHz; HCLK = SYSCLK = APB1
  d4:	0001                	nop
  d6:	0000                	unimp
	RCC->CTLR  = RCC_HSION | RCC_PLLON | ((HSITRIM) << 3); // Use HSI, but enable PLL.
  d8:	0001                	nop
  da:	0000                	unimp
  dc:	0001                	nop
	...
	RCC->INTR  = 0x009F0000;                               // Clear PLL, CSSC, HSE, HSI and LSI ready flags.
  e6:	0000                	unimp
  e8:	0001                	nop
  ea:	0000                	unimp
	while((RCC->CTLR & RCC_PLLRDY) == 0);                                      // Wait till PLL is ready
  ec:	0001                	nop
  ee:	0000                	unimp
  f0:	0001                	nop
  f2:	0000                	unimp
  f4:	0001                	nop
	...
	RCC->CFGR0 = ( RCC->CFGR0 & ((uint32_t)~(RCC_SW))) | (uint32_t)RCC_SW_PLL; // Select PLL as system clock source
  fe:	0000                	unimp
 100:	0001                	nop
 102:	0000                	unimp
 104:	0001                	nop
	while ((RCC->CFGR0 & (uint32_t)RCC_SWS) != (uint32_t)0x08);                // Wait till PLL is used as system clock source
 106:	0000                	unimp
 108:	0001                	nop
 10a:	0000                	unimp
 10c:	0001                	nop
 10e:	0000                	unimp
 110:	0001                	nop
	RCC->APB2PCENR |=	RCC_APB2Periph_GPIOA | RCC_APB2Periph_GPIOC |
 112:	0000                	unimp
 114:	0001                	nop
 116:	0000                	unimp
 118:	0001                	nop
 11a:	0000                	unimp
 11c:	0001                	nop
	RCC->APB1PCENR |=	RCC_APB1Periph_TIM2;
 11e:	0000                	unimp
	RCC->APB2PRSTR |=  RCC_APB2Periph_TIM1;
 120:	0001                	nop
 122:	0000                	unimp
	RCC->APB2PRSTR &= ~RCC_APB2Periph_TIM1;
 124:	0001                	nop
	RCC->APB1PCENR |=	RCC_APB1Periph_TIM2;
 126:	0000                	unimp
 128:	0001                	nop
 12a:	0000                	unimp
	RCC->APB2PRSTR |=  RCC_APB2Periph_TIM1;
 12c:	0001                	nop
	GPIOC->CFGLR &= ~(0xf<<(4*GPIO_PinSource4));
 12e:	0000                	unimp
 130:	0001                	nop
 132:	0000                	unimp
	RCC->APB2PRSTR |=  RCC_APB2Periph_TIM1;
 134:	0001                	nop
	...
	GPIOC->CFGLR &= ~(0xf<<(4*GPIO_PinSource2));
 13e:	0000                	unimp
 140:	0001                	nop
	RCC->APB2PRSTR &= ~RCC_APB2Periph_TIM1;
 142:	0000                	unimp
 144:	0001                	nop
	RCC->APB1PRSTR |=  RCC_APB1Periph_TIM2;
 146:	0000                	unimp
	TIM1->PSC = 0x0000;
 148:	0001                	nop
 14a:	0000                	unimp
	TIM1->ATRLR = 255;
 14c:	0001                	nop
 14e:	0000                	unimp
	RCC->APB1PRSTR |=  RCC_APB1Periph_TIM2;
 150:	0001                	nop
 152:	0000                	unimp
 154:	0001                	nop
	RCC->APB1PRSTR &= ~RCC_APB1Periph_TIM2;
 156:	0000                	unimp
	TIM1->CCER |= TIM_CC4E | TIM_CC4P;	// Enable T1CH4 output, positive pol
 158:	0001                	nop
	RCC->APB1PRSTR &= ~RCC_APB1Periph_TIM2;
 15a:	0000                	unimp
 15c:	0001                	nop
	GPIOC->CFGLR &= ~(0xf<<(4*GPIO_PinSource4));
 15e:	0000                	unimp
 160:	0001                	nop
 162:	0000                	unimp
 164:	0001                	nop
	...
	GPIOC->CFGLR |= (GPIO_Speed_10MHz | GPIO_CNF_OUT_OD_AF)<<(4*GPIO_PinSource4);
 16e:	0000                	unimp
 170:	0001                	nop
	GPIOA->CFGLR &= ~(0xf<<(4*GPIO_PinSource1));
 172:	0000                	unimp
 174:	0001                	nop
	GPIOC->CFGLR |= (GPIO_Speed_10MHz | GPIO_CNF_OUT_OD_AF)<<(4*GPIO_PinSource2);
 176:	0000                	unimp
 178:	0001                	nop
	GPIOA->CFGLR &= ~(0xf<<(4*GPIO_PinSource1));
 17a:	0000                	unimp
 17c:	0001                	nop
	...
	GPIOA->CFGLR |= (GPIO_Speed_10MHz | GPIO_CNF_OUT_OD_AF)<<(4*GPIO_PinSource1);
 186:	0000                	unimp
 188:	0001                	nop
 18a:	0000                	unimp
 18c:	0001                	nop
	GPIOC->CFGLR &= ~(0xf<<(4*GPIO_PinSource2));
 18e:	0000                	unimp
 190:	0001                	nop
 192:	0000                	unimp
 194:	0001                	nop
	GPIOC->CFGLR |= (GPIO_Speed_10MHz | GPIO_CNF_OUT_OD_AF)<<(4*GPIO_PinSource2);
 196:	0000                	unimp
 198:	0001                	nop
 19a:	0000                	unimp
	GPIOC->CFGLR &= ~(0xf<<(4*GPIO_PinSource1));
 19c:	0001                	nop
	...
 1a6:	0000                	unimp
	GPIOC->CFGLR |= (GPIO_Speed_10MHz | GPIO_CNF_OUT_OD_AF)<<(4*GPIO_PinSource1);
 1a8:	0001                	nop
 1aa:	0000                	unimp
 1ac:	0001                	nop
 1ae:	0000                	unimp
	AFIO->PCFR1 |= AFIO_PCFR1_TIM2_REMAP_PARTIALREMAP1;
 1b0:	0001                	nop
 1b2:	0000                	unimp
 1b4:	0001                	nop
	...
	TIM2->PSC = 0x0000;
 1be:	0000                	unimp
 1c0:	0001                	nop
 1c2:	0000                	unimp
	TIM1->ATRLR = 255;
 1c4:	0001                	nop
 1c6:	0000                	unimp
	TIM2->ATRLR = 255;
 1c8:	0001                	nop
 1ca:	0000                	unimp
	TIM1->SWEVGR |= TIM_UG;
 1cc:	0001                	nop
	...
 1d6:	0000                	unimp
 1d8:	0001                	nop
 1da:	0000                	unimp
	TIM2->SWEVGR |= TIM_UG;
 1dc:	0001                	nop
 1de:	0000                	unimp
 1e0:	0001                	nop
 1e2:	0000                	unimp
 1e4:	0001                	nop
 1e6:	0000                	unimp
 1e8:	0001                	nop
 1ea:	0000                	unimp
	TIM1->CTLR1 |= TIM_ARPE;
 1ec:	0001                	nop
 1ee:	0000                	unimp
 1f0:	0001                	nop
 1f2:	0000                	unimp
 1f4:	0001                	nop
	...
	TIM2->CTLR1 |= TIM_ARPE;
 1fe:	0000                	unimp
 200:	0001                	nop
 202:	0000                	unimp
 204:	0001                	nop
 206:	0000                	unimp
 208:	0001                	nop
 20a:	0000                	unimp
	TIM1->CH2CVR = 16; //T1CH2/PA1/pin1
 20c:	0001                	nop
	...
	TIM2->CH2CVR = 16; //T2CH2/PC2/pin6*
 216:	0000                	unimp
	TIM2->CH4CVR = 16; //T2CH4/PC1/pin5*
 218:	050c                	addi	a1,sp,640
	TIM1->CCER |= TIM_CC2E | TIM_CC2P;	// Enable T1CH2 output, positive pol
 21a:	0000                	unimp
 21c:	06dc                	addi	a5,sp,836
 21e:	0000                	unimp
 220:	06e4                	addi	s1,sp,844
 222:	0000                	unimp
 224:	06f4                	addi	a3,sp,844
 226:	0000                	unimp
 228:	06f8                	addi	a4,sp,844
	TIM1->CCER |= TIM_CC4E | TIM_CC4P;	// Enable T1CH4 output, positive pol
 22a:	0000                	unimp
 22c:	0724                	addi	s1,sp,904
 22e:	0000                	unimp
 230:	0728                	addi	a0,sp,904
 232:	0000                	unimp
 234:	0738                	addi	a4,sp,904
 236:	0000                	unimp
 238:	073c                	addi	a5,sp,904
 23a:	0000                	unimp
 23c:	077c                	addi	a5,sp,908
	TIM2->CCER |= TIM_CC2E | TIM_CC2P;	// Enable T2CH2 output, positive pol
 23e:	0000                	unimp
 240:	079c                	addi	a5,sp,960
 242:	0000                	unimp
 244:	07c8                	addi	a0,sp,964
	...
	TIM2->CCER |= TIM_CC4E | TIM_CC4P;	// Enable T2CH4 output, positive pol
 24e:	0000                	unimp
 250:	050c                	addi	a1,sp,640
 252:	0000                	unimp
 254:	0528                	addi	a0,sp,648
 256:	0000                	unimp
 258:	052c                	addi	a1,sp,648
 25a:	0000                	unimp
 25c:	05b0                	addi	a2,sp,712
	...
	TIM1->CHCTLR1 |= TIM_OC2M_2 | TIM_OC2M_1;	// CH2 Mode is output, PWM1 (CC1S = 00, OC1M = 110)
 266:	0000                	unimp
 268:	0530                	addi	a2,sp,648
 26a:	0000                	unimp
 26c:	0534                	addi	a3,sp,648
 26e:	0000                	unimp
 270:	0574                	addi	a3,sp,652
 272:	0000                	unimp
 274:	05a8                	addi	a0,sp,712
	...
	TIM1->CHCTLR2 |= TIM_OC4M_2 | TIM_OC4M_1;	// CH4 Mode is output, PWM1 (CC1S = 00, OC1M = 110)
 27e:	0000                	unimp
 280:	05c4                	addi	s1,sp,708
 282:	0000                	unimp
 284:	0644                	addi	s1,sp,772
 286:	0000                	unimp
 288:	07a4                	addi	s1,sp,968
 28a:	0000                	unimp
	TIM2->CHCTLR1 |= TIM_OC2M_2 | TIM_OC2M_1 | TIM_OC2PE;
 28c:	07c8                	addi	a0,sp,964
	...
 296:	0000                	unimp
 298:	05e4                	addi	s1,sp,716
 29a:	0000                	unimp
 29c:	05f4                	addi	a3,sp,716
 29e:	0000                	unimp
 2a0:	062c                	addi	a1,sp,776
 2a2:	0000                	unimp
 2a4:	063c                	addi	a5,sp,776
	TIM2->CHCTLR2 |= TIM_OC4M_2 | TIM_OC4M_1 | TIM_OC4PE;
 2a6:	0000                	unimp
 2a8:	07a4                	addi	s1,sp,968
	TIM1->BDTR  |= TIM_MOE;	// Brake and deadband registers
 2aa:	0000                	unimp
	TIM2->CHCTLR2 |= TIM_OC4M_2 | TIM_OC4M_1 | TIM_OC4PE;
 2ac:	07c8                	addi	a0,sp,964
	...
 2b6:	0000                	unimp
 2b8:	0648                	addi	a0,sp,772
 2ba:	0000                	unimp
	TIM1->BDTR  |= TIM_MOE;	// Brake and deadband registers
 2bc:	0650                	addi	a2,sp,772
 2be:	0000                	unimp
 2c0:	0684                	addi	s1,sp,832
 2c2:	0000                	unimp
 2c4:	0688                	addi	a0,sp,832
 2c6:	0000                	unimp
 2c8:	0690                	addi	a2,sp,832
	TIM1->CTLR1 |= TIM_CEN;	// Enable TIM1
 2ca:	0000                	unimp
 2cc:	06d0                	addi	a2,sp,836
	...
 2d6:	0000                	unimp
 2d8:	0724                	addi	s1,sp,904
	TIM2->CTLR1 |= TIM_CEN;	// Enable TIM2
 2da:	0000                	unimp
 2dc:	0724                	addi	s1,sp,904
 2de:	0000                	unimp
 2e0:	0728                	addi	a0,sp,904
 2e2:	0000                	unimp
 2e4:	0738                	addi	a4,sp,904
 2e6:	0000                	unimp
 2e8:	073c                	addi	a5,sp,904
	SysTick->CTLR = 0;
 2ea:	0000                	unimp
 2ec:	077c                	addi	a5,sp,908
	...
 2f6:	0000                	unimp
 2f8:	0001                	nop
	SysTick->CMP = (SYSTEM_CORE_CLOCK/SYSTICKHZ)-1;
 2fa:	0000                	unimp
 2fc:	0001                	nop
 2fe:	0000                	unimp
 300:	0001                	nop
	SysTick->CNT = 0;
 302:	0000                	unimp
 304:	0001                	nop
	SysTick->CTLR = SYSTICK_CTLR_STE | SYSTICK_CTLR_STIE |
 306:	0000                	unimp
 308:	0001                	nop
	RCC->CFGR0 &= ~(0x1F<<11);
 30a:	0000                	unimp
 30c:	0001                	nop
 30e:	0000                	unimp
 310:	00c4                	addi	s1,sp,68
 312:	0000                	unimp
 314:	0440                	addi	s0,sp,516
	RCC->APB2PCENR |= RCC_APB2Periph_GPIOA | RCC_APB2Periph_ADC1;
 316:	0000                	unimp
 318:	0001                	nop
 31a:	0000                	unimp
 31c:	0001                	nop
	GPIOA->CFGLR &= ~(0xf<<(4*GPIO_PinSource2));	// CNF = 00: Analog, MODE = 00: Input
 31e:	0000                	unimp
 320:	0001                	nop
 322:	0000                	unimp
 324:	0001                	nop
 326:	0000                	unimp
 328:	0440                	addi	s0,sp,516
	RCC->APB2PRSTR |= RCC_APB2Periph_ADC1;
 32a:	0000                	unimp
	ADC1->CTLR2 |= ADC_ADON | ADC_EXTSEL;
 32c:	04be                	slli	s1,s1,0xf
 32e:	0000                	unimp
 330:	04be                	slli	s1,s1,0xf
	RCC->APB2PRSTR |= RCC_APB2Periph_ADC1;
 332:	0000                	unimp
 334:	04c0                	addi	s0,sp,580
 336:	0000                	unimp
	RCC->APB2PRSTR &= ~RCC_APB2Periph_ADC1;
 338:	0001                	nop
 33a:	0000                	unimp
 33c:	0001                	nop
 33e:	0000                	unimp
	ADC1->RSQR1 = 0;
 340:	0001                	nop
 342:	0000                	unimp
 344:	0001                	nop
 346:	0000                	unimp
	ADC1->RSQR2 = 0;
 348:	0001                	nop
 34a:	0000                	unimp
	ADC1->RSQR3 = ADC_Channel_0;	// 0-9 for 8 ext inputs and two internals
 34c:	0001                	nop
 34e:	0000                	unimp
	ADC1->SAMPTR2 &= ~ADC_SMP2;
 350:	0001                	nop
 352:	0000                	unimp
 354:	0001                	nop
 356:	0000                	unimp
 358:	0001                	nop
 35a:	0000                	unimp
	ADC1->SAMPTR2 |= ( ADC_SampleTime_3Cycles << (3 * ADC_Channel_0 ) );	// 0:7 => 3/9/15/30/43/57/73/241 cycles
 35c:	0001                	nop
 35e:	0000                	unimp
 360:	0001                	nop
 362:	0000                	unimp
	ADC1->CTLR2 |= ADC_ADON | ADC_EXTSEL;
 364:	0001                	nop
 366:	0000                	unimp
 368:	0001                	nop
 36a:	0000                	unimp
 36c:	0001                	nop
	ADC1->CTLR2 |= ADC_RSTCAL;
 36e:	0000                	unimp
 370:	0001                	nop
	while(ADC1->CTLR2 & ADC_RSTCAL);
 372:	0000                	unimp
 374:	0001                	nop
	ADC1->CTLR2 |= ADC_RSTCAL;
 376:	0000                	unimp
 378:	0001                	nop
 37a:	0000                	unimp
 37c:	0001                	nop
	while(ADC1->CTLR2 & ADC_RSTCAL);
 37e:	0000                	unimp
 380:	0001                	nop
 382:	0000                	unimp
 384:	0001                	nop
	ADC1->CTLR2 |= ADC_CAL;
 386:	0000                	unimp
 388:	0001                	nop
 38a:	0000                	unimp
 38c:	0001                	nop
 38e:	0000                	unimp
 390:	0001                	nop
	while(ADC1->CTLR2 & ADC_CAL);
 392:	0000                	unimp
 394:	0001                	nop
 396:	0000                	unimp
 398:	0001                	nop
 39a:	0000                	unimp
 39c:	0001                	nop
                Delay_Ms(( Delay >> 3 ) + 5 );
 39e:	0000                	unimp
 3a0:	0001                	nop
                int temp=LEDs[0].brightness;
 3a2:	0000                	unimp
 3a4:	0001                	nop
	ADC1->CTLR2 |= ADC_SWSTART;
 3a6:	0000                	unimp
 3a8:	0001                	nop
 3aa:	0000                	unimp
 3ac:	0001                	nop
	uint32_t targend = SysTick->CNT + n;
 3ae:	0000                	unimp
 3b0:	0001                	nop
                Delay_Ms(( Delay >> 3 ) + 5 );
 3b2:	0000                	unimp
 3b4:	0001                	nop
 3b6:	0000                	unimp
                int temp=LEDs[0].brightness;
 3b8:	0001                	nop
 3ba:	0000                	unimp
	ADC1->CTLR2 |= ADC_SWSTART;
 3bc:	0001                	nop
 3be:	0000                	unimp
 3c0:	0000                	unimp
 3c2:	0000                	unimp
 3c4:	009c                	addi	a5,sp,64
 3c6:	0000                	unimp
	while(!(ADC1->STATR & ADC_EOC));
 3c8:	0001                	nop
 3ca:	0000                	unimp
 3cc:	0001                	nop
 3ce:	0000                	unimp
	return ADC1->RDATAR;
 3d0:	04c0                	addi	s0,sp,580
 3d2:	0000                	unimp
 3d4:	07c8                	addi	a0,sp,964
	...

Disassembly of section .debug_line:

00000000 <.debug_line>:
	asm volatile( "\n\
       0:	27d0                	fld	fa2,136(a5)
       2:	0000                	unimp
       4:	005d0003          	lb	zero,5(s10)
       8:	0000                	unimp
       a:	0101                	addi	sp,sp,0
       c:	000d0efb          	0xd0efb
      10:	0101                	addi	sp,sp,0
      12:	0101                	addi	sp,sp,0
      14:	0000                	unimp
      16:	0100                	addi	s0,sp,128
      18:	0000                	unimp
      1a:	6301                	0x6301
      1c:	3368                	fld	fa0,224(a4)
      1e:	7632                	flw	fa2,44(sp)
      20:	3030                	fld	fa2,96(s0)
      22:	6e756633          	0x6e756633
      26:	0000                	unimp
      28:	32336863          	bltu	t1,gp,358 <main+0x294>
      2c:	3076                	fld	ft0,376(sp)
      2e:	3330                	fld	fa2,96(a4)
      30:	7566                	flw	fa0,120(sp)
      32:	2e6e                	fld	ft8,216(sp)
      34:	00010063          	beqz	sp,34 <InterruptVector+0x34>
      38:	6d00                	flw	fs0,24(a0)
      3a:	6961                	lui	s2,0x18
      3c:	2d6e                	fld	fs10,216(sp)
      3e:	7770                	flw	fa2,108(a4)
      40:	2e6d                	jal	3fa <main+0x336>
      42:	00000063          	beqz	zero,42 <InterruptVector+0x42>
      46:	6300                	flw	fs0,0(a4)
      48:	3368                	fld	fa0,224(a4)
      4a:	7632                	flw	fa2,44(sp)
      4c:	3030                	fld	fa2,96(s0)
      4e:	6e756633          	0x6e756633
      52:	682e                	flw	fa6,200(sp)
      54:	0100                	addi	s0,sp,128
      56:	0000                	unimp
      58:	623c                	flw	fa5,64(a2)
      5a:	6975                	lui	s2,0x1d
      5c:	746c                	flw	fa1,108(s0)
      5e:	692d                	lui	s2,0xb
      60:	3e6e                	fld	ft8,248(sp)
      62:	0000                	unimp
      64:	0000                	unimp
      66:	0500                	addi	s0,sp,640
      68:	0001                	nop
      6a:	0205                	addi	tp,tp,1
      6c:	0000                	unimp
      6e:	0000                	unimp
      70:	0103d703          	lhu	a4,16(t2) # 10 <InterruptVector+0x10>
      74:	0205                	addi	tp,tp,1
      76:	00090103          	lb	sp,0(s2) # b000 <wiring.c.7604182b+0x8607>
      7a:	0100                	addi	s0,sp,128
      7c:	0105                	addi	sp,sp,1
      7e:	0306                	slli	t1,t1,0x1
      80:	097f                	0x97f
      82:	0000                	unimp
      84:	0501                	addi	a0,a0,0
      86:	0304                	addi	s1,sp,384
      88:	0901                	addi	s2,s2,0
      8a:	0000                	unimp
      8c:	0501                	addi	a0,a0,0
      8e:	0602                	c.slli64	a2
      90:	00090103          	lb	sp,0(s2)
      94:	0100                	addi	s0,sp,128
      96:	00090103          	lb	sp,0(s2)
      9a:	0100                	addi	s0,sp,128
      9c:	0905                	addi	s2,s2,1
      9e:	0306                	slli	t1,t1,0x1
      a0:	0900                	addi	s0,sp,144
      a2:	0000                	unimp
      a4:	0501                	addi	a0,a0,0
      a6:	0602                	c.slli64	a2
      a8:	00090103          	lb	sp,0(s2)
      ac:	0100                	addi	s0,sp,128
      ae:	00090203          	lb	tp,0(s2)
      b2:	0100                	addi	s0,sp,128
      b4:	0905                	addi	s2,s2,1
      b6:	0306                	slli	t1,t1,0x1
      b8:	0900                	addi	s0,sp,144
      ba:	0000                	unimp
      bc:	0501                	addi	a0,a0,0
      be:	000e                	c.slli	zero,0x3
      c0:	0402                	c.slli64	s0
      c2:	0601                	addi	a2,a2,0
int main() {
      c4:	00090003          	lb	zero,0(s2)
      c8:	0100                	addi	s0,sp,128
      ca:	0705                	addi	a4,a4,1
	RCC->CFGR0 = RCC_HPRE_DIV1 | RCC_PLLSRC_HSI_Mul2;      // PLLCLK = HSI * 2 = 48 MHz; HCLK = SYSCLK = APB1
      cc:	0200                	addi	s0,sp,256
      ce:	0104                	addi	s1,sp,128
	RCC->CTLR  = RCC_HSION | RCC_PLLON | ((HSITRIM) << 3); // Use HSI, but enable PLL.
      d0:	0306                	slli	t1,t1,0x1
      d2:	0901                	addi	s2,s2,0
	RCC->CFGR0 = RCC_HPRE_DIV1 | RCC_PLLSRC_HSI_Mul2;      // PLLCLK = HSI * 2 = 48 MHz; HCLK = SYSCLK = APB1
      d4:	0000                	unimp
      d6:	0501                	addi	a0,a0,0
	RCC->CTLR  = RCC_HSION | RCC_PLLON | ((HSITRIM) << 3); // Use HSI, but enable PLL.
      d8:	0002                	c.slli64	zero
      da:	0402                	c.slli64	s0
      dc:	0301                	addi	t1,t1,0
	FLASH->ACTLR = FLASH_ACTLR_LATENCY_1;                  // 1 Cycle Latency
      de:	097f                	0x97f
      e0:	0000                	unimp
      e2:	0601                	addi	a2,a2,0
      e4:	00090603          	lb	a2,0(s2)
	RCC->INTR  = 0x009F0000;                               // Clear PLL, CSSC, HSE, HSI and LSI ready flags.
      e8:	0100                	addi	s0,sp,128
      ea:	1005                	c.nop	-31
	while((RCC->CTLR & RCC_PLLRDY) == 0);                                      // Wait till PLL is ready
      ec:	0306                	slli	t1,t1,0x1
      ee:	0900                	addi	s0,sp,144
      f0:	0000                	unimp
      f2:	0501                	addi	a0,a0,0
      f4:	0602                	c.slli64	a2
      f6:	00090103          	lb	sp,0(s2)
	RCC->CFGR0 = ( RCC->CFGR0 & ((uint32_t)~(RCC_SW))) | (uint32_t)RCC_SW_PLL; // Select PLL as system clock source
      fa:	0100                	addi	s0,sp,128
	while ((RCC->CFGR0 & (uint32_t)RCC_SWS) != (uint32_t)0x08);                // Wait till PLL is used as system clock source
      fc:	1405                	addi	s0,s0,-31
	RCC->CFGR0 = ( RCC->CFGR0 & ((uint32_t)~(RCC_SW))) | (uint32_t)RCC_SW_PLL; // Select PLL as system clock source
      fe:	0306                	slli	t1,t1,0x1
     100:	0900                	addi	s0,sp,144
     102:	0000                	unimp
     104:	0501                	addi	a0,a0,0
	while ((RCC->CFGR0 & (uint32_t)RCC_SWS) != (uint32_t)0x08);                // Wait till PLL is used as system clock source
     106:	0301                	addi	t1,t1,0
     108:	0901                	addi	s2,s2,0
     10a:	0000                	unimp
     10c:	0501                	addi	a0,a0,0
     10e:	79030603          	lb	a2,1936(t1)
	RCC->APB2PCENR |=	RCC_APB2Periph_GPIOA | RCC_APB2Periph_GPIOC |
     112:	0009                	c.nop	2
     114:	0100                	addi	s0,sp,128
     116:	2e05                	jal	446 <handle_reset+0x6>
     118:	0306                	slli	t1,t1,0x1
     11a:	0900                	addi	s0,sp,144
     11c:	0000                	unimp
	RCC->APB1PCENR |=	RCC_APB1Periph_TIM2;
     11e:	0501                	addi	a0,a0,0
	RCC->APB2PRSTR |=  RCC_APB2Periph_TIM1;
     120:	0305                	addi	t1,t1,1
     122:	0900                	addi	s0,sp,144
	RCC->APB2PRSTR &= ~RCC_APB2Periph_TIM1;
     124:	0000                	unimp
	RCC->APB1PCENR |=	RCC_APB1Periph_TIM2;
     126:	0501                	addi	a0,a0,0
     128:	04020003          	lb	zero,64(tp) # 40 <InterruptVector+0x40>
	RCC->APB2PRSTR |=  RCC_APB2Periph_TIM1;
     12c:	0602                	c.slli64	a2
	GPIOC->CFGLR &= ~(0xf<<(4*GPIO_PinSource4));
     12e:	00090303          	lb	t1,0(s2)
     132:	0100                	addi	s0,sp,128
	RCC->APB2PRSTR |=  RCC_APB2Periph_TIM1;
     134:	1005                	c.nop	-31
     136:	0200                	addi	s0,sp,256
	RCC->APB2PRSTR &= ~RCC_APB2Periph_TIM1;
     138:	0204                	addi	s1,sp,256
     13a:	0306                	slli	t1,t1,0x1
     13c:	0900                	addi	s0,sp,144
	GPIOC->CFGLR &= ~(0xf<<(4*GPIO_PinSource2));
     13e:	0000                	unimp
     140:	0501                	addi	a0,a0,0
	RCC->APB2PRSTR &= ~RCC_APB2Periph_TIM1;
     142:	04020017          	auipc	zero,0x4020
	RCC->APB1PRSTR |=  RCC_APB1Periph_TIM2;
     146:	0302                	c.slli64	t1
	TIM1->PSC = 0x0000;
     148:	0900                	addi	s0,sp,144
     14a:	0000                	unimp
	TIM1->ATRLR = 255;
     14c:	0501                	addi	a0,a0,0
     14e:	0018                	0x18
	RCC->APB1PRSTR |=  RCC_APB1Periph_TIM2;
     150:	0402                	c.slli64	s0
     152:	0302                	c.slli64	t1
     154:	097c                	addi	a5,sp,156
	RCC->APB1PRSTR &= ~RCC_APB1Periph_TIM2;
     156:	0000                	unimp
	TIM1->CCER |= TIM_CC4E | TIM_CC4P;	// Enable T1CH4 output, positive pol
     158:	0501                	addi	a0,a0,0
	RCC->APB1PRSTR &= ~RCC_APB1Periph_TIM2;
     15a:	0014                	0x14
     15c:	0402                	c.slli64	s0
	GPIOC->CFGLR &= ~(0xf<<(4*GPIO_PinSource4));
     15e:	0302                	c.slli64	t1
     160:	0904                	addi	s1,sp,144
     162:	0000                	unimp
     164:	0501                	addi	a0,a0,0
     166:	04020017          	auipc	zero,0x4020
	GPIOC->CFGLR |= (GPIO_Speed_10MHz | GPIO_CNF_OUT_OD_AF)<<(4*GPIO_PinSource4);
     16a:	0602                	c.slli64	a2
     16c:	00097c03          	0x97c03
     170:	0100                	addi	s0,sp,128
	GPIOA->CFGLR &= ~(0xf<<(4*GPIO_PinSource1));
     172:	0009                	c.nop	2
     174:	0000                	unimp
	GPIOC->CFGLR |= (GPIO_Speed_10MHz | GPIO_CNF_OUT_OD_AF)<<(4*GPIO_PinSource2);
     176:	0101                	addi	sp,sp,0
     178:	0105                	addi	sp,sp,1
	GPIOA->CFGLR &= ~(0xf<<(4*GPIO_PinSource1));
     17a:	0500                	addi	s0,sp,640
     17c:	0002                	c.slli64	zero
     17e:	0000                	unimp
     180:	0300                	addi	s0,sp,384
	GPIOA->CFGLR |= (GPIO_Speed_10MHz | GPIO_CNF_OUT_OD_AF)<<(4*GPIO_PinSource1);
     182:	03b8                	addi	a4,sp,456
     184:	0501                	addi	a0,a0,0
     186:	0302                	c.slli64	t1
     188:	0901                	addi	s2,s2,0
     18a:	0000                	unimp
     18c:	0301                	addi	t1,t1,0
	GPIOC->CFGLR &= ~(0xf<<(4*GPIO_PinSource2));
     18e:	0901                	addi	s2,s2,0
     190:	0000                	unimp
     192:	0301                	addi	t1,t1,0
     194:	0901                	addi	s2,s2,0
	GPIOC->CFGLR |= (GPIO_Speed_10MHz | GPIO_CNF_OUT_OD_AF)<<(4*GPIO_PinSource2);
     196:	0000                	unimp
     198:	0301                	addi	t1,t1,0
     19a:	0901                	addi	s2,s2,0
	GPIOC->CFGLR &= ~(0xf<<(4*GPIO_PinSource1));
     19c:	0000                	unimp
	AFIO->PCFR1 |= AFIO_PCFR1_TIM2_REMAP_PARTIALREMAP1;
     19e:	0501                	addi	a0,a0,0
     1a0:	0601                	addi	a2,a2,0
	GPIOC->CFGLR &= ~(0xf<<(4*GPIO_PinSource1));
     1a2:	00097c03          	0x97c03
     1a6:	0100                	addi	s0,sp,128
	GPIOC->CFGLR |= (GPIO_Speed_10MHz | GPIO_CNF_OUT_OD_AF)<<(4*GPIO_PinSource1);
     1a8:	00090003          	lb	zero,0(s2)
     1ac:	0100                	addi	s0,sp,128
     1ae:	0605                	addi	a2,a2,1
	AFIO->PCFR1 |= AFIO_PCFR1_TIM2_REMAP_PARTIALREMAP1;
     1b0:	00090203          	lb	tp,0(s2)
     1b4:	0100                	addi	s0,sp,128
     1b6:	0405                	addi	s0,s0,1
	TIM1->PSC = 0x0000;
     1b8:	00090203          	lb	tp,0(s2)
	TIM2->PSC = 0x0000;
     1bc:	0100                	addi	s0,sp,128
     1be:	0205                	addi	tp,tp,1
     1c0:	0306                	slli	t1,t1,0x1
     1c2:	0901                	addi	s2,s2,0
	TIM1->ATRLR = 255;
     1c4:	0000                	unimp
     1c6:	0501                	addi	a0,a0,0
	TIM2->ATRLR = 255;
     1c8:	0604                	addi	s1,sp,768
     1ca:	00090003          	lb	zero,0(s2)
	TIM1->SWEVGR |= TIM_UG;
     1ce:	0100                	addi	s0,sp,128
     1d0:	0c05                	addi	s8,s8,1
     1d2:	00090203          	lb	tp,0(s2)
     1d6:	0100                	addi	s0,sp,128
     1d8:	0205                	addi	tp,tp,1
     1da:	0306                	slli	t1,t1,0x1
	TIM2->SWEVGR |= TIM_UG;
     1dc:	0902                	c.slli64	s2
     1de:	0000                	unimp
     1e0:	0501                	addi	a0,a0,0
     1e2:	0608                	addi	a0,sp,768
     1e4:	00090003          	lb	zero,0(s2)
     1e8:	0100                	addi	s0,sp,128
     1ea:	1005                	c.nop	-31
	TIM1->CTLR1 |= TIM_ARPE;
     1ec:	00090103          	lb	sp,0(s2)
     1f0:	0100                	addi	s0,sp,128
     1f2:	0f05                	addi	t5,t5,1
     1f4:	0200                	addi	s0,sp,256
     1f6:	0104                	addi	s1,sp,128
     1f8:	0306                	slli	t1,t1,0x1
     1fa:	0902                	c.slli64	s2
	TIM2->CTLR1 |= TIM_ARPE;
     1fc:	0000                	unimp
     1fe:	0501                	addi	a0,a0,0
     200:	0002                	c.slli64	zero
     202:	0402                	c.slli64	s0
     204:	0601                	addi	a2,a2,0
     206:	00090003          	lb	zero,0(s2)
     20a:	0100                	addi	s0,sp,128
	TIM1->CH2CVR = 16; //T1CH2/PA1/pin1
     20c:	0306                	slli	t1,t1,0x1
     20e:	00000903          	lb	s2,0(zero) # 0 <InterruptVector>
	TIM1->CH4CVR = 16; //T1CH4/PC4/pin7
     212:	0501                	addi	a0,a0,0
     214:	0606                	slli	a2,a2,0x1
	TIM2->CH2CVR = 16; //T2CH2/PC2/pin6*
     216:	00090003          	lb	zero,0(s2)
	TIM1->CCER |= TIM_CC2E | TIM_CC2P;	// Enable T1CH2 output, positive pol
     21a:	0100                	addi	s0,sp,128
     21c:	0205                	addi	tp,tp,1
     21e:	0306                	slli	t1,t1,0x1
     220:	0901                	addi	s2,s2,0
     222:	0000                	unimp
     224:	0501                	addi	a0,a0,0
     226:	0604                	addi	s1,sp,768
     228:	00090003          	lb	zero,0(s2)
	TIM1->CCER |= TIM_CC4E | TIM_CC4P;	// Enable T1CH4 output, positive pol
     22c:	0100                	addi	s0,sp,128
     22e:	1505                	addi	a0,a0,-31
     230:	00090103          	lb	sp,0(s2)
     234:	0100                	addi	s0,sp,128
     236:	0405                	addi	s0,s0,1
     238:	0306                	slli	t1,t1,0x1
     23a:	0901                	addi	s2,s2,0
     23c:	0000                	unimp
	TIM2->CCER |= TIM_CC2E | TIM_CC2P;	// Enable T2CH2 output, positive pol
     23e:	0501                	addi	a0,a0,0
     240:	0615                	addi	a2,a2,5
     242:	00090003          	lb	zero,0(s2)
     246:	0100                	addi	s0,sp,128
     248:	2a05                	jal	378 <main+0x2b4>
     24a:	0306                	slli	t1,t1,0x1
     24c:	097f                	0x97f
	TIM2->CCER |= TIM_CC4E | TIM_CC4P;	// Enable T2CH4 output, positive pol
     24e:	0000                	unimp
     250:	0501                	addi	a0,a0,0
     252:	0900030f          	0x900030f
     256:	0000                	unimp
     258:	0501                	addi	a0,a0,0
     25a:	060d                	addi	a2,a2,3
     25c:	00090103          	lb	sp,0(s2)
     260:	0100                	addi	s0,sp,128
	TIM1->CHCTLR1 |= TIM_OC2M_2 | TIM_OC2M_1;	// CH2 Mode is output, PWM1 (CC1S = 00, OC1M = 110)
     262:	1505                	addi	a0,a0,-31
     264:	00097f03          	0x97f03
     268:	0100                	addi	s0,sp,128
     26a:	0405                	addi	s0,s0,1
     26c:	0306                	slli	t1,t1,0x1
     26e:	0901                	addi	s2,s2,0
     270:	0000                	unimp
     272:	0501                	addi	a0,a0,0
     274:	0615                	addi	a2,a2,5
     276:	00090003          	lb	zero,0(s2)
	TIM1->CHCTLR2 |= TIM_OC4M_2 | TIM_OC4M_1;	// CH4 Mode is output, PWM1 (CC1S = 00, OC1M = 110)
     27a:	0100                	addi	s0,sp,128
     27c:	2a05                	jal	3ac <main+0x2e8>
     27e:	0306                	slli	t1,t1,0x1
     280:	097f                	0x97f
     282:	0000                	unimp
     284:	0501                	addi	a0,a0,0
     286:	0900030f          	0x900030f
     28a:	0000                	unimp
	TIM2->CHCTLR1 |= TIM_OC2M_2 | TIM_OC2M_1 | TIM_OC2PE;
     28c:	0501                	addi	a0,a0,0
     28e:	060d                	addi	a2,a2,3
     290:	00090103          	lb	sp,0(s2)
     294:	0100                	addi	s0,sp,128
     296:	1505                	addi	a0,a0,-31
     298:	00097f03          	0x97f03
     29c:	0100                	addi	s0,sp,128
     29e:	0405                	addi	s0,s0,1
     2a0:	0200                	addi	s0,sp,256
     2a2:	0404                	addi	s1,sp,512
     2a4:	0306                	slli	t1,t1,0x1
	TIM2->CHCTLR2 |= TIM_OC4M_2 | TIM_OC4M_1 | TIM_OC4PE;
     2a6:	0901                	addi	s2,s2,0
     2a8:	0000                	unimp
	TIM1->BDTR  |= TIM_MOE;	// Brake and deadband registers
     2aa:	0501                	addi	a0,a0,0
	TIM2->CHCTLR2 |= TIM_OC4M_2 | TIM_OC4M_1 | TIM_OC4PE;
     2ac:	0015                	c.nop	5
     2ae:	0402                	c.slli64	s0
     2b0:	0604                	addi	s1,sp,768
     2b2:	00090003          	lb	zero,0(s2)
     2b6:	0100                	addi	s0,sp,128
     2b8:	2a05                	jal	3e8 <main+0x324>
     2ba:	0200                	addi	s0,sp,256
	TIM1->BDTR  |= TIM_MOE;	// Brake and deadband registers
     2bc:	0404                	addi	s1,sp,512
     2be:	0306                	slli	t1,t1,0x1
     2c0:	097f                	0x97f
     2c2:	0000                	unimp
     2c4:	0501                	addi	a0,a0,0
     2c6:	0402000f          	0x402000f
	TIM1->CTLR1 |= TIM_CEN;	// Enable TIM1
     2ca:	0304                	addi	s1,sp,384
     2cc:	0900                	addi	s0,sp,144
     2ce:	0000                	unimp
     2d0:	0501                	addi	a0,a0,0
     2d2:	0601                	addi	a2,a2,0
     2d4:	00090503          	lb	a0,0(s2)
     2d8:	0100                	addi	s0,sp,128
	TIM2->CTLR1 |= TIM_CEN;	// Enable TIM2
     2da:	0405                	addi	s0,s0,1
     2dc:	00096e03          	0x96e03
     2e0:	0100                	addi	s0,sp,128
     2e2:	0305                	addi	t1,t1,1
     2e4:	0200                	addi	s0,sp,256
     2e6:	0304                	addi	s1,sp,384
     2e8:	0306                	slli	t1,t1,0x1
	SysTick->CTLR = 0;
     2ea:	0909                	addi	s2,s2,2
     2ec:	0000                	unimp
     2ee:	0501                	addi	a0,a0,0
     2f0:	0012                	c.slli	zero,0x4
     2f2:	0402                	c.slli64	s0
     2f4:	00030603          	lb	a2,0(t1)
     2f8:	0009                	c.nop	2
	SysTick->CMP = (SYSTEM_CORE_CLOCK/SYSTICKHZ)-1;
     2fa:	0100                	addi	s0,sp,128
     2fc:	1005                	c.nop	-31
     2fe:	0200                	addi	s0,sp,256
     300:	0304                	addi	s1,sp,384
	SysTick->CNT = 0;
     302:	00090003          	lb	zero,0(s2)
	SysTick->CTLR = SYSTICK_CTLR_STE | SYSTICK_CTLR_STIE |
     306:	0100                	addi	s0,sp,128
     308:	1605                	addi	a2,a2,-31
	RCC->CFGR0 &= ~(0x1F<<11);
     30a:	0200                	addi	s0,sp,256
     30c:	0304                	addi	s1,sp,384
     30e:	0306                	slli	t1,t1,0x1
     310:	097f                	0x97f
     312:	0000                	unimp
     314:	0901                	addi	s2,s2,0
	RCC->APB2PCENR |= RCC_APB2Periph_GPIOA | RCC_APB2Periph_ADC1;
     316:	0000                	unimp
     318:	0100                	addi	s0,sp,128
     31a:	0501                	addi	a0,a0,0
     31c:	0001                	nop
	GPIOA->CFGLR &= ~(0xf<<(4*GPIO_PinSource2));	// CNF = 00: Analog, MODE = 00: Input
     31e:	0205                	addi	tp,tp,1
     320:	0000                	unimp
     322:	0000                	unimp
     324:	01038e03          	lb	t3,16(t2)
     328:	0205                	addi	tp,tp,1
	RCC->APB2PRSTR |= RCC_APB2Periph_ADC1;
     32a:	00090b03          	lb	s6,0(s2)
	ADC1->CTLR2 |= ADC_ADON | ADC_EXTSEL;
     32e:	0100                	addi	s0,sp,128
     330:	0105                	addi	sp,sp,1
	RCC->APB2PRSTR |= RCC_APB2Periph_ADC1;
     332:	0306                	slli	t1,t1,0x1
     334:	0975                	addi	s2,s2,29
     336:	0000                	unimp
	RCC->APB2PRSTR &= ~RCC_APB2Periph_ADC1;
     338:	0501                	addi	a0,a0,0
     33a:	0306                	slli	t1,t1,0x1
     33c:	0904                	addi	s1,sp,144
     33e:	0000                	unimp
	ADC1->RSQR1 = 0;
     340:	0501                	addi	a0,a0,0
     342:	0301                	addi	t1,t1,0
     344:	097c                	addi	a5,sp,156
     346:	0000                	unimp
	ADC1->RSQR2 = 0;
     348:	0501                	addi	a0,a0,0
     34a:	0305                	addi	t1,t1,1
	ADC1->RSQR3 = ADC_Channel_0;	// 0-9 for 8 ext inputs and two internals
     34c:	0000090b          	0x90b
	ADC1->SAMPTR2 &= ~ADC_SMP2;
     350:	0501                	addi	a0,a0,0
     352:	0310                	addi	a2,sp,384
     354:	0900                	addi	s0,sp,144
     356:	0000                	unimp
     358:	0501                	addi	a0,a0,0
     35a:	01030603          	lb	a2,16(t1)
	ADC1->SAMPTR2 |= ( ADC_SampleTime_3Cycles << (3 * ADC_Channel_0 ) );	// 0:7 => 3/9/15/30/43/57/73/241 cycles
     35e:	0009                	c.nop	2
     360:	0100                	addi	s0,sp,128
     362:	00090103          	lb	sp,0(s2)
	ADC1->CTLR2 |= ADC_ADON | ADC_EXTSEL;
     366:	0100                	addi	s0,sp,128
     368:	0c05                	addi	s8,s8,1
     36a:	0306                	slli	t1,t1,0x1
     36c:	097f                	0x97f
	ADC1->CTLR2 |= ADC_RSTCAL;
     36e:	0000                	unimp
     370:	0501                	addi	a0,a0,0
	while(ADC1->CTLR2 & ADC_RSTCAL);
     372:	0309                	addi	t1,t1,2
     374:	0901                	addi	s2,s2,0
	ADC1->CTLR2 |= ADC_RSTCAL;
     376:	0000                	unimp
     378:	0501                	addi	a0,a0,0
     37a:	030c                	addi	a1,sp,384
     37c:	097f                	0x97f
	while(ADC1->CTLR2 & ADC_RSTCAL);
     37e:	0000                	unimp
     380:	0501                	addi	a0,a0,0
     382:	0306                	slli	t1,t1,0x1
     384:	0978                	addi	a4,sp,156
	ADC1->CTLR2 |= ADC_CAL;
     386:	0000                	unimp
     388:	0501                	addi	a0,a0,0
     38a:	0310                	addi	a2,sp,384
     38c:	0000090f          	0x90f
     390:	0501                	addi	a0,a0,0
	while(ADC1->CTLR2 & ADC_CAL);
     392:	0315                	addi	t1,t1,5
     394:	097f                	0x97f
     396:	0000                	unimp
     398:	0501                	addi	a0,a0,0
     39a:	0602                	c.slli64	a2
     39c:	00097f03          	0x97f03
                Delay_Ms(( Delay >> 3 ) + 5 );
     3a0:	0100                	addi	s0,sp,128
                int temp=LEDs[0].brightness;
     3a2:	0305                	addi	t1,t1,1
     3a4:	00090103          	lb	sp,0(s2)
	ADC1->CTLR2 |= ADC_SWSTART;
     3a8:	0100                	addi	s0,sp,128
     3aa:	1505                	addi	a0,a0,-31
     3ac:	0306                	slli	t1,t1,0x1
	uint32_t targend = SysTick->CNT + n;
     3ae:	0900                	addi	s0,sp,144
     3b0:	0000                	unimp
                Delay_Ms(( Delay >> 3 ) + 5 );
     3b2:	0501                	addi	a0,a0,0
     3b4:	01030603          	lb	a2,16(t1)
                int temp=LEDs[0].brightness;
     3b8:	0009                	c.nop	2
     3ba:	0100                	addi	s0,sp,128
	ADC1->CTLR2 |= ADC_SWSTART;
     3bc:	1005                	c.nop	-31
     3be:	0306                	slli	t1,t1,0x1
     3c0:	0900                	addi	s0,sp,144
     3c2:	0000                	unimp
     3c4:	0501                	addi	a0,a0,0
     3c6:	0324                	addi	s1,sp,392
	while(!(ADC1->STATR & ADC_EOC));
     3c8:	0900                	addi	s0,sp,144
     3ca:	0000                	unimp
     3cc:	0501                	addi	a0,a0,0
     3ce:	0310                	addi	a2,sp,384
	return ADC1->RDATAR;
     3d0:	0900                	addi	s0,sp,144
     3d2:	0000                	unimp
     3d4:	0501                	addi	a0,a0,0
     3d6:	030c                	addi	a1,sp,384
                Delay_Ms(( Delay >> 3 ) + 5 );
     3d8:	0900                	addi	s0,sp,144
     3da:	0000                	unimp
     3dc:	0501                	addi	a0,a0,0
     3de:	0310                	addi	a2,sp,384
     3e0:	0900                	addi	s0,sp,144
     3e2:	0000                	unimp
     3e4:	0501                	addi	a0,a0,0
     3e6:	0309                	addi	t1,t1,2
     3e8:	0901                	addi	s2,s2,0
     3ea:	0000                	unimp
     3ec:	0501                	addi	a0,a0,0
     3ee:	0310                	addi	a2,sp,384
     3f0:	097f                	0x97f
     3f2:	0000                	unimp
     3f4:	0501                	addi	a0,a0,0
     3f6:	01030603          	lb	a2,16(t1)
	while( ((int32_t)( SysTick->CNT - targend )) < 0 );
     3fa:	0009                	c.nop	2
     3fc:	0100                	addi	s0,sp,128
     3fe:	0905                	addi	s2,s2,1
     400:	0306                	slli	t1,t1,0x1
     402:	0900                	addi	s0,sp,144
                int temp=LEDs[0].brightness;
     404:	0000                	unimp
     406:	0501                	addi	a0,a0,0
                for(int i=1; i<12; i++){
     408:	0302                	c.slli64	t1
     40a:	0901                	addi	s2,s2,0
                int temp=LEDs[0].brightness;
     40c:	0000                	unimp
     40e:	0501                	addi	a0,a0,0
                        LEDs[i-1].brightness=LEDs[i].brightness;
     410:	0309                	addi	t1,t1,2
     412:	097f                	0x97f
     414:	0000                	unimp
     416:	0501                	addi	a0,a0,0
     418:	060a                	slli	a2,a2,0x2
     41a:	00090103          	lb	sp,0(s2)
     41e:	0100                	addi	s0,sp,128
     420:	0205                	addi	tp,tp,1
     422:	0306                	slli	t1,t1,0x1
     424:	0900                	addi	s0,sp,144
     426:	0000                	unimp
     428:	0601                	addi	a2,a2,0
     42a:	00090203          	lb	tp,0(s2)
     42e:	0100                	addi	s0,sp,128
     430:	0505                	addi	a0,a0,1
     432:	0306                	slli	t1,t1,0x1
                for(int i=1; i<12; i++){
     434:	0900                	addi	s0,sp,144
     436:	0000                	unimp
     438:	0501                	addi	a0,a0,0
                LEDs[11].brightness=temp;
     43a:	01030603          	lb	a2,16(t1)
	while(1){
     43e:	0009                	c.nop	2
	asm volatile( "\n\
     440:	0100                	addi	s0,sp,128
     442:	1005                	c.nop	-31
     444:	0306                	slli	t1,t1,0x1
     446:	0900                	addi	s0,sp,144
     448:	0000                	unimp
     44a:	0501                	addi	a0,a0,0
     44c:	030c                	addi	a1,sp,384
     44e:	0900                	addi	s0,sp,144
     450:	0000                	unimp
     452:	0501                	addi	a0,a0,0
     454:	0602                	c.slli64	a2
     456:	00090203          	lb	tp,0(s2)
     45a:	0100                	addi	s0,sp,128
     45c:	0605                	addi	a2,a2,1
     45e:	0306                	slli	t1,t1,0x1
     460:	0904                	addi	s1,sp,144
     462:	0000                	unimp
     464:	0501                	addi	a0,a0,0
     466:	0316                	slli	t1,t1,0x5
asm volatile(
     468:	0901                	addi	s2,s2,0
     46a:	0000                	unimp
     46c:	0501                	addi	a0,a0,0
     46e:	030d                	addi	t1,t1,3
     470:	0000097b          	0x97b
     474:	0501                	addi	a0,a0,0
     476:	0602                	c.slli64	a2
     478:	00090403          	lb	s0,0(s2)
     47c:	0100                	addi	s0,sp,128
     47e:	00090103          	lb	sp,0(s2)
     482:	0100                	addi	s0,sp,128
     484:	1605                	addi	a2,a2,-31
     486:	0306                	slli	t1,t1,0x1
     488:	0900                	addi	s0,sp,144
     48a:	0000                	unimp
     48c:	0501                	addi	a0,a0,0
     48e:	0309                	addi	t1,t1,2
     490:	0900                	addi	s0,sp,144
     492:	0000                	unimp
     494:	0501                	addi	a0,a0,0
     496:	060e                	slli	a2,a2,0x3
     498:	00090003          	lb	zero,0(s2)
     49c:	0100                	addi	s0,sp,128
     49e:	0205                	addi	tp,tp,1
     4a0:	0306                	slli	t1,t1,0x1
     4a2:	0900                	addi	s0,sp,144
     4a4:	0000                	unimp
     4a6:	0501                	addi	a0,a0,0
     4a8:	0301                	addi	t1,t1,0
	SETUP_SYSTICK_HCLK
     4aa:	00000907          	0x907
     4ae:	0501                	addi	a0,a0,0
     4b0:	0302                	c.slli64	t1
asm volatile(
     4b2:	0000096f          	jal	s2,4b2 <handle_reset+0x72>
     4b6:	0501                	addi	a0,a0,0
     4b8:	0310                	addi	a2,sp,384
     4ba:	097e                	slli	s2,s2,0x1f
     4bc:	0000                	unimp
	asm volatile( "1: j 1b" );
     4be:	0501                	addi	a0,a0,0
{
     4c0:	0d030603          	lb	a2,208(t1)
     4c4:	0009                	c.nop	2
     4c6:	0100                	addi	s0,sp,128
	SysTick->CMP += (SYSTEM_CORE_CLOCK/SYSTICKHZ); 
     4c8:	1505                	addi	a0,a0,-31
     4ca:	0306                	slli	t1,t1,0x1
{
     4cc:	0901                	addi	s2,s2,0
     4ce:	0000                	unimp
	SysTick->CMP += (SYSTEM_CORE_CLOCK/SYSTICKHZ); 
     4d0:	0501                	addi	a0,a0,0
     4d2:	0308                	addi	a0,sp,384
{
     4d4:	097f                	0x97f
     4d6:	0000                	unimp
	SysTick->CMP += (SYSTEM_CORE_CLOCK/SYSTICKHZ); 
     4d8:	0501                	addi	a0,a0,0
     4da:	01030603          	lb	a2,16(t1)
     4de:	0009                	c.nop	2
{
     4e0:	0100                	addi	s0,sp,128
     4e2:	1c05                	addi	s8,s8,-31
     4e4:	0306                	slli	t1,t1,0x1
     4e6:	097e                	slli	s2,s2,0x1f
     4e8:	0000                	unimp
     4ea:	0501                	addi	a0,a0,0
     4ec:	030d                	addi	t1,t1,3
     4ee:	0902                	c.slli64	s2
	SysTick->CMP += (SYSTEM_CORE_CLOCK/SYSTICKHZ); 
     4f0:	0000                	unimp
     4f2:	0501                	addi	a0,a0,0
{
     4f4:	01030603          	lb	a2,16(t1)
     4f8:	0009                	c.nop	2
     4fa:	0100                	addi	s0,sp,128
     4fc:	1305                	addi	t1,t1,-31
     4fe:	0306                	slli	t1,t1,0x1
     500:	0900                	addi	s0,sp,144
     502:	0000                	unimp
	SysTick->CMP += (SYSTEM_CORE_CLOCK/SYSTICKHZ); 
     504:	0501                	addi	a0,a0,0
     506:	7d03061b          	0x7d03061b
	SysTick->SR = 0;
     50a:	0009                	c.nop	2
		GPIO_Float(	LEDs[group[currentgroup][i]].cathode->port,
     50c:	0100                	addi	s0,sp,128
     50e:	0009                	c.nop	2
     510:	0000                	unimp
     512:	0101                	addi	sp,sp,0
     514:	0204                	addi	s1,sp,256
     516:	0c05                	addi	s8,s8,1
     518:	0500                	addi	s0,sp,640
     51a:	c402                	sw	zero,8(sp)
     51c:	0000                	unimp
     51e:	0300                	addi	s0,sp,384
     520:	039c                	addi	a5,sp,448
     522:	0501                	addi	a0,a0,0
     524:	0302                	c.slli64	t1
     526:	0901                	addi	s2,s2,0
	for(int i=0;i<3;i++){
     528:	0000                	unimp
     52a:	0401                	addi	s0,s0,0
		GPIO_Float(	LEDs[group[currentgroup][i]].cathode->port,
     52c:	0301                	addi	t1,t1,0
     52e:	039c                	addi	a5,sp,448
        port->CFGLR &= ~(0xf<<(4*pin)); //clear GPIO config - default config is as an input, Hi-Z
     530:	0009                	c.nop	2
     532:	0100                	addi	s0,sp,128
		GPIO_Float(	LEDs[group[currentgroup][i]].cathode->port,
     534:	0204                	addi	s1,sp,256
     536:	0c05                	addi	s8,s8,1
     538:	0306                	slli	t1,t1,0x1
     53a:	00097ce3          	bgeu	s2,zero,d52 <_data_lma+0x57e>
	for(int i=0;i<3;i++){
     53e:	0100                	addi	s0,sp,128
		GPIO_Float(	LEDs[group[currentgroup][i]].cathode->port,
     540:	0104                	addi	s1,sp,128
     542:	0d05                	addi	s10,s10,1
     544:	09039d03          	lh	s10,144(t2)
     548:	0008                	0x8
     54a:	0301                	addi	t1,t1,0
     54c:	0901                	addi	s2,s2,0
     54e:	0004                	0x4
     550:	0301                	addi	t1,t1,0
     552:	097f                	0x97f
     554:	0004                	0x4
     556:	0501                	addi	a0,a0,0
     558:	0602                	c.slli64	a2
     55a:	04090103          	lb	sp,64(s2)
     55e:	0100                	addi	s0,sp,128
				LEDs[group[currentgroup][i]].cathode->pin,
     560:	0d05                	addi	s10,s10,1
     562:	0306                	slli	t1,t1,0x1
				LEDs[group[currentgroup][i]].cathode->timer,
     564:	0900                	addi	s0,sp,144
     566:	0000                	unimp
				LEDs[group[currentgroup][i]].cathode->channel
     568:	0501                	addi	a0,a0,0
     56a:	0602                	c.slli64	a2
		GPIO_Float(	LEDs[group[currentgroup][i]].cathode->port,
     56c:	06090103          	lb	sp,96(s2)
     570:	0100                	addi	s0,sp,128
     572:	0f05                	addi	t5,t5,1
        timer->CCER &= ~channel;        //disable this channel output
     574:	0306                	slli	t1,t1,0x1
     576:	0900                	addi	s0,sp,144
        port->CFGLR &= ~(0xf<<(4*pin)); //clear GPIO config - default config is as an input, Hi-Z
     578:	0000                	unimp
     57a:	0501                	addi	a0,a0,0
        timer->CCER &= ~channel;        //disable this channel output
     57c:	0602                	c.slli64	a2
     57e:	08090103          	lb	sp,128(s2)
     582:	0100                	addi	s0,sp,128
        port->CFGLR &= ~(0xf<<(4*pin)); //clear GPIO config - default config is as an input, Hi-Z
     584:	0d05                	addi	s10,s10,1
     586:	0306                	slli	t1,t1,0x1
        timer->CCER &= ~channel;        //disable this channel output
     588:	0900                	addi	s0,sp,144
     58a:	0000                	unimp
     58c:	0501                	addi	a0,a0,0
     58e:	0602                	c.slli64	a2
     590:	06090303          	lb	t1,96(s2)
     594:	0100                	addi	s0,sp,128
     596:	1305                	addi	t1,t1,-31
        port->CFGLR &= ~(0xf<<(4*pin)); //clear GPIO config - default config is as an input, Hi-Z
     598:	0306                	slli	t1,t1,0x1
     59a:	0900                	addi	s0,sp,144
     59c:	0000                	unimp
     59e:	0501                	addi	a0,a0,0
     5a0:	030c                	addi	a1,sp,384
     5a2:	0900                	addi	s0,sp,144
     5a4:	0004                	0x4
     5a6:	0501                	addi	a0,a0,0
	for(int i=0;i<3;i++){
     5a8:	0626                	slli	a2,a2,0x9
     5aa:	04090003          	lb	zero,64(s2)
     5ae:	0100                	addi	s0,sp,128
	if(++currentgroup == 4) currentgroup=0;
     5b0:	0705                	addi	a4,a4,1
     5b2:	00090003          	lb	zero,0(s2)
     5b6:	0100                	addi	s0,sp,128
     5b8:	0c05                	addi	s8,s8,1
     5ba:	0306                	slli	t1,t1,0x1
     5bc:	0900                	addi	s0,sp,144
     5be:	0000                	unimp
     5c0:	0501                	addi	a0,a0,0
     5c2:	09000313          	li	t1,144
		pwm_setpw(	LEDs[group[currentgroup][i]].cathode->timer,
     5c6:	0002                	c.slli64	zero
     5c8:	0501                	addi	a0,a0,0
     5ca:	09000307          	0x9000307
     5ce:	0002                	c.slli64	zero
     5d0:	0501                	addi	a0,a0,0
     5d2:	0602                	c.slli64	a2
     5d4:	02090103          	lb	sp,32(s2)
     5d8:	0100                	addi	s0,sp,128
     5da:	1405                	addi	s0,s0,-31
     5dc:	0306                	slli	t1,t1,0x1
     5de:	0900                	addi	s0,sp,144
     5e0:	0000                	unimp
     5e2:	0501                	addi	a0,a0,0
    	switch( chl )
     5e4:	0308                	addi	a0,sp,384
     5e6:	0901                	addi	s2,s2,0
     5e8:	0002                	c.slli64	zero
     5ea:	0501                	addi	a0,a0,0
     5ec:	031c                	addi	a5,sp,384
     5ee:	097f                	0x97f
     5f0:	0002                	c.slli64	zero
     5f2:	0501                	addi	a0,a0,0
	for(int i=0;i<3;i++){
     5f4:	0335                	addi	t1,t1,13
     5f6:	0900                	addi	s0,sp,144
		pwm_setpw(	LEDs[group[currentgroup][i]].cathode->timer,
     5f8:	0002                	c.slli64	zero
     5fa:	0501                	addi	a0,a0,0
     5fc:	030d                	addi	t1,t1,3
     5fe:	0900                	addi	s0,sp,144
     600:	0004                	0x4
     602:	0501                	addi	a0,a0,0
     604:	0602                	c.slli64	a2
     606:	02090103          	lb	sp,32(s2)
     60a:	0100                	addi	s0,sp,128
     60c:	0d05                	addi	s10,s10,1
     60e:	0306                	slli	t1,t1,0x1
     610:	0900                	addi	s0,sp,144
     612:	0000                	unimp
     614:	0501                	addi	a0,a0,0
     616:	063c                	addi	a5,sp,776
     618:	04090003          	lb	zero,64(s2)
				LEDs[group[currentgroup][i]].cathode->channel,
     61c:	0100                	addi	s0,sp,128
     61e:	0805                	addi	a6,a6,1
				LEDs[group[currentgroup][i]].brightness
     620:	00090003          	lb	zero,0(s2)
		pwm_setpw(	LEDs[group[currentgroup][i]].cathode->timer,
     624:	0100                	addi	s0,sp,128
     626:	0d05                	addi	s10,s10,1
				LEDs[group[currentgroup][i]].brightness
     628:	0306                	slli	t1,t1,0x1
     62a:	0900                	addi	s0,sp,144
    	switch( chl )
     62c:	0000                	unimp
     62e:	0501                	addi	a0,a0,0
     630:	0315                	addi	t1,t1,5
     632:	0900                	addi	s0,sp,144
     634:	0002                	c.slli64	zero
     636:	0501                	addi	a0,a0,0
     638:	0308                	addi	a0,sp,384
     63a:	0900                	addi	s0,sp,144
	for(int i=0;i<3;i++){
     63c:	0002                	c.slli64	zero
     63e:	0401                	addi	s0,s0,0
     640:	0502                	c.slli64	a0
     642:	0602                	c.slli64	a2
	for(int i=0;i<3;i++){
     644:	097cdd03          	lhu	s10,151(s9) # 4097 <wiring.c.7604182b+0x169e>
        port->CFGLR &= ~(0xf<<(4*pin)); //clear GPIO config - this appears to be necessary. 
     648:	0004                	0x4
     64a:	0301                	addi	t1,t1,0
        port->CFGLR |= (GPIO_Speed_10MHz | GPIO_CNF_OUT_OD_AF)<<(4*pin);//Sets mode to OD_AF
     64c:	7dce                	flw	fs11,240(sp)
     64e:	0009                	c.nop	2
		GPIO_PWM(	LEDs[group[currentgroup][i]].cathode->port,
     650:	0100                	addi	s0,sp,128
     652:	1105                	addi	sp,sp,-31
     654:	0306                	slli	t1,t1,0x1
     656:	0900                	addi	s0,sp,144
     658:	0000                	unimp
     65a:	0501                	addi	a0,a0,0
	for(int i=0;i<3;i++){
     65c:	0602                	c.slli64	a2
     65e:	0c090203          	lb	tp,192(s2)
		GPIO_PWM(	LEDs[group[currentgroup][i]].cathode->port,
     662:	0100                	addi	s0,sp,128
     664:	1105                	addi	sp,sp,-31
     666:	0306                	slli	t1,t1,0x1
     668:	0900                	addi	s0,sp,144
     66a:	0000                	unimp
     66c:	0301                	addi	t1,t1,0
     66e:	00020903          	lb	s2,0(tp) # 0 <InterruptVector>
     672:	0301                	addi	t1,t1,0
     674:	0901                	addi	s2,s2,0
     676:	0004                	0x4
				LEDs[group[currentgroup][i]].cathode->pin,
     678:	0301                	addi	t1,t1,0
     67a:	097c                	addi	a5,sp,156
				LEDs[group[currentgroup][i]].cathode->timer,
     67c:	0002                	c.slli64	zero
     67e:	0501                	addi	a0,a0,0
				LEDs[group[currentgroup][i]].cathode->channel
     680:	0602                	c.slli64	a2
     682:	06090303          	lb	t1,96(s2)
        port->CFGLR &= ~(0xf<<(4*pin)); //clear GPIO config - this appears to be necessary. 
     686:	0100                	addi	s0,sp,128
		GPIO_PWM(	LEDs[group[currentgroup][i]].cathode->port,
     688:	1105                	addi	sp,sp,-31
     68a:	0306                	slli	t1,t1,0x1
     68c:	0900                	addi	s0,sp,144
     68e:	0000                	unimp
        port->CFGLR &= ~(0xf<<(4*pin)); //clear GPIO config - this appears to be necessary. 
     690:	0501                	addi	a0,a0,0
     692:	0908030f          	0x908030f
     696:	0002                	c.slli64	zero
     698:	0501                	addi	a0,a0,0
     69a:	0311                	addi	t1,t1,4
     69c:	0978                	addi	a4,sp,156
     69e:	0006                	c.slli	zero,0x1
     6a0:	0501                	addi	a0,a0,0
     6a2:	0602                	c.slli64	a2
     6a4:	04090103          	lb	sp,64(s2)
     6a8:	0100                	addi	s0,sp,128
     6aa:	1105                	addi	sp,sp,-31
        port->CFGLR |= (GPIO_Speed_10MHz | GPIO_CNF_OUT_OD_AF)<<(4*pin);//Sets mode to OD_AF
     6ac:	0306                	slli	t1,t1,0x1
     6ae:	0900                	addi	s0,sp,144
     6b0:	0000                	unimp
     6b2:	0501                	addi	a0,a0,0
     6b4:	090d030f          	0x90d030f
     6b8:	0006                	c.slli	zero,0x1
     6ba:	0501                	addi	a0,a0,0
        timer->CCER |= channel;         //enable this channel output
     6bc:	0311                	addi	t1,t1,4
     6be:	00040973          	0x40973
     6c2:	0501                	addi	a0,a0,0
     6c4:	0602                	c.slli64	a2
     6c6:	04090103          	lb	sp,64(s2)
     6ca:	0100                	addi	s0,sp,128
     6cc:	1105                	addi	sp,sp,-31
     6ce:	0306                	slli	t1,t1,0x1
	for(int i=0;i<3;i++){
     6d0:	0900                	addi	s0,sp,144
     6d2:	0000                	unimp
     6d4:	0501                	addi	a0,a0,0
     6d6:	030c                	addi	a1,sp,384
	GPIO_High(	LEDs[group[currentgroup][0]].anode->port,
     6d8:	0918                	addi	a4,sp,144
     6da:	0002                	c.slli64	zero
}
     6dc:	0501                	addi	a0,a0,0
     6de:	030e                	slli	t1,t1,0x3
     6e0:	00040903          	lb	s2,0(s0)
	GPIO_High(	LEDs[group[currentgroup][0]].anode->port,
     6e4:	0501                	addi	a0,a0,0
     6e6:	0311                	addi	t1,t1,4
     6e8:	0965                	addi	s2,s2,25
     6ea:	0004                	0x4
     6ec:	0501                	addi	a0,a0,0
     6ee:	0602                	c.slli64	a2
     6f0:	06090103          	lb	sp,96(s2)
}
     6f4:	0100                	addi	s0,sp,128
     6f6:	1105                	addi	sp,sp,-31
	GPIO_High(	LEDs[group[currentgroup][0]].anode->port,
     6f8:	0306                	slli	t1,t1,0x1
     6fa:	0900                	addi	s0,sp,144
     6fc:	0000                	unimp
     6fe:	0501                	addi	a0,a0,0
     700:	030d                	addi	t1,t1,3
     702:	0930                	addi	a2,sp,152
     704:	0002                	c.slli64	zero
     706:	0501                	addi	a0,a0,0
     708:	0311                	addi	t1,t1,4
     70a:	0950                	addi	a2,sp,148
			LEDs[group[currentgroup][0]].anode->pin,
     70c:	0002                	c.slli64	zero
     70e:	0501                	addi	a0,a0,0
			LEDs[group[currentgroup][0]].anode->timer,
     710:	0602                	c.slli64	a2
     712:	04090503          	lb	a0,64(s2)
			LEDs[group[currentgroup][0]].anode->channel
     716:	0100                	addi	s0,sp,128
	GPIO_High(	LEDs[group[currentgroup][0]].anode->port,
     718:	0f05                	addi	t5,t5,1
     71a:	0306                	slli	t1,t1,0x1
     71c:	0900                	addi	s0,sp,144
     71e:	0000                	unimp
     720:	0501                	addi	a0,a0,0
     722:	0602                	c.slli64	a2
}
     724:	0a090103          	lb	sp,160(s2)
        timer->CCER &= ~channel;        //disable this channel output
     728:	0100                	addi	s0,sp,128
     72a:	0f05                	addi	t5,t5,1
     72c:	0306                	slli	t1,t1,0x1
     72e:	0900                	addi	s0,sp,144
     730:	0000                	unimp
     732:	0501                	addi	a0,a0,0
     734:	0602                	c.slli64	a2
     736:	0a090203          	lb	tp,160(s2)
}
     73a:	0100                	addi	s0,sp,128
        timer->CCER &= ~channel;        //disable this channel output
     73c:	0f05                	addi	t5,t5,1
     73e:	0306                	slli	t1,t1,0x1
     740:	0900                	addi	s0,sp,144
     742:	0000                	unimp
     744:	0301                	addi	t1,t1,0
     746:	0904                	addi	s1,sp,144
        port->CFGLR &= ~(0xf<<(4*pin)); //clear GPIO config - this appears to be necessary. 
     748:	0004                	0x4
     74a:	0301                	addi	t1,t1,0
     74c:	097c                	addi	a5,sp,156
     74e:	0004                	0x4
     750:	0501                	addi	a0,a0,0
     752:	0602                	c.slli64	a2
     754:	08090103          	lb	sp,128(s2)
     758:	0100                	addi	s0,sp,128
     75a:	0f05                	addi	t5,t5,1
     75c:	0306                	slli	t1,t1,0x1
     75e:	0900                	addi	s0,sp,144
        port->CFGLR |= (GPIO_Speed_10MHz | GPIO_CNF_OUT_PP)<<(4*pin); //Sets output mode to GPIO, PP
     760:	0000                	unimp
     762:	0501                	addi	a0,a0,0
     764:	0602                	c.slli64	a2
     766:	0c090203          	lb	tp,192(s2)
     76a:	0100                	addi	s0,sp,128
     76c:	0f05                	addi	t5,t5,1
     76e:	0306                	slli	t1,t1,0x1
     770:	0900                	addi	s0,sp,144
     772:	0000                	unimp
        port->BSHR = (1<<(pin));                //set GPIO 'high'
     774:	0501                	addi	a0,a0,0
     776:	0602                	c.slli64	a2
     778:	08090103          	lb	sp,128(s2)
}
     77c:	0100                	addi	s0,sp,128
     77e:	0f05                	addi	t5,t5,1
     780:	0306                	slli	t1,t1,0x1
     782:	0900                	addi	s0,sp,144
     784:	0000                	unimp
     786:	0501                	addi	a0,a0,0
     788:	0602                	c.slli64	a2
     78a:	06090203          	lb	tp,96(s2)
     78e:	0100                	addi	s0,sp,128
     790:	0f05                	addi	t5,t5,1
     792:	0306                	slli	t1,t1,0x1
     794:	0900                	addi	s0,sp,144
     796:	0000                	unimp
     798:	0501                	addi	a0,a0,0
     79a:	030e                	slli	t1,t1,0x3
	if(++currentgroup == 4) currentgroup=0;
     79c:	0904                	addi	s1,sp,144
     79e:	0002                	c.slli64	zero
     7a0:	0501                	addi	a0,a0,0
     7a2:	097c030f          	0x97c030f
    	switch( chl )
     7a6:	0004                	0x4
	    	case TIM_CC4E: timer->CH4CVR = width; break;
     7a8:	0501                	addi	a0,a0,0
     7aa:	0602                	c.slli64	a2
     7ac:	06090103          	lb	sp,96(s2)
	    	case TIM_CC1E: timer->CH1CVR = width; break;
     7b0:	0100                	addi	s0,sp,128
     7b2:	0f05                	addi	t5,t5,1
     7b4:	0306                	slli	t1,t1,0x1
     7b6:	0900                	addi	s0,sp,144
	    	case TIM_CC2E: timer->CH2CVR = width; break;
     7b8:	0000                	unimp
     7ba:	0501                	addi	a0,a0,0
     7bc:	0602                	c.slli64	a2
     7be:	08090303          	lb	t1,128(s2)
	    	case TIM_CC3E: timer->CH3CVR = width; break;
     7c2:	0100                	addi	s0,sp,128
     7c4:	0e05                	addi	t3,t3,1
     7c6:	0306                	slli	t1,t1,0x1
     7c8:	0900                	addi	s0,sp,144
     7ca:	0000                	unimp
     7cc:	0501                	addi	a0,a0,0
     7ce:	0602                	c.slli64	a2
     7d0:	08090503          	lb	a0,128(s2)
     7d4:	0100                	addi	s0,sp,128
     7d6:	0c05                	addi	s8,s8,1
     7d8:	0306                	slli	t1,t1,0x1
     7da:	0900                	addi	s0,sp,144
     7dc:	0000                	unimp
     7de:	0501                	addi	a0,a0,0
     7e0:	0602                	c.slli64	a2
     7e2:	04090103          	lb	sp,64(s2)
     7e6:	0100                	addi	s0,sp,128
     7e8:	0c05                	addi	s8,s8,1
     7ea:	0306                	slli	t1,t1,0x1
     7ec:	0900                	addi	s0,sp,144
     7ee:	0000                	unimp
     7f0:	0501                	addi	a0,a0,0
     7f2:	0602                	c.slli64	a2
     7f4:	08090203          	lb	tp,128(s2)
     7f8:	0100                	addi	s0,sp,128
     7fa:	0e05                	addi	t3,t3,1
     7fc:	0306                	slli	t1,t1,0x1
     7fe:	0900                	addi	s0,sp,144
     800:	0000                	unimp
     802:	0501                	addi	a0,a0,0
     804:	0602                	c.slli64	a2
     806:	04090103          	lb	sp,64(s2)
     80a:	0100                	addi	s0,sp,128
     80c:	0e05                	addi	t3,t3,1
     80e:	0306                	slli	t1,t1,0x1
     810:	0900                	addi	s0,sp,144
     812:	0000                	unimp
     814:	0501                	addi	a0,a0,0
     816:	0602                	c.slli64	a2
     818:	04090403          	lb	s0,64(s2)
     81c:	0100                	addi	s0,sp,128
     81e:	0f05                	addi	t5,t5,1
     820:	0306                	slli	t1,t1,0x1
     822:	0900                	addi	s0,sp,144
     824:	0000                	unimp
     826:	0501                	addi	a0,a0,0
     828:	0602                	c.slli64	a2
     82a:	10090103          	lb	sp,256(s2)
     82e:	0100                	addi	s0,sp,128
     830:	0f05                	addi	t5,t5,1
     832:	0306                	slli	t1,t1,0x1
     834:	0900                	addi	s0,sp,144
     836:	0000                	unimp
     838:	0501                	addi	a0,a0,0
     83a:	0602                	c.slli64	a2
     83c:	10090403          	lb	s0,256(s2)
     840:	0100                	addi	s0,sp,128
     842:	0e05                	addi	t3,t3,1
     844:	0306                	slli	t1,t1,0x1
     846:	0900                	addi	s0,sp,144
     848:	0000                	unimp
     84a:	0501                	addi	a0,a0,0
     84c:	0602                	c.slli64	a2
     84e:	10090103          	lb	sp,256(s2)
     852:	0100                	addi	s0,sp,128
     854:	0e05                	addi	t3,t3,1
     856:	0306                	slli	t1,t1,0x1
     858:	0900                	addi	s0,sp,144
     85a:	0000                	unimp
     85c:	0501                	addi	a0,a0,0
     85e:	0602                	c.slli64	a2
     860:	10090303          	lb	t1,256(s2)
     864:	0100                	addi	s0,sp,128
     866:	0f05                	addi	t5,t5,1
     868:	0306                	slli	t1,t1,0x1
     86a:	0900                	addi	s0,sp,144
     86c:	0000                	unimp
     86e:	0501                	addi	a0,a0,0
     870:	0602                	c.slli64	a2
     872:	06090103          	lb	sp,96(s2)
     876:	0100                	addi	s0,sp,128
     878:	0f05                	addi	t5,t5,1
     87a:	0306                	slli	t1,t1,0x1
     87c:	0900                	addi	s0,sp,144
     87e:	0000                	unimp
     880:	0501                	addi	a0,a0,0
     882:	0602                	c.slli64	a2
     884:	04090103          	lb	sp,64(s2)
     888:	0100                	addi	s0,sp,128
     88a:	0f05                	addi	t5,t5,1
     88c:	0306                	slli	t1,t1,0x1
     88e:	0900                	addi	s0,sp,144
     890:	0000                	unimp
     892:	0501                	addi	a0,a0,0
     894:	0602                	c.slli64	a2
     896:	02090103          	lb	sp,32(s2)
     89a:	0100                	addi	s0,sp,128
     89c:	0f05                	addi	t5,t5,1
     89e:	0306                	slli	t1,t1,0x1
     8a0:	0900                	addi	s0,sp,144
     8a2:	0000                	unimp
     8a4:	0501                	addi	a0,a0,0
     8a6:	0602                	c.slli64	a2
     8a8:	02090403          	lb	s0,32(s2)
     8ac:	0100                	addi	s0,sp,128
     8ae:	0d05                	addi	s10,s10,1
     8b0:	0306                	slli	t1,t1,0x1
     8b2:	0900                	addi	s0,sp,144
     8b4:	0000                	unimp
     8b6:	0501                	addi	a0,a0,0
     8b8:	0602                	c.slli64	a2
     8ba:	10090103          	lb	sp,256(s2)
     8be:	0100                	addi	s0,sp,128
     8c0:	0d05                	addi	s10,s10,1
     8c2:	0306                	slli	t1,t1,0x1
     8c4:	0900                	addi	s0,sp,144
     8c6:	0000                	unimp
     8c8:	0501                	addi	a0,a0,0
     8ca:	0602                	c.slli64	a2
     8cc:	14090103          	lb	sp,320(s2)
     8d0:	0100                	addi	s0,sp,128
     8d2:	0d05                	addi	s10,s10,1
     8d4:	0306                	slli	t1,t1,0x1
     8d6:	0900                	addi	s0,sp,144
     8d8:	0000                	unimp
     8da:	0501                	addi	a0,a0,0
     8dc:	0602                	c.slli64	a2
     8de:	10090103          	lb	sp,256(s2)
     8e2:	0100                	addi	s0,sp,128
     8e4:	0d05                	addi	s10,s10,1
     8e6:	0306                	slli	t1,t1,0x1
     8e8:	0900                	addi	s0,sp,144
     8ea:	0000                	unimp
     8ec:	0501                	addi	a0,a0,0
     8ee:	0602                	c.slli64	a2
     8f0:	14090203          	lb	tp,320(s2)
     8f4:	0100                	addi	s0,sp,128
     8f6:	1005                	c.nop	-31
     8f8:	0306                	slli	t1,t1,0x1
     8fa:	0900                	addi	s0,sp,144
     8fc:	0000                	unimp
     8fe:	0501                	addi	a0,a0,0
     900:	0602                	c.slli64	a2
     902:	16090103          	lb	sp,352(s2)
     906:	0100                	addi	s0,sp,128
     908:	1005                	c.nop	-31
     90a:	0306                	slli	t1,t1,0x1
     90c:	0900                	addi	s0,sp,144
     90e:	0000                	unimp
     910:	0501                	addi	a0,a0,0
     912:	0602                	c.slli64	a2
     914:	14090103          	lb	sp,320(s2)
     918:	0100                	addi	s0,sp,128
     91a:	1005                	c.nop	-31
     91c:	0306                	slli	t1,t1,0x1
     91e:	0900                	addi	s0,sp,144
     920:	0000                	unimp
     922:	0501                	addi	a0,a0,0
     924:	0602                	c.slli64	a2
     926:	1a090103          	lb	sp,416(s2)
     92a:	0100                	addi	s0,sp,128
     92c:	1005                	c.nop	-31
     92e:	0306                	slli	t1,t1,0x1
     930:	0900                	addi	s0,sp,144
     932:	0000                	unimp
     934:	0501                	addi	a0,a0,0
     936:	030e                	slli	t1,t1,0x3
     938:	0904                	addi	s1,sp,144
     93a:	0004                	0x4
     93c:	0501                	addi	a0,a0,0
     93e:	0310                	addi	a2,sp,384
     940:	097c                	addi	a5,sp,156
     942:	0002                	c.slli64	zero
     944:	0501                	addi	a0,a0,0
     946:	0602                	c.slli64	a2
     948:	10090403          	lb	s0,256(s2)
     94c:	0100                	addi	s0,sp,128
     94e:	0e05                	addi	t3,t3,1
     950:	0306                	slli	t1,t1,0x1
     952:	0900                	addi	s0,sp,144
     954:	0000                	unimp
     956:	0501                	addi	a0,a0,0
     958:	0602                	c.slli64	a2
     95a:	0e090103          	lb	sp,224(s2)
     95e:	0100                	addi	s0,sp,128
     960:	0e05                	addi	t3,t3,1
     962:	0306                	slli	t1,t1,0x1
     964:	0900                	addi	s0,sp,144
     966:	0000                	unimp
     968:	0501                	addi	a0,a0,0
     96a:	0602                	c.slli64	a2
     96c:	10090103          	lb	sp,256(s2)
     970:	0100                	addi	s0,sp,128
     972:	0e05                	addi	t3,t3,1
     974:	0306                	slli	t1,t1,0x1
     976:	0900                	addi	s0,sp,144
     978:	0000                	unimp
     97a:	0501                	addi	a0,a0,0
     97c:	0602                	c.slli64	a2
     97e:	0901ee03          	0x901ee03
     982:	0010                	0x10
     984:	0301                	addi	t1,t1,0
     986:	7ee0                	flw	fs0,124(a3)
     988:	0009                	c.nop	2
     98a:	0100                	addi	s0,sp,128
     98c:	1005                	c.nop	-31
     98e:	0306                	slli	t1,t1,0x1
     990:	0900                	addi	s0,sp,144
     992:	0000                	unimp
     994:	0501                	addi	a0,a0,0
     996:	0602                	c.slli64	a2
     998:	08090303          	lb	t1,128(s2)
     99c:	0100                	addi	s0,sp,128
     99e:	0304                	addi	s1,sp,384
     9a0:	0305                	addi	t1,t1,1
     9a2:	0921a603          	lw	a2,146(gp) # 200009d2 <__global_pointer$+0x92>
     9a6:	0000                	unimp
     9a8:	0501                	addi	a0,a0,0
     9aa:	00030627          	0x30627
     9ae:	0009                	c.nop	2
     9b0:	0100                	addi	s0,sp,128
     9b2:	0204                	addi	s1,sp,256
     9b4:	0205                	addi	tp,tp,1
     9b6:	0306                	slli	t1,t1,0x1
     9b8:	5edd                	li	t4,-9
     9ba:	0809                	addi	a6,a6,2
     9bc:	0100                	addi	s0,sp,128
     9be:	0f05                	addi	t5,t5,1
     9c0:	0306                	slli	t1,t1,0x1
     9c2:	0900                	addi	s0,sp,144
     9c4:	0000                	unimp
     9c6:	0501                	addi	a0,a0,0
     9c8:	0602                	c.slli64	a2
     9ca:	08090303          	lb	t1,128(s2)
     9ce:	0100                	addi	s0,sp,128
     9d0:	0f05                	addi	t5,t5,1
     9d2:	0306                	slli	t1,t1,0x1
     9d4:	0900                	addi	s0,sp,144
     9d6:	0000                	unimp
     9d8:	0501                	addi	a0,a0,0
     9da:	0602                	c.slli64	a2
     9dc:	04090303          	lb	t1,64(s2)
     9e0:	0100                	addi	s0,sp,128
     9e2:	1005                	c.nop	-31
     9e4:	0306                	slli	t1,t1,0x1
     9e6:	0900                	addi	s0,sp,144
     9e8:	0000                	unimp
     9ea:	0501                	addi	a0,a0,0
     9ec:	0602                	c.slli64	a2
     9ee:	09019503          	lh	a0,144(gp) # 200009d0 <__global_pointer$+0x90>
     9f2:	0004                	0x4
     9f4:	0301                	addi	t1,t1,0
     9f6:	00000947          	fmsub.s	fs2,ft0,ft0,ft0,rne
     9fa:	0501                	addi	a0,a0,0
     9fc:	060d                	addi	a2,a2,3
     9fe:	00090003          	lb	zero,0(s2)
     a02:	0100                	addi	s0,sp,128
     a04:	0205                	addi	tp,tp,1
     a06:	0306                	slli	t1,t1,0x1
     a08:	000c0903          	lb	s2,0(s8)
     a0c:	0501                	addi	a0,a0,0
     a0e:	0611                	addi	a2,a2,4
     a10:	00090003          	lb	zero,0(s2)
     a14:	0100                	addi	s0,sp,128
     a16:	0205                	addi	tp,tp,1
     a18:	0306                	slli	t1,t1,0x1
     a1a:	00080903          	lb	s2,0(a6)
     a1e:	0501                	addi	a0,a0,0
     a20:	0003060f          	0x3060f
     a24:	0009                	c.nop	2
     a26:	0100                	addi	s0,sp,128
     a28:	0205                	addi	tp,tp,1
     a2a:	0306                	slli	t1,t1,0x1
     a2c:	000c0903          	lb	s2,0(s8)
     a30:	0501                	addi	a0,a0,0
     a32:	0611                	addi	a2,a2,4
     a34:	00090003          	lb	zero,0(s2)
     a38:	0100                	addi	s0,sp,128
     a3a:	0e05                	addi	t3,t3,1
     a3c:	02090d03          	lb	s10,32(s2)
     a40:	0100                	addi	s0,sp,128
     a42:	1105                	addi	sp,sp,-31
     a44:	06097303          	0x6097303
     a48:	0100                	addi	s0,sp,128
     a4a:	0205                	addi	tp,tp,1
     a4c:	0306                	slli	t1,t1,0x1
     a4e:	0901                	addi	s2,s2,0
     a50:	0006                	c.slli	zero,0x1
     a52:	0501                	addi	a0,a0,0
     a54:	0611                	addi	a2,a2,4
     a56:	00090003          	lb	zero,0(s2)
     a5a:	0100                	addi	s0,sp,128
     a5c:	0205                	addi	tp,tp,1
     a5e:	0306                	slli	t1,t1,0x1
     a60:	00080903          	lb	s2,0(a6)
     a64:	0501                	addi	a0,a0,0
     a66:	060e                	slli	a2,a2,0x3
     a68:	00090003          	lb	zero,0(s2)
     a6c:	0100                	addi	s0,sp,128
     a6e:	0205                	addi	tp,tp,1
     a70:	0306                	slli	t1,t1,0x1
     a72:	0901                	addi	s2,s2,0
     a74:	0008                	0x8
     a76:	0501                	addi	a0,a0,0
     a78:	060e                	slli	a2,a2,0x3
     a7a:	00090003          	lb	zero,0(s2)
     a7e:	0100                	addi	s0,sp,128
     a80:	0205                	addi	tp,tp,1
     a82:	0306                	slli	t1,t1,0x1
     a84:	0901                	addi	s2,s2,0
     a86:	0004                	0x4
     a88:	0501                	addi	a0,a0,0
     a8a:	060e                	slli	a2,a2,0x3
     a8c:	00090003          	lb	zero,0(s2)
     a90:	0100                	addi	s0,sp,128
     a92:	0205                	addi	tp,tp,1
     a94:	0306                	slli	t1,t1,0x1
     a96:	00040903          	lb	s2,0(s0)
     a9a:	0501                	addi	a0,a0,0
     a9c:	0610                	addi	a2,sp,768
     a9e:	00090003          	lb	zero,0(s2)
     aa2:	0100                	addi	s0,sp,128
     aa4:	0205                	addi	tp,tp,1
     aa6:	0306                	slli	t1,t1,0x1
     aa8:	0901                	addi	s2,s2,0
     aaa:	000c                	0xc
     aac:	0501                	addi	a0,a0,0
     aae:	0610                	addi	a2,sp,768
     ab0:	00090003          	lb	zero,0(s2)
     ab4:	0100                	addi	s0,sp,128
     ab6:	0205                	addi	tp,tp,1
     ab8:	0306                	slli	t1,t1,0x1
     aba:	00080903          	lb	s2,0(a6)
     abe:	0501                	addi	a0,a0,0
     ac0:	060e                	slli	a2,a2,0x3
     ac2:	00090003          	lb	zero,0(s2)
     ac6:	0100                	addi	s0,sp,128
     ac8:	0205                	addi	tp,tp,1
     aca:	0306                	slli	t1,t1,0x1
     acc:	000a0903          	lb	s2,0(s4)
     ad0:	0501                	addi	a0,a0,0
     ad2:	060e                	slli	a2,a2,0x3
     ad4:	00090003          	lb	zero,0(s2)
     ad8:	0100                	addi	s0,sp,128
     ada:	0c05                	addi	s8,s8,1
     adc:	04090103          	lb	sp,64(s2)
     ae0:	0100                	addi	s0,sp,128
     ae2:	0e05                	addi	t3,t3,1
     ae4:	04097f03          	0x4097f03
     ae8:	0100                	addi	s0,sp,128
     aea:	0205                	addi	tp,tp,1
     aec:	0306                	slli	t1,t1,0x1
     aee:	0901                	addi	s2,s2,0
     af0:	0008                	0x8
     af2:	0501                	addi	a0,a0,0
     af4:	0321                	addi	t1,t1,8
     af6:	0900                	addi	s0,sp,144
     af8:	0000                	unimp
     afa:	0501                	addi	a0,a0,0
     afc:	09000307          	0x9000307
     b00:	0000                	unimp
     b02:	0501                	addi	a0,a0,0
     b04:	060c                	addi	a1,sp,768
     b06:	00090003          	lb	zero,0(s2)
     b0a:	0100                	addi	s0,sp,128
     b0c:	1405                	addi	s0,s0,-31
     b0e:	04090003          	lb	zero,64(s2)
     b12:	0100                	addi	s0,sp,128
     b14:	0705                	addi	a4,a4,1
     b16:	02090003          	lb	zero,32(s2)
     b1a:	0100                	addi	s0,sp,128
     b1c:	0205                	addi	tp,tp,1
     b1e:	0306                	slli	t1,t1,0x1
     b20:	00020903          	lb	s2,0(tp) # 0 <InterruptVector>
     b24:	0501                	addi	a0,a0,0
     b26:	060e                	slli	a2,a2,0x3
     b28:	00090003          	lb	zero,0(s2)
     b2c:	0100                	addi	s0,sp,128
     b2e:	0205                	addi	tp,tp,1
     b30:	0306                	slli	t1,t1,0x1
     b32:	0901                	addi	s2,s2,0
     b34:	000c                	0xc
     b36:	0501                	addi	a0,a0,0
     b38:	060c                	addi	a1,sp,768
     b3a:	00090003          	lb	zero,0(s2)
     b3e:	0100                	addi	s0,sp,128
     b40:	1e05                	addi	t3,t3,-31
     b42:	0306                	slli	t1,t1,0x1
     b44:	0900                	addi	s0,sp,144
     b46:	0004                	0x4
     b48:	0501                	addi	a0,a0,0
     b4a:	09000307          	0x9000307
     b4e:	0000                	unimp
     b50:	0501                	addi	a0,a0,0
     b52:	060c                	addi	a1,sp,768
     b54:	00090003          	lb	zero,0(s2)
     b58:	0100                	addi	s0,sp,128
     b5a:	1405                	addi	s0,s0,-31
     b5c:	04090003          	lb	zero,64(s2)
     b60:	0100                	addi	s0,sp,128
     b62:	0705                	addi	a4,a4,1
     b64:	02090003          	lb	zero,32(s2)
     b68:	0100                	addi	s0,sp,128
     b6a:	1105                	addi	sp,sp,-31
     b6c:	02092b03          	lw	s6,32(s2)
     b70:	0100                	addi	s0,sp,128
     b72:	2105                	jal	f92 <ch32v003fun.c.8affbd33+0x110>
     b74:	04090103          	lb	sp,64(s2)
     b78:	0100                	addi	s0,sp,128
     b7a:	0e05                	addi	t3,t3,1
     b7c:	04095f03          	lhu	t5,64(s2)
     b80:	0100                	addi	s0,sp,128
     b82:	0104                	addi	s1,sp,128
     b84:	1c05                	addi	s8,s8,-31
     b86:	0904c503          	lbu	a0,144(s1) # 4090 <wiring.c.7604182b+0x1697>
     b8a:	0008                	0x8
     b8c:	0401                	addi	s0,s0,0
     b8e:	0502                	c.slli64	a0
     b90:	0311                	addi	t1,t1,4
     b92:	04097bdb          	0x4097bdb
     b96:	0100                	addi	s0,sp,128
     b98:	2105                	jal	fb8 <ch32v003fun.c.8affbd33+0x136>
     b9a:	06090103          	lb	sp,96(s2)
     b9e:	0100                	addi	s0,sp,128
     ba0:	0205                	addi	tp,tp,1
     ba2:	0306                	slli	t1,t1,0x1
     ba4:	097d                	addi	s2,s2,31
     ba6:	0004                	0x4
     ba8:	0501                	addi	a0,a0,0
     baa:	0311                	addi	t1,t1,4
     bac:	0901                	addi	s2,s2,0
     bae:	0000                	unimp
     bb0:	0501                	addi	a0,a0,0
     bb2:	0302                	c.slli64	t1
     bb4:	0961                	addi	s2,s2,24
     bb6:	0000                	unimp
     bb8:	0501                	addi	a0,a0,0
     bba:	060e                	slli	a2,a2,0x3
     bbc:	00090003          	lb	zero,0(s2)
     bc0:	0100                	addi	s0,sp,128
     bc2:	0205                	addi	tp,tp,1
     bc4:	0306                	slli	t1,t1,0x1
     bc6:	000c0903          	lb	s2,0(s8)
     bca:	0501                	addi	a0,a0,0
     bcc:	0321                	addi	t1,t1,8
     bce:	0900                	addi	s0,sp,144
     bd0:	0000                	unimp
     bd2:	0501                	addi	a0,a0,0
     bd4:	09000307          	0x9000307
     bd8:	0000                	unimp
     bda:	0501                	addi	a0,a0,0
     bdc:	060e                	slli	a2,a2,0x3
     bde:	00090003          	lb	zero,0(s2)
     be2:	0100                	addi	s0,sp,128
     be4:	1605                	addi	a2,a2,-31
     be6:	04090003          	lb	zero,64(s2)
     bea:	0100                	addi	s0,sp,128
     bec:	0705                	addi	a4,a4,1
     bee:	02090003          	lb	zero,32(s2)
     bf2:	0100                	addi	s0,sp,128
     bf4:	0205                	addi	tp,tp,1
     bf6:	0306                	slli	t1,t1,0x1
     bf8:	00020903          	lb	s2,0(tp) # 0 <InterruptVector>
     bfc:	0501                	addi	a0,a0,0
     bfe:	060d                	addi	a2,a2,3
     c00:	00090003          	lb	zero,0(s2)
     c04:	0100                	addi	s0,sp,128
     c06:	1105                	addi	sp,sp,-31
     c08:	0306                	slli	t1,t1,0x1
     c0a:	091a                	slli	s2,s2,0x6
     c0c:	0004                	0x4
     c0e:	0401                	addi	s0,s0,0
     c10:	0501                	addi	a0,a0,0
     c12:	0302                	c.slli64	t1
     c14:	04a5                	addi	s1,s1,9
     c16:	0009                	c.nop	2
     c18:	0100                	addi	s0,sp,128
     c1a:	1c05                	addi	s8,s8,-31
     c1c:	0306                	slli	t1,t1,0x1
     c1e:	0900                	addi	s0,sp,144
     c20:	0000                	unimp
     c22:	0401                	addi	s0,s0,0
     c24:	0502                	c.slli64	a0
     c26:	0311                	addi	t1,t1,4
     c28:	04097bdb          	0x4097bdb
     c2c:	0100                	addi	s0,sp,128
     c2e:	0104                	addi	s1,sp,128
     c30:	1c05                	addi	s8,s8,-31
     c32:	0904a503          	lw	a0,144(s1)
     c36:	0006                	c.slli	zero,0x1
     c38:	0401                	addi	s0,s0,0
     c3a:	0502                	c.slli64	a0
     c3c:	0311                	addi	t1,t1,4
     c3e:	02097bdb          	0x2097bdb
     c42:	0100                	addi	s0,sp,128
     c44:	0104                	addi	s1,sp,128
     c46:	0b05                	addi	s6,s6,1
     c48:	0904a503          	lw	a0,144(s1)
     c4c:	0002                	c.slli64	zero
     c4e:	0501                	addi	a0,a0,0
     c50:	0602                	c.slli64	a2
     c52:	18090103          	lb	sp,384(s2)
     c56:	0100                	addi	s0,sp,128
     c58:	3405                	jal	678 <SysTick_Handler+0x1b8>
     c5a:	00090003          	lb	zero,0(s2)
     c5e:	0100                	addi	s0,sp,128
     c60:	0705                	addi	a4,a4,1
     c62:	00090003          	lb	zero,0(s2)
     c66:	0100                	addi	s0,sp,128
     c68:	1c05                	addi	s8,s8,-31
     c6a:	0306                	slli	t1,t1,0x1
     c6c:	0900                	addi	s0,sp,144
     c6e:	0000                	unimp
     c70:	0501                	addi	a0,a0,0
     c72:	0322                	slli	t1,t1,0x8
     c74:	0900                	addi	s0,sp,144
     c76:	0004                	0x4
     c78:	0501                	addi	a0,a0,0
     c7a:	09000307          	0x9000307
     c7e:	0002                	c.slli64	zero
     c80:	0401                	addi	s0,s0,0
     c82:	0502                	c.slli64	a0
     c84:	0611                	addi	a2,a2,4
     c86:	097bdb03          	lhu	s6,151(s7) # 2eb4 <wiring.c.7604182b+0x4bb>
     c8a:	0004                	0x4
     c8c:	0501                	addi	a0,a0,0
     c8e:	0621                	addi	a2,a2,8
     c90:	00090003          	lb	zero,0(s2)
     c94:	0100                	addi	s0,sp,128
     c96:	1905                	addi	s2,s2,-31
     c98:	04090103          	lb	sp,64(s2)
     c9c:	0100                	addi	s0,sp,128
     c9e:	1105                	addi	sp,sp,-31
     ca0:	02090003          	lb	zero,32(s2)
     ca4:	0100                	addi	s0,sp,128
     ca6:	2105                	jal	10c6 <ch32v003fun.c.8affbd33+0x244>
     ca8:	02097f03          	0x2097f03
     cac:	0100                	addi	s0,sp,128
     cae:	1105                	addi	sp,sp,-31
     cb0:	0306                	slli	t1,t1,0x1
     cb2:	0901                	addi	s2,s2,0
     cb4:	0004                	0x4
     cb6:	0501                	addi	a0,a0,0
     cb8:	0315                	addi	t1,t1,5
     cba:	0900                	addi	s0,sp,144
     cbc:	0000                	unimp
     cbe:	0501                	addi	a0,a0,0
     cc0:	031e                	slli	t1,t1,0x7
     cc2:	0900                	addi	s0,sp,144
     cc4:	0000                	unimp
     cc6:	0501                	addi	a0,a0,0
     cc8:	0019                	c.nop	6
     cca:	0402                	c.slli64	s0
     ccc:	09010303          	lb	t1,144(sp)
     cd0:	0000                	unimp
     cd2:	0501                	addi	a0,a0,0
     cd4:	0035                	c.nop	13
     cd6:	0402                	c.slli64	s0
     cd8:	00030603          	lb	a2,0(t1)
     cdc:	0009                	c.nop	2
     cde:	0100                	addi	s0,sp,128
     ce0:	2d05                	jal	1310 <ch32v003fun.c.8affbd33+0x48e>
     ce2:	0200                	addi	s0,sp,256
     ce4:	0304                	addi	s1,sp,384
     ce6:	12090003          	lb	zero,288(s2)
     cea:	0100                	addi	s0,sp,128
     cec:	3505                	jal	b0c <_data_lma+0x338>
     cee:	0200                	addi	s0,sp,256
     cf0:	0304                	addi	s1,sp,384
     cf2:	08090003          	lb	zero,128(s2)
     cf6:	0100                	addi	s0,sp,128
     cf8:	2d05                	jal	1328 <ch32v003fun.c.8affbd33+0x4a6>
     cfa:	0200                	addi	s0,sp,256
     cfc:	0304                	addi	s1,sp,384
     cfe:	04090003          	lb	zero,64(s2)
     d02:	0100                	addi	s0,sp,128
     d04:	2405                	jal	f24 <ch32v003fun.c.8affbd33+0xa2>
     d06:	0200                	addi	s0,sp,256
     d08:	0304                	addi	s1,sp,384
     d0a:	0306                	slli	t1,t1,0x1
     d0c:	097f                	0x97f
     d0e:	0006                	c.slli	zero,0x1
     d10:	0501                	addi	a0,a0,0
     d12:	0025                	c.nop	9
     d14:	0402                	c.slli64	s0
     d16:	00030603          	lb	a2,0(t1)
     d1a:	0009                	c.nop	2
     d1c:	0100                	addi	s0,sp,128
     d1e:	1e05                	addi	t3,t3,-31
     d20:	0200                	addi	s0,sp,256
     d22:	0304                	addi	s1,sp,384
     d24:	0306                	slli	t1,t1,0x1
     d26:	0900                	addi	s0,sp,144
     d28:	0002                	c.slli64	zero
     d2a:	0501                	addi	a0,a0,0
     d2c:	0011                	c.nop	4
     d2e:	0402                	c.slli64	s0
     d30:	00030603          	lb	a2,0(t1)
     d34:	0009                	c.nop	2
     d36:	0100                	addi	s0,sp,128
     d38:	0306                	slli	t1,t1,0x1
     d3a:	00040903          	lb	s2,0(s0)
     d3e:	0501                	addi	a0,a0,0
     d40:	0624                	addi	s1,sp,776
     d42:	00090003          	lb	zero,0(s2)
     d46:	0100                	addi	s0,sp,128
     d48:	0705                	addi	a4,a4,1
     d4a:	0306                	slli	t1,t1,0x1
     d4c:	0979                	addi	s2,s2,30
     d4e:	0004                	0x4
     d50:	0901                	addi	s2,s2,0
     d52:	0002                	c.slli64	zero
     d54:	0100                	addi	s0,sp,128
     d56:	0501                	addi	a0,a0,0
     d58:	0005                	c.nop	1
     d5a:	0205                	addi	tp,tp,1
     d5c:	0000                	unimp
     d5e:	0000                	unimp
     d60:	01079803          	lh	a6,16(a5)
     d64:	00090003          	lb	zero,0(s2)
     d68:	0100                	addi	s0,sp,128
     d6a:	0705                	addi	a4,a4,1
     d6c:	00090203          	lb	tp,0(s2)
     d70:	0100                	addi	s0,sp,128
     d72:	0605                	addi	a2,a2,1
     d74:	00090103          	lb	sp,0(s2)
     d78:	0100                	addi	s0,sp,128
     d7a:	0705                	addi	a4,a4,1
     d7c:	00090203          	lb	tp,0(s2)
     d80:	0100                	addi	s0,sp,128
     d82:	00090203          	lb	tp,0(s2)
     d86:	0100                	addi	s0,sp,128
     d88:	0c05                	addi	s8,s8,1
     d8a:	00090303          	lb	t1,0(s2)
     d8e:	0100                	addi	s0,sp,128
     d90:	1605                	addi	a2,a2,-31
     d92:	00090003          	lb	zero,0(s2)
     d96:	0100                	addi	s0,sp,128
     d98:	0805                	addi	a6,a6,1
     d9a:	00090003          	lb	zero,0(s2)
     d9e:	0100                	addi	s0,sp,128
     da0:	1005                	c.nop	-31
     da2:	00090703          	lb	a4,0(s2)
     da6:	0100                	addi	s0,sp,128
     da8:	0c05                	addi	s8,s8,1
     daa:	00090303          	lb	t1,0(s2)
     dae:	0100                	addi	s0,sp,128
     db0:	1505                	addi	a0,a0,-31
     db2:	00090203          	lb	tp,0(s2)
     db6:	0100                	addi	s0,sp,128
     db8:	0c05                	addi	s8,s8,1
     dba:	00097e03          	0x97e03
     dbe:	0100                	addi	s0,sp,128
     dc0:	1505                	addi	a0,a0,-31
     dc2:	00090203          	lb	tp,0(s2)
     dc6:	0100                	addi	s0,sp,128
     dc8:	0505                	addi	a0,a0,1
     dca:	00097f03          	0x97f03
     dce:	0100                	addi	s0,sp,128
     dd0:	1005                	c.nop	-31
     dd2:	00090303          	lb	t1,0(s2)
     dd6:	0100                	addi	s0,sp,128
     dd8:	0c05                	addi	s8,s8,1
     dda:	00090003          	lb	zero,0(s2)
     dde:	0100                	addi	s0,sp,128
     de0:	1005                	c.nop	-31
     de2:	00090003          	lb	zero,0(s2)
     de6:	0100                	addi	s0,sp,128
     de8:	0805                	addi	a6,a6,1
     dea:	00097e03          	0x97e03
     dee:	0100                	addi	s0,sp,128
     df0:	1505                	addi	a0,a0,-31
     df2:	00090003          	lb	zero,0(s2)
     df6:	0100                	addi	s0,sp,128
     df8:	1e05                	addi	t3,t3,-31
     dfa:	00090503          	lb	a0,0(s2)
     dfe:	0100                	addi	s0,sp,128
     e00:	1405                	addi	s0,s0,-31
     e02:	00090003          	lb	zero,0(s2)
     e06:	0100                	addi	s0,sp,128
     e08:	0d05                	addi	s10,s10,1
     e0a:	00090003          	lb	zero,0(s2)
     e0e:	0100                	addi	s0,sp,128
     e10:	0c05                	addi	s8,s8,1
     e12:	00090103          	lb	sp,0(s2)
     e16:	0100                	addi	s0,sp,128
     e18:	0905                	addi	s2,s2,1
     e1a:	00090303          	lb	t1,0(s2)
     e1e:	0100                	addi	s0,sp,128
     e20:	0c05                	addi	s8,s8,1
     e22:	00097d03          	0x97d03
     e26:	0100                	addi	s0,sp,128
     e28:	0605                	addi	a2,a2,1
     e2a:	00096f03          	0x96f03
     e2e:	0100                	addi	s0,sp,128
     e30:	0105                	addi	sp,sp,1
     e32:	00091703          	lh	a4,0(s2)
     e36:	0100                	addi	s0,sp,128
     e38:	0009                	c.nop	2
     e3a:	0000                	unimp
     e3c:	0101                	addi	sp,sp,0
     e3e:	0105                	addi	sp,sp,1
     e40:	0500                	addi	s0,sp,640
     e42:	0002                	c.slli64	zero
     e44:	0000                	unimp
     e46:	0300                	addi	s0,sp,384
     e48:	0114                	addi	a3,sp,128
     e4a:	0205                	addi	tp,tp,1
     e4c:	00090103          	lb	sp,0(s2)
     e50:	0100                	addi	s0,sp,128
     e52:	0105                	addi	sp,sp,1
     e54:	0306                	slli	t1,t1,0x1
     e56:	097f                	0x97f
     e58:	0000                	unimp
     e5a:	0301                	addi	t1,t1,0
     e5c:	0900                	addi	s0,sp,144
     e5e:	0000                	unimp
     e60:	0501                	addi	a0,a0,0
     e62:	0302                	c.slli64	t1
     e64:	0901                	addi	s2,s2,0
     e66:	0000                	unimp
     e68:	0601                	addi	a2,a2,0
     e6a:	00090103          	lb	sp,0(s2)
     e6e:	0100                	addi	s0,sp,128
     e70:	0105                	addi	sp,sp,1
     e72:	0306                	slli	t1,t1,0x1
     e74:	0901                	addi	s2,s2,0
     e76:	0000                	unimp
     e78:	0901                	addi	s2,s2,0
     e7a:	0000                	unimp
     e7c:	0100                	addi	s0,sp,128
     e7e:	0501                	addi	a0,a0,0
     e80:	0001                	nop
     e82:	0205                	addi	tp,tp,1
     e84:	0440                	addi	s0,sp,516
     e86:	0000                	unimp
     e88:	0105fe03          	0x105fe03
     e8c:	0205                	addi	tp,tp,1
     e8e:	00090103          	lb	sp,0(s2)
     e92:	0100                	addi	s0,sp,128
     e94:	0105                	addi	sp,sp,1
     e96:	28091403          	lh	s0,640(s2)
     e9a:	0100                	addi	s0,sp,128
     e9c:	0205                	addi	tp,tp,1
     e9e:	42091b03          	lh	s6,1056(s2)
     ea2:	0100                	addi	s0,sp,128
     ea4:	0105                	addi	sp,sp,1
     ea6:	08090303          	lb	t1,128(s2)
     eaa:	0100                	addi	s0,sp,128
     eac:	0c09                	addi	s8,s8,2
     eae:	0000                	unimp
     eb0:	0101                	addi	sp,sp,0
     eb2:	0105                	addi	sp,sp,1
     eb4:	0006                	c.slli	zero,0x1
     eb6:	0205                	addi	tp,tp,1
     eb8:	04be                	slli	s1,s1,0xf
     eba:	0000                	unimp
     ebc:	0106b403          	0x106b403
     ec0:	0306                	slli	t1,t1,0x1
     ec2:	00097ef3          	csrrci	t4,ustatus,18
     ec6:	0100                	addi	s0,sp,128
     ec8:	0205                	addi	tp,tp,1
     eca:	00090203          	lb	tp,0(s2)
     ece:	0100                	addi	s0,sp,128
     ed0:	0209                	addi	tp,tp,2
     ed2:	0000                	unimp
     ed4:	0101                	addi	sp,sp,0
     ed6:	0105                	addi	sp,sp,1
     ed8:	0006                	c.slli	zero,0x1
     eda:	0205                	addi	tp,tp,1
     edc:	0000                	unimp
     ede:	0000                	unimp
     ee0:	0105aa03          	lw	s4,16(a1)
     ee4:	1e05                	addi	t3,t3,-31
     ee6:	0306                	slli	t1,t1,0x1
     ee8:	7bc6                	flw	fs7,112(sp)
     eea:	0009                	c.nop	2
     eec:	0100                	addi	s0,sp,128
     eee:	2005                	jal	f0e <ch32v003fun.c.8affbd33+0x8c>
     ef0:	00090003          	lb	zero,0(s2)
     ef4:	0100                	addi	s0,sp,128
     ef6:	3205                	jal	816 <_data_lma+0x42>
     ef8:	00090003          	lb	zero,0(s2)
     efc:	0100                	addi	s0,sp,128
     efe:	1e05                	addi	t3,t3,-31
     f00:	0306                	slli	t1,t1,0x1
     f02:	0900                	addi	s0,sp,144
     f04:	0000                	unimp
     f06:	0501                	addi	a0,a0,0
     f08:	0039                	c.nop	14
     f0a:	0402                	c.slli64	s0
     f0c:	0601                	addi	a2,a2,0
     f0e:	00090003          	lb	zero,0(s2)
     f12:	0100                	addi	s0,sp,128
     f14:	3205                	jal	834 <_data_lma+0x60>
     f16:	0200                	addi	s0,sp,256
     f18:	0104                	addi	s1,sp,128
     f1a:	0306                	slli	t1,t1,0x1
     f1c:	0900                	addi	s0,sp,144
     f1e:	0000                	unimp
     f20:	0501                	addi	a0,a0,0
     f22:	0042                	c.slli	zero,0x10
     f24:	0402                	c.slli64	s0
     f26:	0604                	addi	s1,sp,768
     f28:	00090003          	lb	zero,0(s2)
     f2c:	0100                	addi	s0,sp,128
     f2e:	4e05                	li	t3,1
     f30:	0200                	addi	s0,sp,256
     f32:	0404                	addi	s1,sp,512
     f34:	0306                	slli	t1,t1,0x1
     f36:	0900                	addi	s0,sp,144
     f38:	0000                	unimp
     f3a:	0501                	addi	a0,a0,0
     f3c:	0041                	c.nop	16
     f3e:	0402                	c.slli64	s0
     f40:	00030603          	lb	a2,0(t1)
     f44:	0009                	c.nop	2
     f46:	0100                	addi	s0,sp,128
     f48:	3d05                	jal	d78 <_data_lma+0x5a4>
     f4a:	0200                	addi	s0,sp,256
     f4c:	0304                	addi	s1,sp,384
     f4e:	00090003          	lb	zero,0(s2)
     f52:	0100                	addi	s0,sp,128
     f54:	3e05                	jal	a84 <_data_lma+0x2b0>
     f56:	0200                	addi	s0,sp,256
     f58:	0304                	addi	s1,sp,384
     f5a:	0306                	slli	t1,t1,0x1
     f5c:	0900                	addi	s0,sp,144
     f5e:	0000                	unimp
     f60:	0901                	addi	s2,s2,0
     f62:	0000                	unimp
     f64:	0100                	addi	s0,sp,128
     f66:	0501                	addi	a0,a0,0
     f68:	0001                	nop
     f6a:	0205                	addi	tp,tp,1
     f6c:	0000                	unimp
     f6e:	0000                	unimp
     f70:	05011a03          	lh	s4,80(sp)
     f74:	0302                	c.slli64	t1
     f76:	0901                	addi	s2,s2,0
     f78:	0000                	unimp
     f7a:	0301                	addi	t1,t1,0
     f7c:	0901                	addi	s2,s2,0
     f7e:	0000                	unimp
     f80:	0501                	addi	a0,a0,0
     f82:	0601                	addi	a2,a2,0
     f84:	00097e03          	0x97e03
     f88:	0100                	addi	s0,sp,128
     f8a:	0205                	addi	tp,tp,1
     f8c:	00090203          	lb	tp,0(s2)
     f90:	0100                	addi	s0,sp,128
     f92:	0105                	addi	sp,sp,1
     f94:	00097e03          	0x97e03
     f98:	0100                	addi	s0,sp,128
     f9a:	00090003          	lb	zero,0(s2)
     f9e:	0100                	addi	s0,sp,128
     fa0:	0205                	addi	tp,tp,1
     fa2:	00090203          	lb	tp,0(s2)
     fa6:	0100                	addi	s0,sp,128
     fa8:	0306                	slli	t1,t1,0x1
     faa:	0901                	addi	s2,s2,0
     fac:	0000                	unimp
     fae:	0501                	addi	a0,a0,0
     fb0:	0606                	slli	a2,a2,0x1
     fb2:	0903f603          	0x903f603
     fb6:	0000                	unimp
     fb8:	0501                	addi	a0,a0,0
     fba:	030d                	addi	t1,t1,3
     fbc:	0901                	addi	s2,s2,0
     fbe:	0000                	unimp
     fc0:	0501                	addi	a0,a0,0
     fc2:	0312                	slli	t1,t1,0x4
     fc4:	0900                	addi	s0,sp,144
     fc6:	0000                	unimp
     fc8:	0501                	addi	a0,a0,0
     fca:	030c                	addi	a1,sp,384
     fcc:	0900                	addi	s0,sp,144
     fce:	0000                	unimp
     fd0:	0501                	addi	a0,a0,0
     fd2:	0308                	addi	a0,sp,384
     fd4:	0900                	addi	s0,sp,144
     fd6:	0000                	unimp
     fd8:	0501                	addi	a0,a0,0
     fda:	0301                	addi	t1,t1,0
     fdc:	7c8c                	flw	fa1,56(s1)
     fde:	0009                	c.nop	2
     fe0:	0100                	addi	s0,sp,128
     fe2:	0605                	addi	a2,a2,1
     fe4:	0903f603          	0x903f603
     fe8:	0000                	unimp
     fea:	0501                	addi	a0,a0,0
     fec:	030a                	slli	t1,t1,0x2
     fee:	0902                	c.slli64	s2
     ff0:	0000                	unimp
     ff2:	0501                	addi	a0,a0,0
     ff4:	0312                	slli	t1,t1,0x4
     ff6:	097c                	addi	a5,sp,156
     ff8:	0000                	unimp
     ffa:	0501                	addi	a0,a0,0
     ffc:	030a                	slli	t1,t1,0x2
     ffe:	0904                	addi	s1,sp,144
    1000:	0000                	unimp
    1002:	0501                	addi	a0,a0,0
    1004:	0305                	addi	t1,t1,1
    1006:	00d8                	addi	a4,sp,68
    1008:	0009                	c.nop	2
    100a:	0100                	addi	s0,sp,128
    100c:	0705                	addi	a4,a4,1
    100e:	097faf03          	lw	t5,151(t6)
    1012:	0000                	unimp
    1014:	0301                	addi	t1,t1,0
    1016:	00000903          	lb	s2,0(zero) # 0 <InterruptVector>
    101a:	0501                	addi	a0,a0,0
    101c:	030c                	addi	a1,sp,384
    101e:	097d                	addi	s2,s2,31
    1020:	0000                	unimp
    1022:	0501                	addi	a0,a0,0
    1024:	0306                	slli	t1,t1,0x1
    1026:	0900                	addi	s0,sp,144
    1028:	0000                	unimp
    102a:	0501                	addi	a0,a0,0
    102c:	031c                	addi	a5,sp,384
    102e:	00000903          	lb	s2,0(zero) # 0 <InterruptVector>
    1032:	0501                	addi	a0,a0,0
    1034:	09000307          	0x9000307
    1038:	0000                	unimp
    103a:	0501                	addi	a0,a0,0
    103c:	0308                	addi	a0,sp,384
    103e:	00000903          	lb	s2,0(zero) # 0 <InterruptVector>
    1042:	0501                	addi	a0,a0,0
    1044:	030a                	slli	t1,t1,0x2
    1046:	097e                	slli	s2,s2,0x1f
    1048:	0000                	unimp
    104a:	0501                	addi	a0,a0,0
    104c:	0315                	addi	t1,t1,5
    104e:	0901                	addi	s2,s2,0
    1050:	0000                	unimp
    1052:	0501                	addi	a0,a0,0
    1054:	030d                	addi	t1,t1,3
    1056:	0901                	addi	s2,s2,0
    1058:	0000                	unimp
    105a:	0501                	addi	a0,a0,0
    105c:	0315                	addi	t1,t1,5
    105e:	097f                	0x97f
    1060:	0000                	unimp
    1062:	0501                	addi	a0,a0,0
    1064:	0308                	addi	a0,sp,384
    1066:	0901                	addi	s2,s2,0
    1068:	0000                	unimp
    106a:	0501                	addi	a0,a0,0
    106c:	0315                	addi	t1,t1,5
    106e:	097f                	0x97f
    1070:	0000                	unimp
    1072:	0501                	addi	a0,a0,0
    1074:	030c                	addi	a1,sp,384
    1076:	0900                	addi	s0,sp,144
    1078:	0000                	unimp
    107a:	0501                	addi	a0,a0,0
    107c:	0308                	addi	a0,sp,384
    107e:	0901                	addi	s2,s2,0
    1080:	0000                	unimp
    1082:	0501                	addi	a0,a0,0
    1084:	0315                	addi	t1,t1,5
    1086:	097e                	slli	s2,s2,0x1f
    1088:	0000                	unimp
    108a:	0501                	addi	a0,a0,0
    108c:	030a                	slli	t1,t1,0x2
    108e:	0900                	addi	s0,sp,144
    1090:	0000                	unimp
    1092:	0501                	addi	a0,a0,0
    1094:	09070307          	0x9070307
    1098:	0000                	unimp
    109a:	0501                	addi	a0,a0,0
    109c:	0309                	addi	t1,t1,2
    109e:	0972                	slli	s2,s2,0x1c
    10a0:	0000                	unimp
    10a2:	0501                	addi	a0,a0,0
    10a4:	090e0307          	0x90e0307
    10a8:	0000                	unimp
    10aa:	0301                	addi	t1,t1,0
    10ac:	0902                	c.slli64	s2
    10ae:	0000                	unimp
    10b0:	0301                	addi	t1,t1,0
    10b2:	097f                	0x97f
    10b4:	0000                	unimp
    10b6:	0501                	addi	a0,a0,0
    10b8:	030d                	addi	t1,t1,3
    10ba:	0901                	addi	s2,s2,0
    10bc:	0000                	unimp
    10be:	0501                	addi	a0,a0,0
    10c0:	09000307          	0x9000307
    10c4:	0000                	unimp
    10c6:	0501                	addi	a0,a0,0
    10c8:	0304                	addi	s1,sp,384
    10ca:	00000903          	lb	s2,0(zero) # 0 <InterruptVector>
    10ce:	0501                	addi	a0,a0,0
    10d0:	030c                	addi	a1,sp,384
    10d2:	093d                	addi	s2,s2,15
    10d4:	0000                	unimp
    10d6:	0501                	addi	a0,a0,0
    10d8:	0309                	addi	t1,t1,2
    10da:	7fae                	flw	ft11,232(sp)
    10dc:	0009                	c.nop	2
    10de:	0100                	addi	s0,sp,128
    10e0:	0405                	addi	s0,s0,1
    10e2:	00091503          	lh	a0,0(s2)
    10e6:	0100                	addi	s0,sp,128
    10e8:	0a05                	addi	s4,s4,1
    10ea:	00092403          	lw	s0,0(s2)
    10ee:	0100                	addi	s0,sp,128
    10f0:	0c05                	addi	s8,s8,1
    10f2:	00090103          	lb	sp,0(s2)
    10f6:	0100                	addi	s0,sp,128
    10f8:	0905                	addi	s2,s2,1
    10fa:	00090103          	lb	sp,0(s2)
    10fe:	0100                	addi	s0,sp,128
    1100:	0c05                	addi	s8,s8,1
    1102:	00097f03          	0x97f03
    1106:	0100                	addi	s0,sp,128
    1108:	0905                	addi	s2,s2,1
    110a:	00090103          	lb	sp,0(s2)
    110e:	0100                	addi	s0,sp,128
    1110:	0d05                	addi	s10,s10,1
    1112:	00090103          	lb	sp,0(s2)
    1116:	0100                	addi	s0,sp,128
    1118:	1705                	addi	a4,a4,-31
    111a:	00095f03          	lhu	t5,0(s2)
    111e:	0100                	addi	s0,sp,128
    1120:	0805                	addi	a6,a6,1
    1122:	00097f03          	0x97f03
    1126:	0100                	addi	s0,sp,128
    1128:	0d05                	addi	s10,s10,1
    112a:	00090103          	lb	sp,0(s2)
    112e:	0100                	addi	s0,sp,128
    1130:	0c05                	addi	s8,s8,1
    1132:	00090803          	lb	a6,0(s2)
    1136:	0100                	addi	s0,sp,128
    1138:	00090b03          	lb	s6,0(s2)
    113c:	0100                	addi	s0,sp,128
    113e:	00090103          	lb	sp,0(s2)
    1142:	0100                	addi	s0,sp,128
    1144:	00092303          	lw	t1,0(s2)
    1148:	0100                	addi	s0,sp,128
    114a:	0905                	addi	s2,s2,1
    114c:	00094b03          	lbu	s6,0(s2)
    1150:	0100                	addi	s0,sp,128
    1152:	1705                	addi	a4,a4,-31
    1154:	00097e03          	0x97e03
    1158:	0100                	addi	s0,sp,128
    115a:	0d05                	addi	s10,s10,1
    115c:	00090f03          	lb	t5,0(s2)
    1160:	0100                	addi	s0,sp,128
    1162:	1705                	addi	a4,a4,-31
    1164:	00097103          	0x97103
    1168:	0100                	addi	s0,sp,128
    116a:	0c05                	addi	s8,s8,1
    116c:	00091303          	lh	t1,0(s2)
    1170:	0100                	addi	s0,sp,128
    1172:	1205                	addi	tp,tp,-31
    1174:	00090503          	lb	a0,0(s2)
    1178:	0100                	addi	s0,sp,128
    117a:	0b05                	addi	s6,s6,1
    117c:	00090003          	lb	zero,0(s2)
    1180:	0100                	addi	s0,sp,128
    1182:	1205                	addi	tp,tp,-31
    1184:	00090003          	lb	zero,0(s2)
    1188:	0100                	addi	s0,sp,128
    118a:	0c05                	addi	s8,s8,1
    118c:	00090103          	lb	sp,0(s2)
    1190:	0100                	addi	s0,sp,128
    1192:	0b05                	addi	s6,s6,1
    1194:	00097f03          	0x97f03
    1198:	0100                	addi	s0,sp,128
    119a:	0c05                	addi	s8,s8,1
    119c:	00090103          	lb	sp,0(s2)
    11a0:	0100                	addi	s0,sp,128
    11a2:	0d05                	addi	s10,s10,1
    11a4:	00090b03          	lb	s6,0(s2)
    11a8:	0100                	addi	s0,sp,128
    11aa:	0009                	c.nop	2
    11ac:	0000                	unimp
    11ae:	0101                	addi	sp,sp,0
    11b0:	2b05                	jal	16e0 <ch32v003fun.c.8affbd33+0x85e>
    11b2:	0500                	addi	s0,sp,640
    11b4:	0002                	c.slli64	zero
    11b6:	0000                	unimp
    11b8:	0300                	addi	s0,sp,384
    11ba:	00f2                	slli	ra,ra,0x1c
    11bc:	0501                	addi	a0,a0,0
    11be:	032d                	addi	t1,t1,11
    11c0:	0900                	addi	s0,sp,144
    11c2:	0000                	unimp
    11c4:	0501                	addi	a0,a0,0
    11c6:	0346                	slli	t1,t1,0x11
    11c8:	0900                	addi	s0,sp,144
    11ca:	0000                	unimp
    11cc:	0501                	addi	a0,a0,0
    11ce:	063c                	addi	a5,sp,776
    11d0:	00090003          	lb	zero,0(s2)
    11d4:	0100                	addi	s0,sp,128
    11d6:	4d05                	li	s10,1
    11d8:	0200                	addi	s0,sp,256
    11da:	0104                	addi	s1,sp,128
    11dc:	0306                	slli	t1,t1,0x1
    11de:	0900                	addi	s0,sp,144
    11e0:	0000                	unimp
    11e2:	0501                	addi	a0,a0,0
    11e4:	0046                	c.slli	zero,0x11
    11e6:	0402                	c.slli64	s0
    11e8:	0601                	addi	a2,a2,0
    11ea:	00090003          	lb	zero,0(s2)
    11ee:	0100                	addi	s0,sp,128
    11f0:	6205                	lui	tp,0x1
    11f2:	0200                	addi	s0,sp,256
    11f4:	0404                	addi	s1,sp,512
    11f6:	0306                	slli	t1,t1,0x1
    11f8:	0900                	addi	s0,sp,144
    11fa:	0000                	unimp
    11fc:	0501                	addi	a0,a0,0
    11fe:	0402006f          	j	2123e <wiring.c.7604182b+0x1e845>
    1202:	0604                	addi	s1,sp,768
    1204:	00090003          	lb	zero,0(s2)
    1208:	0100                	addi	s0,sp,128
    120a:	5a05                	li	s4,-31
    120c:	0200                	addi	s0,sp,256
    120e:	0304                	addi	s1,sp,384
    1210:	0306                	slli	t1,t1,0x1
    1212:	0900                	addi	s0,sp,144
    1214:	0000                	unimp
    1216:	0501                	addi	a0,a0,0
    1218:	005d                	c.nop	23
    121a:	0402                	c.slli64	s0
    121c:	00030603          	lb	a2,0(t1)
    1220:	0009                	c.nop	2
    1222:	0100                	addi	s0,sp,128
    1224:	5005                	c.li	zero,-31
    1226:	0200                	addi	s0,sp,256
    1228:	0304                	addi	s1,sp,384
    122a:	0306                	slli	t1,t1,0x1
    122c:	0900                	addi	s0,sp,144
    122e:	0000                	unimp
    1230:	0501                	addi	a0,a0,0
    1232:	0056                	c.slli	zero,0x15
    1234:	0402                	c.slli64	s0
    1236:	00030603          	lb	a2,0(t1)
    123a:	0009                	c.nop	2
    123c:	0100                	addi	s0,sp,128
    123e:	0009                	c.nop	2
    1240:	0000                	unimp
    1242:	0101                	addi	sp,sp,0
    1244:	2605                	jal	1564 <ch32v003fun.c.8affbd33+0x6e2>
    1246:	0500                	addi	s0,sp,640
    1248:	0002                	c.slli64	zero
    124a:	0000                	unimp
    124c:	0300                	addi	s0,sp,384
    124e:	050100f3          	0x50100f3
    1252:	0328                	addi	a0,sp,392
    1254:	0900                	addi	s0,sp,144
    1256:	0000                	unimp
    1258:	0501                	addi	a0,a0,0
    125a:	0402002f          	0x402002f
    125e:	0301                	addi	t1,t1,0
    1260:	0900                	addi	s0,sp,144
    1262:	0000                	unimp
    1264:	0501                	addi	a0,a0,0
    1266:	04020033          	0x4020033
    126a:	0601                	addi	a2,a2,0
    126c:	00090003          	lb	zero,0(s2)
    1270:	0100                	addi	s0,sp,128
    1272:	3205                	jal	b92 <_data_lma+0x3be>
    1274:	0200                	addi	s0,sp,256
    1276:	0104                	addi	s1,sp,128
    1278:	00090003          	lb	zero,0(s2)
    127c:	0100                	addi	s0,sp,128
    127e:	2805                	jal	12ae <ch32v003fun.c.8affbd33+0x42c>
    1280:	0200                	addi	s0,sp,256
    1282:	0104                	addi	s1,sp,128
    1284:	00090003          	lb	zero,0(s2)
    1288:	0100                	addi	s0,sp,128
    128a:	4305                	li	t1,1
    128c:	0200                	addi	s0,sp,256
    128e:	0304                	addi	s1,sp,384
    1290:	0306                	slli	t1,t1,0x1
    1292:	0900                	addi	s0,sp,144
    1294:	0000                	unimp
    1296:	0501                	addi	a0,a0,0
    1298:	004d                	c.nop	19
    129a:	0402                	c.slli64	s0
    129c:	00030603          	lb	a2,0(t1)
    12a0:	0009                	c.nop	2
    12a2:	0100                	addi	s0,sp,128
    12a4:	4105                	li	sp,1
    12a6:	0200                	addi	s0,sp,256
    12a8:	0204                	addi	s1,sp,256
    12aa:	0306                	slli	t1,t1,0x1
    12ac:	0900                	addi	s0,sp,144
    12ae:	0000                	unimp
    12b0:	0501                	addi	a0,a0,0
    12b2:	0038                	addi	a4,sp,8
    12b4:	0402                	c.slli64	s0
    12b6:	0302                	c.slli64	t1
    12b8:	0900                	addi	s0,sp,144
    12ba:	0000                	unimp
    12bc:	0501                	addi	a0,a0,0
    12be:	0039                	c.nop	14
    12c0:	0402                	c.slli64	s0
    12c2:	0602                	c.slli64	a2
    12c4:	00090003          	lb	zero,0(s2)
    12c8:	0100                	addi	s0,sp,128
    12ca:	3e05                	jal	dfa <_data_lma+0x626>
    12cc:	0200                	addi	s0,sp,256
    12ce:	0204                	addi	s1,sp,256
    12d0:	00090003          	lb	zero,0(s2)
    12d4:	0100                	addi	s0,sp,128
    12d6:	0009                	c.nop	2
    12d8:	0000                	unimp
    12da:	0101                	addi	sp,sp,0
    12dc:	3105                	jal	efc <ch32v003fun.c.8affbd33+0x7a>
    12de:	0500                	addi	s0,sp,640
    12e0:	0002                	c.slli64	zero
    12e2:	0000                	unimp
    12e4:	0300                	addi	s0,sp,384
    12e6:	00f4                	addi	a3,sp,76
    12e8:	0501                	addi	a0,a0,0
    12ea:	09000333          	0x9000333
    12ee:	0000                	unimp
    12f0:	0501                	addi	a0,a0,0
    12f2:	003a                	c.slli	zero,0xe
    12f4:	0402                	c.slli64	s0
    12f6:	0301                	addi	t1,t1,0
    12f8:	0900                	addi	s0,sp,144
    12fa:	0000                	unimp
    12fc:	0501                	addi	a0,a0,0
    12fe:	04020033          	0x4020033
    1302:	0601                	addi	a2,a2,0
    1304:	00090003          	lb	zero,0(s2)
    1308:	0100                	addi	s0,sp,128
    130a:	4305                	li	t1,1
    130c:	0200                	addi	s0,sp,256
    130e:	0204                	addi	s1,sp,256
    1310:	00090003          	lb	zero,0(s2)
    1314:	0100                	addi	s0,sp,128
    1316:	4205                	li	tp,1
    1318:	0200                	addi	s0,sp,256
    131a:	0204                	addi	s1,sp,256
    131c:	00090003          	lb	zero,0(s2)
    1320:	0100                	addi	s0,sp,128
    1322:	3c05                	jal	d52 <_data_lma+0x57e>
    1324:	0200                	addi	s0,sp,256
    1326:	0204                	addi	s1,sp,256
    1328:	00090003          	lb	zero,0(s2)
    132c:	0100                	addi	s0,sp,128
    132e:	6205                	lui	tp,0x1
    1330:	00090003          	lb	zero,0(s2)
    1334:	0100                	addi	s0,sp,128
    1336:	5605                	li	a2,-31
    1338:	0200                	addi	s0,sp,256
    133a:	0404                	addi	s1,sp,512
    133c:	0306                	slli	t1,t1,0x1
    133e:	0900                	addi	s0,sp,144
    1340:	0000                	unimp
    1342:	0501                	addi	a0,a0,0
    1344:	0048                	addi	a0,sp,4
    1346:	0402                	c.slli64	s0
    1348:	0304                	addi	s1,sp,384
    134a:	0900                	addi	s0,sp,144
    134c:	0000                	unimp
    134e:	0501                	addi	a0,a0,0
    1350:	004e                	c.slli	zero,0x13
    1352:	0402                	c.slli64	s0
    1354:	0604                	addi	s1,sp,768
    1356:	00090003          	lb	zero,0(s2)
    135a:	0100                	addi	s0,sp,128
    135c:	5305                	li	t1,-31
    135e:	0200                	addi	s0,sp,256
    1360:	0404                	addi	s1,sp,512
    1362:	00090003          	lb	zero,0(s2)
    1366:	0100                	addi	s0,sp,128
    1368:	0009                	c.nop	2
    136a:	0000                	unimp
    136c:	0101                	addi	sp,sp,0
    136e:	0105                	addi	sp,sp,1
    1370:	0500                	addi	s0,sp,640
    1372:	0002                	c.slli64	zero
    1374:	0000                	unimp
    1376:	0300                	addi	s0,sp,384
    1378:	00f6                	slli	ra,ra,0x1d
    137a:	0501                	addi	a0,a0,0
    137c:	0302                	c.slli64	t1
    137e:	0901                	addi	s2,s2,0
    1380:	0000                	unimp
    1382:	0501                	addi	a0,a0,0
    1384:	0009                	c.nop	2
    1386:	0402                	c.slli64	s0
    1388:	0301                	addi	t1,t1,0
    138a:	0900                	addi	s0,sp,144
    138c:	0000                	unimp
    138e:	0501                	addi	a0,a0,0
    1390:	000d                	c.nop	3
    1392:	0402                	c.slli64	s0
    1394:	0601                	addi	a2,a2,0
    1396:	00090003          	lb	zero,0(s2)
    139a:	0100                	addi	s0,sp,128
    139c:	0205                	addi	tp,tp,1
    139e:	0200                	addi	s0,sp,256
    13a0:	0104                	addi	s1,sp,128
    13a2:	00090003          	lb	zero,0(s2)
    13a6:	0100                	addi	s0,sp,128
    13a8:	1005                	c.nop	-31
    13aa:	0200                	addi	s0,sp,256
    13ac:	0204                	addi	s1,sp,256
    13ae:	00090003          	lb	zero,0(s2)
    13b2:	0100                	addi	s0,sp,128
    13b4:	0205                	addi	tp,tp,1
    13b6:	0306                	slli	t1,t1,0x1
    13b8:	0901                	addi	s2,s2,0
    13ba:	0000                	unimp
    13bc:	0501                	addi	a0,a0,0
    13be:	0601                	addi	a2,a2,0
    13c0:	00090103          	lb	sp,0(s2)
    13c4:	0100                	addi	s0,sp,128
    13c6:	2005                	jal	13e6 <ch32v003fun.c.8affbd33+0x564>
    13c8:	0200                	addi	s0,sp,256
    13ca:	0304                	addi	s1,sp,384
    13cc:	0306                	slli	t1,t1,0x1
    13ce:	097e                	slli	s2,s2,0x1f
    13d0:	0000                	unimp
    13d2:	0501                	addi	a0,a0,0
    13d4:	04020017          	auipc	zero,0x4020
    13d8:	09000303          	lb	t1,144(zero) # 90 <InterruptVector+0x90>
    13dc:	0000                	unimp
    13de:	0501                	addi	a0,a0,0
    13e0:	0018                	0x18
    13e2:	0402                	c.slli64	s0
    13e4:	00030603          	lb	a2,0(t1)
    13e8:	0009                	c.nop	2
    13ea:	0100                	addi	s0,sp,128
    13ec:	1d05                	addi	s10,s10,-31
    13ee:	0200                	addi	s0,sp,256
    13f0:	0304                	addi	s1,sp,384
    13f2:	00090003          	lb	zero,0(s2)
    13f6:	0100                	addi	s0,sp,128
    13f8:	0009                	c.nop	2
    13fa:	0000                	unimp
    13fc:	0101                	addi	sp,sp,0
    13fe:	0105                	addi	sp,sp,1
    1400:	0500                	addi	s0,sp,640
    1402:	0002                	c.slli64	zero
    1404:	0000                	unimp
    1406:	0300                	addi	s0,sp,384
    1408:	050100fb          	0x50100fb
    140c:	0302                	c.slli64	t1
    140e:	0901                	addi	s2,s2,0
    1410:	0000                	unimp
    1412:	0301                	addi	t1,t1,0
    1414:	0901                	addi	s2,s2,0
    1416:	0000                	unimp
    1418:	0501                	addi	a0,a0,0
    141a:	0605                	addi	a2,a2,1
    141c:	00090003          	lb	zero,0(s2)
    1420:	0100                	addi	s0,sp,128
    1422:	0805                	addi	a6,a6,1
    1424:	00090003          	lb	zero,0(s2)
    1428:	0100                	addi	s0,sp,128
    142a:	0905                	addi	s2,s2,1
    142c:	0200                	addi	s0,sp,256
    142e:	0104                	addi	s1,sp,128
    1430:	0306                	slli	t1,t1,0x1
    1432:	0901                	addi	s2,s2,0
    1434:	0000                	unimp
    1436:	0501                	addi	a0,a0,0
    1438:	0402000f          	0x402000f
    143c:	0601                	addi	a2,a2,0
    143e:	00090003          	lb	zero,0(s2)
    1442:	0100                	addi	s0,sp,128
    1444:	0205                	addi	tp,tp,1
    1446:	0200                	addi	s0,sp,256
    1448:	0104                	addi	s1,sp,128
    144a:	00090003          	lb	zero,0(s2)
    144e:	0100                	addi	s0,sp,128
    1450:	0c05                	addi	s8,s8,1
    1452:	0200                	addi	s0,sp,256
    1454:	0204                	addi	s1,sp,256
    1456:	00090003          	lb	zero,0(s2)
    145a:	0100                	addi	s0,sp,128
    145c:	1205                	addi	tp,tp,-31
    145e:	0200                	addi	s0,sp,256
    1460:	0304                	addi	s1,sp,384
    1462:	00090003          	lb	zero,0(s2)
    1466:	0100                	addi	s0,sp,128
    1468:	1705                	addi	a4,a4,-31
    146a:	0200                	addi	s0,sp,256
    146c:	0404                	addi	s1,sp,512
    146e:	00090003          	lb	zero,0(s2)
    1472:	0100                	addi	s0,sp,128
    1474:	0205                	addi	tp,tp,1
    1476:	0306                	slli	t1,t1,0x1
    1478:	0901                	addi	s2,s2,0
    147a:	0000                	unimp
    147c:	0501                	addi	a0,a0,0
    147e:	060c                	addi	a1,sp,768
    1480:	00090003          	lb	zero,0(s2)
    1484:	0100                	addi	s0,sp,128
    1486:	1305                	addi	t1,t1,-31
    1488:	00097e03          	0x97e03
    148c:	0100                	addi	s0,sp,128
    148e:	0105                	addi	sp,sp,1
    1490:	00090303          	lb	t1,0(s2)
    1494:	0100                	addi	s0,sp,128
    1496:	0009                	c.nop	2
    1498:	0000                	unimp
    149a:	0101                	addi	sp,sp,0
    149c:	0105                	addi	sp,sp,1
    149e:	0500                	addi	s0,sp,640
    14a0:	0002                	c.slli64	zero
    14a2:	0000                	unimp
    14a4:	0300                	addi	s0,sp,384
    14a6:	0601029b          	0x601029b
    14aa:	00090003          	lb	zero,0(s2)
    14ae:	0100                	addi	s0,sp,128
    14b0:	0205                	addi	tp,tp,1
    14b2:	0306                	slli	t1,t1,0x1
    14b4:	0901                	addi	s2,s2,0
    14b6:	0000                	unimp
    14b8:	0301                	addi	t1,t1,0
    14ba:	0901                	addi	s2,s2,0
    14bc:	0000                	unimp
    14be:	0501                	addi	a0,a0,0
    14c0:	0605                	addi	a2,a2,1
    14c2:	00090003          	lb	zero,0(s2)
    14c6:	0100                	addi	s0,sp,128
    14c8:	0a05                	addi	s4,s4,1
    14ca:	0306                	slli	t1,t1,0x1
    14cc:	0900                	addi	s0,sp,144
    14ce:	0000                	unimp
    14d0:	0501                	addi	a0,a0,0
    14d2:	061d                	addi	a2,a2,7
    14d4:	00090003          	lb	zero,0(s2)
    14d8:	0100                	addi	s0,sp,128
    14da:	1b05                	addi	s6,s6,-31
    14dc:	00090003          	lb	zero,0(s2)
    14e0:	0100                	addi	s0,sp,128
    14e2:	0105                	addi	sp,sp,1
    14e4:	00090303          	lb	t1,0(s2)
    14e8:	0100                	addi	s0,sp,128
    14ea:	2d05                	jal	1b1a <ch32v003fun.c.8affbd33+0xc98>
    14ec:	0200                	addi	s0,sp,256
    14ee:	0304                	addi	s1,sp,384
    14f0:	0306                	slli	t1,t1,0x1
    14f2:	097e                	slli	s2,s2,0x1f
    14f4:	0000                	unimp
    14f6:	0501                	addi	a0,a0,0
    14f8:	0029                	c.nop	10
    14fa:	0402                	c.slli64	s0
    14fc:	09000303          	lb	t1,144(zero) # 90 <InterruptVector+0x90>
    1500:	0000                	unimp
    1502:	0501                	addi	a0,a0,0
    1504:	002a                	c.slli	zero,0xa
    1506:	0402                	c.slli64	s0
    1508:	00030603          	lb	a2,0(t1)
    150c:	0009                	c.nop	2
    150e:	0100                	addi	s0,sp,128
    1510:	0905                	addi	s2,s2,1
    1512:	0200                	addi	s0,sp,256
    1514:	0104                	addi	s1,sp,128
    1516:	0306                	slli	t1,t1,0x1
    1518:	0900                	addi	s0,sp,144
    151a:	0000                	unimp
    151c:	0501                	addi	a0,a0,0
    151e:	0002                	c.slli64	zero
    1520:	0402                	c.slli64	s0
    1522:	0601                	addi	a2,a2,0
    1524:	00090003          	lb	zero,0(s2)
    1528:	0100                	addi	s0,sp,128
    152a:	0c05                	addi	s8,s8,1
    152c:	0200                	addi	s0,sp,256
    152e:	0204                	addi	s1,sp,256
    1530:	00090003          	lb	zero,0(s2)
    1534:	0100                	addi	s0,sp,128
    1536:	0009                	c.nop	2
    1538:	0000                	unimp
    153a:	0101                	addi	sp,sp,0
    153c:	0105                	addi	sp,sp,1
    153e:	0500                	addi	s0,sp,640
    1540:	0002                	c.slli64	zero
    1542:	0000                	unimp
    1544:	0300                	addi	s0,sp,384
    1546:	02ac                	addi	a1,sp,328
    1548:	0501                	addi	a0,a0,0
    154a:	0302                	c.slli64	t1
    154c:	0901                	addi	s2,s2,0
    154e:	0000                	unimp
    1550:	0501                	addi	a0,a0,0
    1552:	0601                	addi	a2,a2,0
    1554:	00097f03          	0x97f03
    1558:	0100                	addi	s0,sp,128
    155a:	1905                	addi	s2,s2,-31
    155c:	00090103          	lb	sp,0(s2)
    1560:	0100                	addi	s0,sp,128
    1562:	0205                	addi	tp,tp,1
    1564:	0306                	slli	t1,t1,0x1
    1566:	0978                	addi	a4,sp,156
    1568:	0000                	unimp
    156a:	0301                	addi	t1,t1,0
    156c:	0901                	addi	s2,s2,0
    156e:	0000                	unimp
    1570:	0301                	addi	t1,t1,0
    1572:	0901                	addi	s2,s2,0
    1574:	0000                	unimp
    1576:	0501                	addi	a0,a0,0
    1578:	0308                	addi	a0,sp,384
    157a:	0900                	addi	s0,sp,144
    157c:	0000                	unimp
    157e:	0501                	addi	a0,a0,0
    1580:	0609                	addi	a2,a2,2
    1582:	00090103          	lb	sp,0(s2)
    1586:	0100                	addi	s0,sp,128
    1588:	0e05                	addi	t3,t3,1
    158a:	0306                	slli	t1,t1,0x1
    158c:	097f                	0x97f
    158e:	0000                	unimp
    1590:	0501                	addi	a0,a0,0
    1592:	00030613          	mv	a2,t1
    1596:	0009                	c.nop	2
    1598:	0100                	addi	s0,sp,128
    159a:	1105                	addi	sp,sp,-31
    159c:	00090003          	lb	zero,0(s2)
    15a0:	0100                	addi	s0,sp,128
    15a2:	0105                	addi	sp,sp,1
    15a4:	00090703          	lb	a4,0(s2)
    15a8:	0100                	addi	s0,sp,128
    15aa:	0009                	c.nop	2
    15ac:	0000                	unimp
    15ae:	0101                	addi	sp,sp,0
    15b0:	0105                	addi	sp,sp,1
    15b2:	0500                	addi	s0,sp,640
    15b4:	0002                	c.slli64	zero
    15b6:	0000                	unimp
    15b8:	0300                	addi	s0,sp,384
    15ba:	02b1                	addi	t0,t0,12
    15bc:	0501                	addi	a0,a0,0
    15be:	0302                	c.slli64	t1
    15c0:	0901                	addi	s2,s2,0
    15c2:	0000                	unimp
    15c4:	0301                	addi	t1,t1,0
    15c6:	0901                	addi	s2,s2,0
    15c8:	0000                	unimp
    15ca:	0301                	addi	t1,t1,0
    15cc:	0901                	addi	s2,s2,0
    15ce:	0000                	unimp
    15d0:	0501                	addi	a0,a0,0
    15d2:	0601                	addi	a2,a2,0
    15d4:	00097d03          	0x97d03
    15d8:	0100                	addi	s0,sp,128
    15da:	0905                	addi	s2,s2,1
    15dc:	0200                	addi	s0,sp,256
    15de:	0104                	addi	s1,sp,128
    15e0:	0306                	slli	t1,t1,0x1
    15e2:	00000903          	lb	s2,0(zero) # 0 <InterruptVector>
    15e6:	0501                	addi	a0,a0,0
    15e8:	0002                	c.slli64	zero
    15ea:	0402                	c.slli64	s0
    15ec:	0601                	addi	a2,a2,0
    15ee:	00090003          	lb	zero,0(s2)
    15f2:	0100                	addi	s0,sp,128
    15f4:	0306                	slli	t1,t1,0x1
    15f6:	0901                	addi	s2,s2,0
    15f8:	0000                	unimp
    15fa:	0501                	addi	a0,a0,0
    15fc:	0601                	addi	a2,a2,0
    15fe:	00090103          	lb	sp,0(s2)
    1602:	0100                	addi	s0,sp,128
    1604:	1105                	addi	sp,sp,-31
    1606:	0200                	addi	s0,sp,256
    1608:	0204                	addi	s1,sp,256
    160a:	0306                	slli	t1,t1,0x1
    160c:	097e                	slli	s2,s2,0x1f
    160e:	0000                	unimp
    1610:	0501                	addi	a0,a0,0
    1612:	0018                	0x18
    1614:	0402                	c.slli64	s0
    1616:	0602                	c.slli64	a2
    1618:	00090003          	lb	zero,0(s2)
    161c:	0100                	addi	s0,sp,128
    161e:	1605                	addi	a2,a2,-31
    1620:	0200                	addi	s0,sp,256
    1622:	0204                	addi	s1,sp,256
    1624:	00090003          	lb	zero,0(s2)
    1628:	0100                	addi	s0,sp,128
    162a:	0c05                	addi	s8,s8,1
    162c:	0200                	addi	s0,sp,256
    162e:	0204                	addi	s1,sp,256
    1630:	0306                	slli	t1,t1,0x1
    1632:	0900                	addi	s0,sp,144
    1634:	0000                	unimp
    1636:	0901                	addi	s2,s2,0
    1638:	0000                	unimp
    163a:	0100                	addi	s0,sp,128
    163c:	0501                	addi	a0,a0,0
    163e:	0001                	nop
    1640:	0205                	addi	tp,tp,1
    1642:	0000                	unimp
    1644:	0000                	unimp
    1646:	0102b903          	0x102b903
    164a:	0205                	addi	tp,tp,1
    164c:	00090103          	lb	sp,0(s2)
    1650:	0100                	addi	s0,sp,128
    1652:	00090103          	lb	sp,0(s2)
    1656:	0100                	addi	s0,sp,128
    1658:	0105                	addi	sp,sp,1
    165a:	0306                	slli	t1,t1,0x1
    165c:	097e                	slli	s2,s2,0x1f
    165e:	0000                	unimp
    1660:	0501                	addi	a0,a0,0
    1662:	0009                	c.nop	2
    1664:	0402                	c.slli64	s0
    1666:	0601                	addi	a2,a2,0
    1668:	00090203          	lb	tp,0(s2)
    166c:	0100                	addi	s0,sp,128
    166e:	0205                	addi	tp,tp,1
    1670:	0200                	addi	s0,sp,256
    1672:	0104                	addi	s1,sp,128
    1674:	0306                	slli	t1,t1,0x1
    1676:	0900                	addi	s0,sp,144
    1678:	0000                	unimp
    167a:	0501                	addi	a0,a0,0
    167c:	000e                	c.slli	zero,0x3
    167e:	0402                	c.slli64	s0
    1680:	0302                	c.slli64	t1
    1682:	0900                	addi	s0,sp,144
    1684:	0000                	unimp
    1686:	0501                	addi	a0,a0,0
    1688:	0402000b          	0x402000b
    168c:	0302                	c.slli64	t1
    168e:	0900                	addi	s0,sp,144
    1690:	0000                	unimp
    1692:	0501                	addi	a0,a0,0
    1694:	0014                	0x14
    1696:	0402                	c.slli64	s0
    1698:	0302                	c.slli64	t1
    169a:	0900                	addi	s0,sp,144
    169c:	0000                	unimp
    169e:	0501                	addi	a0,a0,0
    16a0:	000e                	c.slli	zero,0x3
    16a2:	0402                	c.slli64	s0
    16a4:	0302                	c.slli64	t1
    16a6:	0900                	addi	s0,sp,144
    16a8:	0000                	unimp
    16aa:	0501                	addi	a0,a0,0
    16ac:	0014                	0x14
    16ae:	0402                	c.slli64	s0
    16b0:	0302                	c.slli64	t1
    16b2:	0900                	addi	s0,sp,144
    16b4:	0000                	unimp
    16b6:	0501                	addi	a0,a0,0
    16b8:	0402000b          	0x402000b
    16bc:	0302                	c.slli64	t1
    16be:	0900                	addi	s0,sp,144
    16c0:	0000                	unimp
    16c2:	0501                	addi	a0,a0,0
    16c4:	0602                	c.slli64	a2
    16c6:	00090103          	lb	sp,0(s2)
    16ca:	0100                	addi	s0,sp,128
    16cc:	1305                	addi	t1,t1,-31
    16ce:	0306                	slli	t1,t1,0x1
    16d0:	0900                	addi	s0,sp,144
    16d2:	0000                	unimp
    16d4:	0501                	addi	a0,a0,0
    16d6:	0301                	addi	t1,t1,0
    16d8:	0901                	addi	s2,s2,0
    16da:	0000                	unimp
    16dc:	0501                	addi	a0,a0,0
    16de:	097f0313          	addi	t1,t5,151
    16e2:	0000                	unimp
    16e4:	0901                	addi	s2,s2,0
    16e6:	0000                	unimp
    16e8:	0100                	addi	s0,sp,128
    16ea:	0501                	addi	a0,a0,0
    16ec:	0001                	nop
    16ee:	0205                	addi	tp,tp,1
    16f0:	0000                	unimp
    16f2:	0000                	unimp
    16f4:	0102c103          	lbu	sp,16(t0)
    16f8:	0205                	addi	tp,tp,1
    16fa:	00090103          	lb	sp,0(s2)
    16fe:	0100                	addi	s0,sp,128
    1700:	00090103          	lb	sp,0(s2)
    1704:	0100                	addi	s0,sp,128
    1706:	00090203          	lb	tp,0(s2)
    170a:	0100                	addi	s0,sp,128
    170c:	0105                	addi	sp,sp,1
    170e:	0306                	slli	t1,t1,0x1
    1710:	097c                	addi	a5,sp,156
    1712:	0000                	unimp
    1714:	0501                	addi	a0,a0,0
    1716:	0305                	addi	t1,t1,1
    1718:	0904                	addi	s1,sp,144
    171a:	0000                	unimp
    171c:	0501                	addi	a0,a0,0
    171e:	0602                	c.slli64	a2
    1720:	00090103          	lb	sp,0(s2)
    1724:	0100                	addi	s0,sp,128
    1726:	1f05                	addi	t5,t5,-31
    1728:	0306                	slli	t1,t1,0x1
    172a:	0900                	addi	s0,sp,144
    172c:	0000                	unimp
    172e:	0501                	addi	a0,a0,0
    1730:	09000327          	0x9000327
    1734:	0000                	unimp
    1736:	0501                	addi	a0,a0,0
    1738:	031f 0900 0000      	0x900031f
    173e:	0501                	addi	a0,a0,0
    1740:	09000327          	0x9000327
    1744:	0000                	unimp
    1746:	0501                	addi	a0,a0,0
    1748:	0305                	addi	t1,t1,1
    174a:	0900                	addi	s0,sp,144
    174c:	0000                	unimp
    174e:	0501                	addi	a0,a0,0
    1750:	0402002b          	0x402002b
    1754:	0601                	addi	a2,a2,0
    1756:	00090003          	lb	zero,0(s2)
    175a:	0100                	addi	s0,sp,128
    175c:	3205                	jal	107c <ch32v003fun.c.8affbd33+0x1fa>
    175e:	0200                	addi	s0,sp,256
    1760:	0104                	addi	s1,sp,128
    1762:	0306                	slli	t1,t1,0x1
    1764:	0900                	addi	s0,sp,144
    1766:	0000                	unimp
    1768:	0501                	addi	a0,a0,0
    176a:	0602                	c.slli64	a2
    176c:	00090203          	lb	tp,0(s2)
    1770:	0100                	addi	s0,sp,128
    1772:	0505                	addi	a0,a0,1
    1774:	0306                	slli	t1,t1,0x1
    1776:	0900                	addi	s0,sp,144
    1778:	0000                	unimp
    177a:	0501                	addi	a0,a0,0
    177c:	0609                	addi	a2,a2,2
    177e:	00090303          	lb	t1,0(s2)
    1782:	0100                	addi	s0,sp,128
    1784:	0d05                	addi	s10,s10,1
    1786:	00090003          	lb	zero,0(s2)
    178a:	0100                	addi	s0,sp,128
    178c:	0e05                	addi	t3,t3,1
    178e:	0306                	slli	t1,t1,0x1
    1790:	0900                	addi	s0,sp,144
    1792:	0000                	unimp
    1794:	0501                	addi	a0,a0,0
    1796:	031a                	slli	t1,t1,0x6
    1798:	0900                	addi	s0,sp,144
    179a:	0000                	unimp
    179c:	0501                	addi	a0,a0,0
    179e:	09000317          	auipc	t1,0x9000
    17a2:	0000                	unimp
    17a4:	0501                	addi	a0,a0,0
    17a6:	0612                	slli	a2,a2,0x4
    17a8:	00097e03          	0x97e03
    17ac:	0100                	addi	s0,sp,128
    17ae:	1905                	addi	s2,s2,-31
    17b0:	0306                	slli	t1,t1,0x1
    17b2:	0900                	addi	s0,sp,144
    17b4:	0000                	unimp
    17b6:	0501                	addi	a0,a0,0
    17b8:	09000317          	auipc	t1,0x9000
    17bc:	0000                	unimp
    17be:	0501                	addi	a0,a0,0
    17c0:	060d                	addi	a2,a2,3
    17c2:	00090003          	lb	zero,0(s2)
    17c6:	0100                	addi	s0,sp,128
    17c8:	0a05                	addi	s4,s4,1
    17ca:	00090003          	lb	zero,0(s2)
    17ce:	0100                	addi	s0,sp,128
    17d0:	0305                	addi	t1,t1,1
    17d2:	0306                	slli	t1,t1,0x1
    17d4:	0900                	addi	s0,sp,144
    17d6:	0000                	unimp
    17d8:	0501                	addi	a0,a0,0
    17da:	0305                	addi	t1,t1,1
    17dc:	097f                	0x97f
    17de:	0000                	unimp
    17e0:	0501                	addi	a0,a0,0
    17e2:	0301                	addi	t1,t1,0
    17e4:	00000907          	0x907
    17e8:	0501                	addi	a0,a0,0
    17ea:	0305                	addi	t1,t1,1
    17ec:	0979                	addi	s2,s2,30
    17ee:	0000                	unimp
    17f0:	0901                	addi	s2,s2,0
    17f2:	0000                	unimp
    17f4:	0100                	addi	s0,sp,128
    17f6:	0501                	addi	a0,a0,0
    17f8:	0001                	nop
    17fa:	0205                	addi	tp,tp,1
    17fc:	0000                	unimp
    17fe:	0000                	unimp
    1800:	0102d103          	lhu	sp,16(t0)
    1804:	0205                	addi	tp,tp,1
    1806:	00090103          	lb	sp,0(s2)
    180a:	0100                	addi	s0,sp,128
    180c:	00090103          	lb	sp,0(s2)
    1810:	0100                	addi	s0,sp,128
    1812:	00090103          	lb	sp,0(s2)
    1816:	0100                	addi	s0,sp,128
    1818:	0905                	addi	s2,s2,1
    181a:	0200                	addi	s0,sp,256
    181c:	0104                	addi	s1,sp,128
    181e:	00090003          	lb	zero,0(s2)
    1822:	0100                	addi	s0,sp,128
    1824:	0205                	addi	tp,tp,1
    1826:	0200                	addi	s0,sp,256
    1828:	0104                	addi	s1,sp,128
    182a:	0306                	slli	t1,t1,0x1
    182c:	0900                	addi	s0,sp,144
    182e:	0000                	unimp
    1830:	0501                	addi	a0,a0,0
    1832:	000e                	c.slli	zero,0x3
    1834:	0402                	c.slli64	s0
    1836:	0302                	c.slli64	t1
    1838:	0900                	addi	s0,sp,144
    183a:	0000                	unimp
    183c:	0501                	addi	a0,a0,0
    183e:	0402000b          	0x402000b
    1842:	0302                	c.slli64	t1
    1844:	0900                	addi	s0,sp,144
    1846:	0000                	unimp
    1848:	0501                	addi	a0,a0,0
    184a:	0020                	addi	s0,sp,8
    184c:	0402                	c.slli64	s0
    184e:	00030603          	lb	a2,0(t1) # 90017b8 <wiring.c.7604182b+0x8ffedbf>
    1852:	0009                	c.nop	2
    1854:	0100                	addi	s0,sp,128
    1856:	1705                	addi	a4,a4,-31
    1858:	0200                	addi	s0,sp,256
    185a:	0304                	addi	s1,sp,384
    185c:	00090003          	lb	zero,0(s2)
    1860:	0100                	addi	s0,sp,128
    1862:	1805                	addi	a6,a6,-31
    1864:	0200                	addi	s0,sp,256
    1866:	0304                	addi	s1,sp,384
    1868:	0306                	slli	t1,t1,0x1
    186a:	0900                	addi	s0,sp,144
    186c:	0000                	unimp
    186e:	0501                	addi	a0,a0,0
    1870:	09010317          	auipc	t1,0x9010
    1874:	0000                	unimp
    1876:	0501                	addi	a0,a0,0
    1878:	0301                	addi	t1,t1,0
    187a:	0901                	addi	s2,s2,0
    187c:	0000                	unimp
    187e:	0901                	addi	s2,s2,0
    1880:	0000                	unimp
    1882:	0100                	addi	s0,sp,128
    1884:	0501                	addi	a0,a0,0
    1886:	0029                	c.nop	10
    1888:	0205                	addi	tp,tp,1
    188a:	0000                	unimp
    188c:	0000                	unimp
    188e:	0100f103          	0x100f103
    1892:	2b05                	jal	1dc2 <main_pwm.c.3eb49e96+0x6>
    1894:	00090003          	lb	zero,0(s2)
    1898:	0100                	addi	s0,sp,128
    189a:	2905                	jal	1cca <ch32v003fun.c.8affbd33+0xe48>
    189c:	0306                	slli	t1,t1,0x1
    189e:	0900                	addi	s0,sp,144
    18a0:	0000                	unimp
    18a2:	0501                	addi	a0,a0,0
    18a4:	0900033b          	0x900033b
    18a8:	0000                	unimp
    18aa:	0501                	addi	a0,a0,0
    18ac:	0329                	addi	t1,t1,10
    18ae:	0900                	addi	s0,sp,144
    18b0:	0000                	unimp
    18b2:	0501                	addi	a0,a0,0
    18b4:	0900033b          	0x900033b
    18b8:	0000                	unimp
    18ba:	0501                	addi	a0,a0,0
    18bc:	0329                	addi	t1,t1,10
    18be:	0900                	addi	s0,sp,144
    18c0:	0000                	unimp
    18c2:	0301                	addi	t1,t1,0
    18c4:	0900                	addi	s0,sp,144
    18c6:	0000                	unimp
    18c8:	0501                	addi	a0,a0,0
    18ca:	0900033b          	0x900033b
    18ce:	0000                	unimp
    18d0:	0501                	addi	a0,a0,0
    18d2:	064c                	addi	a1,sp,772
    18d4:	00090003          	lb	zero,0(s2)
    18d8:	0100                	addi	s0,sp,128
    18da:	5b05                	li	s6,-31
    18dc:	0306                	slli	t1,t1,0x1
    18de:	0900                	addi	s0,sp,144
    18e0:	0000                	unimp
    18e2:	0501                	addi	a0,a0,0
    18e4:	0058                	addi	a4,sp,4
    18e6:	0402                	c.slli64	s0
    18e8:	0301                	addi	t1,t1,0
    18ea:	0900                	addi	s0,sp,144
    18ec:	0000                	unimp
    18ee:	0501                	addi	a0,a0,0
    18f0:	005f 0402 0304      	0x3040402005f
    18f6:	0900                	addi	s0,sp,144
    18f8:	0000                	unimp
    18fa:	0901                	addi	s2,s2,0
    18fc:	0000                	unimp
    18fe:	0100                	addi	s0,sp,128
    1900:	0501                	addi	a0,a0,0
    1902:	0001                	nop
    1904:	0205                	addi	tp,tp,1
    1906:	0000                	unimp
    1908:	0000                	unimp
    190a:	0101a003          	lw	zero,16(gp) # 20000950 <__global_pointer$+0x10>
    190e:	0205                	addi	tp,tp,1
    1910:	00090103          	lb	sp,0(s2)
    1914:	0100                	addi	s0,sp,128
    1916:	00090103          	lb	sp,0(s2)
    191a:	0100                	addi	s0,sp,128
    191c:	00090103          	lb	sp,0(s2)
    1920:	0100                	addi	s0,sp,128
    1922:	0105                	addi	sp,sp,1
    1924:	0306                	slli	t1,t1,0x1
    1926:	097d                	addi	s2,s2,31
    1928:	0000                	unimp
    192a:	0501                	addi	a0,a0,0
    192c:	0309                	addi	t1,t1,2
    192e:	00000903          	lb	s2,0(zero) # 0 <InterruptVector>
    1932:	0501                	addi	a0,a0,0
    1934:	0301                	addi	t1,t1,0
    1936:	097d                	addi	s2,s2,31
    1938:	0000                	unimp
    193a:	0501                	addi	a0,a0,0
    193c:	0309                	addi	t1,t1,2
    193e:	00000903          	lb	s2,0(zero) # 0 <InterruptVector>
    1942:	0501                	addi	a0,a0,0
    1944:	0602                	c.slli64	a2
    1946:	00090103          	lb	sp,0(s2)
    194a:	0100                	addi	s0,sp,128
    194c:	00090303          	lb	t1,0(s2)
    1950:	0100                	addi	s0,sp,128
    1952:	0805                	addi	a6,a6,1
    1954:	0306                	slli	t1,t1,0x1
    1956:	0900                	addi	s0,sp,144
    1958:	0000                	unimp
    195a:	0501                	addi	a0,a0,0
    195c:	09010303          	lb	t1,144(sp)
    1960:	0000                	unimp
    1962:	0501                	addi	a0,a0,0
    1964:	000c                	0xc
    1966:	0402                	c.slli64	s0
    1968:	0601                	addi	a2,a2,0
    196a:	00097f03          	0x97f03
    196e:	0100                	addi	s0,sp,128
    1970:	0d05                	addi	s10,s10,1
    1972:	0200                	addi	s0,sp,256
    1974:	0104                	addi	s1,sp,128
    1976:	0306                	slli	t1,t1,0x1
    1978:	0900                	addi	s0,sp,144
    197a:	0000                	unimp
    197c:	0501                	addi	a0,a0,0
    197e:	0002                	c.slli64	zero
    1980:	0402                	c.slli64	s0
    1982:	0301                	addi	t1,t1,0
    1984:	0900                	addi	s0,sp,144
    1986:	0000                	unimp
    1988:	0501                	addi	a0,a0,0
    198a:	0015                	c.nop	5
    198c:	0402                	c.slli64	s0
    198e:	09000303          	lb	t1,144(zero) # 90 <InterruptVector+0x90>
    1992:	0000                	unimp
    1994:	0501                	addi	a0,a0,0
    1996:	0011                	c.nop	4
    1998:	0402                	c.slli64	s0
    199a:	09000303          	lb	t1,144(zero) # 90 <InterruptVector+0x90>
    199e:	0000                	unimp
    19a0:	0501                	addi	a0,a0,0
    19a2:	09020313          	addi	t1,tp,144 # 1090 <ch32v003fun.c.8affbd33+0x20e>
    19a6:	0000                	unimp
    19a8:	0501                	addi	a0,a0,0
    19aa:	0301                	addi	t1,t1,0
    19ac:	00dd                	addi	ra,ra,23
    19ae:	0009                	c.nop	2
    19b0:	0100                	addi	s0,sp,128
    19b2:	0305                	addi	t1,t1,1
    19b4:	0200                	addi	s0,sp,256
    19b6:	0404                	addi	s1,sp,512
    19b8:	0306                	slli	t1,t1,0x1
    19ba:	7fa2                	flw	ft11,40(sp)
    19bc:	0009                	c.nop	2
    19be:	0100                	addi	s0,sp,128
    19c0:	2905                	jal	1df0 <main_pwm.c.3eb49e96+0x34>
    19c2:	0200                	addi	s0,sp,256
    19c4:	0404                	addi	s1,sp,512
    19c6:	0306                	slli	t1,t1,0x1
    19c8:	0900                	addi	s0,sp,144
    19ca:	0000                	unimp
    19cc:	0501                	addi	a0,a0,0
    19ce:	04020003          	lb	zero,64(tp) # 40 <InterruptVector+0x40>
    19d2:	0304                	addi	s1,sp,384
    19d4:	0900                	addi	s0,sp,144
    19d6:	0000                	unimp
    19d8:	0501                	addi	a0,a0,0
    19da:	0029                	c.nop	10
    19dc:	0402                	c.slli64	s0
    19de:	0304                	addi	s1,sp,384
    19e0:	0900                	addi	s0,sp,144
    19e2:	0000                	unimp
    19e4:	0501                	addi	a0,a0,0
    19e6:	002c                	addi	a1,sp,8
    19e8:	0402                	c.slli64	s0
    19ea:	0304                	addi	s1,sp,384
    19ec:	0900                	addi	s0,sp,144
    19ee:	0000                	unimp
    19f0:	0501                	addi	a0,a0,0
    19f2:	0029                	c.nop	10
    19f4:	0402                	c.slli64	s0
    19f6:	0304                	addi	s1,sp,384
    19f8:	0900                	addi	s0,sp,144
    19fa:	0000                	unimp
    19fc:	0501                	addi	a0,a0,0
    19fe:	001a                	c.slli	zero,0x6
    1a00:	0402                	c.slli64	s0
    1a02:	0604                	addi	s1,sp,768
    1a04:	00097f03          	0x97f03
    1a08:	0100                	addi	s0,sp,128
    1a0a:	0305                	addi	t1,t1,1
    1a0c:	00090703          	lb	a4,0(s2)
    1a10:	0100                	addi	s0,sp,128
    1a12:	0805                	addi	a6,a6,1
    1a14:	0306                	slli	t1,t1,0x1
    1a16:	0900                	addi	s0,sp,144
    1a18:	0000                	unimp
    1a1a:	0501                	addi	a0,a0,0
    1a1c:	09000313          	li	t1,144
    1a20:	0000                	unimp
    1a22:	0501                	addi	a0,a0,0
    1a24:	0306                	slli	t1,t1,0x1
    1a26:	0900                	addi	s0,sp,144
    1a28:	0000                	unimp
    1a2a:	0501                	addi	a0,a0,0
    1a2c:	0604                	addi	s1,sp,768
    1a2e:	00090103          	lb	sp,0(s2)
    1a32:	0100                	addi	s0,sp,128
    1a34:	0705                	addi	a4,a4,1
    1a36:	0306                	slli	t1,t1,0x1
    1a38:	0900                	addi	s0,sp,144
    1a3a:	0000                	unimp
    1a3c:	0501                	addi	a0,a0,0
    1a3e:	0306                	slli	t1,t1,0x1
    1a40:	090a                	slli	s2,s2,0x2
    1a42:	0000                	unimp
    1a44:	0501                	addi	a0,a0,0
    1a46:	7903060b          	0x7903060b
    1a4a:	0009                	c.nop	2
    1a4c:	0100                	addi	s0,sp,128
    1a4e:	0c05                	addi	s8,s8,1
    1a50:	0306                	slli	t1,t1,0x1
    1a52:	0900                	addi	s0,sp,144
    1a54:	0000                	unimp
    1a56:	0501                	addi	a0,a0,0
    1a58:	0306                	slli	t1,t1,0x1
    1a5a:	00000907          	0x907
    1a5e:	0501                	addi	a0,a0,0
    1a60:	0608                	addi	a0,sp,768
    1a62:	00097403          	0x97403
    1a66:	0100                	addi	s0,sp,128
    1a68:	0b05                	addi	s6,s6,1
    1a6a:	0306                	slli	t1,t1,0x1
    1a6c:	0900                	addi	s0,sp,144
    1a6e:	0000                	unimp
    1a70:	0501                	addi	a0,a0,0
    1a72:	0308                	addi	a0,sp,384
    1a74:	0900                	addi	s0,sp,144
    1a76:	0000                	unimp
    1a78:	0501                	addi	a0,a0,0
    1a7a:	0319                	addi	t1,t1,6
    1a7c:	00000913          	li	s2,0
    1a80:	0501                	addi	a0,a0,0
    1a82:	0315                	addi	t1,t1,5
    1a84:	0900                	addi	s0,sp,144
    1a86:	0000                	unimp
    1a88:	0501                	addi	a0,a0,0
    1a8a:	030e                	slli	t1,t1,0x3
    1a8c:	0900                	addi	s0,sp,144
    1a8e:	0000                	unimp
    1a90:	0501                	addi	a0,a0,0
    1a92:	0305                	addi	t1,t1,1
    1a94:	0900                	addi	s0,sp,144
    1a96:	0000                	unimp
    1a98:	0501                	addi	a0,a0,0
    1a9a:	0608                	addi	a0,sp,768
    1a9c:	00090103          	lb	sp,0(s2)
    1aa0:	0100                	addi	s0,sp,128
    1aa2:	0b05                	addi	s6,s6,1
    1aa4:	0306                	slli	t1,t1,0x1
    1aa6:	0900                	addi	s0,sp,144
    1aa8:	0000                	unimp
    1aaa:	0501                	addi	a0,a0,0
    1aac:	0308                	addi	a0,sp,384
    1aae:	0900                	addi	s0,sp,144
    1ab0:	0000                	unimp
    1ab2:	0501                	addi	a0,a0,0
    1ab4:	0602                	c.slli64	a2
    1ab6:	00090f03          	lb	t5,0(s2)
    1aba:	0100                	addi	s0,sp,128
    1abc:	0805                	addi	a6,a6,1
    1abe:	0306                	slli	t1,t1,0x1
    1ac0:	0900                	addi	s0,sp,144
    1ac2:	0000                	unimp
    1ac4:	0501                	addi	a0,a0,0
    1ac6:	0900030f          	0x900030f
    1aca:	0000                	unimp
    1acc:	0501                	addi	a0,a0,0
    1ace:	0305                	addi	t1,t1,1
    1ad0:	0900                	addi	s0,sp,144
    1ad2:	0000                	unimp
    1ad4:	0501                	addi	a0,a0,0
    1ad6:	0306                	slli	t1,t1,0x1
    1ad8:	0904                	addi	s1,sp,144
    1ada:	0000                	unimp
    1adc:	0501                	addi	a0,a0,0
    1ade:	0602                	c.slli64	a2
    1ae0:	00090003          	lb	zero,0(s2)
    1ae4:	0100                	addi	s0,sp,128
    1ae6:	0605                	addi	a2,a2,1
    1ae8:	0306                	slli	t1,t1,0x1
    1aea:	0900                	addi	s0,sp,144
    1aec:	0000                	unimp
    1aee:	0501                	addi	a0,a0,0
    1af0:	030e                	slli	t1,t1,0x3
    1af2:	00000903          	lb	s2,0(zero) # 0 <InterruptVector>
    1af6:	0501                	addi	a0,a0,0
    1af8:	0305                	addi	t1,t1,1
    1afa:	097d                	addi	s2,s2,31
    1afc:	0000                	unimp
    1afe:	0501                	addi	a0,a0,0
    1b00:	030e                	slli	t1,t1,0x3
    1b02:	00000903          	lb	s2,0(zero) # 0 <InterruptVector>
    1b06:	0501                	addi	a0,a0,0
    1b08:	0305                	addi	t1,t1,1
    1b0a:	097d                	addi	s2,s2,31
    1b0c:	0000                	unimp
    1b0e:	0501                	addi	a0,a0,0
    1b10:	01030603          	lb	a2,16(t1) # 9011880 <wiring.c.7604182b+0x900ee87>
    1b14:	0009                	c.nop	2
    1b16:	0100                	addi	s0,sp,128
    1b18:	00090103          	lb	sp,0(s2)
    1b1c:	0100                	addi	s0,sp,128
    1b1e:	0705                	addi	a4,a4,1
    1b20:	0306                	slli	t1,t1,0x1
    1b22:	0900                	addi	s0,sp,144
    1b24:	0000                	unimp
    1b26:	0501                	addi	a0,a0,0
    1b28:	0305                	addi	t1,t1,1
    1b2a:	0900                	addi	s0,sp,144
    1b2c:	0000                	unimp
    1b2e:	0501                	addi	a0,a0,0
    1b30:	0308                	addi	a0,sp,384
    1b32:	097f                	0x97f
    1b34:	0000                	unimp
    1b36:	0501                	addi	a0,a0,0
    1b38:	0602                	c.slli64	a2
    1b3a:	00090303          	lb	t1,0(s2)
    1b3e:	0100                	addi	s0,sp,128
    1b40:	00090303          	lb	t1,0(s2)
    1b44:	0100                	addi	s0,sp,128
    1b46:	0b05                	addi	s6,s6,1
    1b48:	0306                	slli	t1,t1,0x1
    1b4a:	00000907          	0x907
    1b4e:	0501                	addi	a0,a0,0
    1b50:	09220307          	0x9220307
    1b54:	0000                	unimp
    1b56:	0501                	addi	a0,a0,0
    1b58:	0306                	slli	t1,t1,0x1
    1b5a:	0954                	addi	a3,sp,148
    1b5c:	0000                	unimp
    1b5e:	0501                	addi	a0,a0,0
    1b60:	090a030b          	0x90a030b
    1b64:	0000                	unimp
    1b66:	0501                	addi	a0,a0,0
    1b68:	0602                	c.slli64	a2
    1b6a:	00097c03          	0x97c03
    1b6e:	0100                	addi	s0,sp,128
    1b70:	0305                	addi	t1,t1,1
    1b72:	00090203          	lb	tp,0(s2)
    1b76:	0100                	addi	s0,sp,128
    1b78:	0805                	addi	a6,a6,1
    1b7a:	0306                	slli	t1,t1,0x1
    1b7c:	0900                	addi	s0,sp,144
    1b7e:	0000                	unimp
    1b80:	0501                	addi	a0,a0,0
    1b82:	0306                	slli	t1,t1,0x1
    1b84:	0900                	addi	s0,sp,144
    1b86:	0000                	unimp
    1b88:	0501                	addi	a0,a0,0
    1b8a:	031e                	slli	t1,t1,0x7
    1b8c:	00000903          	lb	s2,0(zero) # 0 <InterruptVector>
    1b90:	0501                	addi	a0,a0,0
    1b92:	0604                	addi	s1,sp,768
    1b94:	00097f03          	0x97f03
    1b98:	0100                	addi	s0,sp,128
    1b9a:	00090103          	lb	sp,0(s2)
    1b9e:	0100                	addi	s0,sp,128
    1ba0:	1e05                	addi	t3,t3,-31
    1ba2:	0306                	slli	t1,t1,0x1
    1ba4:	0900                	addi	s0,sp,144
    1ba6:	0000                	unimp
    1ba8:	0501                	addi	a0,a0,0
    1baa:	0604                	addi	s1,sp,768
    1bac:	00090103          	lb	sp,0(s2)
    1bb0:	0100                	addi	s0,sp,128
    1bb2:	0705                	addi	a4,a4,1
    1bb4:	0306                	slli	t1,t1,0x1
    1bb6:	0900                	addi	s0,sp,144
    1bb8:	0000                	unimp
    1bba:	0501                	addi	a0,a0,0
    1bbc:	0605                	addi	a2,a2,1
    1bbe:	00090103          	lb	sp,0(s2)
    1bc2:	0100                	addi	s0,sp,128
    1bc4:	00090103          	lb	sp,0(s2)
    1bc8:	0100                	addi	s0,sp,128
    1bca:	0a05                	addi	s4,s4,1
    1bcc:	0306                	slli	t1,t1,0x1
    1bce:	0900                	addi	s0,sp,144
    1bd0:	0000                	unimp
    1bd2:	0501                	addi	a0,a0,0
    1bd4:	0308                	addi	a0,sp,384
    1bd6:	0900                	addi	s0,sp,144
    1bd8:	0000                	unimp
    1bda:	0501                	addi	a0,a0,0
    1bdc:	05030603          	lb	a2,80(t1)
    1be0:	0009                	c.nop	2
    1be2:	0100                	addi	s0,sp,128
    1be4:	0705                	addi	a4,a4,1
    1be6:	0306                	slli	t1,t1,0x1
    1be8:	0900                	addi	s0,sp,144
    1bea:	0000                	unimp
    1bec:	0501                	addi	a0,a0,0
    1bee:	0306                	slli	t1,t1,0x1
    1bf0:	0900                	addi	s0,sp,144
    1bf2:	0000                	unimp
    1bf4:	0501                	addi	a0,a0,0
    1bf6:	0604                	addi	s1,sp,768
    1bf8:	00090103          	lb	sp,0(s2)
    1bfc:	0100                	addi	s0,sp,128
    1bfe:	0f05                	addi	t5,t5,1
    1c00:	0306                	slli	t1,t1,0x1
    1c02:	0900                	addi	s0,sp,144
    1c04:	0000                	unimp
    1c06:	0501                	addi	a0,a0,0
    1c08:	0306                	slli	t1,t1,0x1
    1c0a:	0900                	addi	s0,sp,144
    1c0c:	0000                	unimp
    1c0e:	0501                	addi	a0,a0,0
    1c10:	0604                	addi	s1,sp,768
    1c12:	00090103          	lb	sp,0(s2)
    1c16:	0100                	addi	s0,sp,128
    1c18:	0705                	addi	a4,a4,1
    1c1a:	0306                	slli	t1,t1,0x1
    1c1c:	0900                	addi	s0,sp,144
    1c1e:	0000                	unimp
    1c20:	0501                	addi	a0,a0,0
    1c22:	0605                	addi	a2,a2,1
    1c24:	00090103          	lb	sp,0(s2)
    1c28:	0100                	addi	s0,sp,128
    1c2a:	00090103          	lb	sp,0(s2)
    1c2e:	0100                	addi	s0,sp,128
    1c30:	0705                	addi	a4,a4,1
    1c32:	0306                	slli	t1,t1,0x1
    1c34:	0900                	addi	s0,sp,144
    1c36:	0000                	unimp
    1c38:	0501                	addi	a0,a0,0
    1c3a:	0605                	addi	a2,a2,1
    1c3c:	00090103          	lb	sp,0(s2)
    1c40:	0100                	addi	s0,sp,128
    1c42:	00090103          	lb	sp,0(s2)
    1c46:	0100                	addi	s0,sp,128
    1c48:	0905                	addi	s2,s2,1
    1c4a:	0306                	slli	t1,t1,0x1
    1c4c:	097f                	0x97f
    1c4e:	0000                	unimp
    1c50:	0501                	addi	a0,a0,0
    1c52:	09140307          	0x9140307
    1c56:	0000                	unimp
    1c58:	0501                	addi	a0,a0,0
    1c5a:	060a                	slli	a2,a2,0x2
    1c5c:	097faf03          	lw	t5,151(t6)
    1c60:	0000                	unimp
    1c62:	0501                	addi	a0,a0,0
    1c64:	0606                	slli	a2,a2,0x1
    1c66:	00090303          	lb	t1,0(s2)
    1c6a:	0100                	addi	s0,sp,128
    1c6c:	0d05                	addi	s10,s10,1
    1c6e:	00097d03          	0x97d03
    1c72:	0100                	addi	s0,sp,128
    1c74:	0405                	addi	s0,s0,1
    1c76:	0306                	slli	t1,t1,0x1
    1c78:	0905                	addi	s2,s2,1
    1c7a:	0000                	unimp
    1c7c:	0501                	addi	a0,a0,0
    1c7e:	0003060b          	0x3060b
    1c82:	0009                	c.nop	2
    1c84:	0100                	addi	s0,sp,128
    1c86:	0405                	addi	s0,s0,1
    1c88:	0306                	slli	t1,t1,0x1
    1c8a:	0901                	addi	s2,s2,0
    1c8c:	0000                	unimp
    1c8e:	0501                	addi	a0,a0,0
    1c90:	7f030607          	0x7f030607
    1c94:	0009                	c.nop	2
    1c96:	0100                	addi	s0,sp,128
    1c98:	0a05                	addi	s4,s4,1
    1c9a:	00090103          	lb	sp,0(s2)
    1c9e:	0100                	addi	s0,sp,128
    1ca0:	0205                	addi	tp,tp,1
    1ca2:	00096e03          	0x96e03
    1ca6:	0100                	addi	s0,sp,128
    1ca8:	0305                	addi	t1,t1,1
    1caa:	0306                	slli	t1,t1,0x1
    1cac:	0000091b          	0x91b
    1cb0:	0501                	addi	a0,a0,0
    1cb2:	0608                	addi	a0,sp,768
    1cb4:	00090003          	lb	zero,0(s2)
    1cb8:	0100                	addi	s0,sp,128
    1cba:	1305                	addi	t1,t1,-31
    1cbc:	00090003          	lb	zero,0(s2)
    1cc0:	0100                	addi	s0,sp,128
    1cc2:	0605                	addi	a2,a2,1
    1cc4:	00090003          	lb	zero,0(s2)
    1cc8:	0100                	addi	s0,sp,128
    1cca:	0405                	addi	s0,s0,1
    1ccc:	0306                	slli	t1,t1,0x1
    1cce:	0901                	addi	s2,s2,0
    1cd0:	0000                	unimp
    1cd2:	0501                	addi	a0,a0,0
    1cd4:	00030607          	0x30607
    1cd8:	0009                	c.nop	2
    1cda:	0100                	addi	s0,sp,128
    1cdc:	0605                	addi	a2,a2,1
    1cde:	00090a03          	lb	s4,0(s2)
    1ce2:	0100                	addi	s0,sp,128
    1ce4:	0b05                	addi	s6,s6,1
    1ce6:	0306                	slli	t1,t1,0x1
    1ce8:	0979                	addi	s2,s2,30
    1cea:	0000                	unimp
    1cec:	0501                	addi	a0,a0,0
    1cee:	060c                	addi	a1,sp,768
    1cf0:	00090003          	lb	zero,0(s2)
    1cf4:	0100                	addi	s0,sp,128
    1cf6:	0605                	addi	a2,a2,1
    1cf8:	00090703          	lb	a4,0(s2)
    1cfc:	0100                	addi	s0,sp,128
    1cfe:	0a05                	addi	s4,s4,1
    1d00:	0306                	slli	t1,t1,0x1
    1d02:	097a                	slli	s2,s2,0x1e
    1d04:	0000                	unimp
    1d06:	0501                	addi	a0,a0,0
    1d08:	0606                	slli	a2,a2,0x1
    1d0a:	00090303          	lb	t1,0(s2)
    1d0e:	0100                	addi	s0,sp,128
    1d10:	0d05                	addi	s10,s10,1
    1d12:	00097d03          	0x97d03
    1d16:	0100                	addi	s0,sp,128
    1d18:	0405                	addi	s0,s0,1
    1d1a:	0306                	slli	t1,t1,0x1
    1d1c:	0905                	addi	s2,s2,1
    1d1e:	0000                	unimp
    1d20:	0501                	addi	a0,a0,0
    1d22:	0003060b          	0x3060b
    1d26:	0009                	c.nop	2
    1d28:	0100                	addi	s0,sp,128
    1d2a:	0405                	addi	s0,s0,1
    1d2c:	0306                	slli	t1,t1,0x1
    1d2e:	0901                	addi	s2,s2,0
    1d30:	0000                	unimp
    1d32:	0501                	addi	a0,a0,0
    1d34:	7f030607          	0x7f030607
    1d38:	0009                	c.nop	2
    1d3a:	0100                	addi	s0,sp,128
    1d3c:	0a05                	addi	s4,s4,1
    1d3e:	00090103          	lb	sp,0(s2)
    1d42:	0100                	addi	s0,sp,128
    1d44:	0b05                	addi	s6,s6,1
    1d46:	0306                	slli	t1,t1,0x1
    1d48:	091a                	slli	s2,s2,0x6
    1d4a:	0000                	unimp
    1d4c:	0501                	addi	a0,a0,0
    1d4e:	060d                	addi	a2,a2,3
    1d50:	00090003          	lb	zero,0(s2)
    1d54:	0100                	addi	s0,sp,128
    1d56:	0405                	addi	s0,s0,1
    1d58:	0306                	slli	t1,t1,0x1
    1d5a:	090d                	addi	s2,s2,3
    1d5c:	0000                	unimp
    1d5e:	0501                	addi	a0,a0,0
    1d60:	0606                	slli	a2,a2,0x1
    1d62:	00090003          	lb	zero,0(s2)
    1d66:	0100                	addi	s0,sp,128
    1d68:	0405                	addi	s0,s0,1
    1d6a:	0306                	slli	t1,t1,0x1
    1d6c:	0901                	addi	s2,s2,0
    1d6e:	0000                	unimp
    1d70:	0301                	addi	t1,t1,0
    1d72:	0901                	addi	s2,s2,0
    1d74:	0000                	unimp
    1d76:	0501                	addi	a0,a0,0
    1d78:	09040303          	lb	t1,144(s0)
    1d7c:	0000                	unimp
    1d7e:	0501                	addi	a0,a0,0
    1d80:	0609                	addi	a2,a2,2
    1d82:	00090003          	lb	zero,0(s2)
    1d86:	0100                	addi	s0,sp,128
    1d88:	1905                	addi	s2,s2,-31
    1d8a:	0200                	addi	s0,sp,256
    1d8c:	0104                	addi	s1,sp,128
    1d8e:	0306                	slli	t1,t1,0x1
    1d90:	0900                	addi	s0,sp,144
    1d92:	0000                	unimp
    1d94:	0501                	addi	a0,a0,0
    1d96:	001a                	c.slli	zero,0x6
    1d98:	0402                	c.slli64	s0
    1d9a:	0601                	addi	a2,a2,0
    1d9c:	00090003          	lb	zero,0(s2)
    1da0:	0100                	addi	s0,sp,128
    1da2:	0305                	addi	t1,t1,1
    1da4:	0200                	addi	s0,sp,256
    1da6:	0104                	addi	s1,sp,128
    1da8:	00090003          	lb	zero,0(s2)
    1dac:	0100                	addi	s0,sp,128
    1dae:	2a05                	jal	1ede <main_pwm.c.3eb49e96+0x122>
    1db0:	0200                	addi	s0,sp,256
    1db2:	0304                	addi	s1,sp,384
    1db4:	00090003          	lb	zero,0(s2)
    1db8:	0100                	addi	s0,sp,128
    1dba:	1e05                	addi	t3,t3,-31
    1dbc:	0200                	addi	s0,sp,256
    1dbe:	0304                	addi	s1,sp,384
    1dc0:	00090003          	lb	zero,0(s2)
    1dc4:	0100                	addi	s0,sp,128
    1dc6:	0305                	addi	t1,t1,1
    1dc8:	0306                	slli	t1,t1,0x1
    1dca:	0901                	addi	s2,s2,0
    1dcc:	0000                	unimp
    1dce:	0501                	addi	a0,a0,0
    1dd0:	0304                	addi	s1,sp,384
    1dd2:	0901                	addi	s2,s2,0
    1dd4:	0000                	unimp
    1dd6:	0501                	addi	a0,a0,0
    1dd8:	060a                	slli	a2,a2,0x2
    1dda:	00090003          	lb	zero,0(s2)
    1dde:	0100                	addi	s0,sp,128
    1de0:	0605                	addi	a2,a2,1
    1de2:	00090003          	lb	zero,0(s2)
    1de6:	0100                	addi	s0,sp,128
    1de8:	0405                	addi	s0,s0,1
    1dea:	0306                	slli	t1,t1,0x1
    1dec:	0901                	addi	s2,s2,0
    1dee:	0000                	unimp
    1df0:	0301                	addi	t1,t1,0
    1df2:	0901                	addi	s2,s2,0
    1df4:	0000                	unimp
    1df6:	0501                	addi	a0,a0,0
    1df8:	04020033          	0x4020033
    1dfc:	0304                	addi	s1,sp,384
    1dfe:	097c                	addi	a5,sp,156
    1e00:	0000                	unimp
    1e02:	0501                	addi	a0,a0,0
    1e04:	0402002f          	0x402002f
    1e08:	0304                	addi	s1,sp,384
    1e0a:	0900                	addi	s0,sp,144
    1e0c:	0000                	unimp
    1e0e:	0501                	addi	a0,a0,0
    1e10:	0030                	addi	a2,sp,8
    1e12:	0402                	c.slli64	s0
    1e14:	0604                	addi	s1,sp,768
    1e16:	00090003          	lb	zero,0(s2)
    1e1a:	0100                	addi	s0,sp,128
    1e1c:	0305                	addi	t1,t1,1
    1e1e:	00090003          	lb	zero,0(s2)
    1e22:	0100                	addi	s0,sp,128
    1e24:	1005                	c.nop	-31
    1e26:	0200                	addi	s0,sp,256
    1e28:	0104                	addi	s1,sp,128
    1e2a:	0306                	slli	t1,t1,0x1
    1e2c:	00000907          	0x907
    1e30:	0501                	addi	a0,a0,0
    1e32:	04020003          	lb	zero,64(tp) # 40 <InterruptVector+0x40>
    1e36:	0601                	addi	a2,a2,0
    1e38:	00090003          	lb	zero,0(s2)
    1e3c:	0100                	addi	s0,sp,128
    1e3e:	1a05                	addi	s4,s4,-31
    1e40:	0200                	addi	s0,sp,256
    1e42:	0304                	addi	s1,sp,384
    1e44:	00090003          	lb	zero,0(s2)
    1e48:	0100                	addi	s0,sp,128
    1e4a:	2405                	jal	206a <main_pwm.c.3eb49e96+0x2ae>
    1e4c:	0200                	addi	s0,sp,256
    1e4e:	0304                	addi	s1,sp,384
    1e50:	00090003          	lb	zero,0(s2)
    1e54:	0100                	addi	s0,sp,128
    1e56:	1605                	addi	a2,a2,-31
    1e58:	0200                	addi	s0,sp,256
    1e5a:	0304                	addi	s1,sp,384
    1e5c:	00090003          	lb	zero,0(s2)
    1e60:	0100                	addi	s0,sp,128
    1e62:	0305                	addi	t1,t1,1
    1e64:	0306                	slli	t1,t1,0x1
    1e66:	0901                	addi	s2,s2,0
    1e68:	0000                	unimp
    1e6a:	0301                	addi	t1,t1,0
    1e6c:	0901                	addi	s2,s2,0
    1e6e:	0000                	unimp
    1e70:	0501                	addi	a0,a0,0
    1e72:	01030607          	0x1030607
    1e76:	0009                	c.nop	2
    1e78:	0100                	addi	s0,sp,128
    1e7a:	0505                	addi	a0,a0,1
    1e7c:	00097f03          	0x97f03
    1e80:	0100                	addi	s0,sp,128
    1e82:	0305                	addi	t1,t1,1
    1e84:	0306                	slli	t1,t1,0x1
    1e86:	0901                	addi	s2,s2,0
    1e88:	0000                	unimp
    1e8a:	0901                	addi	s2,s2,0
    1e8c:	0000                	unimp
    1e8e:	0100                	addi	s0,sp,128
    1e90:	0501                	addi	a0,a0,0
    1e92:	0001                	nop
    1e94:	0205                	addi	tp,tp,1
    1e96:	0000                	unimp
    1e98:	0000                	unimp
    1e9a:	01028903          	lb	s2,16(t0)
    1e9e:	0805                	addi	a6,a6,1
    1ea0:	0306                	slli	t1,t1,0x1
    1ea2:	0902                	c.slli64	s2
    1ea4:	0000                	unimp
    1ea6:	0501                	addi	a0,a0,0
    1ea8:	0301                	addi	t1,t1,0
    1eaa:	097e                	slli	s2,s2,0x1f
    1eac:	0000                	unimp
    1eae:	0501                	addi	a0,a0,0
    1eb0:	0602                	c.slli64	a2
    1eb2:	00090203          	lb	tp,0(s2)
    1eb6:	0100                	addi	s0,sp,128
    1eb8:	0505                	addi	a0,a0,1
    1eba:	0306                	slli	t1,t1,0x1
    1ebc:	0900                	addi	s0,sp,144
    1ebe:	0000                	unimp
    1ec0:	0501                	addi	a0,a0,0
    1ec2:	0602                	c.slli64	a2
    1ec4:	00090303          	lb	t1,0(s2)
    1ec8:	0100                	addi	s0,sp,128
    1eca:	0605                	addi	a2,a2,1
    1ecc:	0306                	slli	t1,t1,0x1
    1ece:	0900                	addi	s0,sp,144
    1ed0:	0000                	unimp
    1ed2:	0501                	addi	a0,a0,0
    1ed4:	0602                	c.slli64	a2
    1ed6:	00090103          	lb	sp,0(s2)
    1eda:	0100                	addi	s0,sp,128
    1edc:	0505                	addi	a0,a0,1
    1ede:	0306                	slli	t1,t1,0x1
    1ee0:	0900                	addi	s0,sp,144
    1ee2:	0000                	unimp
    1ee4:	0501                	addi	a0,a0,0
    1ee6:	000e                	c.slli	zero,0x3
    1ee8:	0402                	c.slli64	s0
    1eea:	0302                	c.slli64	t1
    1eec:	0900                	addi	s0,sp,144
    1eee:	0000                	unimp
    1ef0:	0501                	addi	a0,a0,0
    1ef2:	0009                	c.nop	2
    1ef4:	0402                	c.slli64	s0
    1ef6:	0302                	c.slli64	t1
    1ef8:	0900                	addi	s0,sp,144
    1efa:	0000                	unimp
    1efc:	0501                	addi	a0,a0,0
    1efe:	0602                	c.slli64	a2
    1f00:	00090103          	lb	sp,0(s2)
    1f04:	0100                	addi	s0,sp,128
    1f06:	0805                	addi	a6,a6,1
    1f08:	0306                	slli	t1,t1,0x1
    1f0a:	0900                	addi	s0,sp,144
    1f0c:	0000                	unimp
    1f0e:	0501                	addi	a0,a0,0
    1f10:	0305                	addi	t1,t1,1
    1f12:	0900                	addi	s0,sp,144
    1f14:	0000                	unimp
    1f16:	0501                	addi	a0,a0,0
    1f18:	0602                	c.slli64	a2
    1f1a:	00090103          	lb	sp,0(s2)
    1f1e:	0100                	addi	s0,sp,128
    1f20:	0805                	addi	a6,a6,1
    1f22:	0306                	slli	t1,t1,0x1
    1f24:	0900                	addi	s0,sp,144
    1f26:	0000                	unimp
    1f28:	0501                	addi	a0,a0,0
    1f2a:	0305                	addi	t1,t1,1
    1f2c:	0900                	addi	s0,sp,144
    1f2e:	0000                	unimp
    1f30:	0501                	addi	a0,a0,0
    1f32:	060d                	addi	a2,a2,3
    1f34:	00090003          	lb	zero,0(s2)
    1f38:	0100                	addi	s0,sp,128
    1f3a:	0205                	addi	tp,tp,1
    1f3c:	097ef303          	0x97ef303
    1f40:	0000                	unimp
    1f42:	0301                	addi	t1,t1,0
    1f44:	0901                	addi	s2,s2,0
    1f46:	0000                	unimp
    1f48:	0501                	addi	a0,a0,0
    1f4a:	0608                	addi	a0,sp,768
    1f4c:	00090003          	lb	zero,0(s2)
    1f50:	0100                	addi	s0,sp,128
    1f52:	0c05                	addi	s8,s8,1
    1f54:	0306                	slli	t1,t1,0x1
    1f56:	0900                	addi	s0,sp,144
    1f58:	0000                	unimp
    1f5a:	0501                	addi	a0,a0,0
    1f5c:	0602                	c.slli64	a2
    1f5e:	00090003          	lb	zero,0(s2)
    1f62:	0100                	addi	s0,sp,128
    1f64:	0f05                	addi	t5,t5,1
    1f66:	00090003          	lb	zero,0(s2)
    1f6a:	0100                	addi	s0,sp,128
    1f6c:	0205                	addi	tp,tp,1
    1f6e:	0306                	slli	t1,t1,0x1
    1f70:	0901                	addi	s2,s2,0
    1f72:	0000                	unimp
    1f74:	0501                	addi	a0,a0,0
    1f76:	061a                	slli	a2,a2,0x6
    1f78:	00090003          	lb	zero,0(s2)
    1f7c:	0100                	addi	s0,sp,128
    1f7e:	2e05                	jal	22ae <main_pwm.c.3eb49e96+0x4f2>
    1f80:	0306                	slli	t1,t1,0x1
    1f82:	097f                	0x97f
    1f84:	0000                	unimp
    1f86:	0501                	addi	a0,a0,0
    1f88:	031c                	addi	a5,sp,384
    1f8a:	0900                	addi	s0,sp,144
    1f8c:	0000                	unimp
    1f8e:	0501                	addi	a0,a0,0
    1f90:	0629                	addi	a2,a2,10
    1f92:	00090003          	lb	zero,0(s2)
    1f96:	0100                	addi	s0,sp,128
    1f98:	2305                	jal	24b8 <main_pwm.c.3eb49e96+0x6fc>
    1f9a:	00090003          	lb	zero,0(s2)
    1f9e:	0100                	addi	s0,sp,128
    1fa0:	1f05                	addi	t5,t5,-31
    1fa2:	00090003          	lb	zero,0(s2)
    1fa6:	0100                	addi	s0,sp,128
    1fa8:	2705                	jal	26c8 <main_pwm.c.3eb49e96+0x90c>
    1faa:	00090003          	lb	zero,0(s2)
    1fae:	0100                	addi	s0,sp,128
    1fb0:	1f05                	addi	t5,t5,-31
    1fb2:	00090003          	lb	zero,0(s2)
    1fb6:	0100                	addi	s0,sp,128
    1fb8:	0205                	addi	tp,tp,1
    1fba:	0306                	slli	t1,t1,0x1
    1fbc:	018d                	addi	gp,gp,3
    1fbe:	0009                	c.nop	2
    1fc0:	0100                	addi	s0,sp,128
    1fc2:	0805                	addi	a6,a6,1
    1fc4:	0306                	slli	t1,t1,0x1
    1fc6:	0900                	addi	s0,sp,144
    1fc8:	0000                	unimp
    1fca:	0501                	addi	a0,a0,0
    1fcc:	0305                	addi	t1,t1,1
    1fce:	0900                	addi	s0,sp,144
    1fd0:	0000                	unimp
    1fd2:	0501                	addi	a0,a0,0
    1fd4:	0602                	c.slli64	a2
    1fd6:	00090103          	lb	sp,0(s2)
    1fda:	0100                	addi	s0,sp,128
    1fdc:	0805                	addi	a6,a6,1
    1fde:	0306                	slli	t1,t1,0x1
    1fe0:	0900                	addi	s0,sp,144
    1fe2:	0000                	unimp
    1fe4:	0501                	addi	a0,a0,0
    1fe6:	0305                	addi	t1,t1,1
    1fe8:	0900                	addi	s0,sp,144
    1fea:	0000                	unimp
    1fec:	0501                	addi	a0,a0,0
    1fee:	060d                	addi	a2,a2,3
    1ff0:	00090003          	lb	zero,0(s2)
    1ff4:	0100                	addi	s0,sp,128
    1ff6:	0205                	addi	tp,tp,1
    1ff8:	097ef803          	0x97ef803
    1ffc:	0000                	unimp
    1ffe:	0501                	addi	a0,a0,0
    2000:	0634                	addi	a3,sp,776
    2002:	00090103          	lb	sp,0(s2)
    2006:	0100                	addi	s0,sp,128
    2008:	2905                	jal	2438 <main_pwm.c.3eb49e96+0x67c>
    200a:	00090003          	lb	zero,0(s2)
    200e:	0100                	addi	s0,sp,128
    2010:	0b05                	addi	s6,s6,1
    2012:	00090003          	lb	zero,0(s2)
    2016:	0100                	addi	s0,sp,128
    2018:	1005                	c.nop	-31
    201a:	00090003          	lb	zero,0(s2)
    201e:	0100                	addi	s0,sp,128
    2020:	2905                	jal	2450 <main_pwm.c.3eb49e96+0x694>
    2022:	00097f03          	0x97f03
    2026:	0100                	addi	s0,sp,128
    2028:	3405                	jal	1a48 <ch32v003fun.c.8affbd33+0xbc6>
    202a:	00090003          	lb	zero,0(s2)
    202e:	0100                	addi	s0,sp,128
    2030:	0b05                	addi	s6,s6,1
    2032:	00090003          	lb	zero,0(s2)
    2036:	0100                	addi	s0,sp,128
    2038:	1e05                	addi	t3,t3,-31
    203a:	00090003          	lb	zero,0(s2)
    203e:	0100                	addi	s0,sp,128
    2040:	00090103          	lb	sp,0(s2)
    2044:	0100                	addi	s0,sp,128
    2046:	0b05                	addi	s6,s6,1
    2048:	00097f03          	0x97f03
    204c:	0100                	addi	s0,sp,128
    204e:	0205                	addi	tp,tp,1
    2050:	0306                	slli	t1,t1,0x1
    2052:	0901                	addi	s2,s2,0
    2054:	0000                	unimp
    2056:	0501                	addi	a0,a0,0
    2058:	0003060b          	0x3060b
    205c:	0009                	c.nop	2
    205e:	0100                	addi	s0,sp,128
    2060:	0205                	addi	tp,tp,1
    2062:	0306                	slli	t1,t1,0x1
    2064:	0901                	addi	s2,s2,0
    2066:	0000                	unimp
    2068:	0501                	addi	a0,a0,0
    206a:	0608                	addi	a0,sp,768
    206c:	00090003          	lb	zero,0(s2)
    2070:	0100                	addi	s0,sp,128
    2072:	0d05                	addi	s10,s10,1
    2074:	0306                	slli	t1,t1,0x1
    2076:	0900                	addi	s0,sp,144
    2078:	0000                	unimp
    207a:	0501                	addi	a0,a0,0
    207c:	0602                	c.slli64	a2
    207e:	00090003          	lb	zero,0(s2)
    2082:	0100                	addi	s0,sp,128
    2084:	1005                	c.nop	-31
    2086:	00090003          	lb	zero,0(s2)
    208a:	0100                	addi	s0,sp,128
    208c:	0205                	addi	tp,tp,1
    208e:	0306                	slli	t1,t1,0x1
    2090:	0901                	addi	s2,s2,0
    2092:	0000                	unimp
    2094:	0501                	addi	a0,a0,0
    2096:	061a                	slli	a2,a2,0x6
    2098:	00090003          	lb	zero,0(s2)
    209c:	0100                	addi	s0,sp,128
    209e:	2f05                	jal	27ce <main_pwm.c.3eb49e96+0xa12>
    20a0:	0306                	slli	t1,t1,0x1
    20a2:	097f                	0x97f
    20a4:	0000                	unimp
    20a6:	0501                	addi	a0,a0,0
    20a8:	031d                	addi	t1,t1,7
    20aa:	0900                	addi	s0,sp,144
    20ac:	0000                	unimp
    20ae:	0501                	addi	a0,a0,0
    20b0:	0626                	slli	a2,a2,0x9
    20b2:	00090003          	lb	zero,0(s2)
    20b6:	0100                	addi	s0,sp,128
    20b8:	2005                	jal	20d8 <main_pwm.c.3eb49e96+0x31c>
    20ba:	00090003          	lb	zero,0(s2)
    20be:	0100                	addi	s0,sp,128
    20c0:	2505                	jal	26e0 <main_pwm.c.3eb49e96+0x924>
    20c2:	00090003          	lb	zero,0(s2)
    20c6:	0100                	addi	s0,sp,128
    20c8:	2005                	jal	20e8 <main_pwm.c.3eb49e96+0x32c>
    20ca:	00090003          	lb	zero,0(s2)
    20ce:	0100                	addi	s0,sp,128
    20d0:	0205                	addi	tp,tp,1
    20d2:	0306                	slli	t1,t1,0x1
    20d4:	00090187          	0x90187
    20d8:	0100                	addi	s0,sp,128
    20da:	0805                	addi	a6,a6,1
    20dc:	0306                	slli	t1,t1,0x1
    20de:	0900                	addi	s0,sp,144
    20e0:	0000                	unimp
    20e2:	0501                	addi	a0,a0,0
    20e4:	0305                	addi	t1,t1,1
    20e6:	0900                	addi	s0,sp,144
    20e8:	0000                	unimp
    20ea:	0501                	addi	a0,a0,0
    20ec:	0602                	c.slli64	a2
    20ee:	00090103          	lb	sp,0(s2)
    20f2:	0100                	addi	s0,sp,128
    20f4:	0505                	addi	a0,a0,1
    20f6:	0306                	slli	t1,t1,0x1
    20f8:	0900                	addi	s0,sp,144
    20fa:	0000                	unimp
    20fc:	0501                	addi	a0,a0,0
    20fe:	060d                	addi	a2,a2,3
    2100:	00090003          	lb	zero,0(s2)
    2104:	0100                	addi	s0,sp,128
    2106:	0205                	addi	tp,tp,1
    2108:	097efe03          	0x97efe03
    210c:	0000                	unimp
    210e:	0501                	addi	a0,a0,0
    2110:	061e                	slli	a2,a2,0x7
    2112:	00090003          	lb	zero,0(s2)
    2116:	0100                	addi	s0,sp,128
    2118:	0b05                	addi	s6,s6,1
    211a:	00090003          	lb	zero,0(s2)
    211e:	0100                	addi	s0,sp,128
    2120:	2905                	jal	2550 <main_pwm.c.3eb49e96+0x794>
    2122:	00090003          	lb	zero,0(s2)
    2126:	0100                	addi	s0,sp,128
    2128:	3405                	jal	1b48 <ch32v003fun.c.8affbd33+0xcc6>
    212a:	00090003          	lb	zero,0(s2)
    212e:	0100                	addi	s0,sp,128
    2130:	0b05                	addi	s6,s6,1
    2132:	00090003          	lb	zero,0(s2)
    2136:	0100                	addi	s0,sp,128
    2138:	0205                	addi	tp,tp,1
    213a:	0306                	slli	t1,t1,0x1
    213c:	0901                	addi	s2,s2,0
    213e:	0000                	unimp
    2140:	0501                	addi	a0,a0,0
    2142:	0610                	addi	a2,sp,768
    2144:	00090003          	lb	zero,0(s2)
    2148:	0100                	addi	s0,sp,128
    214a:	2905                	jal	257a <main_pwm.c.3eb49e96+0x7be>
    214c:	00090003          	lb	zero,0(s2)
    2150:	0100                	addi	s0,sp,128
    2152:	3405                	jal	1b72 <ch32v003fun.c.8affbd33+0xcf0>
    2154:	00090003          	lb	zero,0(s2)
    2158:	0100                	addi	s0,sp,128
    215a:	1e05                	addi	t3,t3,-31
    215c:	00090003          	lb	zero,0(s2)
    2160:	0100                	addi	s0,sp,128
    2162:	0b05                	addi	s6,s6,1
    2164:	00090003          	lb	zero,0(s2)
    2168:	0100                	addi	s0,sp,128
    216a:	0205                	addi	tp,tp,1
    216c:	0306                	slli	t1,t1,0x1
    216e:	0901                	addi	s2,s2,0
    2170:	0000                	unimp
    2172:	0501                	addi	a0,a0,0
    2174:	0608                	addi	a0,sp,768
    2176:	00090003          	lb	zero,0(s2)
    217a:	0100                	addi	s0,sp,128
    217c:	0d05                	addi	s10,s10,1
    217e:	0306                	slli	t1,t1,0x1
    2180:	0900                	addi	s0,sp,144
    2182:	0000                	unimp
    2184:	0501                	addi	a0,a0,0
    2186:	0602                	c.slli64	a2
    2188:	00090003          	lb	zero,0(s2)
    218c:	0100                	addi	s0,sp,128
    218e:	1005                	c.nop	-31
    2190:	00090003          	lb	zero,0(s2)
    2194:	0100                	addi	s0,sp,128
    2196:	0205                	addi	tp,tp,1
    2198:	0306                	slli	t1,t1,0x1
    219a:	0901                	addi	s2,s2,0
    219c:	0000                	unimp
    219e:	0501                	addi	a0,a0,0
    21a0:	061a                	slli	a2,a2,0x6
    21a2:	00090003          	lb	zero,0(s2)
    21a6:	0100                	addi	s0,sp,128
    21a8:	2f05                	jal	28d8 <main_pwm.c.3eb49e96+0xb1c>
    21aa:	0306                	slli	t1,t1,0x1
    21ac:	097f                	0x97f
    21ae:	0000                	unimp
    21b0:	0501                	addi	a0,a0,0
    21b2:	031d                	addi	t1,t1,7
    21b4:	0900                	addi	s0,sp,144
    21b6:	0000                	unimp
    21b8:	0501                	addi	a0,a0,0
    21ba:	062a                	slli	a2,a2,0xa
    21bc:	00090003          	lb	zero,0(s2)
    21c0:	0100                	addi	s0,sp,128
    21c2:	2405                	jal	23e2 <main_pwm.c.3eb49e96+0x626>
    21c4:	00090003          	lb	zero,0(s2)
    21c8:	0100                	addi	s0,sp,128
    21ca:	2005                	jal	21ea <main_pwm.c.3eb49e96+0x42e>
    21cc:	00090003          	lb	zero,0(s2)
    21d0:	0100                	addi	s0,sp,128
    21d2:	0205                	addi	tp,tp,1
    21d4:	0306                	slli	t1,t1,0x1
    21d6:	0182                	c.slli64	gp
    21d8:	0009                	c.nop	2
    21da:	0100                	addi	s0,sp,128
    21dc:	0905                	addi	s2,s2,1
    21de:	0306                	slli	t1,t1,0x1
    21e0:	0900                	addi	s0,sp,144
    21e2:	0000                	unimp
    21e4:	0501                	addi	a0,a0,0
    21e6:	0301                	addi	t1,t1,0
    21e8:	0901                	addi	s2,s2,0
    21ea:	0000                	unimp
    21ec:	0501                	addi	a0,a0,0
    21ee:	0309                	addi	t1,t1,2
    21f0:	097f                	0x97f
    21f2:	0000                	unimp
    21f4:	0501                	addi	a0,a0,0
    21f6:	0302                	c.slli64	t1
    21f8:	7efe                	flw	ft9,252(sp)
    21fa:	0009                	c.nop	2
    21fc:	0100                	addi	s0,sp,128
    21fe:	0105                	addi	sp,sp,1
    2200:	09018303          	lb	t1,144(gp) # 200009d0 <__global_pointer$+0x90>
    2204:	0000                	unimp
    2206:	0901                	addi	s2,s2,0
    2208:	0000                	unimp
    220a:	0100                	addi	s0,sp,128
    220c:	0501                	addi	a0,a0,0
    220e:	0001                	nop
    2210:	0205                	addi	tp,tp,1
    2212:	0000                	unimp
    2214:	0000                	unimp
    2216:	0102d903          	lhu	s2,16(t0)
    221a:	0205                	addi	tp,tp,1
    221c:	00090103          	lb	sp,0(s2)
    2220:	0100                	addi	s0,sp,128
    2222:	0105                	addi	sp,sp,1
    2224:	0306                	slli	t1,t1,0x1
    2226:	097f                	0x97f
    2228:	0000                	unimp
    222a:	0301                	addi	t1,t1,0
    222c:	0900                	addi	s0,sp,144
    222e:	0000                	unimp
    2230:	0501                	addi	a0,a0,0
    2232:	0901030b          	0x901030b
    2236:	0000                	unimp
    2238:	0501                	addi	a0,a0,0
    223a:	0602                	c.slli64	a2
    223c:	00090103          	lb	sp,0(s2)
    2240:	0100                	addi	s0,sp,128
    2242:	00090103          	lb	sp,0(s2)
    2246:	0100                	addi	s0,sp,128
    2248:	00090103          	lb	sp,0(s2)
    224c:	0100                	addi	s0,sp,128
    224e:	0105                	addi	sp,sp,1
    2250:	0306                	slli	t1,t1,0x1
    2252:	0901                	addi	s2,s2,0
    2254:	0000                	unimp
    2256:	0901                	addi	s2,s2,0
    2258:	0000                	unimp
    225a:	0100                	addi	s0,sp,128
    225c:	0501                	addi	a0,a0,0
    225e:	0001                	nop
    2260:	0205                	addi	tp,tp,1
    2262:	0000                	unimp
    2264:	0000                	unimp
    2266:	0105cf03          	lbu	t5,16(a1)
    226a:	0205                	addi	tp,tp,1
    226c:	00090103          	lb	sp,0(s2)
    2270:	0100                	addi	s0,sp,128
    2272:	9c09                	0x9c09
    2274:	0000                	unimp
    2276:	0101                	addi	sp,sp,0
    2278:	0105                	addi	sp,sp,1
    227a:	0006                	c.slli	zero,0x1
    227c:	0205                	addi	tp,tp,1
    227e:	0000                	unimp
    2280:	0000                	unimp
    2282:	0105fb03          	0x105fb03
    2286:	0306                	slli	t1,t1,0x1
    2288:	000901c3          	fmadd.s	ft3,fs2,ft0,ft0,rne
    228c:	0100                	addi	s0,sp,128
    228e:	0205                	addi	tp,tp,1
    2290:	00090103          	lb	sp,0(s2)
    2294:	0100                	addi	s0,sp,128
    2296:	00090103          	lb	sp,0(s2)
    229a:	0100                	addi	s0,sp,128
    229c:	0105                	addi	sp,sp,1
    229e:	0306                	slli	t1,t1,0x1
    22a0:	097e                	slli	s2,s2,0x1f
    22a2:	0000                	unimp
    22a4:	0501                	addi	a0,a0,0
    22a6:	0902030b          	0x902030b
    22aa:	0000                	unimp
    22ac:	0501                	addi	a0,a0,0
    22ae:	04020007          	0x4020007
    22b2:	0602                	c.slli64	a2
    22b4:	00090003          	lb	zero,0(s2)
    22b8:	0100                	addi	s0,sp,128
    22ba:	0b05                	addi	s6,s6,1
    22bc:	0200                	addi	s0,sp,256
    22be:	0204                	addi	s1,sp,256
    22c0:	0306                	slli	t1,t1,0x1
    22c2:	0900                	addi	s0,sp,144
    22c4:	0000                	unimp
    22c6:	0501                	addi	a0,a0,0
    22c8:	0015                	c.nop	5
    22ca:	0402                	c.slli64	s0
    22cc:	0302                	c.slli64	t1
    22ce:	0900                	addi	s0,sp,144
    22d0:	0000                	unimp
    22d2:	0501                	addi	a0,a0,0
    22d4:	04020007          	0x4020007
    22d8:	0302                	c.slli64	t1
    22da:	0900                	addi	s0,sp,144
    22dc:	0000                	unimp
    22de:	0501                	addi	a0,a0,0
    22e0:	0602                	c.slli64	a2
    22e2:	00090103          	lb	sp,0(s2)
    22e6:	0100                	addi	s0,sp,128
    22e8:	2205                	jal	2408 <main_pwm.c.3eb49e96+0x64c>
    22ea:	0306                	slli	t1,t1,0x1
    22ec:	0900                	addi	s0,sp,144
    22ee:	0000                	unimp
    22f0:	0501                	addi	a0,a0,0
    22f2:	0312                	slli	t1,t1,0x4
    22f4:	0900                	addi	s0,sp,144
    22f6:	0000                	unimp
    22f8:	0501                	addi	a0,a0,0
    22fa:	0900030b          	0x900030b
    22fe:	0000                	unimp
    2300:	0501                	addi	a0,a0,0
    2302:	0602                	c.slli64	a2
    2304:	00090103          	lb	sp,0(s2)
    2308:	0100                	addi	s0,sp,128
    230a:	0905                	addi	s2,s2,1
    230c:	0306                	slli	t1,t1,0x1
    230e:	0900                	addi	s0,sp,144
    2310:	0000                	unimp
    2312:	0501                	addi	a0,a0,0
    2314:	001f 0402 0603      	0x6030402001f
    231a:	00097e03          	0x97e03
    231e:	0100                	addi	s0,sp,128
    2320:	2105                	jal	2740 <main_pwm.c.3eb49e96+0x984>
    2322:	0200                	addi	s0,sp,256
    2324:	0304                	addi	s1,sp,384
    2326:	0306                	slli	t1,t1,0x1
    2328:	0900                	addi	s0,sp,144
    232a:	0000                	unimp
    232c:	0501                	addi	a0,a0,0
    232e:	0900033b          	0x900033b
    2332:	0000                	unimp
    2334:	0501                	addi	a0,a0,0
    2336:	0301                	addi	t1,t1,0
    2338:	00000903          	lb	s2,0(zero) # 0 <InterruptVector>
    233c:	0901                	addi	s2,s2,0
    233e:	0000                	unimp
    2340:	0100                	addi	s0,sp,128
    2342:	0401                	addi	s0,s0,0
    2344:	0502                	c.slli64	a0
    2346:	0001                	nop
    2348:	0205                	addi	tp,tp,1
    234a:	04c0                	addi	s0,sp,580
    234c:	0000                	unimp
    234e:	0102d103          	lhu	sp,16(t0)
    2352:	0205                	addi	tp,tp,1
    2354:	00090603          	lb	a2,0(s2)
    2358:	0100                	addi	s0,sp,128
    235a:	0105                	addi	sp,sp,1
    235c:	0306                	slli	t1,t1,0x1
    235e:	097a                	slli	s2,s2,0x1e
    2360:	0000                	unimp
    2362:	0501                	addi	a0,a0,0
    2364:	0906030f          	0x906030f
    2368:	0008                	0x8
    236a:	0501                	addi	a0,a0,0
    236c:	0301                	addi	t1,t1,0
    236e:	097a                	slli	s2,s2,0x1e
    2370:	0004                	0x4
    2372:	0501                	addi	a0,a0,0
    2374:	0906030f          	0x906030f
    2378:	0004                	0x4
    237a:	0501                	addi	a0,a0,0
    237c:	0301                	addi	t1,t1,0
    237e:	097a                	slli	s2,s2,0x1e
    2380:	0004                	0x4
    2382:	0501                	addi	a0,a0,0
    2384:	0906030f          	0x906030f
    2388:	0004                	0x4
    238a:	0501                	addi	a0,a0,0
    238c:	0301                	addi	t1,t1,0
    238e:	097a                	slli	s2,s2,0x1e
    2390:	0008                	0x8
    2392:	0501                	addi	a0,a0,0
    2394:	0906030f          	0x906030f
    2398:	0010                	0x10
    239a:	0501                	addi	a0,a0,0
    239c:	0301                	addi	t1,t1,0
    239e:	097a                	slli	s2,s2,0x1e
    23a0:	0004                	0x4
    23a2:	0501                	addi	a0,a0,0
    23a4:	0906030f          	0x906030f
    23a8:	0010                	0x10
    23aa:	0501                	addi	a0,a0,0
    23ac:	0602                	c.slli64	a2
    23ae:	04090303          	lb	t1,64(s2)
    23b2:	0100                	addi	s0,sp,128
    23b4:	0e05                	addi	t3,t3,1
    23b6:	0306                	slli	t1,t1,0x1
    23b8:	0900                	addi	s0,sp,144
    23ba:	0000                	unimp
    23bc:	0501                	addi	a0,a0,0
    23be:	0602                	c.slli64	a2
    23c0:	04090103          	lb	sp,64(s2)
    23c4:	0100                	addi	s0,sp,128
    23c6:	00094203          	lbu	tp,0(s2)
    23ca:	0100                	addi	s0,sp,128
    23cc:	00090303          	lb	t1,0(s2)
    23d0:	0100                	addi	s0,sp,128
    23d2:	0605                	addi	a2,a2,1
    23d4:	00090003          	lb	zero,0(s2)
    23d8:	0100                	addi	s0,sp,128
    23da:	0e05                	addi	t3,t3,1
    23dc:	00090003          	lb	zero,0(s2)
    23e0:	0100                	addi	s0,sp,128
    23e2:	2705                	jal	2b02 <wiring.c.7604182b+0x109>
    23e4:	0306                	slli	t1,t1,0x1
    23e6:	0901                	addi	s2,s2,0
    23e8:	0000                	unimp
    23ea:	0501                	addi	a0,a0,0
    23ec:	0900032b          	0x900032b
    23f0:	0014                	0x14
    23f2:	0501                	addi	a0,a0,0
    23f4:	030a                	slli	t1,t1,0x2
    23f6:	097f                	0x97f
    23f8:	0008                	0x8
    23fa:	0501                	addi	a0,a0,0
    23fc:	0901032b          	0x901032b
    2400:	0004                	0x4
    2402:	0501                	addi	a0,a0,0
    2404:	031d                	addi	t1,t1,7
    2406:	7fb5                	lui	t6,0xfffed
    2408:	0409                	addi	s0,s0,2
    240a:	0100                	addi	s0,sp,128
    240c:	0305                	addi	t1,t1,1
    240e:	0306                	slli	t1,t1,0x1
    2410:	040900cb          	0x40900cb
    2414:	0100                	addi	s0,sp,128
    2416:	2705                	jal	2b36 <wiring.c.7604182b+0x13d>
    2418:	0306                	slli	t1,t1,0x1
    241a:	0900                	addi	s0,sp,144
    241c:	0000                	unimp
    241e:	0501                	addi	a0,a0,0
    2420:	097f0313          	addi	t1,t5,151
    2424:	0008                	0x8
    2426:	0501                	addi	a0,a0,0
    2428:	09010327          	0x9010327
    242c:	0004                	0x4
    242e:	0501                	addi	a0,a0,0
    2430:	0900032b          	0x900032b
    2434:	0008                	0x8
    2436:	0501                	addi	a0,a0,0
    2438:	09000303          	lb	t1,144(zero) # 90 <InterruptVector+0x90>
    243c:	0014                	0x14
    243e:	0501                	addi	a0,a0,0
    2440:	0321                	addi	t1,t1,8
    2442:	0901                	addi	s2,s2,0
    2444:	0004                	0x4
    2446:	0301                	addi	t1,t1,0
    2448:	0901                	addi	s2,s2,0
    244a:	0004                	0x4
    244c:	0301                	addi	t1,t1,0
    244e:	0901                	addi	s2,s2,0
    2450:	0004                	0x4
    2452:	0501                	addi	a0,a0,0
    2454:	097d0303          	lb	t1,151(s10)
    2458:	0004                	0x4
    245a:	0501                	addi	a0,a0,0
    245c:	0609                	addi	a2,a2,2
    245e:	097fb403          	0x97fb403
    2462:	0008                	0x8
    2464:	0501                	addi	a0,a0,0
    2466:	0615                	addi	a2,a2,5
    2468:	00090003          	lb	zero,0(s2)
    246c:	0100                	addi	s0,sp,128
    246e:	2105                	jal	288e <main_pwm.c.3eb49e96+0xad2>
    2470:	04090103          	lb	sp,64(s2)
    2474:	0100                	addi	s0,sp,128
    2476:	1505                	addi	a0,a0,-31
    2478:	04097f03          	0x4097f03
    247c:	0100                	addi	s0,sp,128
    247e:	1d05                	addi	s10,s10,-31
    2480:	08090103          	lb	sp,128(s2)
    2484:	0100                	addi	s0,sp,128
    2486:	1505                	addi	a0,a0,-31
    2488:	04097f03          	0x4097f03
    248c:	0100                	addi	s0,sp,128
    248e:	0905                	addi	s2,s2,1
    2490:	0306                	slli	t1,t1,0x1
    2492:	0901                	addi	s2,s2,0
    2494:	0010                	0x10
    2496:	0501                	addi	a0,a0,0
    2498:	0615                	addi	a2,a2,5
    249a:	00090003          	lb	zero,0(s2)
    249e:	0100                	addi	s0,sp,128
    24a0:	1805                	addi	a6,a6,-31
    24a2:	04090003          	lb	zero,64(s2)
    24a6:	0100                	addi	s0,sp,128
    24a8:	1505                	addi	a0,a0,-31
    24aa:	04090003          	lb	zero,64(s2)
    24ae:	0100                	addi	s0,sp,128
    24b0:	1205                	addi	tp,tp,-31
    24b2:	0306                	slli	t1,t1,0x1
    24b4:	00ca                	slli	ra,ra,0x12
    24b6:	0809                	addi	a6,a6,2
    24b8:	0100                	addi	s0,sp,128
    24ba:	0e05                	addi	t3,t3,1
    24bc:	00090003          	lb	zero,0(s2)
    24c0:	0100                	addi	s0,sp,128
    24c2:	0205                	addi	tp,tp,1
    24c4:	0306                	slli	t1,t1,0x1
    24c6:	0900                	addi	s0,sp,144
    24c8:	0000                	unimp
    24ca:	0601                	addi	a2,a2,0
    24cc:	08090903          	lb	s2,128(s2)
    24d0:	0100                	addi	s0,sp,128
    24d2:	0505                	addi	a0,a0,1
    24d4:	0306                	slli	t1,t1,0x1
    24d6:	0900                	addi	s0,sp,144
    24d8:	0000                	unimp
    24da:	0501                	addi	a0,a0,0
    24dc:	0304                	addi	s1,sp,384
    24de:	0900                	addi	s0,sp,144
    24e0:	0008                	0x8
    24e2:	0501                	addi	a0,a0,0
    24e4:	0326                	slli	t1,t1,0x9
    24e6:	0904                	addi	s1,sp,144
    24e8:	000c                	0xc
    24ea:	0501                	addi	a0,a0,0
    24ec:	0306                	slli	t1,t1,0x1
    24ee:	0942                	slli	s2,s2,0x10
    24f0:	0020                	addi	s0,sp,8
    24f2:	0501                	addi	a0,a0,0
    24f4:	0302                	c.slli64	t1
    24f6:	093d                	addi	s2,s2,15
    24f8:	0010                	0x10
    24fa:	0501                	addi	a0,a0,0
    24fc:	01030603          	lb	a2,16(t1)
    2500:	0409                	addi	s0,s0,2
    2502:	0100                	addi	s0,sp,128
    2504:	2605                	jal	2824 <main_pwm.c.3eb49e96+0xa68>
    2506:	0306                	slli	t1,t1,0x1
    2508:	0900                	addi	s0,sp,144
    250a:	0000                	unimp
    250c:	0501                	addi	a0,a0,0
    250e:	032a                	slli	t1,t1,0xa
    2510:	0900                	addi	s0,sp,144
    2512:	000c                	0xc
    2514:	0501                	addi	a0,a0,0
    2516:	09000303          	lb	t1,144(zero) # 90 <InterruptVector+0x90>
    251a:	0014                	0x14
    251c:	0501                	addi	a0,a0,0
    251e:	0321                	addi	t1,t1,8
    2520:	0901                	addi	s2,s2,0
    2522:	0004                	0x4
    2524:	0301                	addi	t1,t1,0
    2526:	0901                	addi	s2,s2,0
    2528:	0004                	0x4
    252a:	0501                	addi	a0,a0,0
    252c:	097e0303          	lb	t1,151(t3)
    2530:	0004                	0x4
    2532:	0501                	addi	a0,a0,0
    2534:	0321                	addi	t1,t1,8
    2536:	0902                	c.slli64	s2
    2538:	0004                	0x4
    253a:	0501                	addi	a0,a0,0
    253c:	0606                	slli	a2,a2,0x1
    253e:	04094003          	lbu	zero,64(s2)
    2542:	0100                	addi	s0,sp,128
    2544:	1205                	addi	tp,tp,-31
    2546:	10093d03          	0x10093d03
    254a:	0100                	addi	s0,sp,128
    254c:	1305                	addi	t1,t1,-31
    254e:	0306                	slli	t1,t1,0x1
    2550:	0900                	addi	s0,sp,144
    2552:	0000                	unimp
    2554:	0501                	addi	a0,a0,0
    2556:	060e                	slli	a2,a2,0x3
    2558:	04090003          	lb	zero,64(s2)
    255c:	0100                	addi	s0,sp,128
    255e:	0205                	addi	tp,tp,1
    2560:	0306                	slli	t1,t1,0x1
    2562:	0900                	addi	s0,sp,144
    2564:	0000                	unimp
    2566:	0501                	addi	a0,a0,0
    2568:	030a                	slli	t1,t1,0x2
    256a:	0908                	addi	a0,sp,144
    256c:	0004                	0x4
    256e:	0501                	addi	a0,a0,0
    2570:	031d                	addi	t1,t1,7
    2572:	04097faf          	0x4097faf
    2576:	0100                	addi	s0,sp,128
    2578:	3f05                	jal	24a8 <main_pwm.c.3eb49e96+0x6ec>
    257a:	04090103          	lb	sp,64(s2)
    257e:	0100                	addi	s0,sp,128
    2580:	0305                	addi	t1,t1,1
    2582:	0306                	slli	t1,t1,0x1
    2584:	00d1                	addi	ra,ra,20
    2586:	0409                	addi	s0,s0,2
    2588:	0100                	addi	s0,sp,128
    258a:	2505                	jal	2baa <wiring.c.7604182b+0x1b1>
    258c:	0306                	slli	t1,t1,0x1
    258e:	0900                	addi	s0,sp,144
    2590:	0000                	unimp
    2592:	0501                	addi	a0,a0,0
    2594:	097f0313          	addi	t1,t5,151
    2598:	000c                	0xc
    259a:	0501                	addi	a0,a0,0
    259c:	0329                	addi	t1,t1,10
    259e:	0901                	addi	s2,s2,0
    25a0:	0004                	0x4
    25a2:	0501                	addi	a0,a0,0
    25a4:	09000303          	lb	t1,144(zero) # 90 <InterruptVector+0x90>
    25a8:	0014                	0x14
    25aa:	0501                	addi	a0,a0,0
    25ac:	0321                	addi	t1,t1,8
    25ae:	0901                	addi	s2,s2,0
    25b0:	0004                	0x4
    25b2:	0301                	addi	t1,t1,0
    25b4:	0901                	addi	s2,s2,0
    25b6:	0004                	0x4
    25b8:	0301                	addi	t1,t1,0
    25ba:	0901                	addi	s2,s2,0
    25bc:	0004                	0x4
    25be:	0301                	addi	t1,t1,0
    25c0:	04097fab          	0x4097fab
    25c4:	0100                	addi	s0,sp,128
    25c6:	0305                	addi	t1,t1,1
    25c8:	0900d203          	lhu	tp,144(ra) # 3090 <wiring.c.7604182b+0x697>
    25cc:	0004                	0x4
    25ce:	0501                	addi	a0,a0,0
    25d0:	0609                	addi	a2,a2,2
    25d2:	097fae03          	lw	t3,151(t6) # fffed097 <__global_pointer$+0xdffec757>
    25d6:	0008                	0x8
    25d8:	0501                	addi	a0,a0,0
    25da:	0615                	addi	a2,a2,5
    25dc:	00090003          	lb	zero,0(s2)
    25e0:	0100                	addi	s0,sp,128
    25e2:	2105                	jal	2a02 <wiring.c.7604182b+0x9>
    25e4:	04090003          	lb	zero,64(s2)
    25e8:	0100                	addi	s0,sp,128
    25ea:	1505                	addi	a0,a0,-31
    25ec:	04090003          	lb	zero,64(s2)
    25f0:	0100                	addi	s0,sp,128
    25f2:	1d05                	addi	s10,s10,-31
    25f4:	04090003          	lb	zero,64(s2)
    25f8:	0100                	addi	s0,sp,128
    25fa:	1805                	addi	a6,a6,-31
    25fc:	04090003          	lb	zero,64(s2)
    2600:	0100                	addi	s0,sp,128
    2602:	1505                	addi	a0,a0,-31
    2604:	04090003          	lb	zero,64(s2)
    2608:	0100                	addi	s0,sp,128
    260a:	0905                	addi	s2,s2,1
    260c:	0306                	slli	t1,t1,0x1
    260e:	0901                	addi	s2,s2,0
    2610:	0008                	0x8
    2612:	0501                	addi	a0,a0,0
    2614:	0615                	addi	a2,a2,5
    2616:	00090003          	lb	zero,0(s2)
    261a:	0100                	addi	s0,sp,128
    261c:	3f05                	jal	254c <main_pwm.c.3eb49e96+0x790>
    261e:	04090003          	lb	zero,64(s2)
    2622:	0100                	addi	s0,sp,128
    2624:	1505                	addi	a0,a0,-31
    2626:	04090003          	lb	zero,64(s2)
    262a:	0100                	addi	s0,sp,128
    262c:	0905                	addi	s2,s2,1
    262e:	0306                	slli	t1,t1,0x1
    2630:	0901                	addi	s2,s2,0
    2632:	0008                	0x8
    2634:	0501                	addi	a0,a0,0
    2636:	0615                	addi	a2,a2,5
    2638:	00090003          	lb	zero,0(s2)
    263c:	0100                	addi	s0,sp,128
    263e:	1205                	addi	tp,tp,-31
    2640:	0306                	slli	t1,t1,0x1
    2642:	140900cf          	0x140900cf
    2646:	0100                	addi	s0,sp,128
    2648:	0e05                	addi	t3,t3,1
    264a:	00090003          	lb	zero,0(s2)
    264e:	0100                	addi	s0,sp,128
    2650:	0205                	addi	tp,tp,1
    2652:	0306                	slli	t1,t1,0x1
    2654:	0900                	addi	s0,sp,144
    2656:	0000                	unimp
    2658:	0601                	addi	a2,a2,0
    265a:	08090903          	lb	s2,128(s2)
    265e:	0100                	addi	s0,sp,128
    2660:	2505                	jal	2c80 <wiring.c.7604182b+0x287>
    2662:	0306                	slli	t1,t1,0x1
    2664:	0900                	addi	s0,sp,144
    2666:	0000                	unimp
    2668:	0501                	addi	a0,a0,0
    266a:	0301                	addi	t1,t1,0
    266c:	091f 0004 0501      	0x5010004091f
    2672:	0325                	addi	t1,t1,9
    2674:	0961                	addi	s2,s2,24
    2676:	0008                	0x8
    2678:	0501                	addi	a0,a0,0
    267a:	0301                	addi	t1,t1,0
    267c:	091f 0010 0501      	0x5010010091f
    2682:	0329                	addi	t1,t1,10
    2684:	0961                	addi	s2,s2,24
    2686:	0004                	0x4
    2688:	0501                	addi	a0,a0,0
    268a:	0320                	addi	s0,sp,392
    268c:	0901                	addi	s2,s2,0
    268e:	0014                	0x14
    2690:	0301                	addi	t1,t1,0
    2692:	0901                	addi	s2,s2,0
    2694:	0004                	0x4
    2696:	0301                	addi	t1,t1,0
    2698:	0901                	addi	s2,s2,0
    269a:	0004                	0x4
    269c:	0501                	addi	a0,a0,0
    269e:	0302                	c.slli64	t1
    26a0:	097d                	addi	s2,s2,31
    26a2:	0004                	0x4
    26a4:	0501                	addi	a0,a0,0
    26a6:	0609                	addi	a2,a2,2
    26a8:	097f8b03          	lb	s6,151(t6)
    26ac:	000c                	0xc
    26ae:	0501                	addi	a0,a0,0
    26b0:	0601                	addi	a2,a2,0
    26b2:	09019403          	lh	s0,144(gp) # 200009d0 <__global_pointer$+0x90>
    26b6:	0000                	unimp
    26b8:	0501                	addi	a0,a0,0
    26ba:	0315                	addi	t1,t1,5
    26bc:	7eec                	flw	fa1,124(a3)
    26be:	0409                	addi	s0,s0,2
    26c0:	0100                	addi	s0,sp,128
    26c2:	0105                	addi	sp,sp,1
    26c4:	09019403          	lh	s0,144(gp) # 200009d0 <__global_pointer$+0x90>
    26c8:	0010                	0x10
    26ca:	0501                	addi	a0,a0,0
    26cc:	0315                	addi	t1,t1,5
    26ce:	7eec                	flw	fa1,124(a3)
    26d0:	0409                	addi	s0,s0,2
    26d2:	0100                	addi	s0,sp,128
    26d4:	0905                	addi	s2,s2,1
    26d6:	0306                	slli	t1,t1,0x1
    26d8:	0901                	addi	s2,s2,0
    26da:	000c                	0xc
    26dc:	0501                	addi	a0,a0,0
    26de:	0615                	addi	a2,a2,5
    26e0:	00090003          	lb	zero,0(s2)
    26e4:	0100                	addi	s0,sp,128
    26e6:	2105                	jal	2b06 <wiring.c.7604182b+0x10d>
    26e8:	04090003          	lb	zero,64(s2)
    26ec:	0100                	addi	s0,sp,128
    26ee:	1d05                	addi	s10,s10,-31
    26f0:	04090003          	lb	zero,64(s2)
    26f4:	0100                	addi	s0,sp,128
    26f6:	1805                	addi	a6,a6,-31
    26f8:	04090003          	lb	zero,64(s2)
    26fc:	0100                	addi	s0,sp,128
    26fe:	1505                	addi	a0,a0,-31
    2700:	04090003          	lb	zero,64(s2)
    2704:	0100                	addi	s0,sp,128
    2706:	0905                	addi	s2,s2,1
    2708:	0306                	slli	t1,t1,0x1
    270a:	0901                	addi	s2,s2,0
    270c:	0008                	0x8
    270e:	0501                	addi	a0,a0,0
    2710:	0615                	addi	a2,a2,5
    2712:	00090003          	lb	zero,0(s2)
    2716:	0100                	addi	s0,sp,128
    2718:	3c05                	jal	2148 <main_pwm.c.3eb49e96+0x38c>
    271a:	04090003          	lb	zero,64(s2)
    271e:	0100                	addi	s0,sp,128
    2720:	1505                	addi	a0,a0,-31
    2722:	08090003          	lb	zero,128(s2)
    2726:	0100                	addi	s0,sp,128
    2728:	0905                	addi	s2,s2,1
    272a:	0306                	slli	t1,t1,0x1
    272c:	0901                	addi	s2,s2,0
    272e:	0008                	0x8
    2730:	0501                	addi	a0,a0,0
    2732:	0618                	addi	a4,sp,768
    2734:	00090003          	lb	zero,0(s2)
    2738:	0100                	addi	s0,sp,128
    273a:	1405                	addi	s0,s0,-31
    273c:	04090003          	lb	zero,64(s2)
    2740:	0100                	addi	s0,sp,128
    2742:	0105                	addi	sp,sp,1
    2744:	09019103          	lh	sp,144(gp) # 200009d0 <__global_pointer$+0x90>
    2748:	0004                	0x4
    274a:	0501                	addi	a0,a0,0
    274c:	061a                	slli	a2,a2,0x6
    274e:	20094d03          	lbu	s10,512(s2)
    2752:	0100                	addi	s0,sp,128
    2754:	2605                	jal	2a74 <wiring.c.7604182b+0x7b>
    2756:	0306                	slli	t1,t1,0x1
    2758:	0900                	addi	s0,sp,144
    275a:	0000                	unimp
    275c:	0501                	addi	a0,a0,0
    275e:	0306                	slli	t1,t1,0x1
    2760:	0946                	slli	s2,s2,0x11
    2762:	0008                	0x8
    2764:	0501                	addi	a0,a0,0
    2766:	0616                	slli	a2,a2,0x5
    2768:	04090503          	lb	a0,64(s2)
    276c:	0100                	addi	s0,sp,128
    276e:	2405                	jal	298e <main_pwm.c.3eb49e96+0xbd2>
    2770:	0306                	slli	t1,t1,0x1
    2772:	0900                	addi	s0,sp,144
    2774:	0000                	unimp
    2776:	0501                	addi	a0,a0,0
    2778:	062d                	addi	a2,a2,11
    277a:	04090003          	lb	zero,64(s2)
    277e:	0100                	addi	s0,sp,128
    2780:	1605                	addi	a2,a2,-31
    2782:	04097d03          	0x4097d03
    2786:	0100                	addi	s0,sp,128
    2788:	2405                	jal	29a8 <main_pwm.c.3eb49e96+0xbec>
    278a:	0306                	slli	t1,t1,0x1
    278c:	0900                	addi	s0,sp,144
    278e:	0000                	unimp
    2790:	0501                	addi	a0,a0,0
    2792:	062d                	addi	a2,a2,11
    2794:	04090003          	lb	zero,64(s2)
    2798:	0100                	addi	s0,sp,128
    279a:	1605                	addi	a2,a2,-31
    279c:	04090103          	lb	sp,64(s2)
    27a0:	0100                	addi	s0,sp,128
    27a2:	2405                	jal	29c2 <main_pwm.c.3eb49e96+0xc06>
    27a4:	0306                	slli	t1,t1,0x1
    27a6:	0900                	addi	s0,sp,144
    27a8:	0000                	unimp
    27aa:	0501                	addi	a0,a0,0
    27ac:	062d                	addi	a2,a2,11
    27ae:	04090003          	lb	zero,64(s2)
    27b2:	0100                	addi	s0,sp,128
    27b4:	1605                	addi	a2,a2,-31
    27b6:	04090103          	lb	sp,64(s2)
    27ba:	0100                	addi	s0,sp,128
    27bc:	2405                	jal	29dc <main_pwm.c.3eb49e96+0xc20>
    27be:	0306                	slli	t1,t1,0x1
    27c0:	0900                	addi	s0,sp,144
    27c2:	0000                	unimp
    27c4:	0501                	addi	a0,a0,0
    27c6:	062d                	addi	a2,a2,11
    27c8:	04090003          	lb	zero,64(s2)
    27cc:	0100                	addi	s0,sp,128
    27ce:	0409                	addi	s0,s0,2
    27d0:	0000                	unimp
    27d2:	0101                	addi	sp,sp,0
    27d4:	0104                	addi	s1,sp,128
    27d6:	0000                	unimp
    27d8:	0004                	0x4
    27da:	00fe                	slli	ra,ra,0x1f
    27dc:	0000                	unimp
    27de:	0101                	addi	sp,sp,0
    27e0:	f601                	bnez	a2,26e8 <main_pwm.c.3eb49e96+0x92c>
    27e2:	0df2                	slli	s11,s11,0x1c
    27e4:	0100                	addi	s0,sp,128
    27e6:	0101                	addi	sp,sp,0
    27e8:	0001                	nop
    27ea:	0000                	unimp
    27ec:	0001                	nop
    27ee:	0100                	addi	s0,sp,128
    27f0:	32336863          	bltu	t1,gp,2b20 <wiring.c.7604182b+0x127>
    27f4:	3076                	fld	ft0,376(sp)
    27f6:	3330                	fld	fa2,96(a4)
    27f8:	7566                	flw	fa0,120(sp)
    27fa:	006e                	c.slli	zero,0x1b
    27fc:	7273752f          	0x7273752f
    2800:	636e692f          	0x636e692f
    2804:	756c                	flw	fa1,108(a0)
    2806:	6564                	flw	fs1,76(a0)
    2808:	77656e2f          	0x77656e2f
    280c:	696c                	flw	fa1,84(a0)
    280e:	2f62                	fld	ft10,24(sp)
    2810:	616d                	addi	sp,sp,240
    2812:	6e696863          	bltu	s2,t1,2f02 <wiring.c.7604182b+0x509>
    2816:	0065                	c.nop	25
    2818:	7273752f          	0x7273752f
    281c:	636e692f          	0x636e692f
    2820:	756c                	flw	fa1,108(a0)
    2822:	6564                	flw	fs1,76(a0)
    2824:	77656e2f          	0x77656e2f
    2828:	696c                	flw	fa1,84(a0)
    282a:	2f62                	fld	ft10,24(sp)
    282c:	00737973          	csrrci	s2,0x7,6
    2830:	7273752f          	0x7273752f
    2834:	636e692f          	0x636e692f
    2838:	756c                	flw	fa1,108(a0)
    283a:	6564                	flw	fs1,76(a0)
    283c:	77656e2f          	0x77656e2f
    2840:	696c                	flw	fa1,84(a0)
    2842:	0062                	c.slli	zero,0x18
    2844:	7273752f          	0x7273752f
    2848:	62696c2f          	0x62696c2f
    284c:	6363672f          	0x6363672f
    2850:	7369722f          	0x7369722f
    2854:	34367663          	bgeu	a2,gp,2ba0 <wiring.c.7604182b+0x1a7>
    2858:	752d                	lui	a0,0xfffeb
    285a:	6b6e                	flw	fs6,216(sp)
    285c:	6f6e                	flw	ft10,216(sp)
    285e:	652d6e77          	0x652d6e77
    2862:	666c                	flw	fa1,76(a2)
    2864:	2e30312f          	0x2e30312f
    2868:	2e32                	fld	ft8,264(sp)
    286a:	2f30                	fld	fa2,88(a4)
    286c:	6e69                	lui	t3,0x1a
    286e:	64756c63          	bltu	a0,t2,2ec6 <wiring.c.7604182b+0x4cd>
    2872:	0065                	c.nop	25
    2874:	5f00                	lw	s0,56(a4)
    2876:	6564                	flw	fs1,76(a0)
    2878:	6166                	flw	ft2,88(sp)
    287a:	6c75                	lui	s8,0x1d
    287c:	5f74                	lw	a3,124(a4)
    287e:	7974                	flw	fa3,116(a0)
    2880:	6570                	flw	fa2,76(a0)
    2882:	00682e73          	csrrs	t3,0x6,a6
    2886:	0002                	c.slli64	zero
    2888:	7300                	flw	fs0,32(a4)
    288a:	6474                	flw	fa3,76(s0)
    288c:	6564                	flw	fs1,76(a0)
    288e:	2e66                	fld	ft8,88(sp)
    2890:	0068                	addi	a0,sp,12
    2892:	0005                	c.nop	1
    2894:	7300                	flw	fs0,32(a4)
    2896:	6474                	flw	fa3,76(s0)
    2898:	7261                	lui	tp,0xffff8
    289a:	00682e67          	0x682e67
    289e:	0005                	c.nop	1
    28a0:	7300                	flw	fs0,32(a4)
    28a2:	6474                	flw	fa3,76(s0)
    28a4:	6f69                	lui	t5,0x1a
    28a6:	682e                	flw	fa6,200(sp)
    28a8:	0400                	addi	s0,sp,512
    28aa:	0000                	unimp
    28ac:	735f 6474 6e69      	0x6e696474735f
    28b2:	2e74                	fld	fa3,216(a2)
    28b4:	0068                	addi	a0,sp,12
    28b6:	63000003          	lb	zero,1584(zero) # 630 <SysTick_Handler+0x170>
    28ba:	3368                	fld	fa0,224(a4)
    28bc:	7632                	flw	fa2,44(sp)
    28be:	3030                	fld	fa2,96(s0)
    28c0:	6e756633          	0x6e756633
    28c4:	682e                	flw	fa6,200(sp)
    28c6:	0100                	addi	s0,sp,128
    28c8:	0000                	unimp
    28ca:	32336863          	bltu	t1,gp,2bfa <wiring.c.7604182b+0x201>
    28ce:	3076                	fld	ft0,376(sp)
    28d0:	3330                	fld	fa2,96(a4)
    28d2:	7566                	flw	fa0,120(sp)
    28d4:	2e6e                	fld	ft8,216(sp)
    28d6:	00010063          	beqz	sp,28d6 <main_pwm.c.3eb49e96+0xb1a>
    28da:	0000                	unimp
    28dc:	009a                	slli	ra,ra,0x6
    28de:	0000                	unimp
    28e0:	0004                	0x4
    28e2:	0094                	addi	a3,sp,64
    28e4:	0000                	unimp
    28e6:	0101                	addi	sp,sp,0
    28e8:	f601                	bnez	a2,27f0 <main_pwm.c.3eb49e96+0xa34>
    28ea:	0df2                	slli	s11,s11,0x1c
    28ec:	0100                	addi	s0,sp,128
    28ee:	0101                	addi	sp,sp,0
    28f0:	0001                	nop
    28f2:	0000                	unimp
    28f4:	0001                	nop
    28f6:	0100                	addi	s0,sp,128
    28f8:	32336863          	bltu	t1,gp,2c28 <wiring.c.7604182b+0x22f>
    28fc:	3076                	fld	ft0,376(sp)
    28fe:	3330                	fld	fa2,96(a4)
    2900:	7566                	flw	fa0,120(sp)
    2902:	006e                	c.slli	zero,0x1b
    2904:	7273752f          	0x7273752f
    2908:	636e692f          	0x636e692f
    290c:	756c                	flw	fa1,108(a0)
    290e:	6564                	flw	fs1,76(a0)
    2910:	77656e2f          	0x77656e2f
    2914:	696c                	flw	fa1,84(a0)
    2916:	2f62                	fld	ft10,24(sp)
    2918:	616d                	addi	sp,sp,240
    291a:	6e696863          	bltu	s2,t1,300a <wiring.c.7604182b+0x611>
    291e:	0065                	c.nop	25
    2920:	7273752f          	0x7273752f
    2924:	636e692f          	0x636e692f
    2928:	756c                	flw	fa1,108(a0)
    292a:	6564                	flw	fs1,76(a0)
    292c:	77656e2f          	0x77656e2f
    2930:	696c                	flw	fa1,84(a0)
    2932:	2f62                	fld	ft10,24(sp)
    2934:	00737973          	csrrci	s2,0x7,6
    2938:	6300                	flw	fs0,0(a4)
    293a:	3368                	fld	fa0,224(a4)
    293c:	7632                	flw	fa2,44(sp)
    293e:	3030                	fld	fa2,96(s0)
    2940:	6e756633          	0x6e756633
    2944:	682e                	flw	fa6,200(sp)
    2946:	0100                	addi	s0,sp,128
    2948:	0000                	unimp
    294a:	645f 6665 7561      	0x75616665645f
    2950:	746c                	flw	fa1,108(s0)
    2952:	745f 7079 7365      	0x73657079745f
    2958:	682e                	flw	fa6,200(sp)
    295a:	0200                	addi	s0,sp,256
    295c:	0000                	unimp
    295e:	735f 6474 6e69      	0x6e696474735f
    2964:	2e74                	fld	fa3,216(a2)
    2966:	0068                	addi	a0,sp,12
    2968:	6d000003          	lb	zero,1744(zero) # 6d0 <SysTick_Handler+0x210>
    296c:	6961                	lui	s2,0x18
    296e:	2d6e                	fld	fs10,216(sp)
    2970:	7770                	flw	fa2,108(a4)
    2972:	2e6d                	jal	2d2c <wiring.c.7604182b+0x333>
    2974:	00000063          	beqz	zero,2974 <main_pwm.c.3eb49e96+0xbb8>
    2978:	0000                	unimp
    297a:	00a4                	addi	s1,sp,72
    297c:	0000                	unimp
    297e:	0004                	0x4
    2980:	009e                	slli	ra,ra,0x7
    2982:	0000                	unimp
    2984:	0101                	addi	sp,sp,0
    2986:	f601                	bnez	a2,288e <main_pwm.c.3eb49e96+0xad2>
    2988:	0df2                	slli	s11,s11,0x1c
    298a:	0100                	addi	s0,sp,128
    298c:	0101                	addi	sp,sp,0
    298e:	0001                	nop
    2990:	0000                	unimp
    2992:	0001                	nop
    2994:	0100                	addi	s0,sp,128
    2996:	32336863          	bltu	t1,gp,2cc6 <wiring.c.7604182b+0x2cd>
    299a:	3076                	fld	ft0,376(sp)
    299c:	3330                	fld	fa2,96(a4)
    299e:	7566                	flw	fa0,120(sp)
    29a0:	006e                	c.slli	zero,0x1b
    29a2:	7273752f          	0x7273752f
    29a6:	636e692f          	0x636e692f
    29aa:	756c                	flw	fa1,108(a0)
    29ac:	6564                	flw	fs1,76(a0)
    29ae:	77656e2f          	0x77656e2f
    29b2:	696c                	flw	fa1,84(a0)
    29b4:	2f62                	fld	ft10,24(sp)
    29b6:	616d                	addi	sp,sp,240
    29b8:	6e696863          	bltu	s2,t1,30a8 <wiring.c.7604182b+0x6af>
    29bc:	0065                	c.nop	25
    29be:	7273752f          	0x7273752f
    29c2:	636e692f          	0x636e692f
    29c6:	756c                	flw	fa1,108(a0)
    29c8:	6564                	flw	fs1,76(a0)
    29ca:	77656e2f          	0x77656e2f
    29ce:	696c                	flw	fa1,84(a0)
    29d0:	2f62                	fld	ft10,24(sp)
    29d2:	00737973          	csrrci	s2,0x7,6
    29d6:	5f00                	lw	s0,56(a4)
    29d8:	6564                	flw	fs1,76(a0)
    29da:	6166                	flw	ft2,88(sp)
    29dc:	6c75                	lui	s8,0x1d
    29de:	5f74                	lw	a3,124(a4)
    29e0:	7974                	flw	fa3,116(a0)
    29e2:	6570                	flw	fa2,76(a0)
    29e4:	00682e73          	csrrs	t3,0x6,a6
    29e8:	0002                	c.slli64	zero
    29ea:	5f00                	lw	s0,56(a4)
    29ec:	69647473          	csrrci	s0,0x696,8
    29f0:	746e                	flw	fs0,248(sp)
    29f2:	682e                	flw	fa6,200(sp)
    29f4:	0300                	addi	s0,sp,384
    29f6:	0000                	unimp
    29f8:	32336863          	bltu	t1,gp,2d28 <wiring.c.7604182b+0x32f>
    29fc:	3076                	fld	ft0,376(sp)
    29fe:	3330                	fld	fa2,96(a4)
    2a00:	7566                	flw	fa0,120(sp)
    2a02:	2e6e                	fld	ft8,216(sp)
    2a04:	0068                	addi	a0,sp,12
    2a06:	0001                	nop
    2a08:	7700                	flw	fs0,40(a4)
    2a0a:	7269                	lui	tp,0xffffa
    2a0c:	6e69                	lui	t3,0x1a
    2a0e:	00682e67          	0x682e67
    2a12:	0000                	unimp
    2a14:	7700                	flw	fs0,40(a4)
    2a16:	7269                	lui	tp,0xffffa
    2a18:	6e69                	lui	t3,0x1a
    2a1a:	00632e67          	0x632e67
    2a1e:	0000                	unimp
    2a20:	0000                	unimp
    2a22:	0088                	addi	a0,sp,64
    2a24:	0000                	unimp
    2a26:	00420003          	lb	zero,4(tp) # ffffa004 <__global_pointer$+0xdfff96c4>
    2a2a:	0000                	unimp
    2a2c:	0101                	addi	sp,sp,0
    2a2e:	000d0efb          	0xd0efb
    2a32:	0101                	addi	sp,sp,0
    2a34:	0101                	addi	sp,sp,0
    2a36:	0000                	unimp
    2a38:	0100                	addi	s0,sp,128
    2a3a:	0000                	unimp
    2a3c:	2e01                	jal	2d4c <wiring.c.7604182b+0x353>
    2a3e:	2f2e                	fld	ft10,200(sp)
    2a40:	2e2e                	fld	ft8,200(sp)
    2a42:	2f2e2e2f          	0x2f2e2e2f
    2a46:	2e2e                	fld	ft8,200(sp)
    2a48:	2f2e2e2f          	0x2f2e2e2f
    2a4c:	696c                	flw	fa1,84(a0)
    2a4e:	6762                	flw	fa4,24(sp)
    2a50:	632f6363          	bltu	t5,s2,3076 <wiring.c.7604182b+0x67d>
    2a54:	69666e6f          	jal	t3,690ea <wiring.c.7604182b+0x666f1>
    2a58:	69722f67          	0x69722f67
    2a5c:	00766373          	csrrsi	t1,0x7,12
    2a60:	6d00                	flw	fs0,24(a0)
    2a62:	6c75                	lui	s8,0x1d
    2a64:	6964                	flw	fs1,84(a0)
    2a66:	00532e33          	slt	t3,t1,t0
    2a6a:	0001                	nop
    2a6c:	0000                	unimp
    2a6e:	0500                	addi	s0,sp,640
    2a70:	a002                	fsd	ft0,0(sp)
    2a72:	0000                	unimp
    2a74:	0300                	addi	s0,sp,384
    2a76:	0124                	addi	s1,sp,136
    2a78:	04090103          	lb	sp,64(s2) # 18040 <wiring.c.7604182b+0x15647>
    2a7c:	0100                	addi	s0,sp,128
    2a7e:	04090203          	lb	tp,64(s2)
    2a82:	0100                	addi	s0,sp,128
    2a84:	04090103          	lb	sp,64(s2)
    2a88:	0100                	addi	s0,sp,128
    2a8a:	04090103          	lb	sp,64(s2)
    2a8e:	0100                	addi	s0,sp,128
    2a90:	04090203          	lb	tp,64(s2)
    2a94:	0100                	addi	s0,sp,128
    2a96:	04090103          	lb	sp,64(s2)
    2a9a:	0100                	addi	s0,sp,128
    2a9c:	04090103          	lb	sp,64(s2)
    2aa0:	0100                	addi	s0,sp,128
    2aa2:	04090103          	lb	sp,64(s2)
    2aa6:	0100                	addi	s0,sp,128
    2aa8:	0409                	addi	s0,s0,2
    2aaa:	0000                	unimp
    2aac:	0101                	addi	sp,sp,0

Disassembly of section .debug_str:

00000000 <.debug_str>:
	asm volatile( "\n\
   0:	5f5f 6475 7669      	0x766964755f5f
   6:	00336973          	csrrsi	s2,fcsr,6
   a:	5f5f 7562 6c69      	0x6c6975625f5f
  10:	6974                	flw	fa3,84(a0)
  12:	5f6e                	lw	t5,248(sp)
  14:	656d                	lui	a0,0x1b
  16:	736d                	lui	t1,0xffffb
  18:	7465                	lui	s0,0xffff9
  1a:	5f00                	lw	s0,56(a4)
  1c:	625f 6975 746c      	0x746c6975625f
  22:	6e69                	lui	t3,0x1a
  24:	6d5f 6d65 7063      	0x70636d656d5f
  2a:	0079                	c.nop	30
  2c:	20554e47          	fmsub.s	ft8,fa0,ft5,ft4,rmm
  30:	504d4947          	fmsub.s	fs2,fs10,ft4,fa0,rmm
  34:	454c                	lw	a1,12(a0)
  36:	3120                	fld	fs0,96(a0)
  38:	2e30                	fld	fa2,88(a2)
  3a:	2e32                	fld	ft8,264(sp)
  3c:	2030                	fld	fa2,64(s0)
  3e:	6d2d                	lui	s10,0xb
  40:	7261                	lui	tp,0xffff8
  42:	723d6863          	bltu	s10,gp,772 <SysTick_Handler+0x2b2>
  46:	3376                	fld	ft6,376(sp)
  48:	6532                	flw	fa0,12(sp)
  4a:	6d2d2063          	0x6d2d2063
  4e:	6261                	lui	tp,0x18
  50:	3d69                	jal	fffffeea <__global_pointer$+0xdffff5aa>
  52:	6c69                	lui	s8,0x1a
  54:	3370                	fld	fa2,224(a4)
  56:	6532                	flw	fa0,12(sp)
  58:	2d20                	fld	fs0,88(a0)
  5a:	616d                	addi	sp,sp,240
  5c:	6372                	flw	ft6,28(sp)
  5e:	3d68                	fld	fa0,248(a0)
  60:	7672                	flw	fa2,60(sp)
  62:	63653233          	0x63653233
  66:	2d20                	fld	fs0,88(a0)
  68:	616d                	addi	sp,sp,240
  6a:	6962                	flw	fs2,24(sp)
  6c:	693d                	lui	s2,0xf
  6e:	706c                	flw	fa1,100(s0)
  70:	20653233          	0x20653233
  74:	672d                	lui	a4,0xb
  76:	2d20                	fld	fs0,88(a0)
  78:	4f2d2067          	0x4f2d2067
  7c:	4f2d2073          	csrs	0x4f2,s10
  80:	662d2073          	csrs	0x662,s10
  84:	6f6e                	flw	ft10,216(sp)
  86:	6f2d                	lui	t5,0xb
  88:	6570                	flw	fa2,76(a0)
  8a:	6d6e                	flw	fs10,216(sp)
  8c:	2070                	fld	fa2,192(s0)
  8e:	662d                	lui	a2,0xb
  90:	6f6e                	flw	ft10,216(sp)
  92:	6f2d                	lui	t5,0xb
  94:	6570                	flw	fa2,76(a0)
  96:	616e                	flw	ft2,216(sp)
  98:	2d206363          	bltu	zero,s2,35e <main+0x29a>
  9c:	6e66                	flw	ft8,88(sp)
  9e:	69702d6f          	jal	s10,2f34 <wiring.c.7604182b+0x53b>
  a2:	2065                	jal	14a <main+0x86>
  a4:	662d                	lui	a2,0xb
  a6:	7566                	flw	fa0,120(sp)
  a8:	636e                	flw	ft6,216(sp)
  aa:	6974                	flw	fa3,84(a0)
  ac:	732d6e6f          	jal	t3,d67de <wiring.c.7604182b+0xd3de5>
  b0:	6365                	lui	t1,0x19
  b2:	6974                	flw	fa3,84(a0)
  b4:	20736e6f          	jal	t3,36aba <wiring.c.7604182b+0x340c1>
  b8:	662d                	lui	a2,0xb
  ba:	746c                	flw	fa1,108(s0)
  bc:	6172                	flw	ft2,28(sp)
  be:	736e                	flw	ft6,248(sp)
  c0:	5f00                	lw	s0,56(a4)
  c2:	755f 6f6d 7364      	0x73646f6d755f
int main() {
  c8:	3369                	jal	fffffe52 <__global_pointer$+0xdffff512>
  ca:	3c00                	fld	fs0,56(s0)
	RCC->CFGR0 = RCC_HPRE_DIV1 | RCC_PLLSRC_HSI_Mul2;      // PLLCLK = HSI * 2 = 48 MHz; HCLK = SYSCLK = APB1
  cc:	7261                	lui	tp,0xffff8
  ce:	6974                	flw	fa3,84(a0)
	RCC->CTLR  = RCC_HSION | RCC_PLLON | ((HSITRIM) << 3); // Use HSI, but enable PLL.
  d0:	6966                	flw	fs2,88(sp)
  d2:	6c616963          	bltu	sp,t1,7a4 <SysTick_Handler+0x2e4>
	RCC->CFGR0 = RCC_HPRE_DIV1 | RCC_PLLSRC_HSI_Mul2;      // PLLCLK = HSI * 2 = 48 MHz; HCLK = SYSCLK = APB1
  d6:	003e                	c.slli	zero,0xf
	RCC->CTLR  = RCC_HSION | RCC_PLLON | ((HSITRIM) << 3); // Use HSI, but enable PLL.
  d8:	5f5f 756d 736c      	0x736c756d5f5f
	FLASH->ACTLR = FLASH_ACTLR_LATENCY_1;                  // 1 Cycle Latency
  de:	3369                	jal	fffffe68 <__global_pointer$+0xdffff528>
  e0:	2f00                	fld	fs0,24(a4)
  e2:	6f68                	flw	fa0,92(a4)
  e4:	656d                	lui	a0,0x1b
	RCC->INTR  = 0x009F0000;                               // Clear PLL, CSSC, HSE, HSI and LSI ready flags.
  e6:	7264622f          	0x7264622f
  ea:	632f796f          	jal	s2,f771c <wiring.c.7604182b+0xf4d23>
	while((RCC->CTLR & RCC_PLLRDY) == 0);                                      // Wait till PLL is ready
  ee:	3368                	fld	fa0,224(a4)
  f0:	7632                	flw	fa2,44(sp)
  f2:	622d                	lui	tp,0xb
  f4:	7361                	lui	t1,0xffff8
  f6:	2f65                	jal	8ae <_data_lma+0xda>
  f8:	7250                	flw	fa2,36(a2)
	RCC->CFGR0 = ( RCC->CFGR0 & ((uint32_t)~(RCC_SW))) | (uint32_t)RCC_SW_PLL; // Select PLL as system clock source
  fa:	63656a6f          	jal	s4,56730 <wiring.c.7604182b+0x53d37>
  fe:	7374                	flw	fa3,100(a4)
 100:	6168632f          	0x6168632f
 104:	6c72                	flw	fs8,28(sp)
	while ((RCC->CFGR0 & (uint32_t)RCC_SWS) != (uint32_t)0x08);                // Wait till PLL is used as system clock source
 106:	6569                	lui	a0,0x1a
 108:	6c70                	flw	fa2,92(s0)
 10a:	7865                	lui	a6,0xffff9
 10c:	5200                	lw	s0,32(a2)
 10e:	5345                	li	t1,-15
 110:	5245                	li	tp,-15
	RCC->APB2PCENR |=	RCC_APB2Periph_GPIOA | RCC_APB2Periph_GPIOC |
 112:	4556                	lw	a0,84(sp)
 114:	0044                	addi	s1,sp,4
 116:	4f42                	lw	t5,16(sp)
 118:	4d5f544f          	0x4d5f544f
 11c:	4b45444f          	fnmadd.d	fs0,fa0,fs4,fs1,rmm
	RCC->APB2PRSTR |=  RCC_APB2Periph_TIM1;
 120:	5945                	li	s2,-15
 122:	0052                	c.slli	zero,0x14
	RCC->APB2PRSTR &= ~RCC_APB2Periph_TIM1;
 124:	72727473          	csrrci	s0,0x727,4
	RCC->APB1PCENR |=	RCC_APB1Periph_TIM2;
 128:	00726863          	bltu	tp,t2,138 <main+0x74>
	RCC->APB2PRSTR |=  RCC_APB2Periph_TIM1;
 12c:	7265766f          	jal	a2,57852 <wiring.c.7604182b+0x54e59>
	GPIOC->CFGLR &= ~(0xf<<(4*GPIO_PinSource4));
 130:	6c66                	flw	fs8,88(sp)
 132:	7300776f          	jal	a4,7862 <wiring.c.7604182b+0x4e69>
	RCC->APB2PRSTR |=  RCC_APB2Periph_TIM1;
 136:	7274                	flw	fa3,100(a2)
	RCC->APB2PRSTR &= ~RCC_APB2Periph_TIM1;
 138:	656c                	flw	fa1,76(a0)
 13a:	006e                	c.slli	zero,0x1b
 13c:	6f66                	flw	ft10,88(sp)
	GPIOC->CFGLR &= ~(0xf<<(4*GPIO_PinSource2));
 13e:	6d72                	flw	fs10,28(sp)
 140:	7461                	lui	s0,0xffff8
	RCC->APB2PRSTR &= ~RCC_APB2Periph_TIM1;
 142:	6300                	flw	fs0,0(a4)
 144:	3368                	fld	fa0,224(a4)
	RCC->APB1PRSTR |=  RCC_APB1Periph_TIM2;
 146:	7632                	flw	fa2,44(sp)
	TIM1->PSC = 0x0000;
 148:	3030                	fld	fa2,96(s0)
 14a:	6e756633          	0x6e756633
	TIM1->ATRLR = 255;
 14e:	3368632f          	0x3368632f
	RCC->APB1PRSTR |=  RCC_APB1Periph_TIM2;
 152:	7632                	flw	fa2,44(sp)
 154:	3030                	fld	fa2,96(s0)
	RCC->APB1PRSTR &= ~RCC_APB1Periph_TIM2;
 156:	6e756633          	0x6e756633
 15a:	632e                	flw	ft6,200(sp)
 15c:	7300                	flw	fs0,32(a4)
	GPIOC->CFGLR &= ~(0xf<<(4*GPIO_PinSource4));
 15e:	7274                	flw	fa3,100(a2)
 160:	636e                	flw	ft6,216(sp)
 162:	706d                	c.lui	zero,0xffffb
 164:	4100                	lw	s0,0(a0)
 166:	4344                	lw	s1,4(a4)
	GPIOC->CFGLR |= (GPIO_Speed_10MHz | GPIO_CNF_OUT_OD_AF)<<(4*GPIO_PinSource4);
 168:	7250                	flw	fa2,36(a2)
 16a:	7365                	lui	t1,0xffff9
 16c:	62615463          	bge	sp,t1,794 <SysTick_Handler+0x2d4>
 170:	656c                	flw	fa1,76(a0)
	GPIOA->CFGLR &= ~(0xf<<(4*GPIO_PinSource1));
 172:	6500                	flw	fs0,8(a0)
 174:	7272                	flw	ft4,60(sp)
	GPIOC->CFGLR |= (GPIO_Speed_10MHz | GPIO_CNF_OUT_OD_AF)<<(4*GPIO_PinSource2);
 176:	6f6e                	flw	ft10,216(sp)
 178:	7300                	flw	fs0,32(a4)
	GPIOA->CFGLR &= ~(0xf<<(4*GPIO_PinSource1));
 17a:	7274                	flw	fa3,100(a2)
 17c:	6c6e                	flw	fs8,216(sp)
 17e:	6e65                	lui	t3,0x19
 180:	5f00                	lw	s0,56(a4)
	GPIOA->CFGLR |= (GPIO_Speed_10MHz | GPIO_CNF_OUT_OD_AF)<<(4*GPIO_PinSource1);
 182:	695f 746e 3233      	0x3233746e695f
 188:	745f 7400 7261      	0x72617400745f
	GPIOC->CFGLR &= ~(0xf<<(4*GPIO_PinSource2));
 18e:	646e6567          	0x646e6567
 192:	5300                	lw	s0,32(a4)
 194:	7379                	lui	t1,0xffffe
	GPIOC->CFGLR |= (GPIO_Speed_10MHz | GPIO_CNF_OUT_OD_AF)<<(4*GPIO_PinSource2);
 196:	6574                	flw	fa3,76(a0)
 198:	496d                	li	s2,27
 19a:	696e                	flw	fs2,216(sp)
	GPIOC->CFGLR &= ~(0xf<<(4*GPIO_PinSource1));
 19c:	3274                	fld	fa3,224(a2)
	AFIO->PCFR1 |= AFIO_PCFR1_TIM2_REMAP_PARTIALREMAP1;
 19e:	4834                	lw	a3,80(s0)
 1a0:	75004953          	0x75004953
	GPIOC->CFGLR &= ~(0xf<<(4*GPIO_PinSource1));
 1a4:	736e                	flw	ft6,248(sp)
 1a6:	6769                	lui	a4,0x1a
	GPIOC->CFGLR |= (GPIO_Speed_10MHz | GPIO_CNF_OUT_OD_AF)<<(4*GPIO_PinSource1);
 1a8:	7000                	flw	fs0,32(s0)
 1aa:	7475                	lui	s0,0xffffd
 1ac:	72616863          	bltu	sp,t1,8dc <_data_lma+0x108>
	AFIO->PCFR1 |= AFIO_PCFR1_TIM2_REMAP_PARTIALREMAP1;
 1b0:	4100                	lw	s0,0(a0)
 1b2:	4250                	lw	a2,4(a2)
 1b4:	5032                	0x5032
 1b6:	524e4543          	fmadd.d	fa0,ft8,ft4,fa0,rmm
	TIM1->PSC = 0x0000;
 1ba:	4900                	lw	s0,16(a0)
	TIM2->PSC = 0x0000;
 1bc:	444e                	lw	s0,208(sp)
 1be:	0052                	c.slli	zero,0x14
 1c0:	696d                	lui	s2,0x1b
 1c2:	696e                	flw	fs2,216(sp)
	TIM1->ATRLR = 255;
 1c4:	765f 6e73 7270      	0x72706e73765f
	TIM2->ATRLR = 255;
 1ca:	6e69                	lui	t3,0x1a
	TIM1->SWEVGR |= TIM_UG;
 1cc:	6674                	flw	fa3,76(a2)
 1ce:	4700                	lw	s0,8(a4)
 1d0:	4950                	lw	a2,20(a0)
 1d2:	70535f4f          	fnmadd.s	ft10,ft6,ft5,fa4,unknown
 1d6:	6565                	lui	a0,0x19
 1d8:	5f64                	lw	s1,124(a4)
 1da:	4d32                	lw	s10,12(sp)
	TIM2->SWEVGR |= TIM_UG;
 1dc:	7a48                	flw	fa0,52(a2)
 1de:	6d00                	flw	fs0,24(a0)
 1e0:	6e69                	lui	t3,0x1a
 1e2:	5f69                	li	t5,-6
 1e4:	7469                	lui	s0,0xffffa
 1e6:	5700616f          	jal	sp,6756 <wiring.c.7604182b+0x3d5d>
 1ea:	6961                	lui	s2,0x18
	TIM1->CTLR1 |= TIM_ARPE;
 1ec:	4674                	lw	a3,76(a2)
 1ee:	6544726f          	jal	tp,47842 <wiring.c.7604182b+0x44e49>
 1f2:	7562                	flw	fa0,56(sp)
 1f4:	72656767          	0x72656767
 1f8:	6f54                	flw	fa3,28(a4)
 1fa:	7441                	lui	s0,0xffff0
	TIM2->CTLR1 |= TIM_ARPE;
 1fc:	6174                	flw	fa3,68(a0)
 1fe:	73006863          	bltu	zero,a6,92e <_data_lma+0x15a>
 202:	7274                	flw	fa3,100(a2)
 204:	00797063          	bgeu	s2,t2,204 <main+0x140>
 208:	6e49                	lui	t3,0x12
 20a:	6574                	flw	fa3,76(a0)
	TIM1->CH2CVR = 16; //T1CH2/PA1/pin1
 20c:	7272                	flw	ft4,60(sp)
 20e:	7075                	c.lui	zero,0xffffd
 210:	5674                	lw	a3,108(a2)
	TIM1->CH4CVR = 16; //T1CH4/PC4/pin7
 212:	6365                	lui	t1,0x19
 214:	6f74                	flw	fa3,92(a4)
	TIM2->CH2CVR = 16; //T2CH2/PC2/pin6*
 216:	4472                	lw	s0,28(sp)
	TIM2->CH4CVR = 16; //T2CH4/PC1/pin5*
 218:	6665                	lui	a2,0x19
	TIM1->CCER |= TIM_CC2E | TIM_CC2P;	// Enable T1CH2 output, positive pol
 21a:	7561                	lui	a0,0xffff8
 21c:	746c                	flw	fa1,108(s0)
 21e:	4100                	lw	s0,0(a0)
 220:	4250                	lw	a2,4(a2)
 222:	5031                	c.li	zero,-20
 224:	5352                	lw	t1,52(sp)
 226:	5254                	lw	a3,36(a2)
 228:	4900                	lw	s0,16(a0)
	TIM1->CCER |= TIM_CC4E | TIM_CC4P;	// Enable T1CH4 output, positive pol
 22a:	544e                	lw	s0,240(sp)
 22c:	0052                	c.slli	zero,0x14
 22e:	66696873          	csrrsi	a6,0x666,18
 232:	0074                	addi	a3,sp,12
 234:	656d                	lui	a0,0x1b
 236:	6d6d                	lui	s10,0x1b
 238:	0065766f          	jal	a2,5723e <wiring.c.7604182b+0x54845>
 23c:	4c474643          	0x4c474643
	TIM2->CCER |= TIM_CC2E | TIM_CC2P;	// Enable T2CH2 output, positive pol
 240:	0052                	c.slli	zero,0x14
 242:	696d                	lui	s2,0x1b
 244:	696e                	flw	fs2,216(sp)
 246:	705f 6461 5300      	0x53006461705f
 24c:	7465                	lui	s0,0xffff9
	TIM2->CCER |= TIM_CC4E | TIM_CC4P;	// Enable T2CH4 output, positive pol
 24e:	7075                	c.lui	zero,0xffffd
 250:	4155                	li	sp,21
 252:	5452                	lw	s0,52(sp)
 254:	4700                	lw	s0,8(a4)
 256:	4950                	lw	a2,20(a0)
 258:	70535f4f          	fnmadd.s	ft10,ft6,ft5,fa4,unknown
 25c:	6565                	lui	a0,0x19
 25e:	5f64                	lw	s1,124(a4)
 260:	3031                	jal	fffffa6c <__global_pointer$+0xdffff12c>
	TIM1->CHCTLR1 |= TIM_OC2M_2 | TIM_OC2M_1;	// CH2 Mode is output, PWM1 (CC1S = 00, OC1M = 110)
 262:	484d                	li	a6,19
 264:	007a                	c.slli	zero,0x1e
 266:	6175                	addi	sp,sp,368
 268:	7472                	flw	fs0,60(sp)
 26a:	5242                	lw	tp,48(sp)
 26c:	0052                	c.slli	zero,0x14
 26e:	6f6c                	flw	fa1,92(a4)
 270:	676e                	flw	fa4,216(sp)
 272:	6c20                	flw	fs0,88(s0)
 274:	20676e6f          	jal	t3,7647a <wiring.c.7604182b+0x73a81>
	TIM1->CHCTLR2 |= TIM_OC4M_2 | TIM_OC4M_1;	// CH4 Mode is output, PWM1 (CC1S = 00, OC1M = 110)
 278:	6e75                	lui	t3,0x1d
 27a:	6e676973          	csrrsi	s2,0x6e6,14
 27e:	6465                	lui	s0,0x19
 280:	6920                	flw	fs0,80(a0)
 282:	746e                	flw	fs0,248(sp)
 284:	6d00                	flw	fs0,24(a0)
 286:	6e69                	lui	t3,0x1a
 288:	5f69                	li	t5,-6
 28a:	72706e73          	csrrsi	t3,0x727,0
	TIM2->CHCTLR1 |= TIM_OC2M_2 | TIM_OC2M_1 | TIM_OC2PE;
 28e:	6e69                	lui	t3,0x1a
 290:	6674                	flw	fa3,76(a2)
 292:	7300                	flw	fs0,32(a4)
 294:	7274                	flw	fa3,100(a2)
 296:	636e                	flw	ft6,216(sp)
 298:	7970                	flw	fa2,116(a0)
 29a:	4400                	lw	s0,8(s0)
 29c:	6c65                	lui	s8,0x19
 29e:	7961                	lui	s2,0xffff8
 2a0:	54737953          	0x54737953
 2a4:	6369                	lui	t1,0x1a
	TIM2->CHCTLR2 |= TIM_OC4M_2 | TIM_OC4M_1 | TIM_OC4PE;
 2a6:	5f5f006b          	0x5f5f006b
	TIM1->BDTR  |= TIM_MOE;	// Brake and deadband registers
 2aa:	7570                	flw	fa2,108(a0)
	TIM2->CHCTLR2 |= TIM_OC4M_2 | TIM_OC4M_1 | TIM_OC4PE;
 2ac:	7374                	flw	fa3,100(a4)
 2ae:	755f 7261 0074      	0x747261755f
 2b4:	5f5f 6975 746e      	0x746e69755f5f
 2ba:	3631                	jal	fffffdc6 <__global_pointer$+0xdffff486>
	TIM1->BDTR  |= TIM_MOE;	// Brake and deadband registers
 2bc:	745f 7000 616c      	0x616c7000745f
 2c2:	76006563          	bltu	zero,zero,a2c <_data_lma+0x258>
 2c6:	6c61                	lui	s8,0x18
 2c8:	6575                	lui	a0,0x1d
	TIM1->CTLR1 |= TIM_CEN;	// Enable TIM1
 2ca:	5f00                	lw	s0,56(a4)
 2cc:	675f 756e 5f63      	0x5f63756e675f
 2d2:	6176                	flw	ft2,92(sp)
 2d4:	6c5f 7369 0074      	0x7473696c5f
	TIM2->CTLR1 |= TIM_CEN;	// Enable TIM2
 2da:	6572                	flw	fa0,28(sp)
 2dc:	5f74                	lw	a3,124(a4)
 2de:	74617473          	csrrci	s0,0x746,2
 2e2:	7375                	lui	t1,0xffffd
 2e4:	7500                	flw	fs0,40(a0)
 2e6:	7070                	flw	fa2,100(s0)
 2e8:	7265                	lui	tp,0xffff9
	SysTick->CTLR = 0;
 2ea:	65736163          	bltu	t1,s7,92c <_data_lma+0x158>
 2ee:	7300                	flw	fs0,32(a4)
 2f0:	7a69                	lui	s4,0xffffa
 2f2:	5f65                	li	t5,-7
 2f4:	0074                	addi	a3,sp,12
 2f6:	4454554f          	0x4454554f
	SysTick->CMP = (SYSTEM_CORE_CLOCK/SYSTICKHZ)-1;
 2fa:	0052                	c.slli	zero,0x14
 2fc:	5348                	lw	a0,36(a4)
 2fe:	4245                	li	tp,17
 300:	5059                	c.li	zero,-10
	SysTick->CNT = 0;
 302:	4600                	lw	s0,8(a2)
 304:	414c                	lw	a1,4(a0)
	SysTick->CTLR = SYSTICK_CTLR_STE | SYSTICK_CTLR_STIE |
 306:	545f4853          	0x545f4853
	RCC->CFGR0 &= ~(0x1F<<11);
 30a:	7079                	c.lui	zero,0xffffe
 30c:	4465                	li	s0,25
 30e:	6665                	lui	a2,0x19
 310:	6d00                	flw	fs0,24(a0)
 312:	6e69                	lui	t3,0x1a
 314:	5f69                	li	t5,-6
	RCC->APB2PCENR |= RCC_APB2Periph_GPIOA | RCC_APB2Periph_ADC1;
 316:	7070                	flw	fa2,100(s0)
 318:	6972                	flw	fs2,28(sp)
 31a:	746e                	flw	fs0,248(sp)
 31c:	0066                	c.slli	zero,0x19
	GPIOA->CFGLR &= ~(0xf<<(4*GPIO_PinSource2));	// CNF = 00: Analog, MODE = 00: Input
 31e:	4352                	lw	t1,20(sp)
 320:	79545f43          	fmadd.s	ft10,fs0,fs5,fa5,unknown
 324:	6570                	flw	fa2,76(a0)
 326:	6544                	flw	fs1,12(a0)
 328:	0066                	c.slli	zero,0x19
	RCC->APB2PRSTR |= RCC_APB2Periph_ADC1;
 32a:	4341                	li	t1,16
	ADC1->CTLR2 |= ADC_ADON | ADC_EXTSEL;
 32c:	4c54                	lw	a3,28(s0)
 32e:	0052                	c.slli	zero,0x14
 330:	7774                	flw	fa3,108(a4)
	RCC->APB2PRSTR |= RCC_APB2Periph_ADC1;
 332:	7961776f          	jal	a4,17ac8 <wiring.c.7604182b+0x150cf>
 336:	735f 7274 7473      	0x74737274735f
	RCC->APB2PRSTR &= ~RCC_APB2Periph_ADC1;
 33c:	0072                	c.slli	zero,0x1c
 33e:	5342                	lw	t1,48(sp)
	ADC1->RSQR1 = 0;
 340:	5248                	lw	a0,36(a2)
 342:	5500                	lw	s0,40(a0)
 344:	54524153          	0x54524153
	ADC1->RSQR2 = 0;
 348:	545f 7079 4465      	0x44657079545f
	ADC1->RSQR3 = ADC_Channel_0;	// 0-9 for 8 ext inputs and two internals
 34e:	6665                	lui	a2,0x19
	ADC1->SAMPTR2 &= ~ADC_SMP2;
 350:	6d00                	flw	fs0,24(a0)
 352:	6d65                	lui	s10,0x19
 354:	00726863          	bltu	tp,t2,364 <main+0x2a0>
 358:	696d                	lui	s2,0x1b
 35a:	696e                	flw	fs2,216(sp)
	ADC1->SAMPTR2 |= ( ADC_SampleTime_3Cycles << (3 * ADC_Channel_0 ) );	// 0:7 => 3/9/15/30/43/57/73/241 cycles
 35c:	765f 7070 6972      	0x69727070765f
 362:	746e                	flw	fs0,248(sp)
	ADC1->CTLR2 |= ADC_ADON | ADC_EXTSEL;
 364:	0066                	c.slli	zero,0x19
 366:	74737953          	0x74737953
 36a:	6d65                	lui	s10,0x19
 36c:	6e49                	lui	t3,0x12
	ADC1->CTLR2 |= ADC_RSTCAL;
 36e:	7469                	lui	s0,0xffffa
 370:	5348                	lw	a0,36(a4)
	while(ADC1->CTLR2 & ADC_RSTCAL);
 372:	5045                	c.li	zero,-15
 374:	4c4c                	lw	a1,28(s0)
	ADC1->CTLR2 |= ADC_RSTCAL;
 376:	6c00                	flw	fs0,24(s0)
 378:	20676e6f          	jal	t3,7657e <wiring.c.7604182b+0x73b85>
 37c:	6f6c                	flw	fa1,92(a4)
	while(ADC1->CTLR2 & ADC_RSTCAL);
 37e:	676e                	flw	fa4,216(sp)
 380:	6920                	flw	fs0,80(a0)
 382:	746e                	flw	fs0,248(sp)
 384:	7000                	flw	fs0,32(s0)
	ADC1->CTLR2 |= ADC_CAL;
 386:	7562                	flw	fa0,56(sp)
 388:	6666                	flw	fa2,88(sp)
 38a:	7265                	lui	tp,0xffff9
 38c:	7000                	flw	fs0,32(s0)
 38e:	6461                	lui	s0,0x18
 390:	635f 6168 0072      	0x726168635f
	while(ADC1->CTLR2 & ADC_CAL);
 396:	6964                	flw	fs1,84(a0)
 398:	00746967          	0x746967
 39c:	6168                	flw	fa0,68(a0)
                Delay_Ms(( Delay >> 3 ) + 5 );
 39e:	646e                	flw	fs0,216(sp)
 3a0:	656c                	flw	fa1,76(a0)
                int temp=LEDs[0].brightness;
 3a2:	725f 7365 7465      	0x74657365725f
	ADC1->CTLR2 |= ADC_SWSTART;
 3a8:	7300                	flw	fs0,32(a4)
 3aa:	7a69                	lui	s4,0xffffa
 3ac:	0065                	c.nop	25
	uint32_t targend = SysTick->CNT + n;
 3ae:	4841                	li	a6,16
 3b0:	5042                	0x5042
                Delay_Ms(( Delay >> 3 ) + 5 );
 3b2:	524e4543          	fmadd.d	fa0,ft8,ft4,fa0,rmm
 3b6:	4300                	lw	s0,0(a4)
                int temp=LEDs[0].brightness;
 3b8:	4746                	lw	a4,80(sp)
 3ba:	3052                	fld	ft0,304(sp)
	ADC1->CTLR2 |= ADC_SWSTART;
 3bc:	5f00                	lw	s0,56(a4)
 3be:	7570                	flw	fa2,108(a0)
 3c0:	7374                	flw	fa3,100(a4)
 3c2:	7000                	flw	fs0,32(s0)
 3c4:	6461                	lui	s0,0x18
 3c6:	745f 006f 7267      	0x7267006f745f
	while(!(ADC1->STATR & ADC_EOC));
 3cc:	4100776f          	jal	a4,77dc <wiring.c.7604182b+0x4de3>
	return ADC1->RDATAR;
 3d0:	4250                	lw	a2,4(a2)
 3d2:	5031                	c.li	zero,-20
 3d4:	524e4543          	fmadd.d	fa0,ft8,ft4,fa0,rmm
                Delay_Ms(( Delay >> 3 ) + 5 );
 3d8:	6100                	flw	fs0,0(a0)
 3da:	6772                	flw	fa4,28(sp)
 3dc:	79530073          	0x79530073
 3e0:	63695473          	csrrwi	s0,0x636,18
 3e4:	79545f6b          	0x79545f6b
 3e8:	6570                	flw	fa2,76(a0)
 3ea:	6c00                	flw	fs0,24(s0)
 3ec:	20676e6f          	jal	t3,765f2 <wiring.c.7604182b+0x73bf9>
 3f0:	6f64                	flw	fs1,92(a4)
 3f2:	6275                	lui	tp,0x1d
 3f4:	656c                	flw	fa1,76(a0)
 3f6:	5f00                	lw	s0,56(a4)
 3f8:	74697277          	0x74697277
	while( ((int32_t)( SysTick->CNT - targend )) < 0 );
 3fc:	0065                	c.nop	25
 3fe:	524c5443          	fmadd.d	fs0,fs8,ft4,fa0,unknown
 402:	5f5f0033          	0x5f5f0033
                int temp=LEDs[0].brightness;
 406:	6975                	lui	s2,0x1d
                for(int i=1; i<12; i++){
 408:	746e                	flw	fs0,248(sp)
 40a:	7470                	flw	fa2,108(s0)
                int temp=LEDs[0].brightness;
 40c:	5f72                	lw	t5,60(sp)
 40e:	0074                	addi	a3,sp,12
                        LEDs[i-1].brightness=LEDs[i].brightness;
 410:	74737953          	0x74737953
 414:	6d65                	lui	s10,0x19
 416:	6e49                	lui	t3,0x12
 418:	7469                	lui	s0,0xffffa
 41a:	5348                	lw	a0,36(a4)
 41c:	0045                	c.nop	17
 41e:	5352                	lw	t1,52(sp)
 420:	5354                	lw	a3,36(a4)
 422:	00524b43          	fmadd.s	fs6,ft4,ft5,ft0,rmm
 426:	63727473          	csrrci	s0,0x637,4
 42a:	7268                	flw	fa0,100(a2)
 42c:	5200                	lw	s0,32(a2)
 42e:	5345                	li	t1,-15
 430:	5245                	li	tp,-15
 432:	4556                	lw	a0,84(sp)
                for(int i=1; i<12; i++){
 434:	3044                	fld	fs1,160(s0)
 436:	5200                	lw	s0,32(a2)
 438:	5345                	li	t1,-15
                LEDs[11].brightness=temp;
 43a:	5245                	li	tp,-15
 43c:	4556                	lw	a0,84(sp)
	while(1){
 43e:	3144                	fld	fs1,160(a0)
	asm volatile( "\n\
 440:	5200                	lw	s0,32(a2)
 442:	5345                	li	t1,-15
 444:	5245                	li	tp,-15
 446:	4556                	lw	a0,84(sp)
 448:	3244                	fld	fs1,160(a2)
 44a:	5200                	lw	s0,32(a2)
 44c:	5345                	li	t1,-15
 44e:	5245                	li	tp,-15
 450:	4556                	lw	a0,84(sp)
 452:	3344                	fld	fs1,160(a4)
 454:	5200                	lw	s0,32(a2)
 456:	5345                	li	t1,-15
 458:	5245                	li	tp,-15
 45a:	4556                	lw	a0,84(sp)
 45c:	3444                	fld	fs1,168(s0)
 45e:	5200                	lw	s0,32(a2)
 460:	5345                	li	t1,-15
 462:	5245                	li	tp,-15
 464:	4556                	lw	a0,84(sp)
 466:	3544                	fld	fs1,168(a0)
asm volatile(
 468:	5200                	lw	s0,32(a2)
 46a:	5345                	li	t1,-15
 46c:	5245                	li	tp,-15
 46e:	4556                	lw	a0,84(sp)
 470:	3644                	fld	fs1,168(a2)
 472:	7300                	flw	fs0,32(a4)
 474:	6f68                	flw	fa0,92(a4)
 476:	7472                	flw	fs0,60(sp)
 478:	6920                	flw	fs0,80(a0)
 47a:	746e                	flw	fs0,248(sp)
 47c:	5300                	lw	s0,32(a4)
 47e:	7465                	lui	s0,0xffff9
 480:	7075                	c.lui	zero,0xffffd
 482:	6544                	flw	fs1,12(a0)
 484:	7562                	flw	fa0,56(sp)
 486:	69725067          	0x69725067
 48a:	746e                	flw	fs0,248(sp)
 48c:	0066                	c.slli	zero,0x19
 48e:	5041                	c.li	zero,-16
 490:	4142                	lw	sp,16(sp)
 492:	4248                	lw	a0,4(a2)
 494:	7250                	flw	fa2,36(a2)
 496:	7365                	lui	t1,0xffff9
 498:	62615463          	bge	sp,t1,ac0 <_data_lma+0x2ec>
 49c:	656c                	flw	fa1,76(a0)
 49e:	6e00                	flw	fs0,24(a2)
 4a0:	6765                	lui	a4,0x19
 4a2:	7461                	lui	s0,0xffff8
 4a4:	7669                	lui	a2,0xffffa
 4a6:	0065                	c.nop	25
 4a8:	656d                	lui	a0,0x1b
	SETUP_SYSTICK_HCLK
 4aa:	306d                	jal	fffffd54 <__global_pointer$+0xdffff414>
 4ac:	6d00                	flw	fs0,24(a0)
 4ae:	6d65                	lui	s10,0x19
 4b0:	00706d63          	bltu	zero,t2,4ca <SysTick_Handler+0xa>
asm volatile(
 4b4:	6544                	flw	fs1,12(a0)
 4b6:	6166                	flw	ft2,88(sp)
 4b8:	6c75                	lui	s8,0x1d
 4ba:	4974                	lw	a3,84(a0)
 4bc:	5152                	lw	sp,52(sp)
	asm volatile( "1: j 1b" );
 4be:	6148                	flw	fa0,4(a0)
{
 4c0:	646e                	flw	fs0,216(sp)
 4c2:	656c                	flw	fa1,76(a0)
 4c4:	0072                	c.slli	zero,0x1c
 4c6:	5f5f 656d 726d      	0x726d656d5f5f
 4cc:	00726863          	bltu	tp,t2,4dc <SysTick_Handler+0x1c>
	SysTick->CMP += (SYSTEM_CORE_CLOCK/SYSTICKHZ); 
 4d0:	74737953          	0x74737953
{
 4d4:	6d65                	lui	s10,0x19
 4d6:	6e49                	lui	t3,0x12
	SysTick->CMP += (SYSTEM_CORE_CLOCK/SYSTICKHZ); 
 4d8:	7469                	lui	s0,0xffffa
 4da:	3834                	fld	fa3,112(s0)
 4dc:	5348                	lw	a0,36(a4)
 4de:	0049                	c.nop	18
{
 4e0:	5041                	c.li	zero,-16
 4e2:	3242                	fld	ft4,48(sp)
 4e4:	5250                	lw	a2,36(a2)
 4e6:	00525453          	fadd.s	fs0,ft4,ft5,unknown
 4ea:	6172                	flw	ft2,28(sp)
 4ec:	6964                	flw	fs1,84(a0)
 4ee:	0078                	addi	a4,sp,12
	SysTick->CMP += (SYSTEM_CORE_CLOCK/SYSTICKHZ); 
 4f0:	5f5f 6975 746e      	0x746e69755f5f
{
 4f6:	5f38                	lw	a4,120(a4)
 4f8:	0074                	addi	a3,sp,12
 4fa:	4f495047          	fmsub.q	ft0,fs2,fs4,fs1,unknown
 4fe:	545f 7079 4465      	0x44657079545f
	SysTick->CMP += (SYSTEM_CORE_CLOCK/SYSTICKHZ); 
 504:	6665                	lui	a2,0x19
 506:	6600                	flw	fs0,8(a2)
	SysTick->SR = 0;
 508:	6272756f          	jal	a0,2832e <wiring.c.7604182b+0x25935>
		GPIO_Float(	LEDs[group[currentgroup][i]].cathode->port,
 50c:	7479                	lui	s0,0xffffe
 50e:	5f65                	li	t5,-7
 510:	73727473          	csrrci	s0,0x737,4
 514:	7274                	flw	fa3,100(a2)
 516:	6200                	flw	fs0,0(a2)
 518:	6675                	lui	a2,0x1d
 51a:	6566                	flw	fa0,88(sp)
 51c:	5f72                	lw	t5,60(sp)
 51e:	656c                	flw	fa1,76(a0)
 520:	006e                	c.slli	zero,0x1b
 522:	6f74                	flw	fa3,92(a4)
 524:	646e6573          	csrrsi	a0,0x646,28
	for(int i=0;i<3;i++){
 528:	6200                	flw	fs0,0(a2)
 52a:	7479                	lui	s0,0xffffe
		GPIO_Float(	LEDs[group[currentgroup][i]].cathode->port,
 52c:	7365                	lui	t1,0xffff9
 52e:	7465                	lui	s0,0xffff9
        port->CFGLR &= ~(0xf<<(4*pin)); //clear GPIO config - default config is as an input, Hi-Z
 530:	7500                	flw	fs0,40(a0)
 532:	736e                	flw	ft6,248(sp)
		GPIO_Float(	LEDs[group[currentgroup][i]].cathode->port,
 534:	6769                	lui	a4,0x1a
 536:	656e                	flw	fa0,216(sp)
 538:	2064                	fld	fs1,192(s0)
 53a:	72616863          	bltu	sp,t1,c6a <_data_lma+0x496>
	for(int i=0;i<3;i++){
 53e:	5f00                	lw	s0,56(a4)
		GPIO_Float(	LEDs[group[currentgroup][i]].cathode->port,
 540:	755f 6e69 3374      	0x33746e69755f
 546:	5f32                	lw	t5,44(sp)
 548:	0074                	addi	a3,sp,12
 54a:	4f495047          	fmsub.q	ft0,fs2,fs4,fs1,unknown
 54e:	535f 6570 6465      	0x64656570535f
 554:	355f 4d30 7a48      	0x7a484d30355f
 55a:	7400                	flw	fs0,40(s0)
 55c:	6d69                	lui	s10,0x1a
 55e:	6f65                	lui	t5,0x19
				LEDs[group[currentgroup][i]].cathode->pin,
 560:	7475                	lui	s0,0xffffd
 562:	7400                	flw	fs0,40(s0)
				LEDs[group[currentgroup][i]].cathode->timer,
 564:	7268                	flw	fa0,100(a2)
 566:	6565                	lui	a0,0x19
				LEDs[group[currentgroup][i]].cathode->channel
 568:	7962                	flw	fs2,56(sp)
 56a:	6574                	flw	fa3,76(a0)
		GPIO_Float(	LEDs[group[currentgroup][i]].cathode->port,
 56c:	735f 7274 7473      	0x74737274735f
 572:	0072                	c.slli	zero,0x1c
        timer->CCER &= ~channel;        //disable this channel output
 574:	454b424f          	0x454b424f
        port->CFGLR &= ~(0xf<<(4*pin)); //clear GPIO config - default config is as an input, Hi-Z
 578:	5259                	li	tp,-10
 57a:	5300                	lw	s0,32(a4)
        timer->CCER &= ~channel;        //disable this channel output
 57c:	4154                	lw	a3,4(a0)
 57e:	5254                	lw	a3,36(a2)
 580:	4700                	lw	s0,8(a4)
 582:	554e                	lw	a0,240(sp)
        port->CFGLR &= ~(0xf<<(4*pin)); //clear GPIO config - default config is as an input, Hi-Z
 584:	4320                	lw	s0,64(a4)
 586:	3731                	jal	492 <handle_reset+0x52>
        timer->CCER &= ~channel;        //disable this channel output
 588:	3120                	fld	fs0,96(a0)
 58a:	2e30                	fld	fa2,88(a2)
 58c:	2e32                	fld	ft8,264(sp)
 58e:	2030                	fld	fa2,64(s0)
 590:	6d2d                	lui	s10,0xb
 592:	7261                	lui	tp,0xffff8
 594:	723d6863          	bltu	s10,gp,cc4 <_data_lma+0x4f0>
        port->CFGLR &= ~(0xf<<(4*pin)); //clear GPIO config - default config is as an input, Hi-Z
 598:	3376                	fld	ft6,376(sp)
 59a:	6532                	flw	fa0,12(sp)
 59c:	6d2d2063          	0x6d2d2063
 5a0:	6261                	lui	tp,0x18
 5a2:	3d69                	jal	43c <main+0x378>
 5a4:	6c69                	lui	s8,0x1a
 5a6:	3370                	fld	fa2,224(a4)
	for(int i=0;i<3;i++){
 5a8:	6532                	flw	fa0,12(sp)
 5aa:	2d20                	fld	fs0,88(a0)
 5ac:	4f2d2067          	0x4f2d2067
	if(++currentgroup == 4) currentgroup=0;
 5b0:	662d2073          	csrs	0x662,s10
 5b4:	746c                	flw	fa1,108(s0)
 5b6:	662d206f          	j	d2c18 <wiring.c.7604182b+0xd021f>
 5ba:	7566                	flw	fa0,120(sp)
 5bc:	636e                	flw	ft6,216(sp)
 5be:	6974                	flw	fa3,84(a0)
 5c0:	732d6e6f          	jal	t3,d6cf2 <wiring.c.7604182b+0xd42f9>
		pwm_setpw(	LEDs[group[currentgroup][i]].cathode->timer,
 5c4:	6365                	lui	t1,0x19
 5c6:	6974                	flw	fa3,84(a0)
 5c8:	00736e6f          	jal	t3,36dce <wiring.c.7604182b+0x343d5>
 5cc:	726f6873          	csrrsi	a6,0x726,30
 5d0:	2074                	fld	fa3,192(s0)
 5d2:	6e75                	lui	t3,0x1d
 5d4:	6e676973          	csrrsi	s2,0x6e6,14
 5d8:	6465                	lui	s0,0x19
 5da:	6920                	flw	fs0,80(a0)
 5dc:	746e                	flw	fs0,248(sp)
 5de:	5f00                	lw	s0,56(a4)
 5e0:	625f 6975 746c      	0x746c6975625f
    	switch( chl )
 5e6:	6e69                	lui	t3,0x1a
 5e8:	765f 5f61 696c      	0x696c5f61765f
 5ee:	6d007473          	csrrci	s0,0x6d0,0
 5f2:	6e69                	lui	t3,0x1a
	for(int i=0;i<3;i++){
 5f4:	5f69                	li	t5,-6
 5f6:	7562                	flw	fa0,56(sp)
		pwm_setpw(	LEDs[group[currentgroup][i]].cathode->timer,
 5f8:	6666                	flw	fa2,88(sp)
 5fa:	4300                	lw	s0,0(a4)
 5fc:	4746                	lw	a4,80(sp)
 5fe:	5248                	lw	a0,36(a2)
 600:	6400                	flw	fs0,8(s0)
 602:	7365                	lui	t1,0xffff9
 604:	0074                	addi	a3,sp,12
 606:	7774                	flw	fa3,108(a4)
 608:	7479626f          	jal	tp,9754e <wiring.c.7604182b+0x94b55>
 60c:	5f65                	li	t5,-7
 60e:	73727473          	csrrci	s0,0x737,4
 612:	7274                	flw	fa3,100(a2)
 614:	4c00                	lw	s0,24(s0)
 616:	00524b43          	fmadd.s	fs6,ft4,ft5,ft0,rmm
 61a:	63727473          	csrrci	s0,0x637,4
				LEDs[group[currentgroup][i]].cathode->channel,
 61e:	706d                	c.lui	zero,0xffffb
				LEDs[group[currentgroup][i]].brightness
 620:	4900                	lw	s0,16(a0)
 622:	00525153          	fadd.s	ft2,ft4,ft5,unknown
		pwm_setpw(	LEDs[group[currentgroup][i]].cathode->timer,
 626:	5845                	li	a6,-15
				LEDs[group[currentgroup][i]].brightness
 628:	4954                	lw	a3,20(a0)
 62a:	5f305f37          	lui	t5,0x5f305
    	switch( chl )
 62e:	5249                	li	tp,-14
 630:	6e51                	lui	t3,0x14
 632:	4700                	lw	s0,8(a4)
 634:	5349                	li	t1,-14
 636:	0052                	c.slli	zero,0x14
 638:	54484457          	0x54484457
	for(int i=0;i<3;i++){
 63c:	0052                	c.slli	zero,0x14
 63e:	3174                	fld	fa3,224(a0)
 640:	3274                	fld	fa3,224(a2)
 642:	705f 6d77 695f      	0x695f6d77705f
        port->CFGLR &= ~(0xf<<(4*pin)); //clear GPIO config - this appears to be necessary. 
 648:	696e                	flw	fs2,216(sp)
 64a:	0074                	addi	a3,sp,12
        port->CFGLR |= (GPIO_Speed_10MHz | GPIO_CNF_OUT_OD_AF)<<(4*pin);//Sets mode to OD_AF
 64c:	5741                	li	a4,-16
 64e:	5f55                	li	t5,-11
		GPIO_PWM(	LEDs[group[currentgroup][i]].cathode->port,
 650:	5249                	li	tp,-14
 652:	6e51                	lui	t3,0x14
 654:	4400                	lw	s0,8(s0)
 656:	414d                	li	sp,19
 658:	5f31                	li	t5,-20
 65a:	6e616843          	fmadd.q	fa6,ft2,ft6,fa3,unknown
	for(int i=0;i<3;i++){
 65e:	656e                	flw	fa0,216(sp)
		GPIO_PWM(	LEDs[group[currentgroup][i]].cathode->port,
 660:	376c                	fld	fa1,232(a4)
 662:	495f 5152 006e      	0x6e5152495f
 668:	6461                	lui	s0,0x18
 66a:	65675f63          	bge	a4,s6,cc8 <_data_lma+0x4f4>
 66e:	0074                	addi	a3,sp,12
 670:	4c544353          	0x4c544353
 674:	0052                	c.slli	zero,0x14
 676:	4d44                	lw	s1,28(a0)
				LEDs[group[currentgroup][i]].cathode->pin,
 678:	3141                	jal	2f8 <main+0x234>
 67a:	435f 6168 6e6e      	0x6e6e6168435f
				LEDs[group[currentgroup][i]].cathode->channel
 680:	6c65                	lui	s8,0x19
 682:	5f32                	lw	t5,44(sp)
        port->CFGLR &= ~(0xf<<(4*pin)); //clear GPIO config - this appears to be necessary. 
 684:	5249                	li	tp,-14
 686:	6e51                	lui	t3,0x14
		GPIO_PWM(	LEDs[group[currentgroup][i]].cathode->port,
 688:	5300                	lw	s0,32(a4)
 68a:	434d                	li	t1,19
 68c:	4746                	lw	a4,80(sp)
 68e:	0052                	c.slli	zero,0x14
        port->CFGLR &= ~(0xf<<(4*pin)); //clear GPIO config - this appears to be necessary. 
 690:	544c4457          	0x544c4457
 694:	0052                	c.slli	zero,0x14
 696:	564e                	lw	a2,240(sp)
 698:	4349                	li	t1,18
 69a:	455f 616e 6c62      	0x6c62616e455f
 6a0:	4965                	li	s2,25
 6a2:	5152                	lw	sp,52(sp)
 6a4:	5300                	lw	s0,32(a4)
 6a6:	47564557          	0x47564557
 6aa:	0052                	c.slli	zero,0x14
        port->CFGLR |= (GPIO_Speed_10MHz | GPIO_CNF_OUT_OD_AF)<<(4*pin);//Sets mode to OD_AF
 6ac:	54434843          	0x54434843
 6b0:	524c                	lw	a1,36(a2)
 6b2:	0031                	c.nop	12
 6b4:	54434843          	0x54434843
 6b8:	524c                	lw	a1,36(a2)
 6ba:	0032                	c.slli	zero,0xc
        timer->CCER |= channel;         //enable this channel output
 6bc:	4c46                	lw	s8,80(sp)
 6be:	5341                	li	t1,-16
 6c0:	5f48                	lw	a0,60(a4)
 6c2:	5249                	li	tp,-14
 6c4:	6e51                	lui	t3,0x14
 6c6:	4900                	lw	s0,16(a0)
 6c8:	4332                	lw	t1,12(sp)
 6ca:	5f31                	li	t5,-20
 6cc:	5645                	li	a2,-15
 6ce:	495f 5152 006e      	0x6e5152495f
	for(int i=0;i<3;i++){
 6d4:	5449                	li	s0,-14
 6d6:	5248                	lw	a0,36(a2)
	GPIO_High(	LEDs[group[currentgroup][0]].anode->port,
 6d8:	5345                	li	t1,-15
 6da:	5244                	lw	s1,36(a2)
}
 6dc:	4300                	lw	s0,0(a4)
 6de:	3248                	fld	fa0,160(a2)
 6e0:	00525643          	fmadd.s	fa2,ft4,ft5,ft0,unknown
	GPIO_High(	LEDs[group[currentgroup][0]].anode->port,
 6e4:	5845                	li	a6,-15
 6e6:	52495f43          	fmadd.d	ft10,fs2,ft4,fa0,unknown
 6ea:	6e51                	lui	t3,0x14
 6ec:	5600                	lw	s0,40(a2)
 6ee:	4654                	lw	a3,12(a2)
 6f0:	4449                	li	s0,18
 6f2:	0052                	c.slli	zero,0x14
}
 6f4:	4352                	lw	t1,20(sp)
 6f6:	52495f43          	fmadd.d	ft10,fs2,ft4,fa0,unknown
	GPIO_High(	LEDs[group[currentgroup][0]].anode->port,
 6fa:	6e51                	lui	t3,0x14
 6fc:	5400                	lw	s0,40(s0)
 6fe:	4d49                	li	s10,18
 700:	5f31                	li	t5,-20
 702:	5242                	lw	tp,48(sp)
 704:	52495f4b          	fnmsub.d	ft10,fs2,ft4,fa0,unknown
 708:	6e51                	lui	t3,0x14
 70a:	4900                	lw	s0,16(a0)
			LEDs[group[currentgroup][0]].anode->pin,
 70c:	4341                	li	t1,16
 70e:	5254                	lw	a3,36(a2)
			LEDs[group[currentgroup][0]].anode->timer,
 710:	5400                	lw	s0,40(s0)
 712:	4d49                	li	s10,18
			LEDs[group[currentgroup][0]].anode->channel
 714:	545f 7079 4465      	0x44657079545f
	GPIO_High(	LEDs[group[currentgroup][0]].anode->port,
 71a:	6665                	lui	a2,0x19
 71c:	4200                	lw	s0,0(a2)
 71e:	5444                	lw	s1,44(s0)
 720:	0052                	c.slli	zero,0x14
 722:	74666f53          	0x74666f53
}
 726:	65726177          	0x65726177
        timer->CCER &= ~channel;        //disable this channel output
 72a:	495f 5152 006e      	0x6e5152495f
 730:	31495053          	0x31495053
 734:	495f 5152 006e      	0x6e5152495f
}
 73a:	4d44                	lw	s1,28(a0)
        timer->CCER &= ~channel;        //disable this channel output
 73c:	3141                	jal	3bc <main+0x2f8>
 73e:	435f 6168 6e6e      	0x6e6e6168435f
 744:	6c65                	lui	s8,0x19
 746:	5f34                	lw	a3,120(a4)
        port->CFGLR &= ~(0xf<<(4*pin)); //clear GPIO config - this appears to be necessary. 
 748:	5249                	li	tp,-14
 74a:	6e51                	lui	t3,0x14
 74c:	5300                	lw	s0,32(a4)
 74e:	4d41                	li	s10,16
 750:	5450                	lw	a2,44(s0)
 752:	3152                	fld	ft2,304(sp)
 754:	5300                	lw	s0,32(a4)
 756:	4d41                	li	s10,16
 758:	5450                	lw	a2,44(s0)
 75a:	3252                	fld	ft4,304(sp)
 75c:	4900                	lw	s0,16(a0)
 75e:	4e45                	li	t3,17
        port->CFGLR |= (GPIO_Speed_10MHz | GPIO_CNF_OUT_PP)<<(4*pin); //Sets output mode to GPIO, PP
 760:	0052                	c.slli	zero,0x14
 762:	43344843          	fmadd.d	fa6,fs0,fs3,fs0,rmm
 766:	5256                	lw	tp,116(sp)
 768:	7300                	flw	fs0,32(a4)
 76a:	7379                	lui	t1,0xffffe
 76c:	6974                	flw	fa3,84(a0)
 76e:	695f6b63          	bltu	t5,s5,e04 <_data_lma+0x630>
 772:	696e                	flw	fs2,216(sp)
        port->BSHR = (1<<(pin));                //set GPIO 'high'
 774:	0074                	addi	a3,sp,12
 776:	72727563          	bgeu	tp,t2,ea0 <ch32v003fun.c.8affbd33+0x1e>
 77a:	6e65                	lui	t3,0x19
}
 77c:	6774                	flw	fa3,76(a4)
 77e:	6f72                	flw	ft10,28(sp)
 780:	7075                	c.lui	zero,0xffffd
 782:	7500                	flw	fs0,40(a0)
 784:	6470                	flw	fa2,76(s0)
 786:	7461                	lui	s0,0xffff8
 788:	4c65                	li	s8,25
 78a:	4445                	li	s0,17
 78c:	4f490073          	0x4f490073
 790:	5246                	lw	tp,112(sp)
 792:	0031                	c.nop	12
 794:	4f49                	li	t5,18
 796:	5246                	lw	tp,112(sp)
 798:	0032                	c.slli	zero,0xc
 79a:	4f49                	li	t5,18
	if(++currentgroup == 4) currentgroup=0;
 79c:	5246                	lw	tp,112(sp)
 79e:	4f490033          	0x4f490033
 7a2:	5246                	lw	tp,112(sp)
    	switch( chl )
 7a4:	0034                	addi	a3,sp,8
 7a6:	6e61                	lui	t3,0x18
	    	case TIM_CC4E: timer->CH4CVR = width; break;
 7a8:	0065646f          	jal	s0,567ae <wiring.c.7604182b+0x53db5>
 7ac:	5249                	li	tp,-14
 7ae:	6e51                	lui	t3,0x14
	    	case TIM_CC1E: timer->CH1CVR = width; break;
 7b0:	545f 7079 0065      	0x657079545f
 7b6:	74646977          	0x74646977
	    	case TIM_CC2E: timer->CH2CVR = width; break;
 7ba:	0068                	addi	a0,sp,12
 7bc:	5052                	0x5052
 7be:	4354                	lw	a3,4(a4)
	    	case TIM_CC3E: timer->CH3CVR = width; break;
 7c0:	0052                	c.slli	zero,0x14
 7c2:	5049                	c.li	zero,-14
 7c4:	4952                	lw	s2,20(sp)
 7c6:	4100524f          	fnmadd.s	ft4,ft0,fa6,fs0,unknown
 7ca:	5254                	lw	a3,36(a2)
 7cc:	524c                	lw	a1,36(a2)
 7ce:	4900                	lw	s0,16(a0)
 7d0:	4144                	lw	s1,4(a0)
 7d2:	4154                	lw	a3,4(a0)
 7d4:	3152                	fld	ft2,304(sp)
 7d6:	4900                	lw	s0,16(a0)
 7d8:	4144                	lw	s1,4(a0)
 7da:	4154                	lw	a3,4(a0)
 7dc:	3252                	fld	ft4,304(sp)
 7de:	4900                	lw	s0,16(a0)
 7e0:	4144                	lw	s1,4(a0)
 7e2:	4154                	lw	a3,4(a0)
 7e4:	3352                	fld	ft6,304(sp)
 7e6:	4900                	lw	s0,16(a0)
 7e8:	4144                	lw	s1,4(a0)
 7ea:	4154                	lw	a3,4(a0)
 7ec:	3452                	fld	fs0,304(sp)
 7ee:	7400                	flw	fs0,40(s0)
 7f0:	6d65                	lui	s10,0x19
 7f2:	0070                	addi	a2,sp,12
 7f4:	54737953          	0x54737953
 7f8:	6369                	lui	t1,0x1a
 7fa:	52495f4b          	fnmsub.d	ft10,fs2,ft4,fa0,unknown
 7fe:	6e51                	lui	t3,0x14
 800:	4300                	lw	s0,0(a4)
 802:	00524543          	fmadd.s	fa0,ft4,ft5,ft0,rmm
 806:	4641                	li	a2,16
 808:	4f49                	li	t5,18
 80a:	545f 7079 4465      	0x44657079545f
 810:	6665                	lui	a2,0x19
 812:	4400                	lw	s0,8(s0)
 814:	414d                	li	sp,19
 816:	5f31                	li	t5,-20
 818:	6e616843          	fmadd.q	fa6,ft2,ft6,fa3,unknown
 81c:	656e                	flw	fa0,216(sp)
 81e:	366c                	fld	fa1,232(a2)
 820:	495f 5152 006e      	0x6e5152495f
 826:	4d44                	lw	s1,28(a0)
 828:	3141                	jal	4a8 <handle_reset+0x68>
 82a:	435f 6168 6e6e      	0x6e6e6168435f
 830:	6c65                	lui	s8,0x19
 832:	5f31                	li	t5,-20
 834:	5249                	li	tp,-14
 836:	6e51                	lui	t3,0x14
 838:	7000                	flw	fs0,32(s0)
 83a:	735f6d77          	0x735f6d77
 83e:	7465                	lui	s0,0xffff9
 840:	7770                	flw	fa2,108(a4)
 842:	4500                	lw	s0,8(a0)
 844:	5458                	lw	a4,44(s0)
 846:	4349                	li	t1,18
 848:	0052                	c.slli	zero,0x14
 84a:	4650                	lw	a2,12(a2)
 84c:	4349                	li	t1,18
 84e:	545f 7079 0065      	0x657079545f
 854:	4441                	li	s0,16
 856:	79545f43          	fmadd.s	ft10,fs0,fs5,fa5,unknown
 85a:	6570                	flw	fa2,76(a0)
 85c:	6544                	flw	fs1,12(a0)
 85e:	0066                	c.slli	zero,0x19
 860:	47445757          	0x47445757
 864:	495f 5152 006e      	0x6e5152495f
 86a:	4e49                	li	t3,18
 86c:	4654                	lw	a3,12(a2)
 86e:	0052                	c.slli	zero,0x14
 870:	7262                	flw	ft4,56(sp)
 872:	6769                	lui	a4,0x1a
 874:	7468                	flw	fa0,108(s0)
 876:	656e                	flw	fa0,216(sp)
 878:	53007373          	csrrci	t1,0x530,0
 87c:	7379                	lui	t1,0xffffe
 87e:	6954                	flw	fa3,20(a0)
 880:	485f6b63          	bltu	t5,t0,d16 <_data_lma+0x542>
 884:	6e61                	lui	t3,0x18
 886:	6c64                	flw	fs1,92(s0)
 888:	7265                	lui	tp,0xffff9
 88a:	6100                	flw	fs0,0(a0)
 88c:	6364                	flw	fs1,68(a4)
 88e:	695f 696e 0074      	0x74696e695f
 894:	43314843          	fmadd.d	fa6,ft2,fs3,fs0,rmm
 898:	5256                	lw	tp,116(sp)
 89a:	4400                	lw	s0,8(s0)
 89c:	414d                	li	sp,19
 89e:	52474643          	fmadd.d	fa2,fa4,ft4,fa0,rmm
 8a2:	5000                	lw	s0,32(s0)
 8a4:	4456                	lw	s0,84(sp)
 8a6:	495f 5152 006e      	0x6e5152495f
 8ac:	4441                	li	s0,16
 8ae:	52495f43          	fmadd.d	ft10,fs2,ft4,fa0,unknown
 8b2:	6e51                	lui	t3,0x14
 8b4:	5200                	lw	s0,32(a2)
 8b6:	4144                	lw	s1,4(a0)
 8b8:	4154                	lw	a3,4(a0)
 8ba:	0052                	c.slli	zero,0x14
 8bc:	4d44                	lw	s1,28(a0)
 8be:	3141                	jal	53e <SysTick_Handler+0x7e>
 8c0:	435f 6168 6e6e      	0x6e6e6168435f
 8c6:	6c65                	lui	s8,0x19
 8c8:	52495f33          	0x52495f33
 8cc:	6e51                	lui	t3,0x14
 8ce:	6300                	flw	fs0,0(a4)
 8d0:	7461                	lui	s0,0xffff8
 8d2:	6f68                	flw	fa0,92(a4)
 8d4:	6564                	flw	fs1,76(a0)
 8d6:	6d00                	flw	fs0,24(a0)
 8d8:	6961                	lui	s2,0x18
 8da:	2d6e                	fld	fs10,216(sp)
 8dc:	7770                	flw	fa2,108(a4)
 8de:	2e6d                	jal	c98 <_data_lma+0x4c4>
 8e0:	50470063          	beq	a4,tp,de0 <_data_lma+0x60c>
 8e4:	4f49                	li	t5,18
 8e6:	465f 6f6c 7461      	0x74616f6c465f
 8ec:	5400                	lw	s0,40(s0)
 8ee:	4d49                	li	s10,18
 8f0:	5f31                	li	t5,-20
 8f2:	5055                	c.li	zero,-11
 8f4:	495f 5152 006e      	0x6e5152495f
 8fa:	6e616863          	bltu	sp,t1,fea <ch32v003fun.c.8affbd33+0x168>
 8fe:	656e                	flw	fa0,216(sp)
 900:	006c                	addi	a1,sp,12
 902:	4552                	lw	a0,20(sp)
 904:	56524553          	0x56524553
 908:	4445                	li	s0,17
 90a:	0038                	addi	a4,sp,8
 90c:	4552                	lw	a0,20(sp)
 90e:	56524553          	0x56524553
 912:	4445                	li	s0,17
 914:	0039                	c.nop	14
 916:	5355                	li	t1,-11
 918:	5241                	li	tp,-16
 91a:	3154                	fld	fa3,160(a0)
 91c:	495f 5152 006e      	0x6e5152495f
 922:	4d44                	lw	s1,28(a0)
 924:	4141                	li	sp,16
 926:	5244                	lw	s1,36(a2)
 928:	4300                	lw	s0,0(a4)
 92a:	3348                	fld	fa0,160(a4)
 92c:	00525643          	fmadd.s	fa2,ft4,ft5,ft0,unknown
 930:	6f4e                	flw	ft10,208(sp)
 932:	4d6e                	lw	s10,216(sp)
 934:	7361                	lui	t1,0xffff8
 936:	6c62616b          	0x6c62616b
 93a:	4965                	li	s2,25
 93c:	746e                	flw	fs0,248(sp)
 93e:	495f 5152 006e      	0x6e5152495f
 944:	4954                	lw	a3,20(a0)
 946:	314d                	jal	5e8 <SysTick_Handler+0x128>
 948:	435f 5f43 5249      	0x52495f43435f
 94e:	6e51                	lui	t3,0x14
 950:	5400                	lw	s0,40(s0)
 952:	4d49                	li	s10,18
 954:	5f31                	li	t5,-20
 956:	5254                	lw	a3,36(a2)
 958:	4f435f47          	fmsub.q	ft10,ft6,fs4,fs1,unknown
 95c:	5f4d                	li	t5,-13
 95e:	5249                	li	tp,-14
 960:	6e51                	lui	t3,0x14
 962:	4900                	lw	s0,16(a0)
 964:	4332                	lw	t1,12(sp)
 966:	5f31                	li	t5,-20
 968:	5245                	li	tp,-15
 96a:	495f 5152 006e      	0x6e5152495f
 970:	4d44                	lw	s1,28(a0)
 972:	4941                	li	s2,16
 974:	544e                	lw	s0,240(sp)
 976:	4e45                	li	t3,17
 978:	0052                	c.slli	zero,0x14
 97a:	6974                	flw	fa3,84(a0)
 97c:	656d                	lui	a0,0x1b
 97e:	6d72                	flw	fs10,28(sp)
 980:	7061                	c.lui	zero,0xffff8
 982:	745f 7079 6465      	0x64657079745f
 988:	6665                	lui	a2,0x19
 98a:	5400                	lw	s0,40(s0)
 98c:	4d49                	li	s10,18
 98e:	5f32                	lw	t5,44(sp)
 990:	5249                	li	tp,-14
 992:	6e51                	lui	t3,0x14
 994:	7000                	flw	fs0,32(s0)
 996:	0074726f          	jal	tp,4819c <wiring.c.7604182b+0x457a3>
 99a:	5249                	li	tp,-14
 99c:	5245                	li	tp,-15
 99e:	5200                	lw	s0,32(a2)
 9a0:	31525153          	0x31525153
 9a4:	5200                	lw	s0,32(a2)
 9a6:	32525153          	0x32525153
 9aa:	5200                	lw	s0,32(a2)
 9ac:	33525153          	0x33525153
 9b0:	4700                	lw	s0,8(a4)
 9b2:	4950                	lw	a2,20(a0)
 9b4:	57505f4f          	fnmadd.q	ft10,ft0,fs5,fa0,unknown
 9b8:	004d                	c.nop	19
 9ba:	6544                	flw	fs1,12(a0)
 9bc:	616c                	flw	fa1,68(a0)
 9be:	0079                	c.nop	30
 9c0:	4552                	lw	a0,20(sp)
 9c2:	56524553          	0x56524553
 9c6:	4445                	li	s0,17
 9c8:	3031                	jal	1d4 <main+0x110>
 9ca:	5200                	lw	s0,32(a2)
 9cc:	5345                	li	t1,-15
 9ce:	5245                	li	tp,-15
 9d0:	4556                	lw	a0,84(sp)
 9d2:	3144                	fld	fs1,160(a0)
 9d4:	0031                	c.nop	12
 9d6:	4552                	lw	a0,20(sp)
 9d8:	56524553          	0x56524553
 9dc:	4445                	li	s0,17
 9de:	3231                	jal	2ea <main+0x226>
 9e0:	5200                	lw	s0,32(a2)
 9e2:	5345                	li	t1,-15
 9e4:	5245                	li	tp,-15
 9e6:	4556                	lw	a0,84(sp)
 9e8:	3144                	fld	fs1,160(a0)
 9ea:	45520033          	0x45520033
 9ee:	56524553          	0x56524553
 9f2:	4445                	li	s0,17
 9f4:	3431                	jal	400 <main+0x33c>
 9f6:	5200                	lw	s0,32(a2)
 9f8:	5345                	li	t1,-15
 9fa:	5245                	li	tp,-15
 9fc:	4556                	lw	a0,84(sp)
 9fe:	3144                	fld	fs1,160(a0)
 a00:	0035                	c.nop	13
 a02:	4c44                	lw	s1,28(s0)
 a04:	5259                	li	tp,-10
 a06:	4700                	lw	s0,8(a4)
 a08:	4950                	lw	a2,20(a0)
 a0a:	6f4c5f4f          	fnmadd.q	ft10,fs8,fs4,fa3,unknown
 a0e:	50490077          	0x50490077
 a12:	5252                	lw	tp,52(sp)
 a14:	4400                	lw	s0,8(s0)
 a16:	414d                	li	sp,19
 a18:	5f31                	li	t5,-20
 a1a:	6e616843          	fmadd.q	fa6,ft2,ft6,fa3,unknown
 a1e:	656e                	flw	fa0,216(sp)
 a20:	356c                	fld	fa1,232(a0)
 a22:	495f 5152 006e      	0x6e5152495f
 a28:	5456                	lw	s0,116(sp)
 a2a:	4146                	lw	sp,80(sp)
 a2c:	4444                	lw	s1,12(s0)
 a2e:	0052                	c.slli	zero,0x14
 a30:	6e6e6f43          	fmadd.q	ft10,ft8,ft6,fa3,unknown
 a34:	6365                	lui	t1,0x19
 a36:	6974                	flw	fa3,84(a0)
 a38:	50006e6f          	jal	t3,6f38 <wiring.c.7604182b+0x453f>
 a3c:	31524643          	fmadd.s	fa2,ft4,fs5,ft6,rmm
 a40:	6d00                	flw	fs0,24(a0)
 a42:	6961                	lui	s2,0x18
 a44:	006e                	c.slli	zero,0x1b
 a46:	5049                	c.li	zero,-14
 a48:	52005253          	0x52005253
 a4c:	5345                	li	t1,-15
 a4e:	5245                	li	tp,-15
 a50:	4556                	lw	a0,84(sp)
 a52:	3744                	fld	fs1,168(a4)
 a54:	7400                	flw	fs0,40(s0)
 a56:	6d69                	lui	s10,0x1a
 a58:	7265                	lui	tp,0xffff9
 a5a:	4700                	lw	s0,8(a4)
 a5c:	4950                	lw	a2,20(a0)
 a5e:	69485f4f          	fnmadd.s	ft10,fa6,fs4,fa3,unknown
 a62:	69006867          	0x69006867
 a66:	706e                	flw	ft0,248(sp)
 a68:	7475                	lui	s0,0xffffd
 a6a:	7000                	flw	fs0,32(s0)
 a6c:	6e69                	lui	t3,0x1a
 a6e:	6f4d                	lui	t5,0x13
 a70:	6564                	flw	fs1,76(a0)
 a72:	4f5f 6f5f 6570      	0x65706f5f4f5f
 a78:	446e                	lw	s0,216(sp)
 a7a:	6172                	flw	ft2,28(sp)
 a7c:	6e69                	lui	t3,0x1a
 a7e:	4100                	lw	s0,0(a0)
 a80:	414e                	lw	sp,208(sp)
 a82:	4f4c                	lw	a1,28(a4)
 a84:	706e6947          	fmsub.s	fs2,ft8,ft6,fa4,unknown
 a88:	7475                	lui	s0,0xffffd
 a8a:	69640073          	0x69640073
 a8e:	61746967          	0x61746967
 a92:	576c                	lw	a1,108(a4)
 a94:	6972                	flw	fs2,28(sp)
 a96:	6574                	flw	fa3,76(a0)
 a98:	7700                	flw	fs0,40(a4)
 a9a:	7269                	lui	tp,0xffffa
 a9c:	6e69                	lui	t3,0x1a
 a9e:	00632e67          	0x632e67
 aa2:	4f495047          	fmsub.q	ft0,fs2,fs4,fs1,unknown
 aa6:	6970                	flw	fa2,84(a0)
 aa8:	736e                	flw	ft6,248(sp)
 aaa:	4100                	lw	s0,0(a0)
 aac:	335f7473          	csrrci	s0,mhpmevent21,30
 ab0:	6d007963          	bgeu	zero,a6,1182 <ch32v003fun.c.8affbd33+0x300>
 ab4:	0065646f          	jal	s0,56aba <wiring.c.7604182b+0x540c1>
 ab8:	6941                	lui	s2,0x10
 aba:	346e                	fld	fs0,248(sp)
 abc:	445f 0033 6970      	0x69700033445f
 ac2:	5f6e                	lw	t5,248(sp)
 ac4:	3241                	jal	444 <handle_reset+0x4>
 ac6:	7000                	flw	fs0,32(s0)
 ac8:	4574726f          	jal	tp,4871e <wiring.c.7604182b+0x45d25>
 acc:	616e                	flw	ft2,216(sp)
 ace:	6c62                	flw	fs8,24(sp)
 ad0:	0065                	c.nop	25
 ad2:	7341                	lui	t1,0xffff0
 ad4:	5f74                	lw	a3,124(a4)
 ad6:	3432                	fld	fs0,296(sp)
 ad8:	6331                	lui	t1,0xc
 ada:	5f79                	li	t5,-2
 adc:	6564                	flw	fs1,76(a0)
 ade:	6166                	flw	ft2,88(sp)
 ae0:	6c75                	lui	s8,0x1d
 ae2:	0074                	addi	a3,sp,12
 ae4:	4f495047          	fmsub.q	ft0,fs2,fs4,fs1,unknown
 ae8:	6970                	flw	fa2,84(a0)
 aea:	536e                	lw	t1,248(sp)
 aec:	6174                	flw	fa3,68(a0)
 aee:	6574                	flw	fa3,76(a0)
 af0:	4100                	lw	s0,0(a0)
 af2:	6e69                	lui	t3,0x1a
 af4:	5f31                	li	t5,-20
 af6:	3141                	jal	776 <SysTick_Handler+0x2b6>
 af8:	7200                	flw	fs0,32(a2)
 afa:	7365                	lui	t1,0xffff9
 afc:	6c75                	lui	s8,0x1d
 afe:	0074                	addi	a3,sp,12
 b00:	6970                	flw	fa2,84(a0)
 b02:	536e                	lw	t1,248(sp)
 b04:	6174                	flw	fa3,68(a0)
 b06:	6574                	flw	fa3,76(a0)
 b08:	6e5f 636f 6168      	0x6168636f6e5f
 b0e:	676e                	flw	fa4,216(sp)
 b10:	0065                	c.nop	25
 b12:	6970                	flw	fa2,84(a0)
 b14:	5f6e                	lw	t5,248(sp)
 b16:	70003043          	fmadd.s	ft0,ft0,ft0,fa4,rup
 b1a:	6e69                	lui	t3,0x1a
 b1c:	435f 0031 6970      	0x69700031435f
 b22:	5f6e                	lw	t5,248(sp)
 b24:	70003243          	fmadd.s	ft4,ft0,ft0,fa4,rup
 b28:	6e69                	lui	t3,0x1a
 b2a:	435f 0033 6970      	0x69700033435f
 b30:	5f6e                	lw	t5,248(sp)
 b32:	70003443          	fmadd.s	fs0,ft0,ft0,fa4,rup
 b36:	6e69                	lui	t3,0x1a
 b38:	435f 0035 6970      	0x69700035435f
 b3e:	5f6e                	lw	t5,248(sp)
 b40:	70003643          	fmadd.s	fa2,ft0,ft0,fa4,rup
 b44:	6e69                	lui	t3,0x1a
 b46:	435f 0037 7341      	0x73410037435f
 b4c:	5f74                	lw	a3,124(a4)
 b4e:	3735                	jal	a7a <_data_lma+0x2a6>
 b50:	41007963          	bgeu	zero,a6,f62 <ch32v003fun.c.8affbd33+0xe0>
 b54:	315f7473          	csrrci	s0,0x315,30
 b58:	6335                	lui	t1,0xd
 b5a:	0079                	c.nop	30
 b5c:	6970                	flw	fa2,84(a0)
 b5e:	4d6e                	lw	s10,216(sp)
 b60:	5f65646f          	jal	s0,57156 <wiring.c.7604182b+0x5475d>
 b64:	75705f4f          	0x75705f4f
 b68:	75506873          	csrrsi	a6,0x755,0
 b6c:	6c6c                	flw	fa1,92(s0)
 b6e:	4100                	lw	s0,0(a0)
 b70:	4344                	lw	s1,4(a4)
 b72:	50746573          	csrrsi	a0,0x507,8
 b76:	7265776f          	jal	a4,5829c <wiring.c.7604182b+0x558a3>
 b7a:	7000                	flw	fs0,32(s0)
 b7c:	6e69                	lui	t3,0x1a
 b7e:	445f 0030 6970      	0x69700030445f
 b84:	5f6e                	lw	t5,248(sp)
 b86:	3144                	fld	fs1,160(a0)
 b88:	7000                	flw	fs0,32(s0)
 b8a:	6e69                	lui	t3,0x1a
 b8c:	445f 0033 6970      	0x69700033445f
 b92:	5f6e                	lw	t5,248(sp)
 b94:	3444                	fld	fs1,168(s0)
 b96:	7000                	flw	fs0,32(s0)
 b98:	6e69                	lui	t3,0x1a
 b9a:	445f 0035 6970      	0x69700035445f
 ba0:	5f6e                	lw	t5,248(sp)
 ba2:	3644                	fld	fs1,168(a2)
 ba4:	7000                	flw	fs0,32(s0)
 ba6:	6e69                	lui	t3,0x1a
 ba8:	445f 0037 7341      	0x73410037445f
 bae:	5f74                	lw	a3,124(a4)
 bb0:	79633033          	0x79633033
 bb4:	7000                	flw	fs0,32(s0)
 bb6:	6e69                	lui	t3,0x1a
 bb8:	6f4d                	lui	t5,0x13
 bba:	6564                	flw	fs1,76(a0)
 bbc:	495f 665f 6f6c      	0x6f6c665f495f
 bc2:	7461                	lui	s0,0xffff8
 bc4:	6e69                	lui	t3,0x1a
 bc6:	6e610067          	jr	1766(sp)
 bca:	6c61                	lui	s8,0x18
 bcc:	6552676f          	jal	a4,27a20 <wiring.c.7604182b+0x25027>
 bd0:	6461                	lui	s0,0x18
 bd2:	6700                	flw	fs0,8(a4)
 bd4:	7465                	lui	s0,0xffff9
 bd6:	6f50                	flw	fa2,28(a4)
 bd8:	7472                	flw	fs0,60(sp)
 bda:	7000                	flw	fs0,32(s0)
 bdc:	6e69                	lui	t3,0x1a
 bde:	74617453          	0x74617453
 be2:	5f65                	li	t5,-7
 be4:	6f6c                	flw	fa1,92(a4)
 be6:	44410077          	0x44410077
 bea:	6c616343          	0x6c616343
 bee:	6269                	lui	tp,0x1a
 bf0:	6172                	flw	ft2,28(sp)
 bf2:	6574                	flw	fa3,76(a0)
 bf4:	4100                	lw	s0,0(a0)
 bf6:	6e69                	lui	t3,0x1a
 bf8:	7256                	flw	ft4,116(sp)
 bfa:	6665                	lui	a2,0x19
 bfc:	7000                	flw	fs0,32(s0)
 bfe:	6e69                	lui	t3,0x1a
 c00:	415f 0031 6941      	0x69410031415f
 c06:	566e                	lw	a2,248(sp)
 c08:	006c6163          	bltu	s8,t1,c0a <_data_lma+0x436>
 c0c:	6941                	lui	s2,0x10
 c0e:	336e                	fld	ft6,248(sp)
 c10:	445f 0032 4e41      	0x4e410032445f
 c16:	4c41                	li	s8,16
 c18:	6173474f          	fnmadd.s	fa4,ft6,fs7,fa2,rmm
 c1c:	706d                	c.lui	zero,0xffffb
 c1e:	656c                	flw	fa1,76(a0)
 c20:	6974                	flw	fa3,84(a0)
 c22:	656d                	lui	a0,0x1b
 c24:	5f5f0073          	0x5f5f0073
 c28:	6e69                	lui	t3,0x1a
 c2a:	3874                	fld	fa3,240(s0)
 c2c:	745f 7000 6e69      	0x6e697000745f
 c32:	6f4d                	lui	t5,0x13
 c34:	6564                	flw	fs1,76(a0)
 c36:	495f 615f 616e      	0x616e615f495f
 c3c:	6f6c                	flw	fa1,92(a4)
 c3e:	50470067          	jr	1284(a4) # 1a504 <wiring.c.7604182b+0x17b0b>
 c42:	4f49                	li	t5,18
 c44:	0078                	addi	a4,sp,12
 c46:	6941                	lui	s2,0x10
 c48:	306e                	fld	ft0,248(sp)
 c4a:	415f 0032 6970      	0x69700032415f
 c50:	4d6e                	lw	s10,216(sp)
 c52:	5f65646f          	jal	s0,57248 <wiring.c.7604182b+0x5484f>
 c56:	75705f4f          	0x75705f4f
 c5a:	75506873          	csrrsi	a6,0x755,0
 c5e:	6c6c                	flw	fa1,92(s0)
 c60:	754d                	lui	a0,0xffff3
 c62:	0078                	addi	a4,sp,12
 c64:	4441                	li	s0,16
 c66:	74657343          	0x74657343
 c6a:	706d6153          	0x706d6153
 c6e:	656c                	flw	fa1,76(a0)
 c70:	6974                	flw	fa3,84(a0)
 c72:	656d                	lui	a0,0x1b
 c74:	7000                	flw	fs0,32(s0)
 c76:	5f74726f          	jal	tp,48a6c <wiring.c.7604182b+0x46073>
 c7a:	0041                	c.nop	16
 c7c:	6f70                	flw	fa2,92(a4)
 c7e:	7472                	flw	fs0,60(sp)
 c80:	435f 7000 726f      	0x726f7000435f
 c86:	5f74                	lw	a3,124(a4)
 c88:	0044                	addi	s1,sp,4
 c8a:	6964                	flw	fs1,84(a0)
 c8c:	61746967          	0x61746967
 c90:	526c                	lw	a1,100(a2)
 c92:	6165                	addi	sp,sp,112
 c94:	0064                	addi	s1,sp,12
 c96:	6941                	lui	s2,0x10
 c98:	356e                	fld	fa0,248(sp)
 c9a:	445f 0035 6e65      	0x6e650035445f
 ca0:	6261                	lui	tp,0x18
 ca2:	656c                	flw	fa1,76(a0)
 ca4:	7000                	flw	fs0,32(s0)
 ca6:	6e69                	lui	t3,0x1a
 ca8:	6f4d                	lui	t5,0x13
 caa:	6564                	flw	fs1,76(a0)
 cac:	4f5f 6f5f 6570      	0x65706f5f4f5f
 cb2:	446e                	lw	s0,216(sp)
 cb4:	6172                	flw	ft2,28(sp)
 cb6:	6e69                	lui	t3,0x1a
 cb8:	754d                	lui	a0,0xffff3
 cba:	0078                	addi	a4,sp,12
 cbc:	6970                	flw	fa2,84(a0)
 cbe:	4d6e                	lw	s10,216(sp)
 cc0:	5f65646f          	jal	s0,572b6 <wiring.c.7604182b+0x548bd>
 cc4:	5f49                	li	t5,-14
 cc6:	7570                	flw	fa2,108(a0)
 cc8:	6c6c                	flw	fa1,92(s0)
 cca:	6f44                	flw	fs1,28(a4)
 ccc:	6d006e77          	0x6d006e77
 cd0:	4d65646f          	jal	s0,571a6 <wiring.c.7604182b+0x547ad>
 cd4:	7361                	lui	t1,0xffff8
 cd6:	4441006b          	0x4441006b
 cda:	696e6943          	fmadd.s	fs2,ft8,fs6,fa3,unknown
 cde:	0074                	addi	a3,sp,12
 ce0:	6970                	flw	fa2,84(a0)
 ce2:	4d6e                	lw	s10,216(sp)
 ce4:	5f65646f          	jal	s0,572da <wiring.c.7604182b+0x548e1>
 ce8:	5f49                	li	t5,-14
 cea:	7570                	flw	fa2,108(a0)
 cec:	6c6c                	flw	fa1,92(s0)
 cee:	7055                	c.lui	zero,0xffff5
 cf0:	4100                	lw	s0,0(a0)
 cf2:	375f7473          	csrrci	s0,0x375,30
 cf6:	00796333          	or	t1,s2,t2
 cfa:	6941                	lui	s2,0x10
 cfc:	376e                	fld	fa4,248(sp)
 cfe:	445f 0034 6950      	0x69500034445f
 d04:	4f6e                	lw	t5,216(sp)
 d06:	6666                	flw	fa2,88(sp)
 d08:	00746573          	csrrsi	a0,0x7,8
 d0c:	6970                	flw	fa2,84(a0)
 d0e:	536e                	lw	t1,248(sp)
 d10:	6174                	flw	fa3,68(a0)
 d12:	6574                	flw	fa3,76(a0)
 d14:	685f 6769 0068      	0x686769685f
 d1a:	7341                	lui	t1,0xffff0
 d1c:	5f74                	lw	a3,124(a4)
 d1e:	3334                	fld	fa3,96(a4)
 d20:	41007963          	bgeu	zero,a6,1132 <ch32v003fun.c.8affbd33+0x2b0>
 d24:	6e69                	lui	t3,0x1a
 d26:	5f32                	lw	t5,44(sp)
 d28:	70003443          	fmadd.s	fs0,ft0,ft0,fa4,rup
 d2c:	6e69                	lui	t3,0x1a
 d2e:	445f 0032 5047      	0x50470032445f
 d34:	4f49                	li	t5,18
 d36:	6970                	flw	fa2,84(a0)
 d38:	4d6e                	lw	s10,216(sp)
 d3a:	0065646f          	jal	s0,56d40 <wiring.c.7604182b+0x54347>
 d3e:	6970                	flw	fa2,84(a0)
 d40:	5f6e                	lw	t5,248(sp)
 d42:	6f6e                	flw	ft10,216(sp)
 d44:	656e                	flw	fa0,216(sp)
 d46:	7400                	flw	fs0,40(s0)
 d48:	7261                	lui	tp,0xffff8
 d4a:	5f746567          	0x5f746567
 d4e:	6970                	flw	fa2,84(a0)
 d50:	5f6e                	lw	t5,248(sp)
 d52:	74617473          	csrrci	s0,0x746,2
 d56:	0065                	c.nop	25
 d58:	7341                	lui	t1,0xffff0
 d5a:	5f74                	lw	a3,124(a4)
 d5c:	6339                	lui	t1,0xe
 d5e:	0079                	c.nop	30
 d60:	4f495047          	fmsub.q	ft0,fs2,fs4,fs1,unknown
 d64:	6f70                	flw	fa2,92(a4)
 d66:	7472                	flw	fs0,60(sp)
 d68:	6f700073          	0x6f700073
 d6c:	7472                	flw	fs0,60(sp)
 d6e:	6e5f 6e6f 0065      	0x656e6f6e5f
 d74:	6941                	lui	s2,0x10
 d76:	366e                	fld	fa2,248(sp)
 d78:	445f 0036 2e2e      	0x2e2e0036445f
 d7e:	2f2e2e2f          	0x2f2e2e2f
 d82:	2e2e                	fld	ft8,200(sp)
 d84:	2f2e2e2f          	0x2f2e2e2f
 d88:	2e2e                	fld	ft8,200(sp)
 d8a:	62696c2f          	0x62696c2f
 d8e:	2f636367          	0x2f636367
 d92:	666e6f63          	bltu	t3,t1,1410 <ch32v003fun.c.8affbd33+0x58e>
 d96:	6769                	lui	a4,0x1a
 d98:	7369722f          	0x7369722f
 d9c:	6d2f7663          	bgeu	t5,s2,1468 <ch32v003fun.c.8affbd33+0x5e6>
 da0:	6c75                	lui	s8,0x1d
 da2:	6964                	flw	fs1,84(a0)
 da4:	00532e33          	slt	t3,t1,t0
 da8:	6975622f          	0x6975622f
 dac:	646c                	flw	fa1,76(s0)
 dae:	6363672f          	0x6363672f
 db2:	722d                	lui	tp,0xfffeb
 db4:	7369                	lui	t1,0xffffa
 db6:	34367663          	bgeu	a2,gp,1102 <ch32v003fun.c.8affbd33+0x280>
 dba:	752d                	lui	a0,0xfffeb
 dbc:	6b6e                	flw	fs6,216(sp)
 dbe:	6f6e                	flw	ft10,216(sp)
 dc0:	652d6e77          	0x652d6e77
 dc4:	666c                	flw	fa1,76(a2)
 dc6:	4c2d                	li	s8,11
 dc8:	6569636b          	0x6569636b
 dcc:	2f46                	fld	ft10,80(sp)
 dce:	2d636367          	0x2d636367
 dd2:	6972                	flw	fs2,28(sp)
 dd4:	36766373          	csrrsi	t1,0x367,12
 dd8:	2d34                	fld	fa3,88(a0)
 dda:	6e75                	lui	t3,0x1d
 ddc:	776f6e6b          	0x776f6e6b
 de0:	2d6e                	fld	fs10,216(sp)
 de2:	6c65                	lui	s8,0x19
 de4:	2d66                	fld	fs10,88(sp)
 de6:	3031                	jal	5f2 <SysTick_Handler+0x132>
 de8:	322e                	fld	ft4,232(sp)
 dea:	302e                	fld	ft0,232(sp)
 dec:	6975622f          	0x6975622f
 df0:	646c                	flw	fa1,76(s0)
 df2:	7369722f          	0x7369722f
 df6:	34367663          	bgeu	a2,gp,1142 <ch32v003fun.c.8affbd33+0x2c0>
 dfa:	752d                	lui	a0,0xfffeb
 dfc:	6b6e                	flw	fs6,216(sp)
 dfe:	6f6e                	flw	ft10,216(sp)
 e00:	652d6e77          	0x652d6e77
 e04:	666c                	flw	fa1,76(a2)
 e06:	3376722f          	0x3376722f
 e0a:	6532                	flw	fa0,12(sp)
 e0c:	706c692f          	0x706c692f
 e10:	2f653233          	0x2f653233
 e14:	696c                	flw	fa1,84(a0)
 e16:	6762                	flw	fa4,24(sp)
 e18:	47006363          	bltu	zero,a6,127e <ch32v003fun.c.8affbd33+0x3fc>
 e1c:	554e                	lw	a0,240(sp)
 e1e:	4120                	lw	s0,64(a0)
 e20:	2e322053          	0x2e322053
 e24:	312e3533          	0x312e3533
	...

Disassembly of section .comment:

00000000 <.comment>:
	asm volatile( "\n\
   0:	3a434347          	fmsub.d	ft6,ft6,ft4,ft7,rmm
   4:	2820                	fld	fs0,80(s0)
   6:	2029                	jal	10 <InterruptVector+0x10>
   8:	3031                	jal	fffff814 <__global_pointer$+0xdfffeed4>
   a:	322e                	fld	ft4,232(sp)
   c:	302e                	fld	ft0,232(sp)
	...

Disassembly of section .riscv.attributes:

00000000 <.riscv.attributes>:
   0:	2441                	jal	280 <main+0x1bc>
   2:	0000                	unimp
   4:	7200                	flw	fs0,32(a2)
   6:	7369                	lui	t1,0xffffa
   8:	01007663          	bgeu	zero,a6,14 <InterruptVector+0x14>
   c:	001a                	c.slli	zero,0x6
   e:	0000                	unimp
  10:	0404                	addi	s1,sp,512
  12:	7205                	lui	tp,0xfffe1
  14:	3376                	fld	ft6,376(sp)
  16:	6532                	flw	fa0,12(sp)
  18:	7031                	c.lui	zero,0xfffec
  1a:	5f39                	li	t5,-18
  1c:	30703263          	0x30703263
  20:	0800                	addi	s0,sp,16
  22:	0a01                	addi	s4,s4,0
  24:	0b              	Address 0x0000000000000024 is out of bounds.


Disassembly of section .debug_frame:

00000000 <.debug_frame>:
   0:	000c                	0xc
   2:	0000                	unimp
   4:	ffff                	0xffff
   6:	ffff                	0xffff
   8:	7c010003          	lb	zero,1984(sp)
   c:	0d01                	addi	s10,s10,0
   e:	0002                	c.slli64	zero
  10:	000c                	0xc
	...
  1e:	0000                	unimp
  20:	0024                	addi	s1,sp,8
	...
  2e:	0000                	unimp
  30:	0e42                	slli	t3,t3,0x10
  32:	4614                	lw	a3,8(a2)
  34:	0389                	addi	t2,t2,2
  36:	0181                	addi	gp,gp,0
  38:	0288                	addi	a0,sp,320
  3a:	0002                	c.slli64	zero
  3c:	c10a                	sw	sp,128(sp)
  3e:	c842                	sw	a6,16(sp)
  40:	c942                	sw	a6,144(sp)
  42:	0e42                	slli	t3,t3,0x10
  44:	4200                	lw	s0,0(a2)
  46:	0024000b          	0x24000b
	...
  56:	0000                	unimp
  58:	0e42                	slli	t3,t3,0x10
  5a:	4620                	lw	s0,72(a2)
  5c:	0181                	addi	gp,gp,0
  5e:	0288                	addi	a0,sp,320
  60:	0389                	addi	t2,t2,2
  62:	0002                	c.slli64	zero
  64:	c10a                	sw	sp,128(sp)
  66:	c842                	sw	a6,16(sp)
  68:	c942                	sw	a6,144(sp)
  6a:	0e42                	slli	t3,t3,0x10
  6c:	4200                	lw	s0,0(a2)
  6e:	0018000b          	0x18000b
  72:	0000                	unimp
  74:	0000                	unimp
  76:	0000                	unimp
  78:	00c4                	addi	s1,sp,68
  7a:	0000                	unimp
  7c:	037c                	addi	a5,sp,396
  7e:	0000                	unimp
  80:	0e42                	slli	t3,t3,0x10
  82:	4610                	lw	a2,8(a2)
  84:	0181                	addi	gp,gp,0
  86:	0288                	addi	a0,sp,320
  88:	0389                	addi	t2,t2,2
  8a:	0000                	unimp
  8c:	0020                	addi	s0,sp,8
	...
  9a:	0000                	unimp
  9c:	0e42                	slli	t3,t3,0x10
  9e:	4618                	lw	a4,8(a2)
  a0:	0288                	addi	a0,sp,320
  a2:	0389                	addi	t2,t2,2
  a4:	0181                	addi	gp,gp,0
  a6:	0002                	c.slli64	zero
  a8:	44c1                	li	s1,16
  aa:	42c8                	lw	a0,4(a3)
  ac:	42c9                	li	t0,18
  ae:	000e                	c.slli	zero,0x3
  b0:	001c                	0x1c
	...
  be:	0000                	unimp
  c0:	0e42                	slli	t3,t3,0x10
  c2:	440c                	lw	a1,8(s0)
int main() {
  c4:	0288                	addi	a0,sp,320
  c6:	0181                	addi	gp,gp,0
  c8:	c140                	sw	s0,4(a0)
  ca:	c844                	sw	s1,20(s0)
	RCC->CFGR0 = RCC_HPRE_DIV1 | RCC_PLLSRC_HSI_Mul2;      // PLLCLK = HSI * 2 = 48 MHz; HCLK = SYSCLK = APB1
  cc:	0e42                	slli	t3,t3,0x10
  ce:	0000                	unimp
	RCC->CTLR  = RCC_HSION | RCC_PLLON | ((HSITRIM) << 3); // Use HSI, but enable PLL.
  d0:	000c                	0xc
  d2:	0000                	unimp
	RCC->CFGR0 = RCC_HPRE_DIV1 | RCC_PLLSRC_HSI_Mul2;      // PLLCLK = HSI * 2 = 48 MHz; HCLK = SYSCLK = APB1
  d4:	0000                	unimp
  d6:	0000                	unimp
	RCC->CTLR  = RCC_HSION | RCC_PLLON | ((HSITRIM) << 3); // Use HSI, but enable PLL.
  d8:	0440                	addi	s0,sp,516
  da:	0000                	unimp
  dc:	007e                	c.slli	zero,0x1f
	FLASH->ACTLR = FLASH_ACTLR_LATENCY_1;                  // 1 Cycle Latency
  de:	0000                	unimp
  e0:	000c                	0xc
  e2:	0000                	unimp
  e4:	0000                	unimp
	RCC->INTR  = 0x009F0000;                               // Clear PLL, CSSC, HSE, HSI and LSI ready flags.
  e6:	0000                	unimp
  e8:	04be                	slli	s1,s1,0xf
  ea:	0000                	unimp
	while((RCC->CTLR & RCC_PLLRDY) == 0);                                      // Wait till PLL is ready
  ec:	0002                	c.slli64	zero
  ee:	0000                	unimp
  f0:	000c                	0xc
	...
	RCC->CFGR0 = ( RCC->CFGR0 & ((uint32_t)~(RCC_SW))) | (uint32_t)RCC_SW_PLL; // Select PLL as system clock source
  fe:	0000                	unimp
 100:	0024                	addi	s1,sp,8
	...
	while ((RCC->CFGR0 & (uint32_t)RCC_SWS) != (uint32_t)0x08);                // Wait till PLL is used as system clock source
 10e:	0000                	unimp
 110:	0e44                	addi	s1,sp,788
	RCC->APB2PCENR |=	RCC_APB2Periph_GPIOA | RCC_APB2Periph_GPIOC |
 112:	4a6c                	lw	a1,84(a2)
 114:	0889                	addi	a7,a7,2
 116:	0681                	addi	a3,a3,0
 118:	0788                	addi	a0,sp,960
 11a:	0a40                	addi	s0,sp,276
 11c:	42c1                	li	t0,16
	RCC->APB1PCENR |=	RCC_APB1Periph_TIM2;
 11e:	44c8                	lw	a0,12(s1)
	RCC->APB2PRSTR |=  RCC_APB2Periph_TIM1;
 120:	44c9                	li	s1,18
 122:	000e                	c.slli	zero,0x3
	RCC->APB2PRSTR &= ~RCC_APB2Periph_TIM1;
 124:	0b42                	slli	s6,s6,0x10
	RCC->APB1PCENR |=	RCC_APB1Periph_TIM2;
 126:	0000                	unimp
 128:	000c                	0xc
	...
	RCC->APB2PRSTR |=  RCC_APB2Periph_TIM1;
 136:	0000                	unimp
	RCC->APB2PRSTR &= ~RCC_APB2Periph_TIM1;
 138:	000c                	0xc
	...
	RCC->APB1PRSTR |=  RCC_APB1Periph_TIM2;
 146:	0000                	unimp
	TIM1->PSC = 0x0000;
 148:	000c                	0xc
	...
	RCC->APB1PRSTR &= ~RCC_APB1Periph_TIM2;
 156:	0000                	unimp
	TIM1->CCER |= TIM_CC4E | TIM_CC4P;	// Enable T1CH4 output, positive pol
 158:	000c                	0xc
	...
	GPIOC->CFGLR &= ~(0xf<<(4*GPIO_PinSource4));
 166:	0000                	unimp
	GPIOC->CFGLR |= (GPIO_Speed_10MHz | GPIO_CNF_OUT_OD_AF)<<(4*GPIO_PinSource4);
 168:	000c                	0xc
	...
	GPIOC->CFGLR |= (GPIO_Speed_10MHz | GPIO_CNF_OUT_OD_AF)<<(4*GPIO_PinSource2);
 176:	0000                	unimp
 178:	0020                	addi	s0,sp,8
	...
	GPIOA->CFGLR |= (GPIO_Speed_10MHz | GPIO_CNF_OUT_OD_AF)<<(4*GPIO_PinSource1);
 186:	0000                	unimp
 188:	0e42                	slli	t3,t3,0x10
 18a:	440c                	lw	a1,8(s0)
 18c:	0288                	addi	a0,sp,320
	GPIOC->CFGLR &= ~(0xf<<(4*GPIO_PinSource2));
 18e:	0181                	addi	gp,gp,0
 190:	0a40                	addi	s0,sp,276
 192:	44c1                	li	s1,16
 194:	42c8                	lw	a0,4(a3)
	GPIOC->CFGLR |= (GPIO_Speed_10MHz | GPIO_CNF_OUT_OD_AF)<<(4*GPIO_PinSource2);
 196:	000e                	c.slli	zero,0x3
 198:	0b42                	slli	s6,s6,0x10
 19a:	0000                	unimp
	GPIOC->CFGLR &= ~(0xf<<(4*GPIO_PinSource1));
 19c:	0020                	addi	s0,sp,8
	...
	GPIOC->CFGLR |= (GPIO_Speed_10MHz | GPIO_CNF_OUT_OD_AF)<<(4*GPIO_PinSource1);
 1aa:	0000                	unimp
 1ac:	0e42                	slli	t3,t3,0x10
 1ae:	440c                	lw	a1,8(s0)
	AFIO->PCFR1 |= AFIO_PCFR1_TIM2_REMAP_PARTIALREMAP1;
 1b0:	0288                	addi	a0,sp,320
 1b2:	0389                	addi	t2,t2,2
 1b4:	8146                	mv	sp,a7
 1b6:	4001                	c.li	zero,0
	TIM1->PSC = 0x0000;
 1b8:	42c1                	li	t0,16
 1ba:	42c8                	lw	a0,4(a3)
	TIM2->PSC = 0x0000;
 1bc:	42c9                	li	t0,18
 1be:	000e                	c.slli	zero,0x3
 1c0:	000c                	0xc
	...
	TIM1->SWEVGR |= TIM_UG;
 1ce:	0000                	unimp
 1d0:	000c                	0xc
	...
	TIM2->SWEVGR |= TIM_UG;
 1de:	0000                	unimp
 1e0:	000c                	0xc
	...
	TIM1->CTLR1 |= TIM_ARPE;
 1ee:	0000                	unimp
 1f0:	000c                	0xc
	...
	TIM2->CTLR1 |= TIM_ARPE;
 1fe:	0000                	unimp
 200:	0020                	addi	s0,sp,8
	...
	TIM1->CH2CVR = 16; //T1CH2/PA1/pin1
 20e:	0000                	unimp
 210:	0e42                	slli	t3,t3,0x10
	TIM1->CH4CVR = 16; //T1CH4/PC4/pin7
 212:	440c                	lw	a1,8(s0)
 214:	0288                	addi	a0,sp,320
	TIM2->CH2CVR = 16; //T2CH2/PC2/pin6*
 216:	8948                	0x8948
	TIM2->CH4CVR = 16; //T2CH4/PC1/pin5*
 218:	40018103          	lb	sp,1024(gp) # 20000d40 <__global_pointer$+0x400>
	TIM1->CCER |= TIM_CC2E | TIM_CC2P;	// Enable T1CH2 output, positive pol
 21c:	44c1                	li	s1,16
 21e:	42c8                	lw	a0,4(a3)
 220:	42c9                	li	t0,18
 222:	000e                	c.slli	zero,0x3
 224:	0024                	addi	s1,sp,8
	...
	TIM1->CCER |= TIM_CC4E | TIM_CC4P;	// Enable T1CH4 output, positive pol
 232:	0000                	unimp
 234:	0e44                	addi	s1,sp,788
 236:	08cc                	addi	a1,sp,84
 238:	8958                	0x8958
 23a:	88018103          	lb	sp,-1920(gp) # 200001c0 <_ebss+0x7c>
	TIM2->CCER |= TIM_CC2E | TIM_CC2P;	// Enable T2CH2 output, positive pol
 23e:	4002                	0x4002
 240:	c10a                	sw	sp,128(sp)
 242:	c846                	sw	a7,16(sp)
 244:	c944                	sw	s1,20(a0)
 246:	0e44                	addi	s1,sp,788
 248:	4200                	lw	s0,0(a2)
 24a:	0030000b          	0x30000b
	...
	TIM2->CCER |= TIM_CC4E | TIM_CC4P;	// Enable T2CH4 output, positive pol
 25a:	0000                	unimp
 25c:	0e42                	slli	t3,t3,0x10
 25e:	460c                	lw	a1,8(a2)
 260:	0181                	addi	gp,gp,0
	TIM1->CHCTLR1 |= TIM_OC2M_2 | TIM_OC2M_1;	// CH2 Mode is output, PWM1 (CC1S = 00, OC1M = 110)
 262:	0288                	addi	a0,sp,320
 264:	0389                	addi	t2,t2,2
 266:	0a000003          	lb	zero,160(zero) # a0 <__mulsi3>
 26a:	42c8                	lw	a0,4(a3)
 26c:	42c1                	li	t0,16
 26e:	42c9                	li	t0,18
 270:	000e                	c.slli	zero,0x3
 272:	0b40                	addi	s0,sp,404
 274:	c144                	sw	s1,4(a0)
 276:	c842                	sw	a6,16(sp)
	TIM1->CHCTLR2 |= TIM_OC4M_2 | TIM_OC4M_1;	// CH4 Mode is output, PWM1 (CC1S = 00, OC1M = 110)
 278:	c942                	sw	a6,144(sp)
 27a:	0e44                	addi	s1,sp,788
 27c:	0000                	unimp
 27e:	0000                	unimp
 280:	0020                	addi	s0,sp,8
	...
	TIM2->CHCTLR1 |= TIM_OC2M_2 | TIM_OC2M_1 | TIM_OC2PE;
 28e:	0000                	unimp
 290:	0e42                	slli	t3,t3,0x10
 292:	460c                	lw	a1,8(a2)
 294:	0181                	addi	gp,gp,0
 296:	0288                	addi	a0,sp,320
 298:	0389                	addi	t2,t2,2
 29a:	c140                	sw	s0,4(a0)
 29c:	c846                	sw	a7,16(sp)
 29e:	c942                	sw	a6,144(sp)
 2a0:	0e42                	slli	t3,t3,0x10
 2a2:	0000                	unimp
 2a4:	000c                	0xc
	...
	TIM2->CHCTLR2 |= TIM_OC4M_2 | TIM_OC4M_1 | TIM_OC4PE;
 2ae:	0000                	unimp
 2b0:	009c                	addi	a5,sp,64
 2b2:	0000                	unimp
 2b4:	000c                	0xc
	...
	TIM1->BDTR  |= TIM_MOE;	// Brake and deadband registers
 2c2:	0000                	unimp
 2c4:	0048                	addi	a0,sp,4
 2c6:	0000                	unimp
 2c8:	0000                	unimp
	TIM1->CTLR1 |= TIM_CEN;	// Enable TIM1
 2ca:	0000                	unimp
 2cc:	04c0                	addi	s0,sp,580
 2ce:	0000                	unimp
 2d0:	0308                	addi	a0,sp,384
 2d2:	0000                	unimp
 2d4:	0e44                	addi	s1,sp,788
 2d6:	4438                	lw	a4,72(s0)
 2d8:	8e480b8f          	0x8e480b8f
	TIM2->CTLR1 |= TIM_CEN;	// Enable TIM2
 2dc:	480a                	lw	a6,128(sp)
 2de:	098d                	addi	s3,s3,3
 2e0:	866c                	0x866c
 2e2:	8802                	jr	a6
 2e4:	8904                	0x8904
 2e6:	8b05                	andi	a4,a4,1
 2e8:	87018507          	0x87018507
	SysTick->CTLR = 0;
 2ec:	8c068a03          	lb	s4,-1856(a3)
 2f0:	0308                	addi	a0,sp,384
 2f2:	01dc                	addi	a5,sp,196
 2f4:	c50a                	sw	sp,136(sp)
 2f6:	c744                	sw	s1,12(a4)
 2f8:	c954                	sw	a3,20(a0)
	SysTick->CMP = (SYSTEM_CORE_CLOCK/SYSTICKHZ)-1;
 2fa:	c870                	sw	a2,84(s0)
 2fc:	c654                	sw	a3,12(a2)
 2fe:	4402                	lw	s0,0(sp)
 300:	44ca                	lw	s1,144(sp)
	SysTick->CNT = 0;
 302:	44cc44cb          	0x44cc44cb
	SysTick->CTLR = SYSTICK_CTLR_STE | SYSTICK_CTLR_STIE |
 306:	44cd                	li	s1,19
 308:	44ce                	lw	s1,208(sp)
	RCC->CFGR0 &= ~(0x1F<<11);
 30a:	000e44cf          	fnmadd.s	fs1,ft8,ft0,ft0,rmm
 30e:	0b44                	addi	s1,sp,404
