
main-sw.elf:     file format elf32-littleriscv


Disassembly of section .init:

00000000 <InterruptVector>:
void InterruptVectorDefault()  __attribute__((naked)) __attribute((section(".init")));


void InterruptVectorDefault()
{
	asm volatile( "\n\
   0:	3780006f          	j	378 <handle_reset>
   4:	0000                	unimp
   6:	0000                	unimp
   8:	03ea                	slli	t2,t2,0x1a
   a:	0000                	unimp
   c:	03ea                	slli	t2,t2,0x1a
	...
  2e:	0000                	unimp
  30:	03ec                	addi	a1,sp,460
  32:	0000                	unimp
  34:	0000                	unimp
  36:	0000                	unimp
  38:	03ea                	slli	t2,t2,0x1a
  3a:	0000                	unimp
  3c:	0000                	unimp
  3e:	0000                	unimp
  40:	03ea                	slli	t2,t2,0x1a
  42:	0000                	unimp
  44:	03ea                	slli	t2,t2,0x1a
  46:	0000                	unimp
  48:	03ea                	slli	t2,t2,0x1a
  4a:	0000                	unimp
  4c:	03ea                	slli	t2,t2,0x1a
  4e:	0000                	unimp
  50:	03ea                	slli	t2,t2,0x1a
  52:	0000                	unimp
  54:	03ea                	slli	t2,t2,0x1a
  56:	0000                	unimp
  58:	03ea                	slli	t2,t2,0x1a
  5a:	0000                	unimp
  5c:	03ea                	slli	t2,t2,0x1a
  5e:	0000                	unimp
  60:	03ea                	slli	t2,t2,0x1a
  62:	0000                	unimp
  64:	03ea                	slli	t2,t2,0x1a
  66:	0000                	unimp
  68:	03ea                	slli	t2,t2,0x1a
  6a:	0000                	unimp
  6c:	03ea                	slli	t2,t2,0x1a
  6e:	0000                	unimp
  70:	03ea                	slli	t2,t2,0x1a
  72:	0000                	unimp
  74:	03ea                	slli	t2,t2,0x1a
  76:	0000                	unimp
  78:	03ea                	slli	t2,t2,0x1a
  7a:	0000                	unimp
  7c:	03ea                	slli	t2,t2,0x1a
  7e:	0000                	unimp
  80:	03ea                	slli	t2,t2,0x1a
  82:	0000                	unimp
  84:	03ea                	slli	t2,t2,0x1a
  86:	0000                	unimp
  88:	03ea                	slli	t2,t2,0x1a
  8a:	0000                	unimp
  8c:	03ea                	slli	t2,t2,0x1a
  8e:	0000                	unimp
  90:	03ea                	slli	t2,t2,0x1a
  92:	0000                	unimp
  94:	03ea                	slli	t2,t2,0x1a
  96:	0000                	unimp
  98:	03ea                	slli	t2,t2,0x1a
  9a:	0000                	unimp
  9c:	0000                	unimp
	...

Disassembly of section .text:

000000a0 <__mulsi3>:
  a0:	00050613          	mv	a2,a0
  a4:	00000513          	li	a0,0
  a8:	0015f693          	andi	a3,a1,1
  ac:	00068463          	beqz	a3,b4 <__mulsi3+0x14>
  b0:	00c50533          	add	a0,a0,a2
  b4:	0015d593          	srli	a1,a1,0x1
  b8:	00161613          	slli	a2,a2,0x1
  bc:	fe0596e3          	bnez	a1,a8 <__mulsi3+0x8>
  c0:	00008067          	ret

000000c4 <digitalWrite>:
void digitalWrite(enum GPIOpins pin, uint8_t value) {
	// no checks given whether pin is currently being toggled by timer! your output trannys are in your hands! beware the magic smoke!
	GPIO_TypeDef * GPIOx;
	uint16_t PinOffset = 0;
	
	if (pin <= pin_A2) {
  c4:	4785                	li	a5,1
  c6:	02a7e163          	bltu	a5,a0,e8 <digitalWrite+0x24>
		GPIOx = GPIOA;
		PinOffset = (pin + 1);
  ca:	0505                	addi	a0,a0,1
  cc:	0542                	slli	a0,a0,0x10
		GPIOx = GPIOA;
  ce:	400117b7          	lui	a5,0x40011
		PinOffset = (pin + 1);
  d2:	8141                	srli	a0,a0,0x10
		GPIOx = GPIOA;
  d4:	80078793          	addi	a5,a5,-2048 # 40010800 <__global_pointer$+0x2000ff70>
	else {
		return;
	}

	if (value) {
		GPIOx-> BSHR |= 1 << PinOffset;
  d8:	4b94                	lw	a3,16(a5)
	if (value) {
  da:	c99d                	beqz	a1,110 <digitalWrite+0x4c>
	}
	else {
		GPIOx-> BSHR |= 1 << (16 + PinOffset);
  dc:	4705                	li	a4,1
  de:	00a71533          	sll	a0,a4,a0
  e2:	8d55                	or	a0,a0,a3
  e4:	cb88                	sw	a0,16(a5)
	}
}
  e6:	8082                	ret
	else if (pin <= pin_C7) {
  e8:	47a5                	li	a5,9
  ea:	00a7e863          	bltu	a5,a0,fa <digitalWrite+0x36>
		PinOffset = (pin - 2);
  ee:	1579                	addi	a0,a0,-2
  f0:	0542                	slli	a0,a0,0x10
  f2:	8141                	srli	a0,a0,0x10
		GPIOx = GPIOC;
  f4:	400117b7          	lui	a5,0x40011
  f8:	b7c5                	j	d8 <digitalWrite+0x14>
	else if (pin <= pin_D7) {
  fa:	47c5                	li	a5,17
  fc:	fea7e5e3          	bltu	a5,a0,e6 <digitalWrite+0x22>
		PinOffset = (pin - 10);
 100:	1559                	addi	a0,a0,-10
 102:	0542                	slli	a0,a0,0x10
		GPIOx = GPIOD;
 104:	400117b7          	lui	a5,0x40011
		PinOffset = (pin - 10);
 108:	8141                	srli	a0,a0,0x10
		GPIOx = GPIOD;
 10a:	40078793          	addi	a5,a5,1024 # 40011400 <__global_pointer$+0x20010b70>
 10e:	b7e9                	j	d8 <digitalWrite+0x14>
		GPIOx-> BSHR |= 1 << (16 + PinOffset);
 110:	0541                	addi	a0,a0,16
 112:	b7e9                	j	dc <digitalWrite+0x18>

00000114 <pinMode>:
	if (pin <= pin_A2) {
 114:	4785                	li	a5,1
 116:	04a7ee63          	bltu	a5,a0,172 <pinMode+0x5e>
		PinOffset *= (pin + 1);
 11a:	00150793          	addi	a5,a0,1
 11e:	078a                	slli	a5,a5,0x2
 120:	07c2                	slli	a5,a5,0x10
		GPIOx = GPIOA;
 122:	40011737          	lui	a4,0x40011
		PinOffset *= (pin + 1);
 126:	83c1                	srli	a5,a5,0x10
		GPIOx = GPIOA;
 128:	80070713          	addi	a4,a4,-2048 # 40010800 <__global_pointer$+0x2000ff70>
	GPIOx->CFGLR &= ~(0b1111<<PinOffset);							// zero the 4 configuration bits
 12c:	4310                	lw	a2,0(a4)
 12e:	46bd                	li	a3,15
 130:	00f696b3          	sll	a3,a3,a5
 134:	fff6c693          	not	a3,a3
 138:	8ef1                	and	a3,a3,a2
 13a:	c314                	sw	a3,0(a4)
	switch (mode) {
 13c:	200006b7          	lui	a3,0x20000
 140:	09868693          	addi	a3,a3,152 # 20000098 <CSWTCH.5>
 144:	96ae                	add	a3,a3,a1
 146:	0006c603          	lbu	a2,0(a3)
	GPIOx->CFGLR |= modeMask<<PinOffset;
 14a:	200006b7          	lui	a3,0x20000
 14e:	09068693          	addi	a3,a3,144 # 20000090 <CSWTCH.6>
 152:	95b6                	add	a1,a1,a3
 154:	0005c683          	lbu	a3,0(a1)
 158:	00072303          	lw	t1,0(a4)
 15c:	00f697b3          	sll	a5,a3,a5
 160:	0067e7b3          	or	a5,a5,t1
 164:	c31c                	sw	a5,0(a4)
	if (target_pin_state > pinState_nochange) {
 166:	ce15                	beqz	a2,1a2 <pinMode+0x8e>
		digitalWrite(pin, target_pin_state - 1);
 168:	fff60593          	addi	a1,a2,-1
 16c:	0ff5f593          	andi	a1,a1,255
 170:	bf91                	j	c4 <digitalWrite>
	else if (pin <= pin_C7) {
 172:	47a5                	li	a5,9
 174:	00a7ea63          	bltu	a5,a0,188 <pinMode+0x74>
		PinOffset *= (pin - 2);
 178:	ffe50793          	addi	a5,a0,-2
 17c:	078a                	slli	a5,a5,0x2
 17e:	07c2                	slli	a5,a5,0x10
 180:	83c1                	srli	a5,a5,0x10
		GPIOx = GPIOC;
 182:	40011737          	lui	a4,0x40011
 186:	b75d                	j	12c <pinMode+0x18>
	else if (pin <= pin_D7) {
 188:	47c5                	li	a5,17
 18a:	00a7ec63          	bltu	a5,a0,1a2 <pinMode+0x8e>
		PinOffset *= (pin - 10);
 18e:	ff650793          	addi	a5,a0,-10
 192:	078a                	slli	a5,a5,0x2
 194:	07c2                	slli	a5,a5,0x10
		GPIOx = GPIOD;
 196:	40011737          	lui	a4,0x40011
		PinOffset *= (pin - 10);
 19a:	83c1                	srli	a5,a5,0x10
		GPIOx = GPIOD;
 19c:	40070713          	addi	a4,a4,1024 # 40011400 <__global_pointer$+0x20010b70>
 1a0:	b771                	j	12c <pinMode+0x18>
}
 1a2:	8082                	ret

000001a4 <main>:
}

/*
 * main() - does the stuff
 */
int main() {
 1a4:	1141                	addi	sp,sp,-16
 1a6:	c606                	sw	ra,12(sp)
 1a8:	c422                	sw	s0,8(sp)
 1aa:	c226                	sw	s1,4(sp)
}

void SystemInit48HSI( void )
{
	// Values lifted from the EVT.  There is little to no documentation on what this does.
	RCC->CFGR0 = RCC_HPRE_DIV1 | RCC_PLLSRC_HSI_Mul2;      // PLLCLK = HSI * 2 = 48 MHz; HCLK = SYSCLK = APB1
 1ac:	400217b7          	lui	a5,0x40021
	RCC->CTLR  = RCC_HSION | RCC_PLLON | ((HSITRIM) << 3); // Use HSI, but enable PLL.
 1b0:	01000737          	lui	a4,0x1000
	RCC->CFGR0 = RCC_HPRE_DIV1 | RCC_PLLSRC_HSI_Mul2;      // PLLCLK = HSI * 2 = 48 MHz; HCLK = SYSCLK = APB1
 1b4:	0007a223          	sw	zero,4(a5) # 40021004 <__global_pointer$+0x20020774>
	RCC->CTLR  = RCC_HSION | RCC_PLLON | ((HSITRIM) << 3); // Use HSI, but enable PLL.
 1b8:	08170713          	addi	a4,a4,129 # 1000081 <wiring.c.7604182b+0xffd905>
 1bc:	c398                	sw	a4,0(a5)
	FLASH->ACTLR = FLASH_ACTLR_LATENCY_1;                  // 1 Cycle Latency
 1be:	4685                	li	a3,1
 1c0:	40022737          	lui	a4,0x40022
 1c4:	c314                	sw	a3,0(a4)
	RCC->INTR  = 0x009F0000;                               // Clear PLL, CSSC, HSE, HSI and LSI ready flags.
 1c6:	009f0737          	lui	a4,0x9f0
 1ca:	c798                	sw	a4,8(a5)

	// From SetSysClockTo_48MHZ_HSI
	while((RCC->CTLR & RCC_PLLRDY) == 0);                                      // Wait till PLL is ready
 1cc:	020006b7          	lui	a3,0x2000
 1d0:	40021737          	lui	a4,0x40021
 1d4:	431c                	lw	a5,0(a4)
 1d6:	8ff5                	and	a5,a5,a3
 1d8:	dff5                	beqz	a5,1d4 <main+0x30>
	RCC->CFGR0 = ( RCC->CFGR0 & ((uint32_t)~(RCC_SW))) | (uint32_t)RCC_SW_PLL; // Select PLL as system clock source
 1da:	435c                	lw	a5,4(a4)
	while ((RCC->CFGR0 & (uint32_t)RCC_SWS) != (uint32_t)0x08);                // Wait till PLL is used as system clock source
 1dc:	46a1                	li	a3,8
	RCC->CFGR0 = ( RCC->CFGR0 & ((uint32_t)~(RCC_SW))) | (uint32_t)RCC_SW_PLL; // Select PLL as system clock source
 1de:	9bf1                	andi	a5,a5,-4
 1e0:	0027e793          	ori	a5,a5,2
 1e4:	c35c                	sw	a5,4(a4)
	while ((RCC->CFGR0 & (uint32_t)RCC_SWS) != (uint32_t)0x08);                // Wait till PLL is used as system clock source
 1e6:	400217b7          	lui	a5,0x40021
 1ea:	43d8                	lw	a4,4(a5)
 1ec:	8b31                	andi	a4,a4,12
 1ee:	fed71ee3          	bne	a4,a3,1ea <main+0x46>
	SysTick->CTLR = 0;
 1f2:	e000f737          	lui	a4,0xe000f
 1f6:	00072023          	sw	zero,0(a4) # e000f000 <__global_pointer$+0xc000e770>
 *
 * @return  none
 */
RV_STATIC_INLINE void NVIC_EnableIRQ(IRQn_Type IRQn)
{
  NVIC->IENR[((uint32_t)(IRQn) >> 5)] = (1 << ((uint32_t)(IRQn) & 0x1F));
 1fa:	e000e6b7          	lui	a3,0xe000e
 1fe:	6605                	lui	a2,0x1
 200:	10c6a023          	sw	a2,256(a3) # e000e100 <__global_pointer$+0xc000d870>
	SysTick->CMP = (SYSTEM_CORE_CLOCK/SYSTICKHZ)-1;
 204:	3e700693          	li	a3,999
 208:	cb14                	sw	a3,16(a4)
	SysTick->CNT = 0;
 20a:	00072423          	sw	zero,8(a4)
	SysTick->CTLR = SYSTICK_CTLR_STE | SYSTICK_CTLR_STIE |
 20e:	469d                	li	a3,7
 210:	c314                	sw	a3,0(a4)
	RCC->CFGR0 &= ~(0x1F<<11);
 212:	43d8                	lw	a4,4(a5)
 214:	76c1                	lui	a3,0xffff0
 216:	7ff68693          	addi	a3,a3,2047 # ffff07ff <__global_pointer$+0xdffeff6f>
 21a:	8f75                	and	a4,a4,a3
 21c:	c3d8                	sw	a4,4(a5)
	RCC->APB2PCENR |= RCC_APB2Periph_GPIOA | RCC_APB2Periph_ADC1;
 21e:	4f98                	lw	a4,24(a5)
	GPIOA->CFGLR &= ~(0xf<<(4*GPIO_PinSource2));	// CNF = 00: Analog, MODE = 00: Input
 220:	40011637          	lui	a2,0x40011
 224:	76fd                	lui	a3,0xfffff
	RCC->APB2PCENR |= RCC_APB2Periph_GPIOA | RCC_APB2Periph_ADC1;
 226:	20476713          	ori	a4,a4,516
 22a:	cf98                	sw	a4,24(a5)
	GPIOA->CFGLR &= ~(0xf<<(4*GPIO_PinSource2));	// CNF = 00: Analog, MODE = 00: Input
 22c:	80062703          	lw	a4,-2048(a2) # 40010800 <__global_pointer$+0x2000ff70>
 230:	0ff68693          	addi	a3,a3,255 # fffff0ff <__global_pointer$+0xdfffe86f>
 234:	8f75                	and	a4,a4,a3
 236:	80e62023          	sw	a4,-2048(a2)
	RCC->APB2PRSTR |= RCC_APB2Periph_ADC1;
 23a:	47d8                	lw	a4,12(a5)
	ADC1->CTLR2 |= ADC_ADON | ADC_EXTSEL;
 23c:	000e06b7          	lui	a3,0xe0
 240:	0685                	addi	a3,a3,1
	RCC->APB2PRSTR |= RCC_APB2Periph_ADC1;
 242:	20076713          	ori	a4,a4,512
 246:	c7d8                	sw	a4,12(a5)
	RCC->APB2PRSTR &= ~RCC_APB2Periph_ADC1;
 248:	47d8                	lw	a4,12(a5)
 24a:	dff77713          	andi	a4,a4,-513
 24e:	c7d8                	sw	a4,12(a5)
	ADC1->RSQR1 = 0;
 250:	400127b7          	lui	a5,0x40012
 254:	4207a623          	sw	zero,1068(a5) # 4001242c <__global_pointer$+0x20011b9c>
	ADC1->RSQR2 = 0;
 258:	4207a823          	sw	zero,1072(a5)
	ADC1->RSQR3 = ADC_Channel_0;	// 0-9 for 8 ext inputs and two internals
 25c:	4207aa23          	sw	zero,1076(a5)
	ADC1->SAMPTR2 &= ~ADC_SMP2;
 260:	4107a703          	lw	a4,1040(a5)
 264:	e3f77713          	andi	a4,a4,-449
 268:	40e7a823          	sw	a4,1040(a5)
	ADC1->SAMPTR2 |= ( ADC_SampleTime_3Cycles << (3 * ADC_Channel_0 ) );	// 0:7 => 3/9/15/30/43/57/73/241 cycles
 26c:	4107a703          	lw	a4,1040(a5)
 270:	40e7a823          	sw	a4,1040(a5)
	ADC1->CTLR2 |= ADC_ADON | ADC_EXTSEL;
 274:	4087a703          	lw	a4,1032(a5)
 278:	8f55                	or	a4,a4,a3
 27a:	40e7a423          	sw	a4,1032(a5)
	ADC1->CTLR2 |= ADC_RSTCAL;
 27e:	4087a703          	lw	a4,1032(a5)
	while(ADC1->CTLR2 & ADC_RSTCAL);
 282:	400126b7          	lui	a3,0x40012
	ADC1->CTLR2 |= ADC_RSTCAL;
 286:	00876713          	ori	a4,a4,8
 28a:	40e7a423          	sw	a4,1032(a5)
	while(ADC1->CTLR2 & ADC_RSTCAL);
 28e:	4086a703          	lw	a4,1032(a3) # 40012408 <__global_pointer$+0x20011b78>
 292:	8b21                	andi	a4,a4,8
 294:	ff6d                	bnez	a4,28e <main+0xea>
	ADC1->CTLR2 |= ADC_CAL;
 296:	4086a703          	lw	a4,1032(a3)
 29a:	00476713          	ori	a4,a4,4
 29e:	40e6a423          	sw	a4,1032(a3)
	while(ADC1->CTLR2 & ADC_CAL);
 2a2:	40012737          	lui	a4,0x40012
 2a6:	40872783          	lw	a5,1032(a4) # 40012408 <__global_pointer$+0x20011b78>
 2aa:	8b91                	andi	a5,a5,4
 2ac:	ffed                	bnez	a5,2a6 <main+0x102>
			RCC->APB2PCENR |= RCC_APB2Periph_GPIOA;
 2ae:	400217b7          	lui	a5,0x40021
 2b2:	4f98                	lw	a4,24(a5)
	// Enable GPIO ports
	portEnable(port_A);
	portEnable(port_C);

	// all to hi-Z // LED 'off'
	pinMode(pin_A1, pinMode_I_floating);
 2b4:	4581                	li	a1,0
 2b6:	4501                	li	a0,0
 2b8:	00476713          	ori	a4,a4,4
 2bc:	cf98                	sw	a4,24(a5)
			RCC->APB2PCENR |= RCC_APB2Periph_GPIOC;
 2be:	4f98                	lw	a4,24(a5)

	while(1){
				
		int Delay = adc_get();
		Delay_Ms(( Delay >> 3 ) + 5 );
		int temp=LEDs[0].brightness;
 2c0:	20000437          	lui	s0,0x20000
	ADC1->CTLR2 |= ADC_SWSTART;
 2c4:	400124b7          	lui	s1,0x40012
 2c8:	01076713          	ori	a4,a4,16
 2cc:	cf98                	sw	a4,24(a5)
	pinMode(pin_A1, pinMode_I_floating);
 2ce:	3599                	jal	114 <pinMode>
	pinMode(pin_A2, pinMode_I_floating);
 2d0:	4581                	li	a1,0
 2d2:	4505                	li	a0,1
 2d4:	3581                	jal	114 <pinMode>
	pinMode(pin_C1, pinMode_I_floating);
 2d6:	4581                	li	a1,0
 2d8:	450d                	li	a0,3
 2da:	3d2d                	jal	114 <pinMode>
	pinMode(pin_C2, pinMode_I_floating);
 2dc:	4581                	li	a1,0
 2de:	4511                	li	a0,4
 2e0:	3d15                	jal	114 <pinMode>
		Delay_Ms(( Delay >> 3 ) + 5 );
 2e2:	6609                	lui	a2,0x2
 2e4:	65b1                	lui	a1,0xc
	ADC1->CTLR2 |= ADC_SWSTART;
 2e6:	004002b7          	lui	t0,0x400

#endif

void DelaySysTick( uint32_t n )
{
	uint32_t targend = SysTick->CNT + n;
 2ea:	e000f337          	lui	t1,0xe000f
		Delay_Ms(( Delay >> 3 ) + 5 );
 2ee:	167d                	addi	a2,a2,-1
 2f0:	b8058593          	addi	a1,a1,-1152 # bb80 <wiring.c.7604182b+0x9404>
		int temp=LEDs[0].brightness;
 2f4:	00040413          	mv	s0,s0
	ADC1->CTLR2 |= ADC_SWSTART;
 2f8:	4084a783          	lw	a5,1032(s1) # 40012408 <__global_pointer$+0x20011b78>
 2fc:	0057e7b3          	or	a5,a5,t0
 300:	40f4a423          	sw	a5,1032(s1)
	while(!(ADC1->STATR & ADC_EOC));
 304:	4004a783          	lw	a5,1024(s1)
 308:	8b89                	andi	a5,a5,2
 30a:	dfed                	beqz	a5,304 <main+0x160>
	return ADC1->RDATAR;
 30c:	44c4a503          	lw	a0,1100(s1)
 310:	00832783          	lw	a5,8(t1) # e000f008 <__global_pointer$+0xc000e778>
		Delay_Ms(( Delay >> 3 ) + 5 );
 314:	850d                	srai	a0,a0,0x3
 316:	8d71                	and	a0,a0,a2
 318:	0515                	addi	a0,a0,5
 31a:	c03e                	sw	a5,0(sp)
 31c:	3351                	jal	a0 <__mulsi3>
 31e:	4782                	lw	a5,0(sp)
 320:	6709                	lui	a4,0x2
 322:	fff70613          	addi	a2,a4,-1 # 1fff <main_sw.c.c9eed32e+0x170>
 326:	6731                	lui	a4,0xc
 328:	97aa                	add	a5,a5,a0
 32a:	004002b7          	lui	t0,0x400
 32e:	e000f337          	lui	t1,0xe000f
 332:	b8070593          	addi	a1,a4,-1152 # bb80 <wiring.c.7604182b+0x9404>
	while( ((int32_t)( SysTick->CNT - targend )) < 0 );
 336:	00832703          	lw	a4,8(t1) # e000f008 <__global_pointer$+0xc000e778>
 33a:	8f1d                	sub	a4,a4,a5
 33c:	fe074de3          	bltz	a4,336 <main+0x192>
		int temp=LEDs[0].brightness;
 340:	00244683          	lbu	a3,2(s0) # 20000002 <LEDs+0x2>
		for(int i=1; i<12; i++){
 344:	4785                	li	a5,1
 346:	43b1                	li	t2,12
		int temp=LEDs[0].brightness;
 348:	0ff6f693          	andi	a3,a3,255
			LEDs[i-1].brightness=LEDs[i].brightness;
 34c:	00179713          	slli	a4,a5,0x1
 350:	973e                	add	a4,a4,a5
 352:	9722                	add	a4,a4,s0
 354:	00274503          	lbu	a0,2(a4)
 358:	fff78093          	addi	ra,a5,-1 # 40020fff <__global_pointer$+0x2002076f>
 35c:	00109713          	slli	a4,ra,0x1
 360:	9706                	add	a4,a4,ra
 362:	0ff57513          	andi	a0,a0,255
 366:	9722                	add	a4,a4,s0
 368:	00a70123          	sb	a0,2(a4)
		for(int i=1; i<12; i++){
 36c:	0785                	addi	a5,a5,1
 36e:	fc779fe3          	bne	a5,t2,34c <main+0x1a8>
		}
		LEDs[11].brightness=temp;
 372:	02d401a3          	sb	a3,35(s0)
	while(1){
 376:	b749                	j	2f8 <main+0x154>

00000378 <handle_reset>:
	asm volatile( "\n\
 378:	20000197          	auipc	gp,0x20000
 37c:	51818193          	addi	gp,gp,1304 # 20000890 <__global_pointer$>
 380:	f7018113          	addi	sp,gp,-144 # 20000800 <_eusrstack>
 384:	08000513          	li	a0,128
 388:	30051073          	csrw	mstatus,a0
 38c:	468d                	li	a3,3
 38e:	80469073          	csrw	0x804,a3
 392:	00000517          	auipc	a0,0x0
 396:	c6e50513          	addi	a0,a0,-914 # 0 <InterruptVector>
 39a:	8d55                	or	a0,a0,a3
 39c:	30551073          	csrw	mtvec,a0
asm volatile(
 3a0:	81018513          	addi	a0,gp,-2032 # 200000a0 <currentgroup.0>
 3a4:	81418593          	addi	a1,gp,-2028 # 200000a4 <_ebss>
 3a8:	4601                	li	a2,0
 3aa:	00b55663          	bge	a0,a1,3b6 <handle_reset+0x3e>
 3ae:	c110                	sw	a2,0(a0)
 3b0:	0511                	addi	a0,a0,4
 3b2:	feb54ee3          	blt	a0,a1,3ae <handle_reset+0x36>
 3b6:	6c800513          	li	a0,1736
 3ba:	20000597          	auipc	a1,0x20000
 3be:	c4658593          	addi	a1,a1,-954 # 20000000 <LEDs>
 3c2:	81018613          	addi	a2,gp,-2032 # 200000a0 <currentgroup.0>
 3c6:	00c58863          	beq	a1,a2,3d6 <handle_reset+0x5e>
 3ca:	4114                	lw	a3,0(a0)
 3cc:	c194                	sw	a3,0(a1)
 3ce:	0511                	addi	a0,a0,4
 3d0:	0591                	addi	a1,a1,4
 3d2:	fec59ae3          	bne	a1,a2,3c6 <handle_reset+0x4e>
	SETUP_SYSTICK_HCLK
 3d6:	e000f7b7          	lui	a5,0xe000f
 3da:	4705                	li	a4,1
 3dc:	c398                	sw	a4,0(a5)
asm volatile(
 3de:	1a400793          	li	a5,420
 3e2:	34179073          	csrw	mepc,a5
 3e6:	30200073          	mret

000003ea <ADC1_IRQHandler>:
	asm volatile( "1: j 1b" );
 3ea:	a001                	j	3ea <ADC1_IRQHandler>

000003ec <SysTick_Handler>:
{
 3ec:	fc010113          	addi	sp,sp,-64
 3f0:	00f12823          	sw	a5,16(sp)
	SysTick->CMP += (SYSTEM_CORE_CLOCK/SYSTICKHZ);
 3f4:	e000f7b7          	lui	a5,0xe000f
{
 3f8:	00e12a23          	sw	a4,20(sp)
	SysTick->CMP += (SYSTEM_CORE_CLOCK/SYSTICKHZ);
 3fc:	0107a703          	lw	a4,16(a5) # e000f010 <__global_pointer$+0xc000e780>
{
 400:	02812623          	sw	s0,44(sp)
 404:	02912423          	sw	s1,40(sp)
 408:	02112e23          	sw	ra,60(sp)
 40c:	02512c23          	sw	t0,56(sp)
 410:	02612a23          	sw	t1,52(sp)
 414:	02712823          	sw	t2,48(sp)
 418:	02a12223          	sw	a0,36(sp)
 41c:	02b12023          	sw	a1,32(sp)
 420:	00c12e23          	sw	a2,28(sp)
 424:	00d12c23          	sw	a3,24(sp)
	SysTick->CMP += (SYSTEM_CORE_CLOCK/SYSTICKHZ);
 428:	3e870713          	addi	a4,a4,1000
 42c:	00e7a823          	sw	a4,16(a5)
	SysTick->SR = 0;
 430:	0007a223          	sw	zero,4(a5)
	ramp = ( ramp + 1 ) & 0x3F;		// 0 to 63
 434:	8111c783          	lbu	a5,-2031(gp) # 200000a1 <ramp.1>
 438:	20000437          	lui	s0,0x20000
 43c:	00178793          	addi	a5,a5,1
 440:	03f7f793          	andi	a5,a5,63
 444:	00f12023          	sw	a5,0(sp)
 448:	80f188a3          	sb	a5,-2031(gp) # 200000a1 <ramp.1>
	if (ramp == 0) {
 44c:	6bc00493          	li	s1,1724
 450:	00040413          	mv	s0,s0
 454:	16079363          	bnez	a5,5ba <SysTick_Handler+0x1ce>
		pinMode(LEDs[group[currentgroup][0]].pinCathode, pinMode_I_floating); // switch off this group
 458:	8101c783          	lbu	a5,-2032(gp) # 200000a0 <currentgroup.0>
 45c:	00000593          	li	a1,0
 460:	00179713          	slli	a4,a5,0x1
 464:	00f70733          	add	a4,a4,a5
 468:	00e48733          	add	a4,s1,a4
 46c:	00074683          	lbu	a3,0(a4)
 470:	00f12223          	sw	a5,4(sp)
 474:	00169713          	slli	a4,a3,0x1
 478:	00d70733          	add	a4,a4,a3
 47c:	00e40733          	add	a4,s0,a4
 480:	00074503          	lbu	a0,0(a4)
 484:	0ff57513          	andi	a0,a0,255
 488:	3171                	jal	114 <pinMode>
		currentgroup = (currentgroup + 1) & 0x3;	// move to next group
 48a:	00412783          	lw	a5,4(sp)
		pinMode(LEDs[group[currentgroup][0]].pinCathode, pinMode_O_pushPull); // switch on the group
 48e:	00400593          	li	a1,4
		currentgroup = (currentgroup + 1) & 0x3;	// move to next group
 492:	00178793          	addi	a5,a5,1
 496:	0037f793          	andi	a5,a5,3
 49a:	80f18823          	sb	a5,-2032(gp) # 200000a0 <currentgroup.0>
		pinMode(LEDs[group[currentgroup][0]].pinCathode, pinMode_O_pushPull); // switch on the group
 49e:	00179713          	slli	a4,a5,0x1
 4a2:	00e12223          	sw	a4,4(sp)
 4a6:	00f70733          	add	a4,a4,a5
 4aa:	00e48733          	add	a4,s1,a4
 4ae:	00074683          	lbu	a3,0(a4)
 4b2:	00f12623          	sw	a5,12(sp)
 4b6:	00169713          	slli	a4,a3,0x1
 4ba:	00d70733          	add	a4,a4,a3
 4be:	00e40733          	add	a4,s0,a4
 4c2:	00074503          	lbu	a0,0(a4)
 4c6:	00e12423          	sw	a4,8(sp)
 4ca:	0ff57513          	andi	a0,a0,255
 4ce:	3199                	jal	114 <pinMode>
		digitalWrite(LEDs[group[currentgroup][0]].pinCathode, low);
 4d0:	00812703          	lw	a4,8(sp)
 4d4:	00000593          	li	a1,0
 4d8:	00074503          	lbu	a0,0(a4)
 4dc:	0ff57513          	andi	a0,a0,255
 4e0:	36d5                	jal	c4 <digitalWrite>
		if (LEDs[group[currentgroup][0]].brightness) { 
 4e2:	00812703          	lw	a4,8(sp)
 4e6:	00c12783          	lw	a5,12(sp)
 4ea:	00274683          	lbu	a3,2(a4)
 4ee:	0ff6f693          	andi	a3,a3,255
 4f2:	02068463          	beqz	a3,51a <SysTick_Handler+0x12e>
			pinMode(LEDs[group[currentgroup][0]].pinAnode, pinMode_O_pushPull); // switch on this LED
 4f6:	00174503          	lbu	a0,1(a4)
 4fa:	00400593          	li	a1,4
 4fe:	0ff57513          	andi	a0,a0,255
 502:	3909                	jal	114 <pinMode>
			digitalWrite(LEDs[group[currentgroup][0]].pinAnode, high);
 504:	00812703          	lw	a4,8(sp)
 508:	00100593          	li	a1,1
 50c:	00174503          	lbu	a0,1(a4)
 510:	0ff57513          	andi	a0,a0,255
 514:	3e45                	jal	c4 <digitalWrite>
 516:	00c12783          	lw	a5,12(sp)
		if (LEDs[group[currentgroup][1]].brightness) { 
 51a:	00412703          	lw	a4,4(sp)
 51e:	00f70733          	add	a4,a4,a5
 522:	00e48733          	add	a4,s1,a4
 526:	00174683          	lbu	a3,1(a4)
 52a:	00169713          	slli	a4,a3,0x1
 52e:	00d70733          	add	a4,a4,a3
 532:	00e40733          	add	a4,s0,a4
 536:	00274683          	lbu	a3,2(a4)
 53a:	0ff6f693          	andi	a3,a3,255
 53e:	02068863          	beqz	a3,56e <SysTick_Handler+0x182>
			pinMode(LEDs[group[currentgroup][1]].pinAnode, pinMode_O_pushPull); // switch on this LED
 542:	00174503          	lbu	a0,1(a4)
 546:	00400593          	li	a1,4
 54a:	00f12623          	sw	a5,12(sp)
 54e:	0ff57513          	andi	a0,a0,255
 552:	00e12423          	sw	a4,8(sp)
 556:	3e7d                	jal	114 <pinMode>
			digitalWrite(LEDs[group[currentgroup][1]].pinAnode, high);
 558:	00812703          	lw	a4,8(sp)
 55c:	00100593          	li	a1,1
 560:	00174503          	lbu	a0,1(a4)
 564:	0ff57513          	andi	a0,a0,255
 568:	3eb1                	jal	c4 <digitalWrite>
 56a:	00c12783          	lw	a5,12(sp)
		if (LEDs[group[currentgroup][2]].brightness) { 
 56e:	00412703          	lw	a4,4(sp)
 572:	00f707b3          	add	a5,a4,a5
 576:	00f487b3          	add	a5,s1,a5
 57a:	0027c703          	lbu	a4,2(a5)
 57e:	00171793          	slli	a5,a4,0x1
 582:	00e787b3          	add	a5,a5,a4
 586:	00f407b3          	add	a5,s0,a5
 58a:	0027c703          	lbu	a4,2(a5)
 58e:	0ff77713          	andi	a4,a4,255
 592:	02070463          	beqz	a4,5ba <SysTick_Handler+0x1ce>
			pinMode(LEDs[group[currentgroup][2]].pinAnode, pinMode_O_pushPull); // switch on this LED
 596:	0017c503          	lbu	a0,1(a5)
 59a:	00400593          	li	a1,4
 59e:	00f12223          	sw	a5,4(sp)
 5a2:	0ff57513          	andi	a0,a0,255
 5a6:	36bd                	jal	114 <pinMode>
			digitalWrite(LEDs[group[currentgroup][2]].pinAnode, high);
 5a8:	00412783          	lw	a5,4(sp)
 5ac:	00100593          	li	a1,1
 5b0:	0017c503          	lbu	a0,1(a5)
 5b4:	0ff57513          	andi	a0,a0,255
 5b8:	3631                	jal	c4 <digitalWrite>
	if (LEDs[group[currentgroup][0]].brightness <= ramp) { // if the target pulse width has been achieved
 5ba:	8101c683          	lbu	a3,-2032(gp) # 200000a0 <currentgroup.0>
 5be:	00012583          	lw	a1,0(sp)
 5c2:	00169713          	slli	a4,a3,0x1
 5c6:	00d707b3          	add	a5,a4,a3
 5ca:	00f487b3          	add	a5,s1,a5
 5ce:	0007c603          	lbu	a2,0(a5)
 5d2:	00161793          	slli	a5,a2,0x1
 5d6:	00c787b3          	add	a5,a5,a2
 5da:	00f407b3          	add	a5,s0,a5
 5de:	0027c603          	lbu	a2,2(a5)
 5e2:	0ff67613          	andi	a2,a2,255
 5e6:	02c5e163          	bltu	a1,a2,608 <SysTick_Handler+0x21c>
		pinMode(LEDs[group[currentgroup][0]].pinAnode, pinMode_I_floating); // switch off this LED
 5ea:	0017c503          	lbu	a0,1(a5)
 5ee:	00000593          	li	a1,0
 5f2:	00e12423          	sw	a4,8(sp)
 5f6:	0ff57513          	andi	a0,a0,255
 5fa:	00d12223          	sw	a3,4(sp)
 5fe:	3e19                	jal	114 <pinMode>
 600:	00812703          	lw	a4,8(sp)
 604:	00412683          	lw	a3,4(sp)
	if (LEDs[group[currentgroup][1]].brightness <= ramp) {
 608:	00d707b3          	add	a5,a4,a3
 60c:	00f487b3          	add	a5,s1,a5
 610:	0017c603          	lbu	a2,1(a5)
 614:	00012583          	lw	a1,0(sp)
 618:	00161793          	slli	a5,a2,0x1
 61c:	00c787b3          	add	a5,a5,a2
 620:	00f407b3          	add	a5,s0,a5
 624:	0027c603          	lbu	a2,2(a5)
 628:	0ff67613          	andi	a2,a2,255
 62c:	02c5e163          	bltu	a1,a2,64e <SysTick_Handler+0x262>
		pinMode(LEDs[group[currentgroup][1]].pinAnode, pinMode_I_floating); // switch off this LED
 630:	0017c503          	lbu	a0,1(a5)
 634:	00000593          	li	a1,0
 638:	00e12423          	sw	a4,8(sp)
 63c:	0ff57513          	andi	a0,a0,255
 640:	00d12223          	sw	a3,4(sp)
 644:	3cc1                	jal	114 <pinMode>
 646:	00812703          	lw	a4,8(sp)
 64a:	00412683          	lw	a3,4(sp)
	if (LEDs[group[currentgroup][2]].brightness <= ramp) {
 64e:	00d70733          	add	a4,a4,a3
 652:	00e484b3          	add	s1,s1,a4
 656:	0024c703          	lbu	a4,2(s1)
 65a:	00171793          	slli	a5,a4,0x1
 65e:	00e787b3          	add	a5,a5,a4
 662:	00f40433          	add	s0,s0,a5
 666:	00244783          	lbu	a5,2(s0) # 20000002 <LEDs+0x2>
 66a:	00012703          	lw	a4,0(sp)
 66e:	0ff7f793          	andi	a5,a5,255
 672:	00f76963          	bltu	a4,a5,684 <SysTick_Handler+0x298>
		pinMode(LEDs[group[currentgroup][2]].pinAnode, pinMode_I_floating); // switch off this LED
 676:	00144503          	lbu	a0,1(s0)
 67a:	00000593          	li	a1,0
 67e:	0ff57513          	andi	a0,a0,255
 682:	3c49                	jal	114 <pinMode>
}
 684:	02c12403          	lw	s0,44(sp)
 688:	03c12083          	lw	ra,60(sp)
 68c:	03812283          	lw	t0,56(sp)
 690:	03412303          	lw	t1,52(sp)
 694:	03012383          	lw	t2,48(sp)
 698:	02812483          	lw	s1,40(sp)
 69c:	02412503          	lw	a0,36(sp)
 6a0:	02012583          	lw	a1,32(sp)
 6a4:	01c12603          	lw	a2,28(sp)
 6a8:	01812683          	lw	a3,24(sp)
 6ac:	01412703          	lw	a4,20(sp)
 6b0:	01012783          	lw	a5,16(sp)
 6b4:	04010113          	addi	sp,sp,64
 6b8:	30200073          	mret

000006bc <group>:
 6bc:	0400                	addi	s0,sp,512
 6be:	010a                	slli	sp,sp,0x2
 6c0:	0802                	c.slli64	a6
 6c2:	06070503          	lb	a0,96(a4)
 6c6:	0b09                	addi	s6,s6,2

Disassembly of section .data:

20000000 <LEDs>:
20000000:	0600                	addi	s0,sp,768
20000002:	0608                	addi	a0,sp,768
20000004:	3f00                	fld	fs0,56(a4)
20000006:	0306                	slli	t1,t1,0x1
20000008:	0320                	addi	s0,sp,392
2000000a:	1006                	c.slli	zero,0x21
2000000c:	0300                	addi	s0,sp,384
2000000e:	0310                	addi	a2,sp,384
20000010:	1000                	addi	s0,sp,32
20000012:	0304                	addi	s1,sp,384
20000014:	0308                	addi	a0,sp,384
20000016:	0404                	addi	s1,sp,512
20000018:	0406                	slli	s0,s0,0x1
2000001a:	0402                	c.slli64	s0
2000001c:	0006                	c.slli	zero,0x1
2000001e:	0400                	addi	s0,sp,512
20000020:	0402                	c.slli64	s0
20000022:	0400                	addi	s0,sp,512

20000024 <APBAHBPrescTable.lto_priv.0>:
20000024:	0201                	addi	tp,tp,0
20000026:	06050403          	lb	s0,96(a0)
2000002a:	02010807          	0x2010807
2000002e:	06050403          	lb	s0,96(a0)
20000032:	          	0x4020807

20000034 <ADCPrescTable.lto_priv.0>:
20000034:	0402                	c.slli64	s0
20000036:	0806                	slli	a6,a6,0x1
20000038:	0804                	addi	s1,sp,16
2000003a:	100c                	addi	a1,sp,32
2000003c:	1008                	addi	a0,sp,32
2000003e:	2018                	fld	fa4,0(s0)
20000040:	2010                	fld	fa2,0(s0)
20000042:	4030                	lw	a2,64(s0)
20000044:	4020                	lw	s0,64(s0)
20000046:	8060                	0x8060

20000048 <APBAHBPrescTable.lto_priv.1>:
20000048:	0201                	addi	tp,tp,0
2000004a:	06050403          	lb	s0,96(a0)
2000004e:	02010807          	0x2010807
20000052:	06050403          	lb	s0,96(a0)
20000056:	          	0x4020807

20000058 <ADCPrescTable.lto_priv.1>:
20000058:	0402                	c.slli64	s0
2000005a:	0806                	slli	a6,a6,0x1
2000005c:	0804                	addi	s1,sp,16
2000005e:	100c                	addi	a1,sp,32
20000060:	1008                	addi	a0,sp,32
20000062:	2018                	fld	fa4,0(s0)
20000064:	2010                	fld	fa2,0(s0)
20000066:	4030                	lw	a2,64(s0)
20000068:	4020                	lw	s0,64(s0)
2000006a:	8060                	0x8060

2000006c <APBAHBPrescTable.lto_priv.2>:
2000006c:	0201                	addi	tp,tp,0
2000006e:	06050403          	lb	s0,96(a0)
20000072:	02010807          	0x2010807
20000076:	06050403          	lb	s0,96(a0)
2000007a:	          	0x4020807

2000007c <ADCPrescTable.lto_priv.2>:
2000007c:	0402                	c.slli64	s0
2000007e:	0806                	slli	a6,a6,0x1
20000080:	0804                	addi	s1,sp,16
20000082:	100c                	addi	a1,sp,32
20000084:	1008                	addi	a0,sp,32
20000086:	2018                	fld	fa4,0(s0)
20000088:	2010                	fld	fa2,0(s0)
2000008a:	4030                	lw	a2,64(s0)
2000008c:	4020                	lw	s0,64(s0)
2000008e:	8060                	0x8060

20000090 <CSWTCH.6>:
20000090:	0804                	addi	s1,sp,16
20000092:	0008                	0x8
20000094:	0501                	addi	a0,a0,0
20000096:	0d09                	addi	s10,s10,2

20000098 <CSWTCH.5>:
20000098:	0200                	addi	s0,sp,256
2000009a:	0001                	nop
2000009c:	0000                	unimp
	...

Disassembly of section .bss:

200000a0 <currentgroup.0>:
	...

200000a1 <ramp.1>:
200000a1:	0000                	unimp
	...

Disassembly of section .debug_info:

00000000 <ch32v003fun.c.8affbd33-0xf55>:
	asm volatile( "\n\
       0:	0f51                	addi	t5,t5,20
       2:	0000                	unimp
       4:	0004                	0x4
       6:	0000                	unimp
       8:	0000                	unimp
       a:	0104                	addi	s1,sp,128
       c:	002c                	addi	a1,sp,8
       e:	0000                	unimp
      10:	cb0c                	sw	a1,16(a4)
      12:	0000                	unimp
      14:	e100                	fsw	fs0,0(a0)
      16:	0000                	unimp
      18:	5800                	lw	s0,48(s0)
      1a:	0002                	c.slli64	zero
	...
      24:	0200                	addi	s0,sp,256
      26:	17a6                	slli	a5,a5,0x29
	...
      30:	0000                	unimp
      32:	9c01                	0x9c01
      34:	006d                	c.nop	27
      36:	0000                	unimp
      38:	0017b703          	0x17b703
      3c:	0000                	unimp
      3e:	0000                	unimp
      40:	0300                	addi	s0,sp,384
      42:	17c2                	slli	a5,a5,0x30
      44:	0000                	unimp
      46:	001e                	c.slli	zero,0x7
      48:	0000                	unimp
      4a:	cf04                	sw	s1,24(a4)
      4c:	01000017          	auipc	zero,0x1000
      50:	055c                	addi	a5,sp,644
      52:	17dc                	addi	a5,sp,996
      54:	0000                	unimp
      56:	0055                	c.nop	21
      58:	0000                	unimp
      5a:	e705                	bnez	a4,82 <InterruptVector+0x82>
      5c:	73000017          	auipc	zero,0x73000
      60:	0000                	unimp
      62:	0500                	addi	s0,sp,640
      64:	000017f3          	csrrw	a5,ustatus,zero
      68:	0091                	addi	ra,ra,4
      6a:	0000                	unimp
      6c:	0200                	addi	s0,sp,256
      6e:	1805                	addi	a6,a6,-31
	...
      78:	0000                	unimp
      7a:	9c01                	0x9c01
      7c:	00e0                	addi	s0,sp,76
      7e:	0000                	unimp
      80:	00181603          	lh	a2,1(a6)
      84:	d300                	sw	s0,32(a4)
      86:	0000                	unimp
      88:	0300                	addi	s0,sp,384
      8a:	00001823          	sh	zero,16(zero) # 10 <InterruptVector+0x10>
      8e:	013a                	slli	sp,sp,0xe
      90:	0000                	unimp
      92:	00183003          	0x183003
      96:	8700                	0x8700
      98:	0001                	nop
      9a:	0300                	addi	s0,sp,384
      9c:	183d                	addi	a6,a6,-17
      9e:	0000                	unimp
      a0:	01c1                	addi	gp,gp,16
      a2:	0000                	unimp
      a4:	00184a03          	lbu	s4,1(a6)
      a8:	ed00                	fsw	fs0,24(a0)
      aa:	0001                	nop
      ac:	0500                	addi	s0,sp,640
      ae:	00001857          	0x1857
      b2:	00000227          	0x227
      b6:	6205                	lui	tp,0x1
      b8:	0018                	0x18
      ba:	c600                	sw	s0,8(a2)
      bc:	0002                	c.slli64	zero
      be:	0500                	addi	s0,sp,640
      c0:	0000186f          	jal	a6,10c0 <ch32v003fun.c.8affbd33+0x16b>
	if (pin <= pin_A2) {
      c4:	0315                	addi	t1,t1,5
      c6:	0000                	unimp
      c8:	0006                	c.slli	zero,0x1
		PinOffset = (pin + 1);
      ca:	0000                	unimp
      cc:	2300                	fld	fs0,0(a4)
		GPIOx = GPIOA;
      ce:	0700000f          	fence	orw,unknown
		PinOffset = (pin + 1);
      d2:	5a01                	li	s4,-32
		GPIOx = GPIOA;
      d4:	5e01f303          	0x5e01f303
		GPIOx-> BSHR |= 1 << PinOffset;
      d8:	025c0107          	0x25c0107
		GPIOx-> BSHR |= 1 << (16 + PinOffset);
      dc:	0078                	addi	a4,sp,12
      de:	0000                	unimp
      e0:	7d02                	flw	fs10,32(sp)
      e2:	0018                	0x18
	...
	else if (pin <= pin_C7) {
      ec:	0100                	addi	s0,sp,128
		PinOffset = (pin - 2);
      ee:	7f9c                	flw	fa5,56(a5)
      f0:	0001                	nop
      f2:	0300                	addi	s0,sp,384
		GPIOx = GPIOC;
      f4:	188e                	slli	a7,a7,0x23
      f6:	0000                	unimp
      f8:	000003bb          	0x3bb
	else if (pin <= pin_D7) {
      fc:	00189b03          	lh	s6,1(a7)
		PinOffset = (pin - 10);
     100:	0600                	addi	s0,sp,768
     102:	0004                	0x4
		GPIOx = GPIOD;
     104:	0300                	addi	s0,sp,384
     106:	18a8                	addi	a0,sp,120
		PinOffset = (pin - 10);
     108:	0000                	unimp
		GPIOx = GPIOD;
     10a:	0476                	slli	s0,s0,0x1d
     10c:	0000                	unimp
     10e:	0018b503          	0x18b503
		GPIOx-> BSHR |= 1 << (16 + PinOffset);
     112:	9700                	0x9700
	if (pin <= pin_A2) {
     114:	0004                	0x4
     116:	0300                	addi	s0,sp,384
     118:	18c2                	slli	a7,a7,0x30
		PinOffset *= (pin + 1);
     11a:	0000                	unimp
     11c:	04b8                	addi	a4,sp,584
     11e:	0000                	unimp
     120:	cf05                	beqz	a4,158 <pinMode+0x44>
		GPIOx = GPIOA;
     122:	0018                	0x18
     124:	f900                	fsw	fs0,48(a0)
		PinOffset *= (pin + 1);
     126:	0004                	0x4
		GPIOx = GPIOA;
     128:	0500                	addi	s0,sp,640
     12a:	18dc                	addi	a5,sp,116
	GPIOx->CFGLR &= ~(0b1111<<PinOffset);							// zero the 4 configuration bits
     12c:	0000                	unimp
     12e:	0551                	addi	a0,a0,20
     130:	0000                	unimp
     132:	e905                	bnez	a0,162 <pinMode+0x4e>
     134:	0018                	0x18
     136:	8900                	0x8900
     138:	0005                	c.nop	1
     13a:	0500                	addi	s0,sp,640
	switch (mode) {
     13c:	18f4                	addi	a3,sp,124
     13e:	0000                	unimp
     140:	000005cb          	fnmsub.s	fa1,ft0,ft0,ft0,rne
     144:	0108                	addi	a0,sp,128
     146:	0019                	c.nop	6
     148:	0000                	unimp
	GPIOx->CFGLR |= modeMask<<PinOffset;
     14a:	0000                	unimp
     14c:	6d00                	flw	fs0,24(a0)
     14e:	0001                	nop
     150:	0500                	addi	s0,sp,640
     152:	1906                	slli	s2,s2,0x21
     154:	0000                	unimp
     156:	05e9                	addi	a1,a1,26
     158:	0000                	unimp
     15a:	0009                	c.nop	2
     15c:	0000                	unimp
     15e:	2e00                	fld	fs0,24(a2)
     160:	0900000f          	fence	iw,unknown
     164:	0000                	unimp
	if (target_pin_state > pinState_nochange) {
     166:	0000                	unimp
		digitalWrite(pin, target_pin_state - 1);
     168:	00000f37          	lui	t5,0x0
     16c:	0a00                	addi	s0,sp,272
     16e:	1914                	addi	a3,sp,176
     170:	0000                	unimp
	else if (pin <= pin_C7) {
     172:	0028                	addi	a0,sp,8
     174:	0000                	unimp
     176:	0019150b          	0x19150b
		PinOffset *= (pin - 2);
     17a:	0100                	addi	s0,sp,128
     17c:	0056                	c.slli	zero,0x15
     17e:	0200                	addi	s0,sp,256
     180:	2d75                	jal	83c <_data_lma+0x174>
		GPIOx = GPIOC;
     182:	0000                	unimp
     184:	00c4                	addi	s1,sp,68
     186:	0000                	unimp
	else if (pin <= pin_D7) {
     188:	0050                	addi	a2,sp,4
     18a:	0000                	unimp
     18c:	9c01                	0x9c01
		PinOffset *= (pin - 10);
     18e:	01b5                	addi	gp,gp,13
     190:	0000                	unimp
     192:	002d8103          	lb	sp,2(s11)
		GPIOx = GPIOD;
     196:	0700                	addi	s0,sp,896
     198:	0006                	c.slli	zero,0x1
		PinOffset *= (pin - 10);
     19a:	0400                	addi	s0,sp,512
		GPIOx = GPIOD;
     19c:	2d8d                	jal	80e <_data_lma+0x146>
     19e:	0000                	unimp
     1a0:	5b01                	li	s6,-32
}
     1a2:	9905                	andi	a0,a0,-31
int main() {
     1a4:	002d                	c.nop	11
     1a6:	8100                	0x8100
     1a8:	0006                	c.slli	zero,0x1
     1aa:	0500                	addi	s0,sp,640
	RCC->CFGR0 = RCC_HPRE_DIV1 | RCC_PLLSRC_HSI_Mul2;      // PLLCLK = HSI * 2 = 48 MHz; HCLK = SYSCLK = APB1
     1ac:	2da5                	jal	824 <_data_lma+0x15c>
     1ae:	0000                	unimp
	RCC->CTLR  = RCC_HSION | RCC_PLLON | ((HSITRIM) << 3); // Use HSI, but enable PLL.
     1b0:	000006cf          	fnmadd.s	fa3,ft0,ft0,ft0,rne
	RCC->CFGR0 = RCC_HPRE_DIV1 | RCC_PLLSRC_HSI_Mul2;      // PLLCLK = HSI * 2 = 48 MHz; HCLK = SYSCLK = APB1
     1b4:	0200                	addi	s0,sp,256
     1b6:	2db2                	fld	fs11,264(sp)
	RCC->CTLR  = RCC_HSION | RCC_PLLON | ((HSITRIM) << 3); // Use HSI, but enable PLL.
     1b8:	0000                	unimp
     1ba:	0114                	addi	a3,sp,128
     1bc:	0000                	unimp
	FLASH->ACTLR = FLASH_ACTLR_LATENCY_1;                  // 1 Cycle Latency
     1be:	0090                	addi	a2,sp,64
     1c0:	0000                	unimp
     1c2:	9c01                	0x9c01
     1c4:	021d                	addi	tp,tp,7
	RCC->INTR  = 0x009F0000;                               // Clear PLL, CSSC, HSE, HSI and LSI ready flags.
     1c6:	0000                	unimp
     1c8:	002dbe03          	0x2dbe03
	while((RCC->CTLR & RCC_PLLRDY) == 0);                                      // Wait till PLL is ready
     1cc:	1c00                	addi	s0,sp,560
     1ce:	03000007          	0x3000007
     1d2:	2dca                	fld	fs11,144(sp)
     1d4:	0000                	unimp
     1d6:	0748                	addi	a0,sp,900
     1d8:	0000                	unimp
	RCC->CFGR0 = ( RCC->CFGR0 & ((uint32_t)~(RCC_SW))) | (uint32_t)RCC_SW_PLL; // Select PLL as system clock source
     1da:	d605                	beqz	a2,102 <digitalWrite+0x3e>
	while ((RCC->CFGR0 & (uint32_t)RCC_SWS) != (uint32_t)0x08);                // Wait till PLL is used as system clock source
     1dc:	002d                	c.nop	11
	RCC->CFGR0 = ( RCC->CFGR0 & ((uint32_t)~(RCC_SW))) | (uint32_t)RCC_SW_PLL; // Select PLL as system clock source
     1de:	8200                	0x8200
     1e0:	05000007          	0x5000007
     1e4:	2de2                	fld	fs11,24(sp)
	while ((RCC->CFGR0 & (uint32_t)RCC_SWS) != (uint32_t)0x08);                // Wait till PLL is used as system clock source
     1e6:	0000                	unimp
     1e8:	07c5                	addi	a5,a5,17
     1ea:	0000                	unimp
     1ec:	ee05                	bnez	a2,224 <main+0x80>
     1ee:	002d                	c.nop	11
     1f0:	1200                	addi	s0,sp,288
	SysTick->CTLR = 0;
     1f2:	0008                	0x8
     1f4:	0500                	addi	s0,sp,640
     1f6:	2dfa                	fld	fs11,408(sp)
     1f8:	0000                	unimp
     1fa:	0844                	addi	s1,sp,20
     1fc:	0000                	unimp
     1fe:	720c                	flw	fa1,32(a2)
     200:	0001                	nop
     202:	7f00                	flw	fs0,56(a4)
	SysTick->CMP = (SYSTEM_CORE_CLOCK/SYSTICKHZ)-1;
     204:	0001                	nop
     206:	0700                	addi	s0,sp,896
     208:	5b01                	li	s6,-32
	SysTick->CNT = 0;
     20a:	f310                	fsw	fa2,32(a4)
     20c:	5b01                	li	s6,-32
	SysTick->CTLR = SYSTICK_CTLR_STE | SYSTICK_CTLR_STIE |
     20e:	00009803          	lh	a6,0(ra)
	RCC->CFGR0 &= ~(0x1F<<11);
     212:	2220                	fld	fs0,64(a2)
     214:	0194                	addi	a3,sp,192
     216:	ff08                	fsw	fa0,56(a4)
     218:	311a                	fld	ft2,416(sp)
     21a:	001c                	0x1c
     21c:	0200                	addi	s0,sp,256
	RCC->APB2PCENR |= RCC_APB2Periph_GPIOA | RCC_APB2Periph_ADC1;
     21e:	14d0                	addi	a2,sp,612
	...
     228:	0000                	unimp
     22a:	9c01                	0x9c01
	GPIOA->CFGLR &= ~(0xf<<(4*GPIO_PinSource2));	// CNF = 00: Analog, MODE = 00: Input
     22c:	0000029b          	0x29b
     230:	0014ed03          	0x14ed03
     234:	7d00                	flw	fs0,56(a0)
     236:	0008                	0x8
     238:	0300                	addi	s0,sp,384
	RCC->APB2PRSTR |= RCC_APB2Periph_ADC1;
     23a:	14fa                	slli	s1,s1,0x3e
	ADC1->CTLR2 |= ADC_ADON | ADC_EXTSEL;
     23c:	0000                	unimp
     23e:	089e                	slli	a7,a7,0x7
     240:	0000                	unimp
	RCC->APB2PRSTR |= RCC_APB2Periph_ADC1;
     242:	0015070b          	0x15070b
     246:	0200                	addi	s0,sp,256
	RCC->APB2PRSTR &= ~RCC_APB2Periph_ADC1;
     248:	7091                	lui	ra,0xfffe4
     24a:	1405                	addi	s0,s0,-31
     24c:	0015                	c.nop	5
     24e:	ca00                	sw	s0,16(a2)
	ADC1->RSQR1 = 0;
     250:	0008                	0x8
     252:	0500                	addi	s0,sp,640
     254:	1521                	addi	a0,a0,-24
     256:	0000                	unimp
	ADC1->RSQR2 = 0;
     258:	08f4                	addi	a3,sp,92
     25a:	0000                	unimp
	ADC1->RSQR3 = ADC_Channel_0;	// 0-9 for 8 ext inputs and two internals
     25c:	e10d                	bnez	a0,27e <main+0xda>
     25e:	0014                	0x14
	ADC1->SAMPTR2 &= ~ADC_SMP2;
     260:	0000                	unimp
     262:	2e0a                	fld	ft8,128(sp)
     264:	0015                	c.nop	5
     266:	4000                	lw	s0,0(s0)
     268:	0000                	unimp
     26a:	0500                	addi	s0,sp,640
	ADC1->SAMPTR2 |= ( ADC_SampleTime_3Cycles << (3 * ADC_Channel_0 ) );	// 0:7 => 3/9/15/30/43/57/73/241 cycles
     26c:	0000152f          	0x152f
     270:	00000933          	add	s2,zero,zero
	ADC1->CTLR2 |= ADC_ADON | ADC_EXTSEL;
     274:	3c05                	jal	fffffca4 <__global_pointer$+0xdffff414>
     276:	0015                	c.nop	5
     278:	6800                	flw	fs0,16(s0)
     27a:	0009                	c.nop	2
     27c:	0600                	addi	s0,sp,768
	ADC1->CTLR2 |= ADC_RSTCAL;
     27e:	0000                	unimp
     280:	0000                	unimp
	while(ADC1->CTLR2 & ADC_RSTCAL);
     282:	0f40                	addi	s0,sp,916
     284:	0000                	unimp
	ADC1->CTLR2 |= ADC_RSTCAL;
     286:	025a0107          	0x25a0107
     28a:	7091                	lui	ra,0xfffe4
     28c:	085b0107          	0x85b0107
	while(ADC1->CTLR2 & ADC_RSTCAL);
     290:	0078                	addi	a4,sp,12
     292:	0072                	c.slli	zero,0x1c
     294:	2206                	fld	ft4,64(sp)
	ADC1->CTLR2 |= ADC_CAL;
     296:	00000323          	sb	zero,6(zero) # 6 <InterruptVector+0x6>
     29a:	0200                	addi	s0,sp,256
     29c:	1e49                	addi	t3,t3,-14
	...
	while(ADC1->CTLR2 & ADC_CAL);
     2a6:	0000                	unimp
     2a8:	9c01                	0x9c01
     2aa:	02e8                	addi	a0,sp,332
     2ac:	0000                	unimp
			RCC->APB2PCENR |= RCC_APB2Periph_GPIOA;
     2ae:	001e5903          	lhu	s2,1(t3)
     2b2:	9f00                	0x9f00
	pinMode(pin_A1, pinMode_I_floating);
     2b4:	0009                	c.nop	2
     2b6:	0300                	addi	s0,sp,384
     2b8:	00001e63          	bnez	zero,2d4 <main+0x130>
     2bc:	09c0                	addi	s0,sp,212
			RCC->APB2PCENR |= RCC_APB2Periph_GPIOC;
     2be:	0000                	unimp
		int temp=LEDs[0].brightness;
     2c0:	001e6f03          	0x1e6f03
	ADC1->CTLR2 |= ADC_SWSTART;
     2c4:	e900                	fsw	fs0,16(a0)
     2c6:	0009                	c.nop	2
     2c8:	0600                	addi	s0,sp,768
     2ca:	0000                	unimp
     2cc:	0000                	unimp
	pinMode(pin_A1, pinMode_I_floating);
     2ce:	021d                	addi	tp,tp,7
	pinMode(pin_A2, pinMode_I_floating);
     2d0:	0000                	unimp
     2d2:	035a0107          	0x35a0107
	pinMode(pin_C1, pinMode_I_floating);
     2d6:	075a01f3          	0x75a01f3
     2da:	5b01                	li	s6,-32
	pinMode(pin_C2, pinMode_I_floating);
     2dc:	7802                	flw	fa6,32(sp)
     2de:	0e00                	addi	s0,sp,784
     2e0:	02f1                	addi	t0,t0,28
		Delay_Ms(( Delay >> 3 ) + 5 );
     2e2:	0000                	unimp
     2e4:	3001                	jal	fffffae4 <__global_pointer$+0xdffff254>
	ADC1->CTLR2 |= ADC_SWSTART;
     2e6:	0000                	unimp
     2e8:	0014d00f          	0x14d00f
	uint32_t targend = SysTick->CNT + n;
     2ec:	f700                	fsw	fs0,40(a4)
		Delay_Ms(( Delay >> 3 ) + 5 );
     2ee:	0002                	c.slli64	zero
     2f0:	1000                	addi	s0,sp,32
     2f2:	14e1                	addi	s1,s1,-8
		int temp=LEDs[0].brightness;
     2f4:	0000                	unimp
     2f6:	0200                	addi	s0,sp,256
	ADC1->CTLR2 |= ADC_SWSTART;
     2f8:	26e8                	fld	fa0,200(a3)
     2fa:	0000                	unimp
     2fc:	01a4                	addi	s1,sp,200
     2fe:	0000                	unimp
     300:	01d4                	addi	a3,sp,196
     302:	0000                	unimp
	while(!(ADC1->STATR & ADC_EOC));
     304:	9c01                	0x9c01
     306:	048d                	addi	s1,s1,3
     308:	0000                	unimp
     30a:	b311                	j	e <InterruptVector+0xe>
	return ADC1->RDATAR;
     30c:	0015                	c.nop	5
     30e:	a400                	fsd	fs0,8(s0)
     310:	0001                	nop
     312:	5800                	lw	s0,48(s0)
		Delay_Ms(( Delay >> 3 ) + 5 );
     314:	0000                	unimp
     316:	0300                	addi	s0,sp,384
     318:	0121                	addi	sp,sp,8
     31a:	1202                	slli	tp,tp,0x20
     31c:	2748                	fld	fa0,136(a4)
     31e:	0000                	unimp
     320:	01f2                	slli	gp,gp,0x1c
     322:	0000                	unimp
     324:	0020                	addi	s0,sp,8
     326:	0000                	unimp
     328:	02012203          	lw	tp,32(sp)
     32c:	0000034b          	fnmsub.s	ft6,ft0,ft0,ft0,rne
     330:	00276413          	ori	s0,a4,2
     334:	fa00                	fsw	fs0,48(a2)
	while( ((int32_t)( SysTick->CNT - targend )) < 0 );
     336:	0001                	nop
     338:	0a00                	addi	s0,sp,272
     33a:	0000                	unimp
     33c:	0300                	addi	s0,sp,384
     33e:	02ba                	slli	t0,t0,0xe
		int temp=LEDs[0].brightness;
     340:	00276d03          	0x276d03
		for(int i=1; i<12; i++){
     344:	0a00                	addi	s0,sp,272
     346:	000a                	c.slli	zero,0x2
		int temp=LEDs[0].brightness;
     348:	0000                	unimp
     34a:	1400                	addi	s0,sp,544
			LEDs[i-1].brightness=LEDs[i].brightness;
     34c:	275c                	fld	fa5,136(a4)
     34e:	0000                	unimp
     350:	0212                	slli	tp,tp,0x4
     352:	0000                	unimp
     354:	009c                	addi	a5,sp,64
     356:	0000                	unimp
     358:	02012303          	lw	t1,32(sp)
     35c:	0715                	addi	a4,a4,5
     35e:	002e                	c.slli	zero,0xb
     360:	ae00                	fsd	fs0,24(a2)
     362:	0002                	c.slli64	zero
     364:	7000                	flw	fs0,32(s0)
     366:	0000                	unimp
     368:	0300                	addi	s0,sp,384
     36a:	0126                	slli	sp,sp,0x9
		for(int i=1; i<12; i++){
     36c:	9102                	jalr	sp
     36e:	03000003          	lb	zero,48(zero) # 30 <InterruptVector+0x30>
		LEDs[11].brightness=temp;
     372:	00002e13          	slti	t3,zero,0
	while(1){
     376:	0a1e                	slli	s4,s4,0x7
	asm volatile( "\n\
     378:	0000                	unimp
     37a:	0716                	slli	a4,a4,0x5
     37c:	002e                	c.slli	zero,0xb
     37e:	ae00                	fsd	fs0,24(a2)
     380:	0002                	c.slli64	zero
     382:	7000                	flw	fs0,32(s0)
     384:	0000                	unimp
     386:	0200                	addi	s0,sp,256
     388:	13100617          	auipc	a2,0x13100
     38c:	002e                	c.slli	zero,0xb
     38e:	0000                	unimp
     390:	1500                	addi	s0,sp,672
     392:	00002e07          	flw	ft8,0(zero) # 0 <InterruptVector>
     396:	02be                	slli	t0,t0,0xf
     398:	0000                	unimp
     39a:	0088                	addi	a0,sp,64
     39c:	0000                	unimp
     39e:	02012703          	lw	a4,32(sp)
asm volatile(
     3a2:	03b0                	addi	a2,sp,456
     3a4:	0000                	unimp
     3a6:	002e1303          	lh	t1,2(t3)
     3aa:	3200                	fld	fs0,32(a2)
     3ac:	000a                	c.slli	zero,0x2
     3ae:	0000                	unimp
     3b0:	f908                	fsw	fa0,48(a0)
     3b2:	0026                	c.slli	zero,0x9
     3b4:	a000                	fsd	fs0,0(s0)
     3b6:	0000                	unimp
     3b8:	3000                	fld	fs0,32(s0)
     3ba:	0004                	0x4
     3bc:	0500                	addi	s0,sp,640
     3be:	26fa                	fld	fa3,408(sp)
     3c0:	0000                	unimp
     3c2:	0a46                	slli	s4,s4,0x11
     3c4:	0000                	unimp
     3c6:	0027070b          	0x27070b
     3ca:	0600                	addi	s0,sp,768
     3cc:	007d                	c.nop	31
     3ce:	ff08                	fsw	fa0,56(a4)
     3d0:	9f1a                	add	t5,t5,t1
     3d2:	5011                	c.li	zero,-28
     3d4:	c4000027          	0xc4000027
	SETUP_SYSTICK_HCLK
     3d8:	0002                	c.slli64	zero
     3da:	c800                	sw	s0,16(s0)
     3dc:	0000                	unimp
asm volatile(
     3de:	0300                	addi	s0,sp,384
     3e0:	0131                	addi	sp,sp,12
     3e2:	146e150f          	0x146e150f
     3e6:	0000                	unimp
     3e8:	02ea                	slli	t0,t0,0x1a
	asm volatile( "1: j 1b" );
     3ea:	0000                	unimp
{
     3ec:	00e8                	addi	a0,sp,76
     3ee:	0000                	unimp
     3f0:	03013203          	0x3013203
	SysTick->CMP += (SYSTEM_CORE_CLOCK/SYSTICKHZ);
     3f4:	0411                	addi	s0,s0,4
     3f6:	0000                	unimp
{
     3f8:	00147b03          	0x147b03
	SysTick->CMP += (SYSTEM_CORE_CLOCK/SYSTICKHZ);
     3fc:	5f00                	lw	s0,56(a4)
     3fe:	000a                	c.slli	zero,0x2
{
     400:	1700                	addi	s0,sp,928
     402:	00e8                	addi	a0,sp,76
     404:	0000                	unimp
     406:	8605                	srai	a2,a2,0x1
     408:	0014                	0x14
     40a:	8000                	0x8000
     40c:	000a                	c.slli	zero,0x2
     40e:	0000                	unimp
     410:	0800                	addi	s0,sp,16
     412:	2714                	fld	fa3,8(a4)
     414:	0000                	unimp
     416:	0110                	addi	a2,sp,128
     418:	0000                	unimp
     41a:	0426                	slli	s0,s0,0x9
     41c:	0000                	unimp
     41e:	0027150b          	0x27150b
     422:	0100                	addi	s0,sp,128
     424:	005f 1e09 0003      	0x31e09005f
	SysTick->CMP += (SYSTEM_CORE_CLOCK/SYSTICKHZ);
     42a:	4b00                	lw	s0,16(a4)
     42c:	0000000f          	fence	unknown,unknown
	SysTick->SR = 0;
     430:	d018                	sw	a4,32(s0)
     432:	0002                	c.slli64	zero
	ramp = ( ramp + 1 ) & 0x3F;		// 0 to 63
     434:	b500                	fsd	fs0,40(a0)
     436:	0001                	nop
     438:	4800                	lw	s0,16(s0)
     43a:	0004                	0x4
     43c:	0700                	addi	s0,sp,896
     43e:	5a01                	li	s4,-32
     440:	3001                	jal	fffffc40 <__global_pointer$+0xdffff3b0>
     442:	015b0107          	0x15b0107
     446:	0030                	addi	a2,sp,8
     448:	d618                	sw	a4,40(a2)
     44a:	0002                	c.slli64	zero
	if (ramp == 0) {
     44c:	b500                	fsd	fs0,40(a0)
     44e:	0001                	nop
     450:	6000                	flw	fs0,0(s0)
     452:	0004                	0x4
     454:	0700                	addi	s0,sp,896
     456:	5a01                	li	s4,-32
		pinMode(LEDs[group[currentgroup][0]].pinCathode, pinMode_I_floating); // switch off this group
     458:	3101                	jal	58 <InterruptVector+0x58>
     45a:	015b0107          	0x15b0107
     45e:	0030                	addi	a2,sp,8
     460:	dc18                	sw	a4,56(s0)
     462:	0002                	c.slli64	zero
     464:	b500                	fsd	fs0,40(a0)
     466:	0001                	nop
     468:	7800                	flw	fs0,48(s0)
     46a:	0004                	0x4
     46c:	0700                	addi	s0,sp,896
     46e:	5a01                	li	s4,-32
     470:	3301                	jal	170 <pinMode+0x5c>
     472:	015b0107          	0x15b0107
     476:	0030                	addi	a2,sp,8
     478:	e206                	fsw	ft1,4(sp)
     47a:	0002                	c.slli64	zero
     47c:	b500                	fsd	fs0,40(a0)
     47e:	0001                	nop
     480:	0700                	addi	s0,sp,896
     482:	5a01                	li	s4,-32
     484:	3401                	jal	fffffe84 <__global_pointer$+0xdffff5f4>
     486:	015b0107          	0x15b0107
		currentgroup = (currentgroup + 1) & 0x3;	// move to next group
     48a:	0030                	addi	a2,sp,8
     48c:	1900                	addi	s0,sp,176
		pinMode(LEDs[group[currentgroup][0]].pinCathode, pinMode_O_pushPull); // switch on the group
     48e:	1e85                	addi	t4,t4,-31
     490:	0000                	unimp
		currentgroup = (currentgroup + 1) & 0x3;	// move to next group
     492:	0378                	addi	a4,sp,396
     494:	0000                	unimp
     496:	0072                	c.slli	zero,0x1c
     498:	0000                	unimp
     49a:	9c01                	0x9c01
     49c:	7c19                	lui	s8,0xfffe6
		pinMode(LEDs[group[currentgroup][0]].pinCathode, pinMode_O_pushPull); // switch on the group
     49e:	001e                	c.slli	zero,0x7
     4a0:	ea00                	fsw	fs0,16(a2)
     4a2:	02000003          	lb	zero,32(zero) # 20 <InterruptVector+0x20>
     4a6:	0000                	unimp
     4a8:	0100                	addi	s0,sp,128
     4aa:	029c                	addi	a5,sp,320
     4ac:	1dee                	slli	s11,s11,0x3b
	...
     4b6:	0000                	unimp
     4b8:	9c01                	0x9c01
     4ba:	04d1                	addi	s1,s1,20
     4bc:	0000                	unimp
     4be:	001dfe03          	0x1dfe03
     4c2:	9300                	0x9300
     4c4:	000a                	c.slli	zero,0x2
     4c6:	0500                	addi	s0,sp,640
     4c8:	1e08                	addi	a0,sp,816
     4ca:	0000                	unimp
     4cc:	0ab1                	addi	s5,s5,12
     4ce:	0000                	unimp
		digitalWrite(LEDs[group[currentgroup][0]].pinCathode, low);
     4d0:	0200                	addi	s0,sp,256
     4d2:	00001e13          	slli	t3,zero,0x0
	...
     4de:	9c01                	0x9c01
     4e0:	0794                	addi	a3,sp,960
		if (LEDs[group[currentgroup][0]].brightness) { 
     4e2:	0000                	unimp
     4e4:	001e2303          	lw	t1,1(t3)
     4e8:	dd00                	sw	s0,56(a0)
     4ea:	000a                	c.slli	zero,0x2
     4ec:	0b00                	addi	s0,sp,400
     4ee:	1e30                	addi	a2,sp,824
     4f0:	0000                	unimp
     4f2:	7fac9103          	lh	sp,2042(s9)
			pinMode(LEDs[group[currentgroup][0]].pinAnode, pinMode_O_pushPull); // switch on this LED
     4f6:	3c1a                	fld	fs8,416(sp)
     4f8:	001e                	c.slli	zero,0x7
     4fa:	1600                	addi	s0,sp,800
     4fc:	168a                	slli	a3,a3,0x22
     4fe:	0000                	unimp
     500:	0000                	unimp
     502:	0000                	unimp
			digitalWrite(LEDs[group[currentgroup][0]].pinAnode, high);
     504:	0128                	addi	a0,sp,136
     506:	0000                	unimp
     508:	1e01                	addi	t3,t3,-32
     50a:	169b1013          	0x169b1013
     50e:	0000                	unimp
     510:	a80d                	j	542 <SysTick_Handler+0x156>
     512:	0016                	c.slli	zero,0x5
     514:	0000                	unimp
     516:	0016c203          	lbu	tp,1(a3)
		if (LEDs[group[currentgroup][1]].brightness) { 
     51a:	fe00                	fsw	fs0,56(a2)
     51c:	000a                	c.slli	zero,0x2
     51e:	0300                	addi	s0,sp,384
     520:	16b5                	addi	a3,a3,-19
     522:	0000                	unimp
     524:	00000be3          	beqz	zero,d3a <_data_lma+0x672>
     528:	00014017          	auipc	zero,0x14
     52c:	0b00                	addi	s0,sp,400
     52e:	16ce                	slli	a3,a3,0x33
     530:	0000                	unimp
     532:	7fb09103          	lh	sp,2043(ra) # fffe47fb <__global_pointer$+0xdffe3f6b>
     536:	0016da0b          	0x16da0b
     53a:	0200                	addi	s0,sp,256
     53c:	4891                	li	a7,4
     53e:	0016e70b          	0x16e70b
			pinMode(LEDs[group[currentgroup][1]].pinAnode, pinMode_O_pushPull); // switch on this LED
     542:	0300                	addi	s0,sp,384
     544:	ab91                	j	a98 <_data_lma+0x3d0>
     546:	057f                	0x57f
     548:	000016f3          	csrrw	a3,ustatus,zero
     54c:	0c89                	addi	s9,s9,2
     54e:	0000                	unimp
     550:	0016fe1b          	0x16fe1b
     554:	0000                	unimp
     556:	0000                	unimp
			digitalWrite(LEDs[group[currentgroup][1]].pinAnode, high);
     558:	0a00                	addi	s0,sp,272
     55a:	00001707          	0x1707
     55e:	0148                	addi	a0,sp,132
     560:	0000                	unimp
     562:	0805                	addi	a6,a6,1
     564:	dc000017          	auipc	zero,0xdc000
     568:	000c                	0xc
     56a:	0800                	addi	s0,sp,16
     56c:	1715                	addi	a4,a4,-27
		if (LEDs[group[currentgroup][2]].brightness) { 
     56e:	0000                	unimp
     570:	0180                	addi	s0,sp,192
     572:	0000                	unimp
     574:	0775                	addi	a4,a4,29
     576:	0000                	unimp
     578:	1605                	addi	a2,a2,-31
     57a:	5f000017          	auipc	zero,0x5f000
     57e:	000d                	c.nop	3
     580:	0500                	addi	s0,sp,640
     582:	00001723          	sh	zero,14(zero) # e <InterruptVector+0xe>
     586:	00000d97          	auipc	s11,0x0
     58a:	3005                	jal	fffffdaa <__global_pointer$+0xdffff51a>
     58c:	e7000017          	auipc	zero,0xe7000
     590:	000d                	c.nop	3
     592:	0b00                	addi	s0,sp,400
     594:	0000173b          	0x173b
			pinMode(LEDs[group[currentgroup][2]].pinAnode, pinMode_O_pushPull); // switch on this LED
     598:	5f01                	li	t5,-32
     59a:	7d12                	flw	fs10,36(sp)
     59c:	0018                	0x18
	...
     5a6:	0100                	addi	s0,sp,128
			digitalWrite(LEDs[group[currentgroup][2]].pinAnode, high);
     5a8:	0236                	slli	tp,tp,0xd
     5aa:	f90d                	bnez	a0,4dc <SysTick_Handler+0xf0>
     5ac:	0005                	c.nop	1
     5ae:	0300                	addi	s0,sp,384
     5b0:	18c2                	slli	a7,a7,0x30
     5b2:	0000                	unimp
     5b4:	0e4a                	slli	t3,t3,0x12
     5b6:	0000                	unimp
     5b8:	0018b503          	0x18b503
	if (LEDs[group[currentgroup][0]].brightness <= ramp) { // if the target pulse width has been achieved
     5bc:	6a00                	flw	fs0,16(a2)
     5be:	000e                	c.slli	zero,0x3
     5c0:	0300                	addi	s0,sp,384
     5c2:	18a8                	addi	a0,sp,120
     5c4:	0000                	unimp
     5c6:	0e88                	addi	a0,sp,848
     5c8:	0000                	unimp
     5ca:	00189b03          	lh	s6,1(a7)
     5ce:	9c00                	0x9c00
     5d0:	000e                	c.slli	zero,0x3
     5d2:	0300                	addi	s0,sp,384
     5d4:	188e                	slli	a7,a7,0x23
     5d6:	0000                	unimp
     5d8:	0eb0                	addi	a2,sp,856
     5da:	0000                	unimp
     5dc:	cf05                	beqz	a4,614 <SysTick_Handler+0x228>
     5de:	0018                	0x18
     5e0:	4a00                	lw	s0,16(a2)
     5e2:	000e                	c.slli	zero,0x3
     5e4:	0500                	addi	s0,sp,640
     5e6:	18dc                	addi	a5,sp,116
     5e8:	0000                	unimp
		pinMode(LEDs[group[currentgroup][0]].pinAnode, pinMode_I_floating); // switch off this LED
     5ea:	0e88                	addi	a0,sp,848
     5ec:	0000                	unimp
     5ee:	e91a                	fsw	ft6,144(sp)
     5f0:	0018                	0x18
     5f2:	1a00                	addi	s0,sp,304
     5f4:	18f4                	addi	a3,sp,124
     5f6:	0000                	unimp
     5f8:	1500                	addi	s0,sp,672
     5fa:	187d                	addi	a6,a6,-1
     5fc:	0000                	unimp
     5fe:	0000                	unimp
     600:	0000                	unimp
     602:	01b0                	addi	a2,sp,200
     604:	0000                	unimp
     606:	3b01                	jal	316 <main+0x172>
	if (LEDs[group[currentgroup][1]].brightness <= ramp) {
     608:	0e02                	c.slli64	t3
     60a:	066e                	slli	a2,a2,0x1b
     60c:	0000                	unimp
     60e:	0018c203          	lbu	tp,1(a7)
     612:	c400                	sw	s0,8(s0)
     614:	000e                	c.slli	zero,0x3
     616:	0300                	addi	s0,sp,384
     618:	18b5                	addi	a7,a7,-19
     61a:	0000                	unimp
     61c:	0ee4                	addi	s1,sp,860
     61e:	0000                	unimp
     620:	0018a803          	lw	a6,1(a7)
     624:	e400                	fsw	fs0,8(s0)
     626:	000e                	c.slli	zero,0x3
     628:	0300                	addi	s0,sp,384
     62a:	0000189b          	0x189b
     62e:	0ef8                	addi	a4,sp,860
		pinMode(LEDs[group[currentgroup][1]].pinAnode, pinMode_I_floating); // switch off this LED
     630:	0000                	unimp
     632:	8e10                	0x8e10
     634:	0018                	0x18
     636:	1700                	addi	s0,sp,928
     638:	01b0                	addi	a2,sp,200
     63a:	0000                	unimp
     63c:	cf05                	beqz	a4,674 <SysTick_Handler+0x288>
     63e:	0018                	0x18
     640:	c400                	sw	s0,8(s0)
     642:	000e                	c.slli	zero,0x3
     644:	0500                	addi	s0,sp,640
     646:	18dc                	addi	a5,sp,116
     648:	0000                	unimp
     64a:	0ee4                	addi	s1,sp,860
     64c:	0000                	unimp
	if (LEDs[group[currentgroup][2]].brightness <= ramp) {
     64e:	e91a                	fsw	ft6,144(sp)
     650:	0018                	0x18
     652:	1a00                	addi	s0,sp,304
     654:	18f4                	addi	a3,sp,124
     656:	0000                	unimp
     658:	0006                	c.slli	zero,0x1
     65a:	0000                	unimp
     65c:	e000                	fsw	fs0,0(s0)
     65e:	0000                	unimp
     660:	0700                	addi	s0,sp,896
     662:	5b01                	li	s6,-32
     664:	3a01                	jal	ffffff74 <__global_pointer$+0xdffff6e4>
     666:	015c0107          	0x15c0107
     66a:	0030                	addi	a2,sp,8
     66c:	0000                	unimp
     66e:	7d12                	flw	fs10,36(sp)
     670:	0018                	0x18
	...
		pinMode(LEDs[group[currentgroup][2]].pinAnode, pinMode_I_floating); // switch off this LED
     67a:	0100                	addi	s0,sp,128
     67c:	0239                	addi	tp,tp,14
     67e:	cd0e                	sw	gp,152(sp)
     680:	0006                	c.slli	zero,0x1
     682:	0300                	addi	s0,sp,384
}
     684:	18c2                	slli	a7,a7,0x30
     686:	0000                	unimp
     688:	0f0c                	addi	a1,sp,912
     68a:	0000                	unimp
     68c:	0018b503          	0x18b503
     690:	2c00                	fld	fs0,24(s0)
     692:	0300000f          	fence	rw,unknown
     696:	18a8                	addi	a0,sp,120
     698:	0000                	unimp
     69a:	0f40                	addi	s0,sp,916
     69c:	0000                	unimp
     69e:	00189b03          	lh	s6,1(a7)
     6a2:	5400                	lw	s0,40(s0)
     6a4:	0300000f          	fence	rw,unknown
     6a8:	188e                	slli	a7,a7,0x23
     6aa:	0000                	unimp
     6ac:	0f68                	addi	a0,sp,924
     6ae:	0000                	unimp
     6b0:	cf05                	beqz	a4,6e8 <_data_lma+0x20>
     6b2:	0018                	0x18
     6b4:	0c00                	addi	s0,sp,528
     6b6:	0500000f          	fence	ow,unknown
     6ba:	18dc                	addi	a5,sp,116
     6bc:	0000                	unimp
     6be:	0f40                	addi	s0,sp,916
     6c0:	0000                	unimp
     6c2:	e91a                	fsw	ft6,144(sp)
     6c4:	0018                	0x18
     6c6:	1a00                	addi	s0,sp,304
     6c8:	18f4                	addi	a3,sp,124
     6ca:	0000                	unimp
     6cc:	1500                	addi	s0,sp,672
     6ce:	187d                	addi	a6,a6,-1
     6d0:	0000                	unimp
     6d2:	0000                	unimp
     6d4:	0000                	unimp
     6d6:	01c8                	addi	a0,sp,196
     6d8:	0000                	unimp
     6da:	4701                	li	a4,0
     6dc:	0d02                	c.slli64	s10
     6de:	074c                	addi	a1,sp,900
     6e0:	0000                	unimp
     6e2:	0018c203          	lbu	tp,1(a7)
     6e6:	7c00                	flw	fs0,56(s0)
     6e8:	0300000f          	fence	rw,unknown
     6ec:	18b5                	addi	a7,a7,-19
     6ee:	0000                	unimp
     6f0:	0fa9                	addi	t6,t6,10
     6f2:	0000                	unimp
     6f4:	0018a803          	lw	a6,1(a7)
     6f8:	bd00                	fsd	fs0,56(a0)
     6fa:	0300000f          	fence	rw,unknown
     6fe:	0000189b          	0x189b
     702:	0ff1                	addi	t6,t6,28
     704:	0000                	unimp
     706:	00188e03          	lb	t3,1(a7)
     70a:	0500                	addi	s0,sp,640
     70c:	0010                	0x10
     70e:	1700                	addi	s0,sp,928
     710:	01c8                	addi	a0,sp,196
     712:	0000                	unimp
     714:	cf05                	beqz	a4,74c <_data_lma+0x84>
     716:	0018                	0x18
     718:	1800                	addi	s0,sp,48
     71a:	0010                	0x10
     71c:	0500                	addi	s0,sp,640
     71e:	18dc                	addi	a5,sp,116
     720:	0000                	unimp
     722:	1045                	c.nop	-15
     724:	0000                	unimp
     726:	e91a                	fsw	ft6,144(sp)
     728:	0018                	0x18
     72a:	1a00                	addi	s0,sp,304
     72c:	18f4                	addi	a3,sp,124
     72e:	0000                	unimp
     730:	0006                	c.slli	zero,0x1
     732:	0000                	unimp
     734:	e000                	fsw	fs0,0(s0)
     736:	0000                	unimp
     738:	0700                	addi	s0,sp,896
     73a:	5b01                	li	s6,-32
     73c:	4001                	c.li	zero,0
     73e:	015d0107          	0x15d0107
     742:	0731                	addi	a4,a4,12
     744:	5e01                	li	t3,-32
     746:	9102                	jalr	sp
     748:	0048                	addi	a0,sp,4
     74a:	0000                	unimp
     74c:	0018                	0x18
     74e:	0000                	unimp
     750:	ab00                	fsd	fs0,16(a4)
     752:	0004                	0x4
     754:	6200                	flw	fs0,0(a2)
     756:	07000007          	0x7000007
     75a:	5a01                	li	s4,-32
     75c:	9104                	0x9104
     75e:	7fa0                	flw	fs0,120(a5)
     760:	0006                	c.slli	zero,0x1
     762:	0009                	c.nop	2
     764:	0000                	unimp
     766:	6d00                	flw	fs0,24(a0)
     768:	0000                	unimp
     76a:	0900                	addi	s0,sp,144
     76c:	0000                	unimp
     76e:	0000                	unimp
     770:	0000029b          	0x29b
     774:	0600                	addi	s0,sp,768
     776:	0000                	unimp
     778:	0000                	unimp
     77a:	0000029b          	0x29b
     77e:	035a0107          	0x35a0107
     782:	ab91                	j	cd6 <_data_lma+0x60e>
     784:	077f                	0x77f
     786:	5b01                	li	s6,-32
     788:	3101                	jal	388 <handle_reset+0x10>
     78a:	015c0107          	0x15c0107
     78e:	0030                	addi	a2,sp,8
     790:	0000                	unimp
     792:	0000                	unimp
     794:	8402                	jr	s0
     796:	001d                	c.nop	7
	...
     7a0:	0100                	addi	s0,sp,128
     7a2:	c89c                	sw	a5,16(s1)
     7a4:	04000007          	0x4000007
     7a8:	1d94                	addi	a3,sp,752
     7aa:	0000                	unimp
     7ac:	5a01                	li	s4,-32
     7ae:	a004                	fsd	fs1,0(s0)
     7b0:	001d                	c.nop	7
     7b2:	0100                	addi	s0,sp,128
     7b4:	1daa035b          	0x1daa035b
     7b8:	0000                	unimp
     7ba:	1059                	c.nop	-10
     7bc:	0000                	unimp
     7be:	b405                	j	1de <main+0x3a>
     7c0:	001d                	c.nop	7
     7c2:	b700                	fsd	fs0,40(a4)
     7c4:	0010                	0x10
     7c6:	0000                	unimp
     7c8:	5f02                	lw	t5,32(sp)
     7ca:	001d                	c.nop	7
	...
     7d4:	0100                	addi	s0,sp,128
     7d6:	ee9c                	fsw	fa5,24(a3)
     7d8:	03000007          	0x3000007
     7dc:	00001d6f          	jal	s10,17dc <ch32v003fun.c.8affbd33+0x887>
     7e0:	10d5                	addi	ra,ra,-11
     7e2:	0000                	unimp
     7e4:	001d7903          	0x1d7903
     7e8:	f300                	fsw	fs0,32(a4)
     7ea:	0010                	0x10
     7ec:	0000                	unimp
     7ee:	3002                	fld	ft0,32(sp)
     7f0:	001d                	c.nop	7
	...
     7fa:	0100                	addi	s0,sp,128
     7fc:	1d9c                	addi	a5,sp,752
     7fe:	0008                	0x8
     800:	0300                	addi	s0,sp,384
     802:	1d40                	addi	s0,sp,692
     804:	0000                	unimp
     806:	1111                	addi	sp,sp,-28
     808:	0000                	unimp
     80a:	001d4a03          	lbu	s4,1(s10)
     80e:	2f00                	fld	fs0,24(a4)
     810:	0011                	c.nop	4
     812:	0300                	addi	s0,sp,384
     814:	1d54                	addi	a3,sp,692
     816:	0000                	unimp
     818:	114d                	addi	sp,sp,-13
     81a:	0000                	unimp
     81c:	0200                	addi	s0,sp,256
     81e:	00001d0b          	0x1d0b
	...
     82a:	9c01                	0x9c01
     82c:	00000843          	fmadd.s	fa6,ft0,ft0,ft0,rne
     830:	001d1b03          	lh	s6,1(s10)
     834:	7e00                	flw	fs0,56(a2)
     836:	0011                	c.nop	4
     838:	0300                	addi	s0,sp,384
     83a:	1d25                	addi	s10,s10,-23
     83c:	0000                	unimp
     83e:	119c                	addi	a5,sp,224
     840:	0000                	unimp
     842:	0200                	addi	s0,sp,256
     844:	1cc6                	slli	s9,s9,0x31
	...
     84e:	0000                	unimp
     850:	9c01                	0x9c01
     852:	0882                	c.slli64	a7
     854:	0000                	unimp
     856:	001cd603          	lhu	a2,1(s9)
     85a:	ba00                	fsd	fs0,48(a2)
     85c:	0011                	c.nop	4
     85e:	0400                	addi	s0,sp,512
     860:	1ce1                	addi	s9,s9,-8
     862:	0000                	unimp
     864:	5b01                	li	s6,-32
     866:	001cec03          	0x1cec03
     86a:	f400                	fsw	fs0,40(s0)
     86c:	0011                	c.nop	4
     86e:	0500                	addi	s0,sp,640
     870:	1cf6                	slli	s9,s9,0x3d
     872:	0000                	unimp
     874:	124e                	slli	tp,tp,0x33
     876:	0000                	unimp
     878:	0005                	c.nop	1
     87a:	001d                	c.nop	7
     87c:	b700                	fsd	fs0,40(a4)
     87e:	0012                	c.slli	zero,0x4
     880:	0000                	unimp
     882:	e302                	fsw	ft0,132(sp)
     884:	001a                	c.slli	zero,0x6
	...
     88e:	0100                	addi	s0,sp,128
     890:	d89c                	sw	a5,48(s1)
     892:	0008                	0x8
     894:	0300                	addi	s0,sp,384
     896:	1af4                	addi	a3,sp,380
     898:	0000                	unimp
     89a:	1312                	slli	t1,t1,0x24
     89c:	0000                	unimp
     89e:	001aff03          	0x1aff03
     8a2:	3b00                	fld	fs0,48(a4)
     8a4:	1c000013          	li	zero,448
     8a8:	00001ae3          	bnez	zero,10bc <ch32v003fun.c.8affbd33+0x167>
	...
     8b4:	1b01                	addi	s6,s6,-32
     8b6:	0701                	addi	a4,a4,0
     8b8:	ff10                	fsw	fa2,56(a4)
     8ba:	001a                	c.slli	zero,0x6
     8bc:	0300                	addi	s0,sp,384
     8be:	1af4                	addi	a3,sp,380
     8c0:	0000                	unimp
     8c2:	00001383          	lh	t2,0(zero) # 0 <InterruptVector>
     8c6:	0006                	c.slli	zero,0x1
     8c8:	0000                	unimp
     8ca:	ab00                	fsd	fs0,16(a4)
     8cc:	0004                	0x4
     8ce:	0700                	addi	s0,sp,896
     8d0:	5a01                	li	s4,-32
     8d2:	7802                	flw	fa6,32(sp)
     8d4:	0000                	unimp
     8d6:	0000                	unimp
     8d8:	7d02                	flw	fs10,32(sp)
     8da:	001a                	c.slli	zero,0x6
	...
     8e4:	0100                	addi	s0,sp,128
     8e6:	4e9c                	lw	a5,24(a3)
     8e8:	0009                	c.nop	2
     8ea:	0300                	addi	s0,sp,384
     8ec:	1a8e                	slli	s5,s5,0x23
     8ee:	0000                	unimp
     8f0:	13a1                	addi	t2,t2,-24
     8f2:	0000                	unimp
     8f4:	001a9903          	lh	s2,1(s5)
     8f8:	da00                	sw	s0,48(a2)
     8fa:	12000013          	li	zero,288
     8fe:	1aa5                	addi	s5,s5,-23
	...
     908:	0000                	unimp
     90a:	2e01                	jal	c1a <_data_lma+0x552>
     90c:	0901                	addi	s2,s2,0
     90e:	093d                	addi	s2,s2,15
     910:	0000                	unimp
     912:	001acc03          	lbu	s8,1(s5)
     916:	0600                	addi	s0,sp,768
     918:	0014                	0x14
     91a:	0300                	addi	s0,sp,384
     91c:	1ac1                	addi	s5,s5,-16
     91e:	0000                	unimp
     920:	144e                	slli	s0,s0,0x33
     922:	0000                	unimp
     924:	001ab603          	0x1ab603
     928:	6c00                	flw	fs0,24(s0)
     92a:	0014                	0x14
     92c:	1700                	addi	s0,sp,928
     92e:	01e8                	addi	a0,sp,204
     930:	0000                	unimp
     932:	d705                	beqz	a4,85a <_data_lma+0x192>
     934:	001a                	c.slli	zero,0x6
     936:	9900                	0x9900
     938:	0014                	0x14
     93a:	0000                	unimp
     93c:	0600                	addi	s0,sp,768
     93e:	0000                	unimp
     940:	0000                	unimp
     942:	000004ab          	0x4ab
     946:	025a0107          	0x25a0107
     94a:	0078                	addi	a4,sp,12
     94c:	0000                	unimp
     94e:	3002                	fld	ft0,32(sp)
     950:	001a                	c.slli	zero,0x6
	...
     95a:	0100                	addi	s0,sp,128
     95c:	8b9c                	0x8b9c
     95e:	0009                	c.nop	2
     960:	0400                	addi	s0,sp,512
     962:	1a41                	addi	s4,s4,-16
     964:	0000                	unimp
     966:	5a01                	li	s4,-32
     968:	4e04                	lw	s1,24(a2)
     96a:	001a                	c.slli	zero,0x6
     96c:	0100                	addi	s0,sp,128
     96e:	1a5b035b          	0x1a5b035b
     972:	0000                	unimp
     974:	000014c7          	fmsub.s	fs1,ft0,ft0,ft0,rtz
     978:	6605                	lui	a2,0x1
     97a:	001a                	c.slli	zero,0x6
     97c:	fc00                	fsw	fs0,56(s0)
     97e:	0014                	0x14
     980:	0500                	addi	s0,sp,640
     982:	1a71                	addi	s4,s4,-4
     984:	0000                	unimp
     986:	1541                	addi	a0,a0,-16
     988:	0000                	unimp
     98a:	0200                	addi	s0,sp,256
     98c:	19e5                	addi	s3,s3,-7
	...
     996:	0000                	unimp
     998:	9c01                	0x9c01
     99a:	09ca                	slli	s3,s3,0x12
     99c:	0000                	unimp
     99e:	0019f603          	0x19f603
     9a2:	8600                	0x8600
     9a4:	0015                	c.nop	5
     9a6:	0400                	addi	s0,sp,512
     9a8:	1a02                	slli	s4,s4,0x20
     9aa:	0000                	unimp
     9ac:	5b01                	li	s6,-32
     9ae:	001a0e03          	lb	t3,1(s4)
     9b2:	c000                	sw	s0,0(s0)
     9b4:	0015                	c.nop	5
     9b6:	0500                	addi	s0,sp,640
     9b8:	1a19                	addi	s4,s4,-26
     9ba:	0000                	unimp
     9bc:	1605                	addi	a2,a2,-31
     9be:	0000                	unimp
     9c0:	2405                	jal	be0 <_data_lma+0x518>
     9c2:	001a                	c.slli	zero,0x6
     9c4:	7900                	flw	fs0,48(a0)
     9c6:	0016                	c.slli	zero,0x5
     9c8:	0000                	unimp
     9ca:	9802                	jalr	a6
     9cc:	0019                	c.nop	6
	...
     9d6:	0100                	addi	s0,sp,128
     9d8:	739c                	flw	fa5,32(a5)
     9da:	000a                	c.slli	zero,0x2
     9dc:	0300                	addi	s0,sp,384
     9de:	19a9                	addi	s3,s3,-22
     9e0:	0000                	unimp
     9e2:	16be                	slli	a3,a3,0x2f
     9e4:	0000                	unimp
     9e6:	0019b603          	0x19b603
     9ea:	0000                	unimp
     9ec:	03000017          	auipc	zero,0x3000
     9f0:	000019c3          	fmadd.s	fs3,ft0,ft0,ft0,rtz
     9f4:	1750                	addi	a2,sp,932
     9f6:	0000                	unimp
     9f8:	ce05                	beqz	a2,a30 <_data_lma+0x368>
     9fa:	0019                	c.nop	6
     9fc:	b900                	fsd	fs0,48(a0)
     9fe:	05000017          	auipc	zero,0x5000
     a02:	19d9                	addi	s3,s3,-10
     a04:	0000                	unimp
     a06:	000017fb          	0x17fb
     a0a:	9815                	andi	s0,s0,-27
     a0c:	0019                	c.nop	6
     a0e:	0000                	unimp
     a10:	0000                	unimp
     a12:	0000                	unimp
     a14:	0002                	c.slli64	zero
     a16:	0100                	addi	s0,sp,128
     a18:	0141                	addi	sp,sp,16
     a1a:	000a5307          	0xa5307
     a1e:	0300                	addi	s0,sp,384
     a20:	000019c3          	fmadd.s	fs3,ft0,ft0,ft0,rtz
     a24:	0000184b          	fnmsub.s	fa6,ft0,ft0,ft0,rtz
     a28:	0019b603          	0x19b603
     a2c:	b100                	fsd	fs0,32(a0)
     a2e:	0018                	0x18
     a30:	0300                	addi	s0,sp,384
     a32:	19a9                	addi	s3,s3,-22
     a34:	0000                	unimp
     a36:	18da                	slli	a7,a7,0x36
     a38:	0000                	unimp
     a3a:	00020017          	auipc	zero,0x20
     a3e:	0500                	addi	s0,sp,640
     a40:	19ce                	slli	s3,s3,0x33
     a42:	0000                	unimp
     a44:	00001903          	lh	s2,0(zero) # 0 <InterruptVector>
     a48:	d905                	beqz	a0,978 <_data_lma+0x2b0>
     a4a:	0019                	c.nop	6
     a4c:	2d00                	fld	fs0,24(a0)
     a4e:	0019                	c.nop	6
     a50:	0000                	unimp
     a52:	0c00                	addi	s0,sp,528
     a54:	0000                	unimp
     a56:	0000                	unimp
     a58:	0f40                	addi	s0,sp,916
     a5a:	0000                	unimp
     a5c:	035a0107          	0x35a0107
     a60:	075a01f3          	0x75a01f3
     a64:	5b01                	li	s6,-32
     a66:	5b01f303          	0x5b01f303
     a6a:	035c0107          	0x35c0107
     a6e:	005c01f3          	0x5c01f3
     a72:	0200                	addi	s0,sp,256
     a74:	0000194b          	fnmsub.s	fs2,ft0,ft0,ft0,rtz
	...
     a80:	9c01                	0x9c01
     a82:	00000aab          	0xaab
     a86:	00195c03          	lhu	s8,1(s2)
     a8a:	5700                	lw	s0,40(a4)
     a8c:	0019                	c.nop	6
     a8e:	0300                	addi	s0,sp,384
     a90:	1969                	addi	s2,s2,-6
     a92:	0000                	unimp
     a94:	1978                	addi	a4,sp,188
     a96:	0000                	unimp
     a98:	00197403          	0x197403
     a9c:	9600                	0x9600
     a9e:	0019                	c.nop	6
     aa0:	0500                	addi	s0,sp,640
     aa2:	197f                	0x197f
     aa4:	0000                	unimp
     aa6:	000019b7          	lui	s3,0x1
     aaa:	0200                	addi	s0,sp,256
     aac:	00001dbf 00000000 	0x1dbf
     ab4:	0000                	unimp
     ab6:	0000                	unimp
     ab8:	9c01                	0x9c01
     aba:	0af5                	addi	s5,s5,29
     abc:	0000                	unimp
     abe:	001dcf03          	lbu	t5,1(s11) # 587 <SysTick_Handler+0x19b>
     ac2:	ca00                	sw	s0,16(a2)
     ac4:	0019                	c.nop	6
     ac6:	0300                	addi	s0,sp,384
     ac8:	1dd9                	addi	s11,s11,-10
     aca:	0000                	unimp
     acc:	19f6                	slli	s3,s3,0x3d
     ace:	0000                	unimp
     ad0:	e305                	bnez	a4,af0 <_data_lma+0x428>
     ad2:	001d                	c.nop	7
     ad4:	2200                	fld	fs0,0(a2)
     ad6:	001a                	c.slli	zero,0x6
     ad8:	0600                	addi	s0,sp,768
     ada:	0000                	unimp
     adc:	0000                	unimp
     ade:	00000a73          	0xa73
     ae2:	025a0107          	0x25a0107
     ae6:	0079                	c.nop	30
     ae8:	015b0107          	0x15b0107
     aec:	0730                	addi	a2,sp,904
     aee:	5c01                	li	s8,-32
     af0:	7802                	flw	fa6,32(sp)
     af2:	0000                	unimp
     af4:	0200                	addi	s0,sp,256
     af6:	00001b33          	sll	s6,zero,zero
	...
     b02:	9c01                	0x9c01
     b04:	0c08                	addi	a0,sp,528
     b06:	0000                	unimp
     b08:	001b4303          	lbu	t1,1(s6)
     b0c:	3500                	fld	fs0,40(a0)
     b0e:	001a                	c.slli	zero,0x6
     b10:	0300                	addi	s0,sp,384
     b12:	1b4d                	addi	s6,s6,-13
     b14:	0000                	unimp
     b16:	1aa9                	addi	s5,s5,-22
     b18:	0000                	unimp
     b1a:	5705                	li	a4,-31
     b1c:	0a00001b          	0xa00001b
     b20:	0500001b          	0x500001b
     b24:	1b61                	addi	s6,s6,-8
     b26:	0000                	unimp
     b28:	00001b4b          	fnmsub.s	fs6,ft0,ft0,ft0,rtz
     b2c:	6b05                	lui	s6,0x1
     b2e:	8d00001b          	0x8d00001b
     b32:	0500001b          	0x500001b
     b36:	1b76                	slli	s6,s6,0x3d
     b38:	0000                	unimp
     b3a:	1be4                	addi	s1,sp,508
     b3c:	0000                	unimp
     b3e:	8105                	srli	a0,a0,0x1
     b40:	5a00001b          	0x5a00001b
     b44:	001c                	0x1c
     b46:	0500                	addi	s0,sp,640
     b48:	00001b8b          	0x1b8b
     b4c:	1d36                	slli	s10,s10,0x2d
     b4e:	0000                	unimp
     b50:	9505                	srai	a0,a0,0x21
     b52:	ff00001b          	0xff00001b
     b56:	001d                	c.nop	7
     b58:	1a00                	addi	s0,sp,304
     b5a:	1ba0                	addi	s0,sp,504
     b5c:	0000                	unimp
     b5e:	ab05                	j	108e <ch32v003fun.c.8affbd33+0x139>
     b60:	4d00001b          	0x4d00001b
     b64:	001e                	c.slli	zero,0x7
     b66:	0500                	addi	s0,sp,640
     b68:	00001bb7          	lui	s7,0x1
     b6c:	1ec9                	addi	t4,t4,-14
     b6e:	0000                	unimp
     b70:	001bc30b          	0x1bc30b
     b74:	0300                	addi	s0,sp,384
     b76:	d491                	beqz	s1,a82 <_data_lma+0x3ba>
     b78:	1bcf0b77          	0x1bcf0b77
     b7c:	0000                	unimp
     b7e:	77f49103          	lh	sp,1919(s1)
     b82:	db08                	sw	a0,48(a4)
     b84:	1800001b          	0x1800001b
     b88:	0002                	c.slli64	zero
     b8a:	c100                	sw	s0,0(a0)
     b8c:	0500000b          	0x500000b
     b90:	1bdc                	addi	a5,sp,500
     b92:	0000                	unimp
     b94:	1edd                	addi	t4,t4,-9
     b96:	0000                	unimp
     b98:	e805                	bnez	s0,bc8 <_data_lma+0x500>
     b9a:	0a00001b          	0xa00001b
     b9e:	001f 0600 0000      	0x600001f
     ba4:	0000                	unimp
     ba6:	00000a73          	0xa73
     baa:	045a0107          	0x45a0107
     bae:	c091                	beqz	s1,bb2 <_data_lma+0x4ea>
     bb0:	01070677          	0x1070677
     bb4:	0730015b          	0x730015b
     bb8:	5c01                	li	s8,-32
     bba:	9104                	0x9104
     bbc:	77bc                	flw	fa5,104(a5)
     bbe:	0006                	c.slli	zero,0x1
     bc0:	1800                	addi	s0,sp,48
     bc2:	0000                	unimp
     bc4:	0000                	unimp
     bc6:	00000f23          	sb	zero,30(zero) # 1e <InterruptVector+0x1e>
     bca:	0be1                	addi	s7,s7,24
     bcc:	0000                	unimp
     bce:	035a0107          	0x35a0107
     bd2:	d491                	beqz	s1,ade <_data_lma+0x416>
     bd4:	5b010777          	0x5b010777
     bd8:	3001                	jal	3d8 <handle_reset+0x60>
     bda:	025c0107          	0x25c0107
     bde:	2008                	fld	fa0,0(s0)
     be0:	0600                	addi	s0,sp,768
     be2:	0000                	unimp
     be4:	0000                	unimp
     be6:	0000098b          	0x98b
     bea:	045a0107          	0x45a0107
     bee:	bc91                	j	642 <SysTick_Handler+0x256>
     bf0:	01070677          	0x1070677
     bf4:	bc91095b          	0xbc91095b
     bf8:	b8910677          	0xb8910677
     bfc:	07220677          	0x7220677
     c00:	5c01                	li	s8,-32
     c02:	06007203          	0x6007203
     c06:	0000                	unimp
     c08:	0b02                	c.slli64	s6
     c0a:	0000001b          	0x1b
     c0e:	0000                	unimp
     c10:	0000                	unimp
     c12:	0000                	unimp
     c14:	0100                	addi	s0,sp,128
     c16:	0e9c                	addi	a5,sp,848
     c18:	000d                	c.nop	3
     c1a:	0300                	addi	s0,sp,384
     c1c:	1b1c                	addi	a5,sp,432
     c1e:	0000                	unimp
     c20:	1f28                	addi	a0,sp,952
     c22:	0000                	unimp
     c24:	001b2703          	lw	a4,1(s6) # 1001 <ch32v003fun.c.8affbd33+0xac>
     c28:	5f00                	lw	s0,56(a4)
     c2a:	001f 1200 1c8b      	0x1c8b1200001f
	...
     c38:	0000                	unimp
     c3a:	1201                	addi	tp,tp,-32
     c3c:	1401                	addi	s0,s0,-32
     c3e:	00000c67          	jalr	s8,zero # 0 <InterruptVector>
     c42:	001ca503          	lw	a0,1(s9)
     c46:	af00                	fsd	fs0,24(a4)
     c48:	001f 0300 1c9b      	0x1c9b0300001f
     c4e:	0000                	unimp
     c50:	1fc2                	slli	t6,t6,0x30
     c52:	0000                	unimp
     c54:	af05                	j	1384 <ch32v003fun.c.8affbd33+0x42f>
     c56:	001c                	0x1c
     c58:	f800                	fsw	fs0,48(s0)
     c5a:	001f 0500 1cba      	0x1cba0500001f
     c60:	0000                	unimp
     c62:	00002023          	sw	zero,0(zero) # 0 <InterruptVector>
     c66:	1200                	addi	s0,sp,288
     c68:	1c50                	addi	a2,sp,564
	...
     c72:	0000                	unimp
     c74:	1401                	addi	s0,s0,-32
     c76:	1401                	addi	s0,s0,-32
     c78:	0ca1                	addi	s9,s9,8
     c7a:	0000                	unimp
     c7c:	001c6a03          	0x1c6a03
     c80:	4100                	lw	s0,0(a0)
     c82:	0020                	addi	s0,sp,8
     c84:	0300                	addi	s0,sp,384
     c86:	1c60                	addi	s0,sp,572
     c88:	0000                	unimp
     c8a:	2054                	fld	fa3,128(s0)
     c8c:	0000                	unimp
     c8e:	7405                	lui	s0,0xfffe1
     c90:	001c                	0x1c
     c92:	8a00                	0x8a00
     c94:	0020                	addi	s0,sp,8
     c96:	0500                	addi	s0,sp,640
     c98:	1c7f                	0x1c7f
     c9a:	0000                	unimp
     c9c:	209d                	jal	d02 <_data_lma+0x63a>
     c9e:	0000                	unimp
     ca0:	1500                	addi	s0,sp,672
     ca2:	1c15                	addi	s8,s8,-27
     ca4:	0000                	unimp
     ca6:	0000                	unimp
     ca8:	0000                	unimp
     caa:	0240                	addi	s0,sp,260
     cac:	0000                	unimp
     cae:	1601                	addi	a2,a2,-32
     cb0:	1401                	addi	s0,s0,-32
     cb2:	0ce1                	addi	s9,s9,24
     cb4:	0000                	unimp
     cb6:	001c2f03          	lw	t5,1(s8) # fffe6001 <__global_pointer$+0xdffe5771>
     cba:	bb00                	fsd	fs0,48(a4)
     cbc:	0020                	addi	s0,sp,8
     cbe:	0300                	addi	s0,sp,384
     cc0:	1c25                	addi	s8,s8,-23
     cc2:	0000                	unimp
     cc4:	20d9                	jal	d8a <_data_lma+0x6c2>
     cc6:	0000                	unimp
     cc8:	00024017          	auipc	zero,0x24
     ccc:	0500                	addi	s0,sp,640
     cce:	1c39                	addi	s8,s8,-18
     cd0:	0000                	unimp
     cd2:	2102                	fld	ft2,0(sp)
     cd4:	0000                	unimp
     cd6:	4405                	li	s0,1
     cd8:	001c                	0x1c
     cda:	2000                	fld	fs0,0(s0)
     cdc:	0021                	c.nop	8
     cde:	0000                	unimp
     ce0:	1800                	addi	s0,sp,48
     ce2:	0000                	unimp
     ce4:	0000                	unimp
     ce6:	0882                	c.slli64	a7
     ce8:	0000                	unimp
     cea:	0cfc                	addi	a5,sp,604
     cec:	0000                	unimp
     cee:	035a0107          	0x35a0107
     cf2:	075a01f3          	0x75a01f3
     cf6:	5b01                	li	s6,-32
     cf8:	7902                	flw	fs2,32(sp)
     cfa:	0000                	unimp
     cfc:	000c                	0xc
     cfe:	0000                	unimp
     d00:	f500                	fsw	fs0,40(a0)
     d02:	000a                	c.slli	zero,0x2
     d04:	0700                	addi	s0,sp,896
     d06:	5b01                	li	s6,-32
     d08:	5b01f303          	0x5b01f303
     d0c:	0000                	unimp
     d0e:	2202                	fld	ft4,0(sp)
     d10:	0019                	c.nop	6
	...
     d1a:	0100                	addi	s0,sp,128
     d1c:	889c                	0x889c
     d1e:	000d                	c.nop	3
     d20:	0300                	addi	s0,sp,384
     d22:	00001933          	sll	s2,zero,zero
     d26:	2149                	jal	11a8 <ch32v003fun.c.8affbd33+0x253>
     d28:	0000                	unimp
     d2a:	3e05                	jal	85a <_data_lma+0x192>
     d2c:	0019                	c.nop	6
     d2e:	7500                	flw	fs0,40(a0)
     d30:	0021                	c.nop	8
     d32:	1800                	addi	s0,sp,48
     d34:	0000                	unimp
     d36:	0000                	unimp
     d38:	000004ab          	0x4ab
     d3c:	00000d47          	fmsub.s	fs10,ft0,ft0,ft0,rne
     d40:	025a0107          	0x25a0107
     d44:	0079                	c.nop	30
     d46:	1800                	addi	s0,sp,48
     d48:	0000                	unimp
     d4a:	0000                	unimp
     d4c:	021d                	addi	tp,tp,7
     d4e:	0000                	unimp
     d50:	0d68                	addi	a0,sp,668
     d52:	0000                	unimp
     d54:	025a0107          	0x25a0107
     d58:	0079                	c.nop	30
     d5a:	025b0107          	0x25b0107
     d5e:	0078                	addi	a4,sp,12
     d60:	f10e                	fsw	ft3,160(sp)
     d62:	0002                	c.slli64	zero
     d64:	0100                	addi	s0,sp,128
     d66:	0030                	addi	a2,sp,8
     d68:	0006                	c.slli	zero,0x1
     d6a:	0000                	unimp
     d6c:	1d00                	addi	s0,sp,688
     d6e:	0002                	c.slli64	zero
     d70:	0700                	addi	s0,sp,896
     d72:	5a01                	li	s4,-32
     d74:	0305                	addi	t1,t1,1
     d76:	0000                	unimp
     d78:	0000                	unimp
     d7a:	015b0107          	0x15b0107
     d7e:	0e31                	addi	t3,t3,12
     d80:	02f1                	addi	t0,t0,28
     d82:	0000                	unimp
     d84:	3001                	jal	584 <SysTick_Handler+0x198>
     d86:	0000                	unimp
     d88:	bc19                	j	79e <_data_lma+0xd6>
     d8a:	0015                	c.nop	5
     d8c:	0000                	unimp
     d8e:	0000                	unimp
     d90:	9c00                	0x9c00
     d92:	0000                	unimp
     d94:	0100                	addi	s0,sp,128
     d96:	029c                	addi	a5,sp,320
     d98:	14a6                	slli	s1,s1,0x29
	...
     da2:	0000                	unimp
     da4:	9c01                	0x9c01
     da6:	0dbd                	addi	s11,s11,15
     da8:	0000                	unimp
     daa:	0014b703          	0x14b703
     dae:	9500                	0x9500
     db0:	0021                	c.nop	8
     db2:	0500                	addi	s0,sp,640
     db4:	14c2                	slli	s1,s1,0x30
     db6:	0000                	unimp
     db8:	000021cf          	fnmadd.s	ft3,ft0,ft0,ft0,rdn
     dbc:	0200                	addi	s0,sp,256
     dbe:	00002723          	sw	zero,14(zero) # e <InterruptVector+0xe>
     dc2:	03ec                	addi	a1,sp,460
     dc4:	0000                	unimp
     dc6:	02d0                	addi	a2,sp,324
     dc8:	0000                	unimp
     dca:	9c01                	0x9c01
     dcc:	00000ecb          	fnmsub.s	ft9,ft0,ft0,ft0,rne
     dd0:	8a18                	0x8a18
     dd2:	0004                	0x4
     dd4:	b500                	fsd	fs0,40(a0)
     dd6:	0001                	nop
     dd8:	e300                	fsw	fs0,0(a4)
     dda:	000d                	c.nop	3
     ddc:	0700                	addi	s0,sp,896
     dde:	5b01                	li	s6,-32
     de0:	3001                	jal	5e0 <SysTick_Handler+0x1f4>
     de2:	1800                	addi	s0,sp,48
     de4:	04d0                	addi	a2,sp,580
     de6:	0000                	unimp
     de8:	01b5                	addi	gp,gp,13
     dea:	0000                	unimp
     dec:	0df6                	slli	s11,s11,0x1d
     dee:	0000                	unimp
     df0:	015b0107          	0x15b0107
     df4:	0034                	addi	a3,sp,8
     df6:	e218                	fsw	fa4,0(a2)
     df8:	0004                	0x4
     dfa:	7f00                	flw	fs0,56(a4)
     dfc:	0001                	nop
     dfe:	0900                	addi	s0,sp,144
     e00:	000e                	c.slli	zero,0x3
     e02:	0700                	addi	s0,sp,896
     e04:	5b01                	li	s6,-32
     e06:	3001                	jal	606 <SysTick_Handler+0x21a>
     e08:	1800                	addi	s0,sp,48
     e0a:	0504                	addi	s1,sp,640
     e0c:	0000                	unimp
     e0e:	01b5                	addi	gp,gp,13
     e10:	0000                	unimp
     e12:	0e1c                	addi	a5,sp,784
     e14:	0000                	unimp
     e16:	015b0107          	0x15b0107
     e1a:	0034                	addi	a3,sp,8
     e1c:	1618                	addi	a4,sp,800
     e1e:	0005                	c.nop	1
     e20:	7f00                	flw	fs0,56(a4)
     e22:	0001                	nop
     e24:	2f00                	fld	fs0,24(a4)
     e26:	000e                	c.slli	zero,0x3
     e28:	0700                	addi	s0,sp,896
     e2a:	5b01                	li	s6,-32
     e2c:	3101                	jal	a2c <_data_lma+0x364>
     e2e:	1800                	addi	s0,sp,48
     e30:	0558                	addi	a4,sp,644
     e32:	0000                	unimp
     e34:	01b5                	addi	gp,gp,13
     e36:	0000                	unimp
     e38:	0e42                	slli	t3,t3,0x10
     e3a:	0000                	unimp
     e3c:	015b0107          	0x15b0107
     e40:	0034                	addi	a3,sp,8
     e42:	6a18                	flw	fa4,16(a2)
     e44:	0005                	c.nop	1
     e46:	7f00                	flw	fs0,56(a4)
     e48:	0001                	nop
     e4a:	5500                	lw	s0,40(a0)
     e4c:	000e                	c.slli	zero,0x3
     e4e:	0700                	addi	s0,sp,896
     e50:	5b01                	li	s6,-32
     e52:	3101                	jal	a52 <_data_lma+0x38a>
     e54:	1800                	addi	s0,sp,48
     e56:	05a8                	addi	a0,sp,712
     e58:	0000                	unimp
     e5a:	01b5                	addi	gp,gp,13
     e5c:	0000                	unimp
     e5e:	0e68                	addi	a0,sp,796
     e60:	0000                	unimp
     e62:	015b0107          	0x15b0107
     e66:	0034                	addi	a3,sp,8
     e68:	ba18                	fsd	fa4,48(a2)
     e6a:	0005                	c.nop	1
     e6c:	7f00                	flw	fs0,56(a4)
     e6e:	0001                	nop
     e70:	7b00                	flw	fs0,48(a4)
     e72:	000e                	c.slli	zero,0x3
     e74:	0700                	addi	s0,sp,896
     e76:	5b01                	li	s6,-32
     e78:	3101                	jal	a78 <_data_lma+0x3b0>
     e7a:	1800                	addi	s0,sp,48
     e7c:	0600                	addi	s0,sp,768
     e7e:	0000                	unimp
     e80:	01b5                	addi	gp,gp,13
     e82:	0000                	unimp
     e84:	0e8e                	slli	t4,t4,0x3
     e86:	0000                	unimp
     e88:	015b0107          	0x15b0107
     e8c:	0030                	addi	a2,sp,8
     e8e:	4618                	lw	a4,8(a2)
     e90:	0006                	c.slli	zero,0x1
     e92:	b500                	fsd	fs0,40(a0)
     e94:	0001                	nop
     e96:	a100                	fsd	fs0,0(a0)
     e98:	000e                	c.slli	zero,0x3
     e9a:	0700                	addi	s0,sp,896
     e9c:	5b01                	li	s6,-32
     e9e:	3001                	jal	69e <SysTick_Handler+0x2b2>
     ea0:	1800                	addi	s0,sp,48
     ea2:	0684                	addi	s1,sp,832
     ea4:	0000                	unimp
     ea6:	01b5                	addi	gp,gp,13
     ea8:	0000                	unimp
     eaa:	0eb4                	addi	a3,sp,856
     eac:	0000                	unimp
     eae:	015b0107          	0x15b0107
     eb2:	0030                	addi	a2,sp,8
     eb4:	00272f0b          	0x272f0b
     eb8:	0500                	addi	s0,sp,640
     eba:	0000a103          	lw	sp,0(ra)
     ebe:	0b20                	addi	s0,sp,408
     ec0:	0000273b          	0x273b
     ec4:	0305                	addi	t1,t1,1
     ec6:	00a0                	addi	s0,sp,72
     ec8:	2000                	fld	fs0,0(s0)
     eca:	0b00                	addi	s0,sp,400
     ecc:	1368                	addi	a0,sp,428
     ece:	0000                	unimp
     ed0:	0305                	addi	t1,t1,1
     ed2:	0024                	addi	s1,sp,8
     ed4:	2000                	fld	fs0,0(s0)
     ed6:	00138f0b          	0x138f0b
     eda:	0500                	addi	s0,sp,640
     edc:	00003403          	0x3403
     ee0:	0b20                	addi	s0,sp,408
     ee2:	00002273          	csrr	tp,ustatus
     ee6:	0305                	addi	t1,t1,1
     ee8:	0048                	addi	a0,sp,4
     eea:	2000                	fld	fs0,0(s0)
     eec:	00229a0b          	0x229a0b
     ef0:	0500                	addi	s0,sp,640
     ef2:	00005803          	lhu	a6,0(zero) # 0 <InterruptVector>
     ef6:	0b20                	addi	s0,sp,408
     ef8:	2ab2                	fld	fs5,264(sp)
     efa:	0000                	unimp
     efc:	0305                	addi	t1,t1,1
     efe:	006c                	addi	a1,sp,12
     f00:	2000                	fld	fs0,0(s0)
     f02:	002ad90b          	0x2ad90b
     f06:	0500                	addi	s0,sp,640
     f08:	00007c03          	0x7c03
     f0c:	0b20                	addi	s0,sp,408
     f0e:	26b5                	jal	127a <ch32v003fun.c.8affbd33+0x325>
     f10:	0000                	unimp
     f12:	0305                	addi	t1,t1,1
     f14:	0000                	unimp
     f16:	2000                	fld	fs0,0(s0)
     f18:	0026dc0b          	0x26dc0b
     f1c:	0500                	addi	s0,sp,640
     f1e:	0006bc03          	0x6bc03
     f22:	1d00                	addi	s0,sp,688
     f24:	0014                	0x14
     f26:	0000                	unimp
     f28:	000a                	c.slli	zero,0x2
     f2a:	0000                	unimp
     f2c:	0005                	c.nop	1
     f2e:	c11e                	sw	t2,128(sp)
     f30:	0000                	unimp
     f32:	c100                	sw	s0,0(a0)
     f34:	0000                	unimp
     f36:	1e00                	addi	s0,sp,816
	...
     f40:	251d                	jal	1566 <ch32v003fun.c.8affbd33+0x611>
     f42:	0000                	unimp
     f44:	1b00                	addi	s0,sp,432
     f46:	0000                	unimp
     f48:	0500                	addi	s0,sp,640
     f4a:	1e00                	addi	s0,sp,816
     f4c:	00d8                	addi	a4,sp,68
     f4e:	0000                	unimp
     f50:	00d8                	addi	a4,sp,68
     f52:	0000                	unimp
	...

00000f55 <ch32v003fun.c.8affbd33>:
     f55:	0f36                	slli	t5,t5,0xd
     f57:	0000                	unimp
     f59:	0004                	0x4
     f5b:	0180                	addi	s0,sp,192
     f5d:	0000                	unimp
     f5f:	0104                	addi	s1,sp,128
     f61:	058d                	addi	a1,a1,3
     f63:	0000                	unimp
     f65:	430c                	lw	a1,0(a4)
     f67:	0001                	nop
     f69:	e100                	fsw	fs0,0(a0)
     f6b:	0000                	unimp
     f6d:	d500                	sw	s0,40(a0)
     f6f:	0026                	c.slli	zero,0x9
     f71:	0200                	addi	s0,sp,256
     f73:	0601                	addi	a2,a2,0
     f75:	0000053f 0004fc03 	0x4fc030000053f
     f7d:	0100                	addi	s0,sp,128
     f7f:	0030182b          	0x30182b
     f83:	0000                	unimp
     f85:	0102                	c.slli64	sp
     f87:	3d08                	fld	fa0,56(a0)
     f89:	0005                	c.nop	1
     f8b:	0400                	addi	s0,sp,512
     f8d:	0030                	addi	a2,sp,8
     f8f:	0000                	unimp
     f91:	0202                	c.slli64	tp
     f93:	7f05                	lui	t5,0xfffe1
     f95:	0004                	0x4
     f97:	0300                	addi	s0,sp,384
     f99:	02b4                	addi	a3,sp,328
     f9b:	0000                	unimp
     f9d:	3901                	jal	bad <_data_lma+0x4e5>
     f9f:	4f19                	li	t5,6
     fa1:	0000                	unimp
     fa3:	0200                	addi	s0,sp,256
     fa5:	0702                	c.slli64	a4
     fa7:	05d8                	addi	a4,sp,708
     fa9:	0000                	unimp
     fab:	00018103          	lb	sp,0(gp) # 20000890 <__global_pointer$>
     faf:	0100                	addi	s0,sp,128
     fb1:	184d                	addi	a6,a6,-13
     fb3:	0062                	c.slli	zero,0x18
     fb5:	0000                	unimp
     fb7:	0402                	c.slli64	s0
     fb9:	7c05                	lui	s8,0xfffe1
     fbb:	03000003          	lb	zero,48(zero) # 30 <InterruptVector+0x30>
     fbf:	0000054b          	fnmsub.s	fa0,ft0,ft0,ft0,rne
     fc3:	4f01                	li	t5,0
     fc5:	7519                	lui	a0,0xfffe6
     fc7:	0000                	unimp
     fc9:	0200                	addi	s0,sp,256
     fcb:	0704                	addi	s1,sp,896
     fcd:	00000273          	0x273
     fd1:	0802                	c.slli64	a6
     fd3:	7705                	lui	a4,0xfffe1
     fd5:	02000003          	lb	zero,32(zero) # 20 <InterruptVector+0x20>
     fd9:	0708                	addi	a0,sp,896
     fdb:	026e                	slli	tp,tp,0x1b
     fdd:	0000                	unimp
     fdf:	0405                	addi	s0,s0,1
     fe1:	6905                	lui	s2,0x1
     fe3:	746e                	flw	fs0,248(sp)
     fe5:	0300                	addi	s0,sp,384
     fe7:	0410                	addi	a2,sp,512
     fe9:	0000                	unimp
     feb:	e801                	bnez	s0,ffb <ch32v003fun.c.8affbd33+0xa6>
     fed:	9d1a                	add	s10,s10,t1
     fef:	0000                	unimp
     ff1:	0200                	addi	s0,sp,256
     ff3:	0704                	addi	s1,sp,896
     ff5:	0278                	addi	a4,sp,268
     ff7:	0000                	unimp
     ff9:	0002ef03          	0x2ef03
     ffd:	0200                	addi	s0,sp,256
     fff:	17d1                	addi	a5,a5,-12
    1001:	009d                	addi	ra,ra,7
    1003:	0000                	unimp
    1005:	1002                	c.slli	zero,0x20
    1007:	eb04                	fsw	fs1,16(a4)
    1009:	03000003          	lb	zero,48(zero) # 30 <InterruptVector+0x30>
    100d:	000002cb          	fnmsub.s	ft5,ft0,ft0,ft0,rne
    1011:	c31b2803          	lw	a6,-975(s6)
    1015:	0000                	unimp
    1017:	0600                	addi	s0,sp,768
    1019:	eb04                	fsw	fs1,16(a4)
    101b:	0005                	c.nop	1
    101d:	0300                	addi	s0,sp,384
    101f:	02d2                	slli	t0,t0,0x14
    1021:	0000                	unimp
    1023:	2e04                	fld	fs1,24(a2)
    1025:	b718                	fsd	fa4,40(a4)
    1027:	0000                	unimp
    1029:	0700                	addi	s0,sp,896
    102b:	0804                	addi	s1,sp,16
    102d:	3004                	fld	fs1,32(s0)
    102f:	0000                	unimp
    1031:	0800                	addi	s0,sp,16
    1033:	e304                	fsw	fs1,0(a4)
    1035:	0000                	unimp
    1037:	0200                	addi	s0,sp,256
    1039:	0801                	addi	a6,a6,0
    103b:	0546                	slli	a0,a0,0x11
    103d:	0000                	unimp
    103f:	e304                	fsw	fs1,0(a4)
    1041:	0000                	unimp
    1043:	0800                	addi	s0,sp,16
    1045:	ea04                	fsw	fs1,16(a2)
    1047:	0000                	unimp
    1049:	0900                	addi	s0,sp,144
    104b:	000000e3          	beqz	zero,184b <ch32v003fun.c.8affbd33+0x8f6>
    104f:	0105                	addi	sp,sp,1
    1051:	0000                	unimp
    1053:	9d0a                	add	s10,s10,sp
    1055:	0000                	unimp
    1057:	1700                	addi	s0,sp,928
    1059:	0300                	addi	s0,sp,384
    105b:	04fe                	slli	s1,s1,0x1f
    105d:	0000                	unimp
    105f:	1805                	addi	a6,a6,-31
    1061:	00002413          	slti	s0,zero,0
    1065:	0400                	addi	s0,sp,512
    1067:	0105                	addi	sp,sp,1
    1069:	0000                	unimp
    106b:	0001110b          	0x1110b
    106f:	0300                	addi	s0,sp,384
    1071:	02b6                	slli	t0,t0,0xd
    1073:	0000                	unimp
    1075:	2405                	jal	1295 <ch32v003fun.c.8affbd33+0x340>
    1077:	4314                	lw	a3,0(a4)
    1079:	0000                	unimp
    107b:	0b00                	addi	s0,sp,400
    107d:	0000011b          	0x11b
    1081:	00018303          	lb	t1,0(gp) # 20000890 <__global_pointer$>
    1085:	0500                	addi	s0,sp,640
    1087:	132c                	addi	a1,sp,424
    1089:	0056                	c.slli	zero,0x15
    108b:	0000                	unimp
    108d:	00054d03          	lbu	s10,0(a0) # fffe6000 <__global_pointer$+0xdffe5770>
    1091:	0500                	addi	s0,sp,640
    1093:	1430                	addi	a2,sp,552
    1095:	0069                	c.nop	26
    1097:	0000                	unimp
    1099:	0001380b          	0x1380b
    109d:	0400                	addi	s0,sp,512
    109f:	0144                	addi	s1,sp,132
    10a1:	0000                	unimp
    10a3:	00041203          	lh	tp,0(s0) # fffe1000 <__global_pointer$+0xdffe0770>
    10a7:	0500                	addi	s0,sp,640
    10a9:	1552                	slli	a0,a0,0x34
    10ab:	0091                	addi	ra,ra,4
    10ad:	0000                	unimp
    10af:	2c0c                	fld	fa1,24(s0)
    10b1:	ac06                	fsd	ft1,24(sp)
    10b3:	f309                	bnez	a4,fb5 <ch32v003fun.c.8affbd33+0x60>
    10b5:	0001                	nop
    10b7:	0d00                	addi	s0,sp,656
    10b9:	032a                	slli	t1,t1,0xa
    10bb:	0000                	unimp
    10bd:	ae06                	fsd	ft1,280(sp)
    10bf:	00014413          	xori	s0,sp,0
    10c3:	0000                	unimp
    10c5:	820d                	srli	a2,a2,0x3
    10c7:	0005                	c.nop	1
    10c9:	0600                	addi	s0,sp,768
    10cb:	014413af          	0x14413af
    10cf:	0000                	unimp
    10d1:	0d04                	addi	s1,sp,656
    10d3:	0580                	addi	s0,sp,704
    10d5:	0000                	unimp
    10d7:	b006                	fsd	ft1,32(sp)
    10d9:	00014413          	xori	s0,sp,0
    10dd:	0800                	addi	s0,sp,16
    10df:	870d                	srai	a4,a4,0x3
    10e1:	0005                	c.nop	1
    10e3:	0600                	addi	s0,sp,768
    10e5:	13b1                	addi	t2,t2,-20
    10e7:	0144                	addi	s1,sp,132
    10e9:	0000                	unimp
    10eb:	0d0c                	addi	a1,sp,656
    10ed:	0000032b          	0x32b
    10f1:	b206                	fsd	ft1,288(sp)
    10f3:	00014413          	xori	s0,sp,0
    10f7:	1000                	addi	s0,sp,32
    10f9:	220d                	jal	121b <ch32v003fun.c.8affbd33+0x2c6>
    10fb:	000a                	c.slli	zero,0x2
    10fd:	0600                	addi	s0,sp,768
    10ff:	014413b3          	sll	t2,s0,s4
    1103:	0000                	unimp
    1105:	0d14                	addi	a3,sp,656
    1107:	010d                	addi	sp,sp,3
    1109:	0000                	unimp
    110b:	b406                	fsd	ft1,40(sp)
    110d:	00014413          	xori	s0,sp,0
    1111:	1800                	addi	s0,sp,48
    1113:	4f0e                	lw	t5,192(sp)
    1115:	5242                	lw	tp,48(sp)
    1117:	0600                	addi	s0,sp,768
    1119:	13b5                	addi	t2,t2,-19
    111b:	0144                	addi	s1,sp,132
    111d:	0000                	unimp
    111f:	0e1c                	addi	a5,sp,784
    1121:	00525057          	0x525057
    1125:	b606                	fsd	ft1,296(sp)
    1127:	00014413          	xori	s0,sp,0
    112b:	2000                	fld	fs0,0(s0)
    112d:	1b0d                	addi	s6,s6,-29
    112f:	0001                	nop
    1131:	0600                	addi	s0,sp,768
    1133:	014413b7          	lui	t2,0x1441
    1137:	0000                	unimp
    1139:	0d24                	addi	s1,sp,664
    113b:	0116                	slli	sp,sp,0x5
    113d:	0000                	unimp
    113f:	b806                	fsd	ft1,48(sp)
    1141:	00014413          	xori	s0,sp,0
    1145:	2800                	fld	fs0,16(s0)
    1147:	0300                	addi	s0,sp,384
    1149:	00000303          	lb	t1,0(zero) # 0 <InterruptVector>
    114d:	b906                	fsd	ft1,176(sp)
    114f:	00015a03          	lhu	s4,0(sp)
    1153:	0f00                	addi	s0,sp,912
    1155:	061c                	addi	a5,sp,768
    1157:	6c090137          	lui	sp,0x6c090
    115b:	0002                	c.slli64	zero
    115d:	1000                	addi	s0,sp,32
    115f:	023c                	addi	a5,sp,264
    1161:	0000                	unimp
    1163:	3906                	fld	fs2,96(sp)
    1165:	1001                	c.nop	-32
    1167:	0144                	addi	s1,sp,132
    1169:	0000                	unimp
    116b:	1000                	addi	s0,sp,32
    116d:	00000607          	0x607
    1171:	3a06                	fld	fs4,96(sp)
    1173:	1001                	c.nop	-32
    1175:	0144                	addi	s1,sp,132
    1177:	0000                	unimp
    1179:	1004                	addi	s1,sp,32
    117b:	000001bb          	0x1bb
    117f:	3b06                	fld	fs6,96(sp)
    1181:	1001                	c.nop	-32
    1183:	0149                	addi	sp,sp,18
    1185:	0000                	unimp
    1187:	1008                	addi	a0,sp,32
    1189:	02f6                	slli	t0,t0,0x1d
    118b:	0000                	unimp
    118d:	3c06                	fld	fs8,96(sp)
    118f:	1001                	c.nop	-32
    1191:	0144                	addi	s1,sp,132
    1193:	0000                	unimp
    1195:	100c                	addi	a1,sp,32
    1197:	033e                	slli	t1,t1,0xf
    1199:	0000                	unimp
    119b:	3d06                	fld	fs10,96(sp)
    119d:	1001                	c.nop	-32
    119f:	0144                	addi	s1,sp,132
    11a1:	0000                	unimp
    11a3:	1110                	addi	a2,sp,160
    11a5:	4342                	lw	t1,16(sp)
    11a7:	0052                	c.slli	zero,0x14
    11a9:	3e06                	fld	ft8,96(sp)
    11ab:	1001                	c.nop	-32
    11ad:	0144                	addi	s1,sp,132
    11af:	0000                	unimp
    11b1:	1014                	addi	a3,sp,32
    11b3:	0621                	addi	a2,a2,8
    11b5:	0000                	unimp
    11b7:	3f06                	fld	ft10,96(sp)
    11b9:	1001                	c.nop	-32
    11bb:	0144                	addi	s1,sp,132
    11bd:	0000                	unimp
    11bf:	0018                	0x18
    11c1:	0612                	slli	a2,a2,0x4
    11c3:	0005                	c.nop	1
    11c5:	0600                	addi	s0,sp,768
    11c7:	0140                	addi	s0,sp,132
    11c9:	0001ff03          	0x1ff03
    11cd:	0f00                	addi	s0,sp,912
    11cf:	0628                	addi	a0,sp,776
    11d1:	10090177          	0x10090177
    11d5:	10000003          	lb	zero,256(zero) # 100 <digitalWrite+0x3c>
    11d9:	0000032b          	0x32b
    11dd:	7906                	flw	fs2,96(sp)
    11df:	1301                	addi	t1,t1,-32
    11e1:	0144                	addi	s1,sp,132
    11e3:	0000                	unimp
    11e5:	1000                	addi	s0,sp,32
    11e7:	000003b7          	lui	t2,0x0
    11eb:	7a06                	flw	fs4,96(sp)
    11ed:	1301                	addi	t1,t1,-32
    11ef:	0144                	addi	s1,sp,132
    11f1:	0000                	unimp
    11f3:	1004                	addi	s1,sp,32
    11f5:	0229                	addi	tp,tp,10
    11f7:	0000                	unimp
    11f9:	7b06                	flw	fs6,96(sp)
    11fb:	1301                	addi	t1,t1,-32
    11fd:	0144                	addi	s1,sp,132
    11ff:	0000                	unimp
    1201:	1008                	addi	a0,sp,32
    1203:	04ec                	addi	a1,sp,588
    1205:	0000                	unimp
    1207:	7c06                	flw	fs8,96(sp)
    1209:	1301                	addi	t1,t1,-32
    120b:	0144                	addi	s1,sp,132
    120d:	0000                	unimp
    120f:	100c                	addi	a1,sp,32
    1211:	021f 0000 7d06      	0x7d060000021f
    1217:	1301                	addi	t1,t1,-32
    1219:	0144                	addi	s1,sp,132
    121b:	0000                	unimp
    121d:	1010                	addi	a2,sp,32
    121f:	03ae                	slli	t2,t2,0xb
    1221:	0000                	unimp
    1223:	7e06                	flw	ft8,96(sp)
    1225:	1301                	addi	t1,t1,-32
    1227:	0144                	addi	s1,sp,132
    1229:	0000                	unimp
    122b:	1014                	addi	a3,sp,32
    122d:	01b1                	addi	gp,gp,12
    122f:	0000                	unimp
    1231:	7f06                	flw	ft10,96(sp)
    1233:	1301                	addi	t1,t1,-32
    1235:	0144                	addi	s1,sp,132
    1237:	0000                	unimp
    1239:	1018                	addi	a4,sp,32
    123b:	000003cf          	fnmadd.s	ft7,ft0,ft0,ft0,rne
    123f:	8006                	c.mv	zero,ra
    1241:	1301                	addi	t1,t1,-32
    1243:	0144                	addi	s1,sp,132
    1245:	0000                	unimp
    1247:	101c                	addi	a5,sp,32
    1249:	0439                	addi	s0,s0,14
    124b:	0000                	unimp
    124d:	8106                	mv	sp,ra
    124f:	1301                	addi	t1,t1,-32
    1251:	0144                	addi	s1,sp,132
    1253:	0000                	unimp
    1255:	1020                	addi	s0,sp,40
    1257:	042a                	slli	s0,s0,0xa
    1259:	0000                	unimp
    125b:	8206                	mv	tp,ra
    125d:	1301                	addi	t1,t1,-32
    125f:	0144                	addi	s1,sp,132
    1261:	0000                	unimp
    1263:	0024                	addi	s1,sp,8
    1265:	1e12                	slli	t3,t3,0x24
    1267:	06000003          	lb	zero,96(zero) # 60 <InterruptVector+0x60>
    126b:	79030183          	lb	gp,1936(t1)
    126f:	0002                	c.slli64	zero
    1271:	0f00                	addi	s0,sp,912
    1273:	061c                	addi	a5,sp,768
    1275:	01c6                	slli	gp,gp,0x11
    1277:	ec09                	bnez	s0,1291 <ch32v003fun.c.8affbd33+0x33c>
    1279:	10000003          	lb	zero,256(zero) # 100 <digitalWrite+0x3c>
    127d:	00000587          	0x587
    1281:	c806                	sw	ra,16(sp)
    1283:	1301                	addi	t1,t1,-32
    1285:	00000127          	0x127
    1289:	1000                	addi	s0,sp,32
    128b:	0439                	addi	s0,s0,14
    128d:	0000                	unimp
    128f:	c906                	sw	ra,144(sp)
    1291:	1301                	addi	t1,t1,-32
    1293:	0000011b          	0x11b
    1297:	1002                	c.slli	zero,0x20
    1299:	08df 0000 ca06      	0xca06000008df
    129f:	1301                	addi	t1,t1,-32
    12a1:	00000127          	0x127
    12a5:	1004                	addi	s1,sp,32
    12a7:	00000443          	fmadd.s	fs0,ft0,ft0,ft0,rne
    12ab:	cb06                	sw	ra,148(sp)
    12ad:	1301                	addi	t1,t1,-32
    12af:	0000011b          	0x11b
    12b3:	1106                	slli	sp,sp,0x21
    12b5:	5242                	lw	tp,48(sp)
    12b7:	0052                	c.slli	zero,0x14
    12b9:	cc06                	sw	ra,24(sp)
    12bb:	1301                	addi	t1,t1,-32
    12bd:	00000127          	0x127
    12c1:	1008                	addi	a0,sp,32
    12c3:	044d                	addi	s0,s0,19
    12c5:	0000                	unimp
    12c7:	cd06                	sw	ra,152(sp)
    12c9:	1301                	addi	t1,t1,-32
    12cb:	0000011b          	0x11b
    12cf:	100a                	c.slli	zero,0x22
    12d1:	03fe                	slli	t2,t2,0x1f
    12d3:	0000                	unimp
    12d5:	ce06                	sw	ra,28(sp)
    12d7:	1301                	addi	t1,t1,-32
    12d9:	00000127          	0x127
    12dd:	100c                	addi	a1,sp,32
    12df:	00000457          	0x457
    12e3:	cf06                	sw	ra,156(sp)
    12e5:	1301                	addi	t1,t1,-32
    12e7:	0000011b          	0x11b
    12eb:	100e                	c.slli	zero,0x23
    12ed:	0404                	addi	s1,sp,512
    12ef:	0000                	unimp
    12f1:	d006                	sw	ra,32(sp)
    12f3:	1301                	addi	t1,t1,-32
    12f5:	00000127          	0x127
    12f9:	1010                	addi	a2,sp,32
    12fb:	0461                	addi	s0,s0,24
    12fd:	0000                	unimp
    12ff:	d106                	sw	ra,160(sp)
    1301:	1301                	addi	t1,t1,-32
    1303:	0000011b          	0x11b
    1307:	1012                	c.slli	zero,0x24
    1309:	040a                	slli	s0,s0,0x2
    130b:	0000                	unimp
    130d:	d206                	sw	ra,36(sp)
    130f:	1301                	addi	t1,t1,-32
    1311:	00000127          	0x127
    1315:	1014                	addi	a3,sp,32
    1317:	0000046b          	0x46b
    131b:	d306                	sw	ra,164(sp)
    131d:	1301                	addi	t1,t1,-32
    131f:	0000011b          	0x11b
    1323:	1116                	slli	sp,sp,0x25
    1325:	00525047          	fmsub.s	ft0,ft4,ft5,ft0,unknown
    1329:	d406                	sw	ra,40(sp)
    132b:	1301                	addi	t1,t1,-32
    132d:	00000127          	0x127
    1331:	1018                	addi	a4,sp,32
    1333:	0475                	addi	s0,s0,29
    1335:	0000                	unimp
    1337:	d506                	sw	ra,168(sp)
    1339:	1301                	addi	t1,t1,-32
    133b:	0000011b          	0x11b
    133f:	001a                	c.slli	zero,0x6
    1341:	4312                	lw	t1,4(sp)
    1343:	06000003          	lb	zero,96(zero) # 60 <InterruptVector+0x60>
    1347:	01d6                	slli	gp,gp,0x15
    1349:	00031d03          	lh	s10,0(t1)
    134d:	0900                	addi	s0,sp,144
    134f:	0116                	slli	sp,sp,0x5
    1351:	0000                	unimp
    1353:	0409                	addi	s0,s0,2
    1355:	0000                	unimp
    1357:	9d0a                	add	s10,s10,sp
    1359:	0000                	unimp
    135b:	0f00                	addi	s0,sp,912
    135d:	0400                	addi	s0,sp,512
    135f:	03f9                	addi	t2,t2,30
    1361:	0000                	unimp
    1363:	0004090b          	0x4090b
    1367:	1300                	addi	s0,sp,416
    1369:	049a                	slli	s1,s1,0x6
    136b:	0000                	unimp
    136d:	7306                	flw	ft6,96(sp)
    136f:	040e140b          	0x40e140b
    1373:	0000                	unimp
    1375:	1609                	addi	a2,a2,-30
    1377:	0001                	nop
    1379:	3000                	fld	fs0,32(s0)
    137b:	0004                	0x4
    137d:	0a00                	addi	s0,sp,272
    137f:	009d                	addi	ra,ra,7
    1381:	0000                	unimp
    1383:	20040013          	addi	zero,s0,512
    1387:	0004                	0x4
    1389:	0b00                	addi	s0,sp,400
    138b:	0430                	addi	a2,sp,520
    138d:	0000                	unimp
    138f:	00016513          	ori	a0,sp,0
    1393:	0600                	addi	s0,sp,768
    1395:	0b74                	addi	a3,sp,412
    1397:	3514                	fld	fa3,40(a0)
    1399:	0004                	0x4
    139b:	1400                	addi	s0,sp,544
    139d:	009d0407          	0x9d0407
    13a1:	0000                	unimp
    13a3:	1306                	slli	t1,t1,0x21
    13a5:	010d                	addi	sp,sp,3
    13a7:	0469                	addi	s0,s0,26
    13a9:	0000                	unimp
    13ab:	5515                	li	a0,-27
    13ad:	0002                	c.slli64	zero
    13af:	0100                	addi	s0,sp,128
    13b1:	cf15                	beqz	a4,13ed <ch32v003fun.c.8affbd33+0x498>
    13b3:	0001                	nop
    13b5:	0200                	addi	s0,sp,256
    13b7:	5615                	li	a2,-27
    13b9:	0005                	c.nop	1
    13bb:	0300                	addi	s0,sp,384
    13bd:	0f00                	addi	s0,sp,912
    13bf:	0618                	addi	a4,sp,768
    13c1:	115c                	addi	a5,sp,164
    13c3:	c709                	beqz	a4,13cd <ch32v003fun.c.8affbd33+0x478>
    13c5:	0004                	0x4
    13c7:	1000                	addi	s0,sp,32
    13c9:	0000032b          	0x32b
    13cd:	5e06                	lw	t3,96(sp)
    13cf:	1311                	addi	t1,t1,-28
    13d1:	0144                	addi	s1,sp,132
    13d3:	0000                	unimp
    13d5:	1100                	addi	s0,sp,160
    13d7:	06005253          	fadd.q	ft4,ft0,ft0,unknown
    13db:	115f 4413 0001      	0x14413115f
    13e1:	0400                	addi	s0,sp,512
    13e3:	4311                	li	t1,4
    13e5:	544e                	lw	s0,240(sp)
    13e7:	0600                	addi	s0,sp,768
    13e9:	1160                	addi	s0,sp,172
    13eb:	00014413          	xori	s0,sp,0
    13ef:	0800                	addi	s0,sp,16
    13f1:	3910                	fld	fa2,48(a0)
    13f3:	0004                	0x4
    13f5:	0600                	addi	s0,sp,768
    13f7:	1161                	addi	sp,sp,-8
    13f9:	380e                	fld	fa6,224(sp)
    13fb:	0001                	nop
    13fd:	0c00                	addi	s0,sp,528
    13ff:	4311                	li	t1,4
    1401:	504d                	c.li	zero,-13
    1403:	0600                	addi	s0,sp,768
    1405:	1162                	slli	sp,sp,0x38
    1407:	00014413          	xori	s0,sp,0
    140b:	1000                	addi	s0,sp,32
    140d:	4310                	lw	a2,0(a4)
    140f:	0004                	0x4
    1411:	0600                	addi	s0,sp,768
    1413:	380e1163          	bnez	t3,1795 <ch32v003fun.c.8affbd33+0x840>
    1417:	0001                	nop
    1419:	1400                	addi	s0,sp,544
    141b:	1200                	addi	s0,sp,288
    141d:	03de                	slli	t2,t2,0x17
    141f:	0000                	unimp
    1421:	6406                	flw	fs0,64(sp)
    1423:	0211                	addi	tp,tp,4
    1425:	0469                	addi	s0,s0,26
    1427:	0000                	unimp
    1429:	7316                	flw	ft6,100(sp)
    142b:	0001                	nop
    142d:	0700                	addi	s0,sp,896
    142f:	008a050f          	0x8a050f
    1433:	0000                	unimp
    1435:	0005fd17          	auipc	s10,0x5f
    1439:	0c00                	addi	s0,sp,528
    143b:	0801d107          	0x801d107
    143f:	0519                	addi	a0,a0,6
    1441:	0000                	unimp
    1443:	8610                	0x8610
    1445:	07000003          	lb	zero,112(zero) # 70 <InterruptVector+0x70>
    1449:	01d2                	slli	gp,gp,0x14
    144b:	dd08                	sw	a0,56(a0)
    144d:	0000                	unimp
    144f:	0000                	unimp
    1451:	8510                	0x8510
    1453:	07000003          	lb	zero,112(zero) # 70 <InterruptVector+0x70>
    1457:	01d2                	slli	gp,gp,0x14
    1459:	dd11                	beqz	a0,1375 <ch32v003fun.c.8affbd33+0x420>
    145b:	0000                	unimp
    145d:	0400                	addi	s0,sp,512
    145f:	2310                	fld	fa2,0(a4)
    1461:	0005                	c.nop	1
    1463:	0700                	addi	s0,sp,896
    1465:	9d0f01d3          	0x9d0f01d3
    1469:	0000                	unimp
    146b:	0800                	addi	s0,sp,16
    146d:	1800                	addi	s0,sp,48
    146f:	0000029b          	0x29b
    1473:	0603d407          	0x603d407
    1477:	0000053f 07006e19 	0x7006e190000053f
    147f:	03d4                	addi	a3,sp,452
    1481:	381d                	jal	cb7 <_data_lma+0x5ef>
    1483:	0001                	nop
    1485:	1300                	addi	s0,sp,416
    1487:	0000018b          	0x18b
    148b:	0b03d607          	0xb03d607
    148f:	0138                	addi	a4,sp,136
    1491:	0000                	unimp
    1493:	1a00                	addi	s0,sp,304
    1495:	01e9                	addi	gp,gp,26
    1497:	0000                	unimp
    1499:	0603cd07          	flq	fs10,96(t2) # 60 <InterruptVector+0x60>
    149d:	891a                	mv	s2,t1
    149f:	0004                	0x4
    14a1:	0700                	addi	s0,sp,896
    14a3:	03c6                	slli	t2,t2,0x11
    14a5:	1b06                	slli	s6,s6,0x21
    14a7:	01a9                	addi	gp,gp,10
    14a9:	0000                	unimp
    14ab:	0503be07          	fld	ft8,80(t2)
    14af:	008a                	slli	ra,ra,0x2
    14b1:	0000                	unimp
    14b3:	0000057b          	0x57b
    14b7:	6319                	lui	t1,0x6
    14b9:	0700                	addi	s0,sp,896
    14bb:	03be                	slli	t2,t2,0xf
    14bd:	8a11                	andi	a2,a2,4
    14bf:	0000                	unimp
    14c1:	1300                	addi	s0,sp,416
    14c3:	00000567          	jalr	a0,zero # 0 <InterruptVector>
    14c7:	0603c007          	flq	ft0,96(t2)
    14cb:	008a                	slli	ra,ra,0x2
    14cd:	0000                	unimp
    14cf:	1b00                	addi	s0,sp,432
    14d1:	000003f7          	0x3f7
    14d5:	05039907          	0x5039907
    14d9:	008a                	slli	ra,ra,0x2
    14db:	0000                	unimp
    14dd:	05f4                	addi	a3,sp,716
    14df:	0000                	unimp
    14e1:	6619                	lui	a2,0x6
    14e3:	0064                	addi	s1,sp,12
    14e5:	10039907          	0x10039907
    14e9:	008a                	slli	ra,ra,0x2
    14eb:	0000                	unimp
    14ed:	6219                	lui	tp,0x6
    14ef:	6675                	lui	a2,0x1d
    14f1:	0700                	addi	s0,sp,896
    14f3:	0399                	addi	t2,t2,6
    14f5:	ef20                	fsw	fs0,88(a4)
    14f7:	0000                	unimp
    14f9:	1c00                	addi	s0,sp,560
    14fb:	03a9                	addi	t2,t2,10
    14fd:	0000                	unimp
    14ff:	29039907          	0x29039907
    1503:	008a                	slli	ra,ra,0x2
    1505:	0000                	unimp
    1507:	00038613          	mv	a2,t2
    150b:	0700                	addi	s0,sp,896
    150d:	f407039b          	0xf407039b
    1511:	0005                	c.nop	1
    1513:	1300                	addi	s0,sp,416
    1515:	000002bf 06039c07 	0x6039c07000002bf
    151d:	008a                	slli	ra,ra,0x2
    151f:	0000                	unimp
    1521:	00056713          	ori	a4,a0,0
    1525:	0700                	addi	s0,sp,896
    1527:	039d                	addi	t2,t2,7
    1529:	0001380b          	0x1380b
    152d:	1d00                	addi	s0,sp,688
    152f:	00052e13          	slti	t3,a0,0
    1533:	0700                	addi	s0,sp,896
    1535:	03a0                	addi	s0,sp,456
    1537:	00008a07          	0x8a07
    153b:	1e00                	addi	s0,sp,816
    153d:	0074                	addi	a3,sp,12
    153f:	0703a707          	flw	fa4,112(t2)
    1543:	008a                	slli	ra,ra,0x2
    1545:	0000                	unimp
    1547:	0000                	unimp
    1549:	e309                	bnez	a4,154b <ch32v003fun.c.8affbd33+0x5f6>
    154b:	0000                	unimp
    154d:	0400                	addi	s0,sp,512
    154f:	0006                	c.slli	zero,0x1
    1551:	0a00                	addi	s0,sp,272
    1553:	009d                	addi	ra,ra,7
    1555:	0000                	unimp
    1557:	4b180003          	lb	zero,1201(a6)
    155b:	0002                	c.slli64	zero
    155d:	0700                	addi	s0,sp,896
    155f:	036d                	addi	t1,t1,27
    1561:	1f06                	slli	t5,t5,0x21
    1563:	0006                	c.slli	zero,0x1
    1565:	1c00                	addi	s0,sp,560
    1567:	0266                	slli	tp,tp,0x19
    1569:	0000                	unimp
    156b:	15036d07          	0x15036d07
    156f:	008a                	slli	ra,ra,0x2
    1571:	0000                	unimp
    1573:	1800                	addi	s0,sp,48
    1575:	0366                	slli	t1,t1,0x19
    1577:	0000                	unimp
    1579:	06035c07          	0x6035c07
    157d:	063a                	slli	a2,a2,0xe
    157f:	0000                	unimp
    1581:	fc1c                	fsw	fa5,56(s0)
    1583:	0002                	c.slli64	zero
    1585:	0700                	addi	s0,sp,896
    1587:	035c                	addi	a5,sp,388
    1589:	8a1c                	0x8a1c
    158b:	0000                	unimp
    158d:	0000                	unimp
    158f:	1c18                	addi	a4,sp,560
    1591:	0004                	0x4
    1593:	0700                	addi	s0,sp,896
    1595:	034e                	slli	t1,t1,0x13
    1597:	5506                	lw	a0,96(sp)
    1599:	0006                	c.slli	zero,0x1
    159b:	1c00                	addi	s0,sp,560
    159d:	02fc                	addi	a5,sp,332
    159f:	0000                	unimp
    15a1:	19034e07          	flq	ft8,400(t1) # 6190 <wiring.c.7604182b+0x3a14>
    15a5:	008a                	slli	ra,ra,0x2
    15a7:	0000                	unimp
    15a9:	1f00                	addi	s0,sp,944
    15ab:	00000193          	li	gp,0
    15af:	06034507          	flq	fa0,96(t1)
    15b3:	dc1f 0004 0700      	0x7000004dc1f
    15b9:	1a060337          	lui	t1,0x1a060
    15bd:	0208                	addi	a0,sp,256
    15bf:	0000                	unimp
    15c1:	0602cf07          	flq	ft10,96(t0) # 400060 <wiring.c.7604182b+0x3fd8e4>
    15c5:	0003111b          	0x3111b
    15c9:	0700                	addi	s0,sp,896
    15cb:	0285                	addi	t0,t0,1
    15cd:	8a01                	andi	a2,a2,0
    15cf:	0000                	unimp
    15d1:	c300                	sw	s0,0(a4)
    15d3:	0006                	c.slli	zero,0x1
    15d5:	1c00                	addi	s0,sp,560
    15d7:	03be                	slli	t2,t2,0xf
    15d9:	0000                	unimp
    15db:	14028507          	0x14028507
    15df:	06dc                	addi	a5,sp,836
    15e1:	0000                	unimp
    15e3:	6219                	lui	tp,0x6
    15e5:	6675                	lui	a2,0x1d
    15e7:	0700                	addi	s0,sp,896
    15e9:	0285                	addi	t0,t0,1
    15eb:	d53d                	beqz	a0,1559 <ch32v003fun.c.8affbd33+0x604>
    15ed:	0000                	unimp
    15ef:	1900                	addi	s0,sp,176
    15f1:	6d66                	flw	fs10,88(sp)
    15f3:	0074                	addi	a3,sp,12
    15f5:	4e028507          	0x4e028507
    15f9:	000000ef          	jal	ra,15f9 <ch32v003fun.c.8affbd33+0x6a4>
    15fd:	1e20                	addi	s0,sp,824
    15ff:	6572                	flw	fa0,28(sp)
    1601:	0074                	addi	a3,sp,12
    1603:	06028707          	0x6028707
    1607:	008a                	slli	ra,ra,0x2
    1609:	0000                	unimp
    160b:	761e                	flw	fa2,228(sp)
    160d:	0061                	c.nop	24
    160f:	0a028807          	0xa028807
    1613:	00c9                	addi	ra,ra,18
    1615:	0000                	unimp
    1617:	2100                	fld	fs0,0(a0)
    1619:	008a                	slli	ra,ra,0x2
    161b:	0000                	unimp
    161d:	06dc                	addi	a5,sp,836
    161f:	0000                	unimp
    1621:	dd22                	sw	s0,184(sp)
    1623:	0000                	unimp
    1625:	2200                	fld	fs0,0(a2)
    1627:	008a                	slli	ra,ra,0x2
    1629:	0000                	unimp
    162b:	d522                	sw	s0,168(sp)
    162d:	0000                	unimp
    162f:	0000                	unimp
    1631:	0408                	addi	a0,sp,512
    1633:	000006c3          	fmadd.s	fa3,ft0,ft0,ft0,rne
    1637:	0002851b          	0x2851b
    163b:	0700                	addi	s0,sp,896
    163d:	0279                	addi	tp,tp,30
    163f:	8a01                	andi	a2,a2,0
    1641:	0000                	unimp
    1643:	3500                	fld	fs0,40(a0)
    1645:	1c000007          	0x1c000007
    1649:	0386                	slli	t2,t2,0x1
    164b:	0000                	unimp
    164d:	15027907          	0x15027907
    1651:	00dd                	addi	ra,ra,23
    1653:	0000                	unimp
    1655:	231c                	fld	fa5,0(a4)
    1657:	0005                	c.nop	1
    1659:	0700                	addi	s0,sp,896
    165b:	0279                	addi	tp,tp,30
    165d:	9d2a                	add	s10,s10,a0
    165f:	0000                	unimp
    1661:	1900                	addi	s0,sp,176
    1663:	6d66                	flw	fs10,88(sp)
    1665:	0074                	addi	a3,sp,12
    1667:	42027907          	0x42027907
    166b:	000000ef          	jal	ra,166b <ch32v003fun.c.8affbd33+0x716>
    166f:	1e20                	addi	s0,sp,824
    1671:	6572                	flw	fa0,28(sp)
    1673:	0074                	addi	a3,sp,12
    1675:	06027b07          	0x6027b07
    1679:	008a                	slli	ra,ra,0x2
    167b:	0000                	unimp
    167d:	761e                	flw	fa2,228(sp)
    167f:	0061                	c.nop	24
    1681:	0a027c07          	0xa027c07
    1685:	00c9                	addi	ra,ra,18
    1687:	0000                	unimp
    1689:	1b00                	addi	s0,sp,432
    168b:	0358                	addi	a4,sp,388
    168d:	0000                	unimp
    168f:	01020807          	0x1020807
    1693:	008a                	slli	ra,ra,0x2
    1695:	0000                	unimp
    1697:	07f6                	slli	a5,a5,0x1d
    1699:	0000                	unimp
    169b:	be1c                	fsd	fa5,56(a2)
    169d:	07000003          	lb	zero,112(zero) # 70 <InterruptVector+0x70>
    16a1:	0208                	addi	a0,sp,256
    16a3:	dc15                	beqz	s0,15df <ch32v003fun.c.8affbd33+0x68a>
    16a5:	0006                	c.slli	zero,0x1
    16a7:	1900                	addi	s0,sp,176
    16a9:	7562                	flw	fa0,56(sp)
    16ab:	0066                	c.slli	zero,0x19
    16ad:	3f020807          	0x3f020807
    16b1:	00d5                	addi	ra,ra,21
    16b3:	0000                	unimp
    16b5:	6619                	lui	a2,0x6
    16b7:	746d                	lui	s0,0xffffb
    16b9:	0700                	addi	s0,sp,896
    16bb:	0208                	addi	a0,sp,256
    16bd:	ef50                	fsw	fa2,28(a4)
    16bf:	0000                	unimp
    16c1:	1900                	addi	s0,sp,176
    16c3:	6176                	flw	ft2,92(sp)
    16c5:	0700                	addi	s0,sp,896
    16c7:	0208                	addi	a0,sp,256
    16c9:	c95d                	beqz	a0,177f <ch32v003fun.c.8affbd33+0x82a>
    16cb:	0000                	unimp
    16cd:	1e00                	addi	s0,sp,816
    16cf:	6662                	flw	fa2,24(sp)
    16d1:	0700                	addi	s0,sp,896
    16d3:	020a                	slli	tp,tp,0x2
    16d5:	0000f507          	0xf507
    16d9:	1e00                	addi	s0,sp,816
    16db:	6662                	flw	fa2,24(sp)
    16dd:	0032                	c.slli	zero,0xc
    16df:	07020b07          	0x7020b07
    16e3:	00f5                	addi	ra,ra,29
    16e5:	0000                	unimp
    16e7:	631e                	flw	ft6,196(sp)
    16e9:	0068                	addi	a0,sp,12
    16eb:	07020c07          	0x7020c07
    16ef:	000000e3          	beqz	zero,1eef <main_sw.c.c9eed32e+0x60>
    16f3:	6e1e                	flw	ft8,196(sp)
    16f5:	0700                	addi	s0,sp,896
    16f7:	0214                	addi	a3,sp,256
    16f9:	8a06                	mv	s4,ra
    16fb:	0000                	unimp
    16fd:	2300                	fld	fs0,0(a4)
    16ff:	6e65                	lui	t3,0x19
    1701:	0064                	addi	s1,sp,12
    1703:	01027307          	0x1027307
    1707:	1e1d                	addi	t3,t3,-25
    1709:	656c                	flw	fa1,76(a0)
    170b:	006e                	c.slli	zero,0x1b
    170d:	07021607          	0x7021607
    1711:	008a                	slli	ra,ra,0x2
    1713:	0000                	unimp
    1715:	131d                	addi	t1,t1,-25
    1717:	038d                	addi	t2,t2,3
    1719:	0000                	unimp
    171b:	09021b07          	0x9021b07
    171f:	000000e3          	beqz	zero,1f1f <main_sw.c.c9eed32e+0x90>
    1723:	0003c313          	xori	t1,t2,0
    1727:	0700                	addi	s0,sp,896
    1729:	021c                	addi	a5,sp,256
    172b:	8a08                	0x8a08
    172d:	0000                	unimp
    172f:	1e00                	addi	s0,sp,816
    1731:	006c                	addi	a1,sp,12
    1733:	09021d07          	0x9021d07
    1737:	000000e3          	beqz	zero,1f37 <main_sw.c.c9eed32e+0xa8>
    173b:	701e                	flw	ft0,228(sp)
    173d:	7274                	flw	fa3,100(a2)
    173f:	0700                	addi	s0,sp,896
    1741:	021e                	slli	tp,tp,0x7
    1743:	dd0a                	sw	sp,184(sp)
    1745:	0000                	unimp
    1747:	0000                	unimp
    1749:	0000                	unimp
    174b:	0001c01b          	0x1c01b
    174f:	0700                	addi	s0,sp,896
    1751:	01f9                	addi	gp,gp,30
    1753:	8a01                	andi	a2,a2,0
    1755:	0000                	unimp
    1757:	5100                	lw	s0,32(a0)
    1759:	0008                	0x8
    175b:	1c00                	addi	s0,sp,560
    175d:	0386                	slli	t2,t2,0x1
    175f:	0000                	unimp
    1761:	1601f907          	0x1601f907
    1765:	00dd                	addi	ra,ra,23
    1767:	0000                	unimp
    1769:	231c                	fld	fa5,0(a4)
    176b:	0005                	c.nop	1
    176d:	0700                	addi	s0,sp,896
    176f:	01f9                	addi	gp,gp,30
    1771:	00009d2b          	0x9d2b
    1775:	1900                	addi	s0,sp,176
    1777:	6d66                	flw	fs10,88(sp)
    1779:	0074                	addi	a3,sp,12
    177b:	4301f907          	0x4301f907
    177f:	000000ef          	jal	ra,177f <ch32v003fun.c.8affbd33+0x82a>
    1783:	7619                	lui	a2,0xfffe6
    1785:	0061                	c.nop	24
    1787:	5001f907          	0x5001f907
    178b:	00c9                	addi	ra,ra,18
    178d:	0000                	unimp
    178f:	621e                	flw	ft4,196(sp)
    1791:	0700                	addi	s0,sp,896
    1793:	e01301fb          	0xe01301fb
    1797:	0004                	0x4
    1799:	1e00                	addi	s0,sp,816
    179b:	006e                	c.slli	zero,0x1b
    179d:	06020007          	0x6020007
    17a1:	008a                	slli	ra,ra,0x2
    17a3:	0000                	unimp
    17a5:	2400                	fld	fs0,8(s0)
    17a7:	03bd                	addi	t2,t2,15
    17a9:	0000                	unimp
    17ab:	0101d707          	0x101d707
    17af:	008a                	slli	ra,ra,0x2
    17b1:	0000                	unimp
    17b3:	08aa                	slli	a7,a7,0xa
    17b5:	0000                	unimp
    17b7:	7319                	lui	t1,0xfffe6
    17b9:	0700                	addi	s0,sp,896
    17bb:	dd0d01d7          	0xdd0d01d7
    17bf:	0000                	unimp
    17c1:	1900                	addi	s0,sp,176
    17c3:	656c                	flw	fa1,76(a0)
    17c5:	006e                	c.slli	zero,0x1b
    17c7:	1401d707          	0x1401d707
    17cb:	008a                	slli	ra,ra,0x2
    17cd:	0000                	unimp
    17cf:	6219                	lui	tp,0x6
    17d1:	6675                	lui	a2,0x1d
    17d3:	0700                	addi	s0,sp,896
    17d5:	d51f01d7          	0xd51f01d7
    17d9:	0000                	unimp
    17db:	1e00                	addi	s0,sp,816
    17dd:	0062                	c.slli	zero,0x18
    17df:	1401da07          	0x1401da07
    17e3:	08aa                	slli	a7,a7,0xa
    17e5:	0000                	unimp
    17e7:	701e                	flw	ft0,228(sp)
    17e9:	0030                	addi	a2,sp,8
    17eb:	0901db07          	0x901db07
    17ef:	00dd                	addi	ra,ra,23
    17f1:	0000                	unimp
    17f3:	691e                	flw	fs2,196(sp)
    17f5:	0700                	addi	s0,sp,896
    17f7:	01dc                	addi	a5,sp,196
    17f9:	8a06                	mv	s4,ra
    17fb:	0000                	unimp
    17fd:	0000                	unimp
    17ff:	0408                	addi	a0,sp,512
    1801:	04e0                	addi	s0,sp,588
    1803:	0000                	unimp
    1805:	4224                	lw	s1,64(a2)
    1807:	0002                	c.slli64	zero
    1809:	0700                	addi	s0,sp,896
    180b:	01b8                	addi	a4,sp,200
    180d:	8a01                	andi	a2,a2,0
    180f:	0000                	unimp
    1811:	2800                	fld	fs0,16(s0)
    1813:	0009                	c.nop	2
    1815:	1900                	addi	s0,sp,176
    1817:	7470                	flw	fa2,108(s0)
    1819:	0072                	c.slli	zero,0x1c
    181b:	1001b807          	fld	fa6,256(gp) # 20000990 <__global_pointer$+0x100>
    181f:	00dd                	addi	ra,ra,23
    1821:	0000                	unimp
    1823:	6c19                	lui	s8,0x6
    1825:	6e65                	lui	t3,0x19
    1827:	0700                	addi	s0,sp,896
    1829:	01b8                	addi	a4,sp,200
    182b:	8a19                	andi	a2,a2,6
    182d:	0000                	unimp
    182f:	1c00                	addi	s0,sp,560
    1831:	038d                	addi	t2,t2,3
    1833:	0000                	unimp
    1835:	2301b807          	fld	fa6,560(gp) # 20000ac0 <__global_pointer$+0x230>
    1839:	000000e3          	beqz	zero,2039 <main_sw.c.c9eed32e+0x1aa>
    183d:	c31c                	sw	a5,0(a4)
    183f:	07000003          	lb	zero,112(zero) # 70 <InterruptVector+0x70>
    1843:	01b8                	addi	a4,sp,200
    1845:	8a31                	andi	a2,a2,12
    1847:	0000                	unimp
    1849:	1c00                	addi	s0,sp,560
    184b:	0386                	slli	t2,t2,0x1
    184d:	0000                	unimp
    184f:	3f01b807          	fld	fa6,1008(gp) # 20000c80 <__global_pointer$+0x3f0>
    1853:	00dd                	addi	ra,ra,23
    1855:	0000                	unimp
    1857:	691e                	flw	fs2,196(sp)
    1859:	0700                	addi	s0,sp,896
    185b:	01ba                	slli	gp,gp,0xe
    185d:	8a06                	mv	s4,ra
    185f:	0000                	unimp
    1861:	1300                	addi	s0,sp,416
    1863:	012c                	addi	a1,sp,136
    1865:	0000                	unimp
    1867:	0601bb07          	fld	fs6,96(gp) # 200008f0 <__global_pointer$+0x60>
    186b:	008a                	slli	ra,ra,0x2
    186d:	0000                	unimp
    186f:	00038513          	mv	a0,t2
    1873:	0700                	addi	s0,sp,896
    1875:	01bc                	addi	a5,sp,200
    1877:	dd09                	beqz	a0,1791 <ch32v003fun.c.8affbd33+0x83c>
    1879:	0000                	unimp
    187b:	0000                	unimp
    187d:	df24                	sw	s1,120(a4)
    187f:	0001                	nop
    1881:	0700                	addi	s0,sp,896
    1883:	8a01018f          	0x8a01018f
    1887:	0000                	unimp
    1889:	cd00                	sw	s0,24(a0)
    188b:	0009                	c.nop	2
    188d:	1c00                	addi	s0,sp,560
    188f:	02c5                	addi	t0,t0,17
    1891:	0000                	unimp
    1893:	10018f07          	0x10018f07
    1897:	0062                	c.slli	zero,0x18
    1899:	0000                	unimp
    189b:	f61c                	fsw	fa5,40(a2)
    189d:	0004                	0x4
    189f:	0700                	addi	s0,sp,896
    18a1:	9d24018f          	0x9d24018f
    18a5:	0000                	unimp
    18a7:	1c00                	addi	s0,sp,560
    18a9:	02e5                	addi	t0,t0,25
    18ab:	0000                	unimp
    18ad:	2f018f07          	0x2f018f07
    18b1:	008a                	slli	ra,ra,0x2
    18b3:	0000                	unimp
    18b5:	a31c                	fsd	fa5,0(a4)
    18b7:	0001                	nop
    18b9:	0700                	addi	s0,sp,896
    18bb:	8a3e018f          	0x8a3e018f
    18bf:	0000                	unimp
    18c1:	1c00                	addi	s0,sp,560
    18c3:	0386                	slli	t2,t2,0x1
    18c5:	0000                	unimp
    18c7:	09019007          	0x9019007
    18cb:	00dd                	addi	ra,ra,23
    18cd:	0000                	unimp
    18cf:	00038513          	mv	a0,t2
    18d3:	0700                	addi	s0,sp,896
    18d5:	0192                	slli	gp,gp,0x4
    18d7:	dd08                	sw	a0,56(a0)
    18d9:	0000                	unimp
    18db:	1300                	addi	s0,sp,416
    18dd:	000004ab          	0x4ab
    18e1:	06019307          	0x6019307
    18e5:	008a                	slli	ra,ra,0x2
    18e7:	0000                	unimp
    18e9:	691e                	flw	fs2,196(sp)
    18eb:	0700                	addi	s0,sp,896
    18ed:	0194                	addi	a3,sp,192
    18ef:	8a06                	mv	s4,ra
    18f1:	0000                	unimp
    18f3:	1e00                	addi	s0,sp,816
    18f5:	656c                	flw	fa1,76(a0)
    18f7:	006e                	c.slli	zero,0x1b
    18f9:	09019407          	0x9019407
    18fd:	008a                	slli	ra,ra,0x2
    18ff:	0000                	unimp
    1901:	bf25                	j	1839 <ch32v003fun.c.8affbd33+0x8e4>
    1903:	0009                	c.nop	2
    1905:	1300                	addi	s0,sp,416
    1907:	0396                	slli	t2,t2,0x5
    1909:	0000                	unimp
    190b:	0701a107          	flw	ft2,112(gp) # 20000900 <__global_pointer$+0x70>
    190f:	008a                	slli	ra,ra,0x2
    1911:	0000                	unimp
    1913:	1d00                	addi	s0,sp,688
    1915:	6a1e                	flw	fs4,196(sp)
    1917:	0700                	addi	s0,sp,896
    1919:	e30801af          	0xe30801af
    191d:	0000                	unimp
    191f:	0000                	unimp
    1921:	1b00                	addi	s0,sp,432
    1923:	03be                	slli	t2,t2,0xf
    1925:	0000                	unimp
    1927:	05015907          	0x5015907
    192b:	008a                	slli	ra,ra,0x2
    192d:	0000                	unimp
    192f:	09f6                	slli	s3,s3,0x1d
    1931:	0000                	unimp
    1933:	7319                	lui	t1,0xfffe6
    1935:	0700                	addi	s0,sp,896
    1937:	0159                	addi	sp,sp,22
    1939:	ef16                	fsw	ft5,156(sp)
    193b:	0000                	unimp
    193d:	1e00                	addi	s0,sp,816
    193f:	07006c73          	csrrsi	s8,0x70,0
    1943:	8a06015b          	0x8a06015b
    1947:	0000                	unimp
    1949:	0000                	unimp
    194b:	0003511b          	0x3511b
    194f:	0700                	addi	s0,sp,896
    1951:	0151                	addi	sp,sp,20
    1953:	0000d507          	0xd507
    1957:	3600                	fld	fs0,40(a2)
    1959:	000a                	c.slli	zero,0x2
    195b:	1900                	addi	s0,sp,176
    195d:	00637273          	csrrci	tp,0x6,6
    1961:	1a015107          	0x1a015107
    1965:	0a36                	slli	s4,s4,0xd
    1967:	0000                	unimp
    1969:	6319                	lui	t1,0x6
    196b:	0700                	addi	s0,sp,896
    196d:	0151                	addi	sp,sp,20
    196f:	00008a23          	sb	zero,20(ra)
    1973:	1900                	addi	s0,sp,176
    1975:	006e                	c.slli	zero,0x1b
    1977:	2d015107          	0x2d015107
    197b:	00a4                	addi	s1,sp,72
    197d:	0000                	unimp
    197f:	731e                	flw	ft6,228(sp)
    1981:	0700                	addi	s0,sp,896
    1983:	3d170153          	0x3d170153
    1987:	000a                	c.slli	zero,0x2
    1989:	0000                	unimp
    198b:	0408                	addi	a0,sp,512
    198d:	0a3c                	addi	a5,sp,280
    198f:	0000                	unimp
    1991:	0826                	slli	a6,a6,0x9
    1993:	3704                	fld	fs1,40(a4)
    1995:	0000                	unimp
    1997:	1b00                	addi	s0,sp,432
    1999:	0234                	addi	a3,sp,264
    199b:	0000                	unimp
    199d:	07014107          	flq	ft2,112(sp) # 6c090070 <__global_pointer$+0x4c08f7e0>
    19a1:	00d5                	addi	ra,ra,21
    19a3:	0000                	unimp
    19a5:	0a90                	addi	a2,sp,336
    19a7:	0000                	unimp
    19a9:	0d1c                	addi	a5,sp,656
    19ab:	0006                	c.slli	zero,0x1
    19ad:	0700                	addi	s0,sp,896
    19af:	0141                	addi	sp,sp,16
    19b1:	d515                	beqz	a0,18dd <ch32v003fun.c.8affbd33+0x988>
    19b3:	0000                	unimp
    19b5:	1900                	addi	s0,sp,176
    19b7:	00637273          	csrrci	tp,0x6,6
    19bb:	27014107          	flq	ft2,624(sp)
    19bf:	0a36                	slli	s4,s4,0xd
    19c1:	0000                	unimp
    19c3:	6e19                	lui	t3,0x6
    19c5:	0700                	addi	s0,sp,896
    19c7:	0141                	addi	sp,sp,16
    19c9:	0000a433          	sltz	s0,ra
    19cd:	1e00                	addi	s0,sp,816
    19cf:	0064                	addi	s1,sp,12
    19d1:	08014307          	flq	ft6,128(sp)
    19d5:	00dd                	addi	ra,ra,23
    19d7:	0000                	unimp
    19d9:	731e                	flw	ft6,228(sp)
    19db:	0700                	addi	s0,sp,896
    19dd:	0144                	addi	s1,sp,132
    19df:	ef0e                	fsw	ft3,156(sp)
    19e1:	0000                	unimp
    19e3:	0000                	unimp
    19e5:	0004b91b          	0x4b91b
    19e9:	0700                	addi	s0,sp,896
    19eb:	0139                	addi	sp,sp,14
    19ed:	8a05                	andi	a2,a2,1
    19ef:	0000                	unimp
    19f1:	db00                	sw	s0,48(a4)
    19f3:	000a                	c.slli	zero,0x2
    19f5:	1900                	addi	s0,sp,176
    19f7:	6c76                	flw	fs8,92(sp)
    19f9:	0700                	addi	s0,sp,896
    19fb:	0139                	addi	sp,sp,14
    19fd:	3618                	fld	fa4,40(a2)
    19ff:	000a                	c.slli	zero,0x2
    1a01:	1900                	addi	s0,sp,176
    1a03:	7276                	flw	ft4,124(sp)
    1a05:	0700                	addi	s0,sp,896
    1a07:	0139                	addi	sp,sp,14
    1a09:	3628                	fld	fa0,104(a2)
    1a0b:	000a                	c.slli	zero,0x2
    1a0d:	1900                	addi	s0,sp,176
    1a0f:	006e                	c.slli	zero,0x1b
    1a11:	33013907          	fld	fs2,816(sp)
    1a15:	00a4                	addi	s1,sp,72
    1a17:	0000                	unimp
    1a19:	6c1e                	flw	fs8,196(sp)
    1a1b:	0700                	addi	s0,sp,896
    1a1d:	3d17013b          	0x3d17013b
    1a21:	000a                	c.slli	zero,0x2
    1a23:	1e00                	addi	s0,sp,816
    1a25:	0072                	c.slli	zero,0x1c
    1a27:	1e013b07          	fld	fs6,480(sp)
    1a2b:	0a3d                	addi	s4,s4,15
    1a2d:	0000                	unimp
    1a2f:	1b00                	addi	s0,sp,432
    1a31:	0025                	c.nop	9
    1a33:	0000                	unimp
    1a35:	07013107          	fld	ft2,112(sp)
    1a39:	00d5                	addi	ra,ra,21
    1a3b:	0000                	unimp
    1a3d:	0b28                	addi	a0,sp,408
    1a3f:	0000                	unimp
    1a41:	0d1c                	addi	a5,sp,656
    1a43:	0006                	c.slli	zero,0x1
    1a45:	0700                	addi	s0,sp,896
    1a47:	0131                	addi	sp,sp,12
    1a49:	d514                	sw	a3,40(a0)
    1a4b:	0000                	unimp
    1a4d:	1900                	addi	s0,sp,176
    1a4f:	00637273          	csrrci	tp,0x6,6
    1a53:	26013107          	fld	ft2,608(sp)
    1a57:	0a36                	slli	s4,s4,0xd
    1a59:	0000                	unimp
    1a5b:	6e19                	lui	t3,0x6
    1a5d:	0700                	addi	s0,sp,896
    1a5f:	0131                	addi	sp,sp,12
    1a61:	a432                	fsd	fa2,8(sp)
    1a63:	0000                	unimp
    1a65:	1e00                	addi	s0,sp,816
    1a67:	0064                	addi	s1,sp,12
    1a69:	11013307          	fld	ft6,272(sp)
    1a6d:	000000d7          	0xd7
    1a71:	731e                	flw	ft6,228(sp)
    1a73:	0700                	addi	s0,sp,896
    1a75:	0134                	addi	a3,sp,136
    1a77:	000a3d17          	auipc	s10,0xa3
    1a7b:	0000                	unimp
    1a7d:	0001241b          	0x1241b
    1a81:	0700                	addi	s0,sp,896
    1a83:	012c                	addi	a1,sp,136
    1a85:	0000dd07          	0xdd07
    1a89:	5000                	lw	s0,32(s0)
    1a8b:	1900000b          	0x1900000b
    1a8f:	2c070073          	0x2c070073
    1a93:	1b01                	addi	s6,s6,-32
    1a95:	000000ef          	jal	ra,1a95 <ch32v003fun.c.8affbd33+0xb40>
    1a99:	6319                	lui	t1,0x6
    1a9b:	0700                	addi	s0,sp,896
    1a9d:	012c                	addi	a1,sp,136
    1a9f:	8a22                	mv	s4,s0
    1aa1:	0000                	unimp
    1aa3:	0000                	unimp
    1aa5:	0004d21b          	0x4d21b
    1aa9:	0700                	addi	s0,sp,896
    1aab:	0124                	addi	s1,sp,136
    1aad:	0000d507          	0xd507
    1ab1:	8e00                	0x8e00
    1ab3:	1900000b          	0x1900000b
    1ab7:	006d                	c.nop	27
    1ab9:	1d012407          	flw	fs0,464(sp)
    1abd:	0a36                	slli	s4,s4,0xd
    1abf:	0000                	unimp
    1ac1:	6319                	lui	t1,0x6
    1ac3:	0700                	addi	s0,sp,896
    1ac5:	0124                	addi	s1,sp,136
    1ac7:	8a24                	0x8a24
    1ac9:	0000                	unimp
    1acb:	1900                	addi	s0,sp,176
    1acd:	006e                	c.slli	zero,0x1b
    1acf:	2e012407          	flw	fs0,736(sp)
    1ad3:	00a4                	addi	s1,sp,72
    1ad5:	0000                	unimp
    1ad7:	731e                	flw	ft6,228(sp)
    1ad9:	0700                	addi	s0,sp,896
    1adb:	0126                	slli	sp,sp,0x9
    1add:	000a3d17          	auipc	s10,0xa3
    1ae1:	0000                	unimp
    1ae3:	0004321b          	0x4321b
    1ae7:	0700                	addi	s0,sp,896
    1ae9:	dd07011b          	0xdd07011b
    1aed:	0000                	unimp
    1aef:	b600                	fsd	fs0,40(a2)
    1af1:	1900000b          	0x1900000b
    1af5:	1b070073          	0x1b070073
    1af9:	1a01                	addi	s4,s4,-32
    1afb:	000000ef          	jal	ra,1afb <ch32v003fun.c.8affbd33+0xba6>
    1aff:	6319                	lui	t1,0x6
    1b01:	0700                	addi	s0,sp,896
    1b03:	8a21011b          	0x8a21011b
    1b07:	0000                	unimp
    1b09:	0000                	unimp
    1b0b:	0005791b          	0x5791b
    1b0f:	0700                	addi	s0,sp,896
    1b11:	0109                	addi	sp,sp,2
    1b13:	0000dd07          	0xdd07
    1b17:	de00                	sw	s0,56(a2)
    1b19:	1900000b          	0x1900000b
    1b1d:	0068                	addi	a0,sp,12
    1b1f:	1a010907          	0x1a010907
    1b23:	000000ef          	jal	ra,1b23 <ch32v003fun.c.8affbd33+0xbce>
    1b27:	6e19                	lui	t3,0x6
    1b29:	0700                	addi	s0,sp,896
    1b2b:	0109                	addi	sp,sp,2
    1b2d:	ef29                	bnez	a4,1b87 <ch32v003fun.c.8affbd33+0xc32>
    1b2f:	0000                	unimp
    1b31:	0000                	unimp
    1b33:	00033027          	fsd	ft0,0(t1) # 6000 <wiring.c.7604182b+0x3884>
    1b37:	0700                	addi	s0,sp,896
    1b39:	0ea0                	addi	s0,sp,856
    1b3b:	00dd                	addi	ra,ra,23
    1b3d:	0000                	unimp
    1b3f:	0ca0                	addi	s0,sp,600
    1b41:	0000                	unimp
    1b43:	6828                	flw	fa0,80(s0)
    1b45:	0700                	addi	s0,sp,896
    1b47:	31a0                	fld	fs0,96(a1)
    1b49:	0a3d                	addi	s4,s4,15
    1b4b:	0000                	unimp
    1b4d:	6e28                	flw	fa0,88(a2)
    1b4f:	0700                	addi	s0,sp,896
    1b51:	49a0                	lw	s0,80(a1)
    1b53:	0a3d                	addi	s4,s4,15
    1b55:	0000                	unimp
    1b57:	7a29                	lui	s4,0xfffea
    1b59:	0700                	addi	s0,sp,896
    1b5b:	17a2                	slli	a5,a5,0x28
    1b5d:	0a3d                	addi	s4,s4,15
    1b5f:	0000                	unimp
    1b61:	6c29                	lui	s8,0xa
    1b63:	0700                	addi	s0,sp,896
    1b65:	00a409a3          	sb	a0,19(s0) # ffffb013 <__global_pointer$+0xdfffa783>
    1b69:	0000                	unimp
    1b6b:	6929                	lui	s2,0xa
    1b6d:	0070                	addi	a2,sp,12
    1b6f:	a40ca307          	flw	ft6,-1472(s9)
    1b73:	0000                	unimp
    1b75:	2900                	fld	fs0,16(a0)
    1b77:	706a                	flw	ft0,184(sp)
    1b79:	0700                	addi	s0,sp,896
    1b7b:	00a410a3          	sh	a0,1(s0)
    1b7f:	0000                	unimp
    1b81:	6b29                	lui	s6,0xa
    1b83:	0700                	addi	s0,sp,896
    1b85:	00a414a3          	sh	a0,9(s0)
    1b89:	0000                	unimp
    1b8b:	7029                	c.lui	zero,0xfffea
    1b8d:	0700                	addi	s0,sp,896
    1b8f:	00a417a3          	sh	a0,15(s0)
    1b93:	0000                	unimp
    1b95:	6d29                	lui	s10,0xa
    1b97:	a3070073          	0xa3070073
    1b9b:	a41a                	fsd	ft6,8(sp)
    1b9d:	0000                	unimp
    1b9f:	2900                	fld	fs0,16(a0)
    1ba1:	3070                	fld	fa2,224(s0)
    1ba3:	0700                	addi	s0,sp,896
    1ba5:	00a41ea3          	sh	a0,29(s0)
    1ba9:	0000                	unimp
    1bab:	6d29                	lui	s10,0xa
    1bad:	6d65                	lui	s10,0x19
    1baf:	0700                	addi	s0,sp,896
    1bb1:	00a422a3          	sw	a0,5(s0)
    1bb5:	0000                	unimp
    1bb7:	b42a                	fsd	fa0,40(sp)
    1bb9:	0004                	0x4
    1bbb:	0700                	addi	s0,sp,896
    1bbd:	00a427a3          	sw	a0,15(s0)
    1bc1:	0000                	unimp
    1bc3:	352a                	fld	fa0,168(sp)
    1bc5:	0005                	c.nop	1
    1bc7:	0700                	addi	s0,sp,896
    1bc9:	09a4                	addi	s1,sp,216
    1bcb:	0ca0                	addi	s0,sp,600
    1bcd:	0000                	unimp
    1bcf:	2e2a                	fld	ft8,136(sp)
    1bd1:	0002                	c.slli64	zero
    1bd3:	0700                	addi	s0,sp,896
    1bd5:	09a5                	addi	s3,s3,9
    1bd7:	0cb0                	addi	a2,sp,600
    1bd9:	0000                	unimp
    1bdb:	2a1d                	jal	1d11 <ch32v003fun.c.8affbd33+0xdbc>
    1bdd:	03ca                	slli	t2,t2,0x12
    1bdf:	0000                	unimp
    1be1:	a40be307          	0xa40be307
    1be5:	0000                	unimp
    1be7:	2900                	fld	fs0,16(a0)
    1be9:	327a                	fld	ft4,440(sp)
    1beb:	0700                	addi	s0,sp,896
    1bed:	19e4                	addi	s1,sp,252
    1bef:	0a3d                	addi	s4,s4,15
    1bf1:	0000                	unimp
    1bf3:	0000                	unimp
    1bf5:	a409                	j	1df7 <ch32v003fun.c.8affbd33+0xea2>
    1bf7:	0000                	unimp
    1bf9:	b000                	fsd	fs0,32(s0)
    1bfb:	000c                	0xc
    1bfd:	0a00                	addi	s0,sp,272
    1bff:	009d                	addi	ra,ra,7
    1c01:	0000                	unimp
    1c03:	a4090007          	0xa4090007
    1c07:	0000                	unimp
    1c09:	c000                	sw	s0,0(s0)
    1c0b:	000c                	0xc
    1c0d:	0a00                	addi	s0,sp,272
    1c0f:	009d                	addi	ra,ra,7
    1c11:	0000                	unimp
    1c13:	00ff                	0xff
    1c15:	00051327          	0x51327
    1c19:	0700                	addi	s0,sp,896
    1c1b:	0e92                	slli	t4,t4,0x4
    1c1d:	00dd                	addi	ra,ra,23
    1c1f:	0000                	unimp
    1c21:	00000cfb          	0xcfb
    1c25:	6828                	flw	fa0,80(s0)
    1c27:	0700                	addi	s0,sp,896
    1c29:	3392                	fld	ft7,288(sp)
    1c2b:	0a3d                	addi	s4,s4,15
    1c2d:	0000                	unimp
    1c2f:	6e28                	flw	fa0,88(a2)
    1c31:	0700                	addi	s0,sp,896
    1c33:	4b92                	lw	s7,4(sp)
    1c35:	0a3d                	addi	s4,s4,15
    1c37:	0000                	unimp
    1c39:	6e29                	lui	t3,0xa
    1c3b:	94070077          	0x94070077
    1c3f:	0001380b          	0x1380b
    1c43:	2900                	fld	fs0,16(a0)
    1c45:	7768                	flw	fa0,108(a4)
    1c47:	0700                	addi	s0,sp,896
    1c49:	0b95                	addi	s7,s7,5
    1c4b:	0138                	addi	a4,sp,136
    1c4d:	0000                	unimp
    1c4f:	2700                	fld	fs0,8(a4)
    1c51:	0000056f          	jal	a0,1c51 <ch32v003fun.c.8affbd33+0xcfc>
    1c55:	dd0e8a07          	0xdd0e8a07
    1c59:	0000                	unimp
    1c5b:	3600                	fld	fs0,40(a2)
    1c5d:	000d                	c.nop	3
    1c5f:	2800                	fld	fs0,16(s0)
    1c61:	0068                	addi	a0,sp,12
    1c63:	3d348a07          	0x3d348a07
    1c67:	000a                	c.slli	zero,0x2
    1c69:	2800                	fld	fs0,16(s0)
    1c6b:	006e                	c.slli	zero,0x1b
    1c6d:	3d4c8a07          	0x3d4c8a07
    1c71:	000a                	c.slli	zero,0x2
    1c73:	2900                	fld	fs0,16(a0)
    1c75:	776e                	flw	fa4,248(sp)
    1c77:	0700                	addi	s0,sp,896
    1c79:	0b8c                	addi	a1,sp,464
    1c7b:	0138                	addi	a4,sp,136
    1c7d:	0000                	unimp
    1c7f:	6829                	lui	a6,0xa
    1c81:	8d070077          	0x8d070077
    1c85:	0001380b          	0x1380b
    1c89:	0000                	unimp
    1c8b:	00061227          	0x61227
    1c8f:	0700                	addi	s0,sp,896
    1c91:	00dd0e83          	lb	t4,13(s10) # 1900d <wiring.c.7604182b+0x16891>
    1c95:	0000                	unimp
    1c97:	0d71                	addi	s10,s10,28
    1c99:	0000                	unimp
    1c9b:	6828                	flw	fa0,80(s0)
    1c9d:	0700                	addi	s0,sp,896
    1c9f:	0a3d3283          	0xa3d3283
    1ca3:	0000                	unimp
    1ca5:	6e28                	flw	fa0,88(a2)
    1ca7:	0700                	addi	s0,sp,896
    1ca9:	0a3d4a83          	lbu	s5,163(s10)
    1cad:	0000                	unimp
    1caf:	6e29                	lui	t3,0xa
    1cb1:	85070077          	0x85070077
    1cb5:	00011b0b          	0x11b0b
    1cb9:	2900                	fld	fs0,16(a0)
    1cbb:	7768                	flw	fa0,108(a4)
    1cbd:	0700                	addi	s0,sp,896
    1cbf:	2085                	jal	1d1f <ch32v003fun.c.8affbd33+0xdca>
    1cc1:	0000011b          	0x11b
    1cc5:	2b00                	fld	fs0,16(a4)
    1cc7:	015d                	addi	sp,sp,23
    1cc9:	0000                	unimp
    1ccb:	8a057b07          	0x8a057b07
    1ccf:	0000                	unimp
    1cd1:	b600                	fsd	fs0,40(a2)
    1cd3:	000d                	c.nop	3
    1cd5:	2800                	fld	fs0,16(s0)
    1cd7:	6c5f 0700 197b      	0x197b07006c5f
    1cdd:	000000ef          	jal	ra,1cdd <ch32v003fun.c.8affbd33+0xd88>
    1ce1:	5f28                	lw	a0,120(a4)
    1ce3:	0072                	c.slli	zero,0x1c
    1ce5:	ef297b07          	0xef297b07
    1ce9:	0000                	unimp
    1ceb:	2800                	fld	fs0,16(s0)
    1ced:	006e                	c.slli	zero,0x1b
    1cef:	a4347b07          	0xa4347b07
    1cf3:	0000                	unimp
    1cf5:	2900                	fld	fs0,16(a0)
    1cf7:	006c                	addi	a1,sp,12
    1cf9:	3d177d07          	0x3d177d07
    1cfd:	000a                	c.slli	zero,0x2
    1cff:	2900                	fld	fs0,16(a0)
    1d01:	0072                	c.slli	zero,0x1c
    1d03:	3d267d07          	0x3d267d07
    1d07:	000a                	c.slli	zero,0x2
    1d09:	0000                	unimp
    1d0b:	0006262b          	0x6262b
    1d0f:	0700                	addi	s0,sp,896
    1d11:	0576                	slli	a0,a0,0x1d
    1d13:	008a                	slli	ra,ra,0x2
    1d15:	0000                	unimp
    1d17:	00000ddb          	0xddb
    1d1b:	6c28                	flw	fa0,88(s0)
    1d1d:	0700                	addi	s0,sp,896
    1d1f:	1876                	slli	a6,a6,0x3d
    1d21:	000000ef          	jal	ra,1d21 <ch32v003fun.c.8affbd33+0xdcc>
    1d25:	7228                	flw	fa0,96(a2)
    1d27:	0700                	addi	s0,sp,896
    1d29:	2776                	fld	fa4,344(sp)
    1d2b:	000000ef          	jal	ra,1d2b <ch32v003fun.c.8affbd33+0xdd6>
    1d2f:	2b00                	fld	fs0,16(a4)
    1d31:	00000293          	li	t0,0
    1d35:	dd077507          	0xdd077507
    1d39:	0000                	unimp
    1d3b:	0a00                	addi	s0,sp,272
    1d3d:	000e                	c.slli	zero,0x3
    1d3f:	2800                	fld	fs0,16(s0)
    1d41:	0064                	addi	s1,sp,12
    1d43:	dd157507          	0xdd157507
    1d47:	0000                	unimp
    1d49:	2800                	fld	fs0,16(s0)
    1d4b:	75070073          	0x75070073
    1d4f:	ef24                	fsw	fs1,88(a4)
    1d51:	0000                	unimp
    1d53:	2800                	fld	fs0,16(s0)
    1d55:	006e                	c.slli	zero,0x1b
    1d57:	a42e7507          	0xa42e7507
    1d5b:	0000                	unimp
    1d5d:	0000                	unimp
    1d5f:	0002012b          	0x2012b
    1d63:	0700                	addi	s0,sp,896
    1d65:	0774                	addi	a3,sp,908
    1d67:	00dd                	addi	ra,ra,23
    1d69:	0000                	unimp
    1d6b:	00000e2f          	0xe2f
    1d6f:	6428                	flw	fa0,72(s0)
    1d71:	0700                	addi	s0,sp,896
    1d73:	1474                	addi	a3,sp,556
    1d75:	00dd                	addi	ra,ra,23
    1d77:	0000                	unimp
    1d79:	7328                	flw	fa0,96(a4)
    1d7b:	0700                	addi	s0,sp,896
    1d7d:	2374                	fld	fa3,192(a4)
    1d7f:	000000ef          	jal	ra,1d7f <ch32v003fun.c.8affbd33+0xe2a>
    1d83:	2b00                	fld	fs0,16(a4)
    1d85:	0014                	0x14
    1d87:	0000                	unimp
    1d89:	d5077307          	0xd5077307
    1d8d:	0000                	unimp
    1d8f:	6a00                	flw	fs0,16(a2)
    1d91:	000e                	c.slli	zero,0x3
    1d93:	2c00                	fld	fs0,24(s0)
    1d95:	060d                	addi	a2,a2,3
    1d97:	0000                	unimp
    1d99:	d5147307          	0xd5147307
    1d9d:	0000                	unimp
    1d9f:	2800                	fld	fs0,16(s0)
    1da1:	73070063          	beq	a4,a6,24c1 <main_sw.c.c9eed32e+0x632>
    1da5:	8a1e                	mv	s4,t2
    1da7:	0000                	unimp
    1da9:	2800                	fld	fs0,16(s0)
    1dab:	006e                	c.slli	zero,0x1b
    1dad:	a4287307          	0xa4287307
    1db1:	0000                	unimp
    1db3:	2900                	fld	fs0,16(a0)
    1db5:	73070073          	0x73070073
    1db9:	d73c                	sw	a5,104(a4)
    1dbb:	0000                	unimp
    1dbd:	0000                	unimp
    1dbf:	0001792b          	0x1792b
    1dc3:	0700                	addi	s0,sp,896
    1dc5:	0872                	slli	a6,a6,0x1c
    1dc7:	00a4                	addi	s1,sp,72
    1dc9:	0000                	unimp
    1dcb:	0e99                	addi	t4,t4,6
    1dcd:	0000                	unimp
    1dcf:	7328                	flw	fa0,96(a4)
    1dd1:	0700                	addi	s0,sp,896
    1dd3:	1c72                	slli	s8,s8,0x3c
    1dd5:	000000ef          	jal	ra,1dd5 <ch32v003fun.c.8affbd33+0xe80>
    1dd9:	6e28                	flw	fa0,88(a2)
    1ddb:	0700                	addi	s0,sp,896
    1ddd:	2672                	fld	fa2,280(sp)
    1ddf:	00a4                	addi	s1,sp,72
    1de1:	0000                	unimp
    1de3:	7029                	c.lui	zero,0xfffea
    1de5:	0700                	addi	s0,sp,896
    1de7:	3772                	fld	fa4,312(sp)
    1de9:	000000ef          	jal	ra,1de9 <ch32v003fun.c.8affbd33+0xe94>
    1ded:	2b00                	fld	fs0,16(a4)
    1def:	0135                	addi	sp,sp,13
    1df1:	0000                	unimp
    1df3:	a4087107          	0xa4087107
    1df7:	0000                	unimp
    1df9:	be00                	fsd	fs0,56(a2)
    1dfb:	000e                	c.slli	zero,0x3
    1dfd:	2800                	fld	fs0,16(s0)
    1dff:	71070073          	0x71070073
    1e03:	0000ef1b          	0xef1b
    1e07:	2900                	fld	fs0,16(a0)
    1e09:	0061                	c.nop	24
    1e0b:	ef2c7107          	0xef2c7107
    1e0f:	0000                	unimp
    1e11:	0000                	unimp
    1e13:	00028c2b          	0x28c2b
    1e17:	0700                	addi	s0,sp,896
    1e19:	051a                	slli	a0,a0,0x6
    1e1b:	008a                	slli	ra,ra,0x2
    1e1d:	0000                	unimp
    1e1f:	0ef4                	addi	a3,sp,860
    1e21:	0000                	unimp
    1e23:	3c2c                	fld	fa1,120(s0)
    1e25:	0001                	nop
    1e27:	0700                	addi	s0,sp,896
    1e29:	181a                	slli	a6,a6,0x26
    1e2b:	000000ef          	jal	ra,1e2b <ch32v003fun.c.8affbd33+0xed6>
    1e2f:	2a20                	fld	fs0,80(a2)
    1e31:	03d9                	addi	t2,t2,22
    1e33:	0000                	unimp
    1e35:	c90a1c07          	0xc90a1c07
    1e39:	0000                	unimp
    1e3b:	2a00                	fld	fs0,16(a2)
    1e3d:	02da                	slli	t0,t0,0x16
    1e3f:	0000                	unimp
    1e41:	8a061e07          	0x8a061e07
    1e45:	0000                	unimp
    1e47:	0000                	unimp
    1e49:	0002a827          	fsw	ft0,16(t0)
    1e4d:	0700                	addi	s0,sp,896
    1e4f:	0c14                	addi	a3,sp,528
    1e51:	008a                	slli	ra,ra,0x2
    1e53:	0000                	unimp
    1e55:	00000f27          	0xf27
    1e59:	7328                	flw	fa0,96(a4)
    1e5b:	0700                	addi	s0,sp,896
    1e5d:	1e14                	addi	a3,sp,816
    1e5f:	00dd                	addi	ra,ra,23
    1e61:	0000                	unimp
    1e63:	6c28                	flw	fa0,88(s0)
    1e65:	6e65                	lui	t3,0x19
    1e67:	0700                	addi	s0,sp,896
    1e69:	2514                	fld	fa3,8(a0)
    1e6b:	008a                	slli	ra,ra,0x2
    1e6d:	0000                	unimp
    1e6f:	6228                	flw	fa0,64(a2)
    1e71:	6675                	lui	a2,0x1d
    1e73:	0700                	addi	s0,sp,896
    1e75:	3014                	fld	fa3,32(s0)
    1e77:	00d5                	addi	ra,ra,21
    1e79:	0000                	unimp
    1e7b:	1f00                	addi	s0,sp,944
    1e7d:	04c0                	addi	s0,sp,580
    1e7f:	0000                	unimp
    1e81:	0602a707          	flw	fa4,96(t0)
    1e85:	9c1a                	add	s8,s8,t1
    1e87:	07000003          	lb	zero,112(zero) # 70 <InterruptVector+0x70>
    1e8b:	02fe                	slli	t0,t0,0x1f
    1e8d:	0006                	c.slli	zero,0x1

00001e8f <main_sw.c.c9eed32e>:
    1e8f:	08e9                	addi	a7,a7,26
    1e91:	0000                	unimp
    1e93:	0004                	0x4
    1e95:	03cd                	addi	t2,t2,19
    1e97:	0000                	unimp
    1e99:	0104                	addi	s1,sp,128
    1e9b:	058d                	addi	a1,a1,3
    1e9d:	0000                	unimp
    1e9f:	2c0c                	fld	fa1,24(s0)
    1ea1:	0009                	c.nop	2
    1ea3:	e100                	fsw	fs0,0(a0)
    1ea5:	0000                	unimp
    1ea7:	dd00                	sw	s0,56(a0)
    1ea9:	02000027          	0x2000027
    1ead:	063a                	slli	a2,a2,0xe
    1eaf:	0000                	unimp
    1eb1:	00d20407          	0xd20407
    1eb5:	0000                	unimp
    1eb7:	4201                	li	tp,0
    1eb9:	d20e                	sw	gp,36(sp)
    1ebb:	0000                	unimp
    1ebd:	0300                	addi	s0,sp,384
    1ebf:	0942                	slli	s2,s2,0x10
    1ec1:	0000                	unimp
    1ec3:	0302                	c.slli64	t1
    1ec5:	06da                	slli	a3,a3,0x16
    1ec7:	0000                	unimp
    1ec9:	084e0303          	lb	t1,132(t3) # 19084 <wiring.c.7604182b+0x16908>
    1ecd:	0000                	unimp
    1ecf:	030c                	addi	a1,sp,384
    1ed1:	070e                	slli	a4,a4,0x3
    1ed3:	0000                	unimp
    1ed5:	030e                	slli	t1,t1,0x3
    1ed7:	088d                	addi	a7,a7,3
    1ed9:	0000                	unimp
    1edb:	0310                	addi	a2,sp,384
    1edd:	08cc                	addi	a1,sp,84
    1edf:	0000                	unimp
    1ee1:	0311                	addi	t1,t1,4
    1ee3:	06b0                	addi	a2,sp,840
    1ee5:	0000                	unimp
    1ee7:	0312                	slli	t1,t1,0x4
    1ee9:	06ea                	slli	a3,a3,0x1a
    1eeb:	0000                	unimp
    1eed:	06320313          	addi	t1,tp,99 # 6063 <wiring.c.7604182b+0x38e7>
    1ef1:	0000                	unimp
    1ef3:	0314                	addi	a3,sp,384
    1ef5:	065e                	slli	a2,a2,0x17
    1ef7:	0000                	unimp
    1ef9:	0315                	addi	t1,t1,5
    1efb:	086e                	slli	a6,a6,0x1b
    1efd:	0000                	unimp
    1eff:	0316                	slli	t1,t1,0x5
    1f01:	0688                	addi	a0,sp,832
    1f03:	0000                	unimp
    1f05:	08e50317          	auipc	t1,0x8e50
    1f09:	0000                	unimp
    1f0b:	0318                	addi	a4,sp,384
    1f0d:	0731                	addi	a4,a4,12
    1f0f:	0000                	unimp
    1f11:	0319                	addi	t1,t1,6
    1f13:	0a0c                	addi	a1,sp,272
    1f15:	0000                	unimp
    1f17:	031a                	slli	t1,t1,0x6
    1f19:	0000085b          	0x85b
    1f1d:	0667031b          	0x667031b
    1f21:	0000                	unimp
    1f23:	031c                	addi	a5,sp,384
    1f25:	08d5                	addi	a7,a7,21
    1f27:	0000                	unimp
    1f29:	031d                	addi	t1,t1,7
    1f2b:	000006bb          	0x6bb
    1f2f:	031e                	slli	t1,t1,0x7
    1f31:	09c2                	slli	s3,s3,0x10
    1f33:	0000                	unimp
    1f35:	031f 0936 0000      	0x936031f
    1f3b:	0320                	addi	s0,sp,392
    1f3d:	071c                	addi	a5,sp,896
    1f3f:	0000                	unimp
    1f41:	0321                	addi	t1,t1,8
    1f43:	06fa                	slli	a3,a3,0x1e
    1f45:	0000                	unimp
    1f47:	0322                	slli	t1,t1,0x8
    1f49:	0909                	addi	s2,s2,2
    1f4b:	0000                	unimp
    1f4d:	09b00323          	sb	s11,134(zero) # 86 <InterruptVector+0x86>
    1f51:	0000                	unimp
    1f53:	0324                	addi	s1,sp,392
    1f55:	0000096b          	0x96b
    1f59:	0325                	addi	t1,t1,9
    1f5b:	09d4                	addi	a3,sp,212
    1f5d:	0000                	unimp
    1f5f:	0026                	c.slli	zero,0x9
    1f61:	0404                	addi	s1,sp,512
    1f63:	00027807          	0x27807
    1f67:	0500                	addi	s0,sp,640
    1f69:	07a0                	addi	s0,sp,968
    1f6b:	0000                	unimp
    1f6d:	6301                	0x6301
    1f6f:	00001d03          	lh	s10,0(zero) # 0 <InterruptVector>
    1f73:	0400                	addi	s0,sp,512
    1f75:	0601                	addi	a2,a2,0
    1f77:	0000053f 0004fc05 	0x4fc050000053f
    1f7f:	0200                	addi	s0,sp,256
    1f81:	00f8182b          	0xf8182b
    1f85:	0000                	unimp
    1f87:	0104                	addi	s1,sp,128
    1f89:	3d08                	fld	fa0,56(a0)
    1f8b:	0005                	c.nop	1
    1f8d:	0400                	addi	s0,sp,512
    1f8f:	0502                	c.slli64	a0
    1f91:	047f                	0x47f
    1f93:	0000                	unimp
    1f95:	b405                	j	19b5 <ch32v003fun.c.8affbd33+0xa60>
    1f97:	0002                	c.slli64	zero
    1f99:	0200                	addi	s0,sp,256
    1f9b:	1939                	addi	s2,s2,-18
    1f9d:	0112                	slli	sp,sp,0x4
    1f9f:	0000                	unimp
    1fa1:	0204                	addi	s1,sp,256
    1fa3:	0005d807          	0x5d807
    1fa7:	0400                	addi	s0,sp,512
    1fa9:	0504                	addi	s1,sp,640
    1fab:	037c                	addi	a5,sp,396
    1fad:	0000                	unimp
    1faf:	4b05                	li	s6,1
    1fb1:	0005                	c.nop	1
    1fb3:	0200                	addi	s0,sp,256
    1fb5:	012c194f          	fnmadd.s	fs2,fs8,fs2,ft0,rtz
    1fb9:	0000                	unimp
    1fbb:	0404                	addi	s1,sp,512
    1fbd:	00027307          	0x27307
    1fc1:	0400                	addi	s0,sp,512
    1fc3:	0508                	addi	a0,sp,640
    1fc5:	00000377          	0x377
    1fc9:	0804                	addi	s1,sp,16
    1fcb:	00026e07          	0x26e07
    1fcf:	0600                	addi	s0,sp,768
    1fd1:	0504                	addi	s1,sp,640
    1fd3:	6e69                	lui	t3,0x1a
    1fd5:	0074                	addi	a3,sp,12
    1fd7:	fe05                	bnez	a2,1f0f <main_sw.c.c9eed32e+0x80>
    1fd9:	0004                	0x4
    1fdb:	0300                	addi	s0,sp,384
    1fdd:	1318                	addi	a4,sp,416
    1fdf:	00ec                	addi	a1,sp,76
    1fe1:	0000                	unimp
    1fe3:	00014807          	flq	fa6,0(sp)
    1fe7:	0800                	addi	s0,sp,16
    1fe9:	0154                	addi	a3,sp,132
    1feb:	0000                	unimp
    1fed:	4808                	lw	a0,16(s0)
    1fef:	0001                	nop
    1ff1:	0500                	addi	s0,sp,640
    1ff3:	02b6                	slli	t0,t0,0xd
    1ff5:	0000                	unimp
    1ff7:	06142403          	lw	s0,97(s0)
    1ffb:	0001                	nop
    1ffd:	0500                	addi	s0,sp,640
    1fff:	054d                	addi	a0,a0,19
    2001:	0000                	unimp
    2003:	20143003          	0x20143003
    2007:	0001                	nop
    2009:	0800                	addi	s0,sp,16
    200b:	0000016f          	jal	sp,200b <main_sw.c.c9eed32e+0x17c>
    200f:	00017b07          	0x17b07
    2013:	0900                	addi	s0,sp,144
    2015:	0154                	addi	a3,sp,132
    2017:	0971                	addi	s2,s2,28
    2019:	02a0                	addi	s0,sp,328
    201b:	0000                	unimp
    201d:	870a                	mv	a4,sp
    201f:	0005                	c.nop	1
    2021:	0100                	addi	s0,sp,128
    2023:	017b1373          	csrrw	t1,0x17,s6
    2027:	0000                	unimp
    2029:	0a00                	addi	s0,sp,272
    202b:	03fe                	slli	t2,t2,0x1f
    202d:	0000                	unimp
    202f:	7401                	lui	s0,0xfffe0
    2031:	00017b13          	andi	s6,sp,0
    2035:	0400                	addi	s0,sp,512
    2037:	040a                	slli	s0,s0,0x2
    2039:	0004                	0x4
    203b:	0100                	addi	s0,sp,128
    203d:	1375                	addi	t1,t1,-3
    203f:	0000017b          	0x17b
    2043:	0a08                	addi	a0,sp,272
    2045:	0744                	addi	s1,sp,900
    2047:	0000                	unimp
    2049:	7601                	lui	a2,0xfffe0
    204b:	00017b13          	andi	s6,sp,0
    204f:	0c00                	addi	s0,sp,528
    2051:	4c0a                	lw	s8,128(sp)
    2053:	01000007          	0x1000007
    2057:	017b1377          	0x17b1377
    205b:	0000                	unimp
    205d:	0a10                	addi	a2,sp,272
    205f:	00000773          	0x773
    2063:	7801                	lui	a6,0xfffe0
    2065:	00017b13          	andi	s6,sp,0
    2069:	1400                	addi	s0,sp,544
    206b:	790a                	flw	fs2,160(sp)
    206d:	01000007          	0x1000007
    2071:	1379                	addi	t1,t1,-2
    2073:	0000017b          	0x17b
    2077:	0a18                	addi	a4,sp,272
    2079:	077f                	0x77f
    207b:	0000                	unimp
    207d:	7a01                	lui	s4,0xfffe0
    207f:	00017b13          	andi	s6,sp,0
    2083:	1c00                	addi	s0,sp,560
    2085:	850a                	mv	a0,sp
    2087:	01000007          	0x1000007
    208b:	017b137b          	0x17b137b
    208f:	0000                	unimp
    2091:	0a20                	addi	s0,sp,280
    2093:	0644                	addi	s1,sp,772
    2095:	0000                	unimp
    2097:	7c01                	lui	s8,0xfffe0
    2099:	00017b13          	andi	s6,sp,0
    209d:	2400                	fld	fs0,8(s0)
    209f:	9b0a                	add	s6,s6,sp
    20a1:	0006                	c.slli	zero,0x1
    20a3:	0100                	addi	s0,sp,128
    20a5:	137d                	addi	t1,t1,-1
    20a7:	0000017b          	0x17b
    20ab:	0a28                	addi	a0,sp,280
    20ad:	09ea                	slli	s3,s3,0x1a
    20af:	0000                	unimp
    20b1:	7e01                	lui	t3,0xfffe0
    20b3:	00017b13          	andi	s6,sp,0
    20b7:	2c00                	fld	fs0,24(s0)
    20b9:	f00a                	fsw	ft2,32(sp)
    20bb:	0009                	c.nop	2
    20bd:	0100                	addi	s0,sp,128
    20bf:	137f                	0x137f
    20c1:	0000017b          	0x17b
    20c5:	0a30                	addi	a2,sp,280
    20c7:	09f6                	slli	s3,s3,0x1d
    20c9:	0000                	unimp
    20cb:	8001                	c.srli64	s0
    20cd:	00017b13          	andi	s6,sp,0
    20d1:	3400                	fld	fs0,40(s0)
    20d3:	2d0a                	fld	fs10,128(sp)
    20d5:	0006                	c.slli	zero,0x1
    20d7:	0100                	addi	s0,sp,128
    20d9:	1381                	addi	t2,t2,-32
    20db:	0000017b          	0x17b
    20df:	0a38                	addi	a4,sp,280
    20e1:	07e5                	addi	a5,a5,25
    20e3:	0000                	unimp
    20e5:	8201                	c.srli64	a2
    20e7:	00017b13          	andi	s6,sp,0
    20eb:	3c00                	fld	fs0,56(s0)
    20ed:	ed0a                	fsw	ft2,152(sp)
    20ef:	01000007          	0x1000007
    20f3:	017b1383          	lh	t2,23(s6) # a017 <wiring.c.7604182b+0x789b>
    20f7:	0000                	unimp
    20f9:	0a40                	addi	s0,sp,276
    20fb:	07f5                	addi	a5,a5,29
    20fd:	0000                	unimp
    20ff:	8401                	c.srai64	s0
    2101:	00017b13          	andi	s6,sp,0
    2105:	4400                	lw	s0,8(s0)
    2107:	fd0a                	fsw	ft2,184(sp)
    2109:	01000007          	0x1000007
    210d:	1385                	addi	t2,t2,-31
    210f:	0000017b          	0x17b
    2113:	0a48                	addi	a0,sp,276
    2115:	08de                	slli	a7,a7,0x17
    2117:	0000                	unimp
    2119:	8601                	c.srai64	a2
    211b:	00017b13          	andi	s6,sp,0
    211f:	4c00                	lw	s0,24(s0)
    2121:	020a                	slli	tp,tp,0x2
    2123:	000a                	c.slli	zero,0x2
    2125:	0100                	addi	s0,sp,128
    2127:	017b1387          	0x17b1387
    212b:	0000                	unimp
    212d:	0050                	addi	a2,sp,4
    212f:	8105                	srli	a0,a0,0x1
    2131:	0008                	0x8
    2133:	0100                	addi	s0,sp,128
    2135:	0388                	addi	a0,sp,448
    2137:	0185                	addi	gp,gp,1
    2139:	0000                	unimp
    213b:	37011c0b          	0x37011c0b
    213f:	0901                	addi	s2,s2,0
    2141:	0319                	addi	t1,t1,6
    2143:	0000                	unimp
    2145:	3c0c                	fld	fa1,56(s0)
    2147:	0002                	c.slli64	zero
    2149:	0100                	addi	s0,sp,128
    214b:	0139                	addi	sp,sp,14
    214d:	7b10                	flw	fa2,48(a4)
    214f:	0001                	nop
    2151:	0000                	unimp
    2153:	070c                	addi	a1,sp,896
    2155:	0006                	c.slli	zero,0x1
    2157:	0100                	addi	s0,sp,128
    2159:	013a                	slli	sp,sp,0xe
    215b:	7b10                	flw	fa2,48(a4)
    215d:	0001                	nop
    215f:	0400                	addi	s0,sp,512
    2161:	bb0c                	fsd	fa1,48(a4)
    2163:	0001                	nop
    2165:	0100                	addi	s0,sp,128
    2167:	8010013b          	0x8010013b
    216b:	0001                	nop
    216d:	0800                	addi	s0,sp,16
    216f:	f60c                	fsw	fa1,40(a2)
    2171:	0002                	c.slli64	zero
    2173:	0100                	addi	s0,sp,128
    2175:	013c                	addi	a5,sp,136
    2177:	7b10                	flw	fa2,48(a4)
    2179:	0001                	nop
    217b:	0c00                	addi	s0,sp,528
    217d:	3e0c                	fld	fa1,56(a2)
    217f:	01000003          	lb	zero,16(zero) # 10 <InterruptVector+0x10>
    2183:	013d                	addi	sp,sp,15
    2185:	7b10                	flw	fa2,48(a4)
    2187:	0001                	nop
    2189:	1000                	addi	s0,sp,32
    218b:	420d                	li	tp,3
    218d:	01005243          	fmadd.s	ft4,ft0,fa6,ft0,unknown
    2191:	013e                	slli	sp,sp,0xf
    2193:	7b10                	flw	fa2,48(a4)
    2195:	0001                	nop
    2197:	1400                	addi	s0,sp,544
    2199:	210c                	fld	fa1,0(a0)
    219b:	0006                	c.slli	zero,0x1
    219d:	0100                	addi	s0,sp,128
    219f:	7b10013f 18000001 	0x180000017b10013f
    21a7:	0e00                	addi	s0,sp,784
    21a9:	0506                	slli	a0,a0,0x1
    21ab:	0000                	unimp
    21ad:	4001                	c.li	zero,0
    21af:	0301                	addi	t1,t1,0
    21b1:	02ac                	addi	a1,sp,328
    21b3:	0000                	unimp
    21b5:	7701280b          	0x7701280b
    21b9:	0901                	addi	s2,s2,0
    21bb:	03bd                	addi	t2,t2,15
    21bd:	0000                	unimp
    21bf:	2b0c                	fld	fa1,16(a4)
    21c1:	01000003          	lb	zero,16(zero) # 10 <InterruptVector+0x10>
    21c5:	0179                	addi	sp,sp,30
    21c7:	00017b13          	andi	s6,sp,0
    21cb:	0000                	unimp
    21cd:	b70c                	fsd	fa1,40(a4)
    21cf:	01000003          	lb	zero,16(zero) # 10 <InterruptVector+0x10>
    21d3:	017a                	slli	sp,sp,0x1e
    21d5:	00017b13          	andi	s6,sp,0
    21d9:	0400                	addi	s0,sp,512
    21db:	290c                	fld	fa1,16(a0)
    21dd:	0002                	c.slli64	zero
    21df:	0100                	addi	s0,sp,128
    21e1:	7b13017b          	0x7b13017b
    21e5:	0001                	nop
    21e7:	0800                	addi	s0,sp,16
    21e9:	ec0c                	fsw	fa1,24(s0)
    21eb:	0004                	0x4
    21ed:	0100                	addi	s0,sp,128
    21ef:	017c                	addi	a5,sp,140
    21f1:	00017b13          	andi	s6,sp,0
    21f5:	0c00                	addi	s0,sp,528
    21f7:	1f0c                	addi	a1,sp,944
    21f9:	0002                	c.slli64	zero
    21fb:	0100                	addi	s0,sp,128
    21fd:	017d                	addi	sp,sp,31
    21ff:	00017b13          	andi	s6,sp,0
    2203:	1000                	addi	s0,sp,32
    2205:	ae0c                	fsd	fa1,24(a2)
    2207:	01000003          	lb	zero,16(zero) # 10 <InterruptVector+0x10>
    220b:	017e                	slli	sp,sp,0x1f
    220d:	00017b13          	andi	s6,sp,0
    2211:	1400                	addi	s0,sp,544
    2213:	b10c                	fsd	fa1,32(a0)
    2215:	0001                	nop
    2217:	0100                	addi	s0,sp,128
    2219:	017f                	0x17f
    221b:	00017b13          	andi	s6,sp,0
    221f:	1800                	addi	s0,sp,48
    2221:	cf0c                	sw	a1,24(a4)
    2223:	01000003          	lb	zero,16(zero) # 10 <InterruptVector+0x10>
    2227:	0180                	addi	s0,sp,192
    2229:	00017b13          	andi	s6,sp,0
    222d:	1c00                	addi	s0,sp,560
    222f:	390c                	fld	fa1,48(a0)
    2231:	0004                	0x4
    2233:	0100                	addi	s0,sp,128
    2235:	0181                	addi	gp,gp,0
    2237:	00017b13          	andi	s6,sp,0
    223b:	2000                	fld	fs0,0(s0)
    223d:	2a0c                	fld	fa1,16(a2)
    223f:	0004                	0x4
    2241:	0100                	addi	s0,sp,128
    2243:	0182                	c.slli64	gp
    2245:	00017b13          	andi	s6,sp,0
    2249:	2400                	fld	fs0,8(s0)
    224b:	0e00                	addi	s0,sp,784
    224d:	031e                	slli	t1,t1,0x7
    224f:	0000                	unimp
    2251:	8301                	c.srli64	a4
    2253:	0301                	addi	t1,t1,0
    2255:	0326                	slli	t1,t1,0x9
    2257:	0000                	unimp
    2259:	0001590f          	0x1590f
    225d:	da00                	sw	s0,48(a2)
    225f:	10000003          	lb	zero,256(zero) # 100 <digitalWrite+0x3c>
    2263:	00d2                	slli	ra,ra,0x14
    2265:	0000                	unimp
    2267:	ca07000f          	0xca07000f
    226b:	08000003          	lb	zero,128(zero) # 80 <InterruptVector+0x80>
    226f:	03da                	slli	t2,t2,0x16
    2271:	0000                	unimp
    2273:	9a11                	andi	a2,a2,-28
    2275:	0004                	0x4
    2277:	0100                	addi	s0,sp,128
    2279:	df140b73          	0xdf140b73
    227d:	0f000003          	lb	zero,240(zero) # f0 <digitalWrite+0x2c>
    2281:	0159                	addi	sp,sp,22
    2283:	0000                	unimp
    2285:	0401                	addi	s0,s0,0
    2287:	0000                	unimp
    2289:	d210                	sw	a2,32(a2)
    228b:	0000                	unimp
    228d:	1300                	addi	s0,sp,416
    228f:	0700                	addi	s0,sp,896
    2291:	03f1                	addi	t2,t2,28
    2293:	0000                	unimp
    2295:	0108                	addi	a0,sp,128
    2297:	0004                	0x4
    2299:	1100                	addi	s0,sp,160
    229b:	0165                	addi	sp,sp,25
    229d:	0000                	unimp
    229f:	7401                	lui	s0,0xfffe0
    22a1:	0406140b          	0x406140b
    22a5:	0000                	unimp
    22a7:	1412                	slli	s0,s0,0x24
    22a9:	010d                	addi	sp,sp,3
    22ab:	1141                	addi	sp,sp,-16
    22ad:	7309                	lui	t1,0xfffe2
    22af:	0005                	c.nop	1
    22b1:	0d00                	addi	s0,sp,656
    22b3:	5349                	li	t1,-14
    22b5:	0052                	c.slli	zero,0x14
    22b7:	4201                	li	tp,0
    22b9:	1311                	addi	t1,t1,-28
    22bb:	0588                	addi	a0,sp,704
    22bd:	0000                	unimp
    22bf:	0d00                	addi	s0,sp,656
    22c1:	5049                	c.li	zero,-14
    22c3:	0052                	c.slli	zero,0x14
    22c5:	4301                	li	t1,0
    22c7:	1311                	addi	t1,t1,-28
    22c9:	058d                	addi	a1,a1,3
    22cb:	0000                	unimp
    22cd:	0c20                	addi	s0,sp,536
    22cf:	06d1                	addi	a3,a3,20
    22d1:	0000                	unimp
    22d3:	4401                	li	s0,0
    22d5:	1311                	addi	t1,t1,-28
    22d7:	0000017b          	0x17b
    22db:	0c40                	addi	s0,sp,532
    22dd:	010d                	addi	sp,sp,3
    22df:	0000                	unimp
    22e1:	4501                	li	a0,0
    22e3:	1311                	addi	t1,t1,-28
    22e5:	0000017b          	0x17b
    22e9:	0c44                	addi	s1,sp,532
    22eb:	0978                	addi	a4,sp,156
    22ed:	0000                	unimp
    22ef:	4601                	li	a2,0
    22f1:	1311                	addi	t1,t1,-28
    22f3:	0000017b          	0x17b
    22f7:	0c48                	addi	a0,sp,532
    22f9:	0000063f 13114701 	0x131147010000063f
    2301:	0180                	addi	s0,sp,192
    2303:	0000                	unimp
    2305:	0c4c                	addi	a1,sp,532
    2307:	000006e3          	beqz	zero,2b13 <wiring.c.7604182b+0x397>
    230b:	4801                	li	a6,0
    230d:	1211                	addi	tp,tp,-28
    230f:	05a2                	slli	a1,a1,0x8
    2311:	0000                	unimp
    2313:	0c50                	addi	a2,sp,532
    2315:	0439                	addi	s0,s0,14
    2317:	0000                	unimp
    2319:	4901                	li	s2,0
    231b:	0d11                	addi	s10,s10,4
    231d:	000005a7          	0x5a7
    2321:	0c54                	addi	a3,sp,532
    2323:	0a1f 0000 4a01      	0x4a0100000a1f
    2329:	1311                	addi	t1,t1,-28
    232b:	000005c7          	fmsub.s	fa1,ft0,ft0,ft0,rne
    232f:	0c60                	addi	s0,sp,540
    2331:	00000443          	fmadd.s	fs0,ft0,ft0,ft0,rne
    2335:	4b01                	li	s6,0
    2337:	0d11                	addi	s10,s10,4
    2339:	05cc                	addi	a1,sp,708
    233b:	0000                	unimp
    233d:	1370                	addi	a2,sp,428
    233f:	0754                	addi	a3,sp,900
    2341:	0000                	unimp
    2343:	4c01                	li	s8,0
    2345:	1311                	addi	t1,t1,-28
    2347:	05ec                	addi	a1,sp,716
    2349:	0000                	unimp
    234b:	0100                	addi	s0,sp,128
    234d:	00044d13          	xori	s10,s0,0
    2351:	0100                	addi	s0,sp,128
    2353:	114d                	addi	sp,sp,-13
    2355:	f10d                	bnez	a0,2277 <main_sw.c.c9eed32e+0x3e8>
    2357:	0005                	c.nop	1
    2359:	2000                	fld	fs0,0(s0)
    235b:	1301                	addi	t1,t1,-32
    235d:	09e5                	addi	s3,s3,25
    235f:	0000                	unimp
    2361:	4e01                	li	t3,0
    2363:	1311                	addi	t1,t1,-28
    2365:	05ec                	addi	a1,sp,716
    2367:	0000                	unimp
    2369:	0180                	addi	s0,sp,192
    236b:	00045713          	srli	a4,s0,0x0
    236f:	0100                	addi	s0,sp,128
    2371:	f10d114f          	fnmadd.s	ft2,fs10,fa6,ft10,rtz
    2375:	0005                	c.nop	1
    2377:	a000                	fsd	fs0,0(s0)
    2379:	1301                	addi	t1,t1,-32
    237b:	0a52                	slli	s4,s4,0x14
    237d:	0000                	unimp
    237f:	5001                	c.li	zero,-32
    2381:	1311                	addi	t1,t1,-28
    2383:	05ec                	addi	a1,sp,716
    2385:	0000                	unimp
    2387:	0200                	addi	s0,sp,256
    2389:	00046113          	ori	sp,s0,0
    238d:	0100                	addi	s0,sp,128
    238f:	1151                	addi	sp,sp,-12
    2391:	f10d                	bnez	a0,22b3 <main_sw.c.c9eed32e+0x424>
    2393:	0005                	c.nop	1
    2395:	2000                	fld	fs0,0(s0)
    2397:	1302                	slli	t1,t1,0x20
    2399:	00000a07          	0xa07
    239d:	5201                	li	tp,-32
    239f:	1311                	addi	t1,t1,-28
    23a1:	05ec                	addi	a1,sp,716
    23a3:	0000                	unimp
    23a5:	0280                	addi	s0,sp,320
    23a7:	00046b13          	ori	s6,s0,0
    23ab:	0100                	addi	s0,sp,128
    23ad:	f10d1153          	0xf10d1153
    23b1:	0005                	c.nop	1
    23b3:	a000                	fsd	fs0,0(s0)
    23b5:	1302                	slli	t1,t1,0x20
    23b7:	0708                	addi	a0,sp,896
    23b9:	0000                	unimp
    23bb:	5401                	li	s0,-32
    23bd:	1311                	addi	t1,t1,-28
    23bf:	05ec                	addi	a1,sp,716
    23c1:	0000                	unimp
    23c3:	0300                	addi	s0,sp,384
    23c5:	00047513          	andi	a0,s0,0
    23c9:	0100                	addi	s0,sp,128
    23cb:	1155                	addi	sp,sp,-11
    23cd:	010d                	addi	sp,sp,3
    23cf:	0006                	c.slli	zero,0x1
    23d1:	2000                	fld	fs0,0(s0)
    23d3:	07c61303          	lh	t1,124(a2) # fffe007c <__global_pointer$+0xdffdf7ec>
    23d7:	0000                	unimp
    23d9:	5601                	li	a2,-32
    23db:	1211                	addi	tp,tp,-28
    23dd:	0621                	addi	a2,a2,8
    23df:	0000                	unimp
    23e1:	0400                	addi	s0,sp,512
    23e3:	000a6013          	ori	zero,s4,0
    23e7:	0100                	addi	s0,sp,128
    23e9:	260d1157          	0x260d1157
    23ed:	0006                	c.slli	zero,0x1
    23ef:	0000                	unimp
    23f1:	1305                	addi	t1,t1,-31
    23f3:	0682                	c.slli64	a3
    23f5:	0000                	unimp
    23f7:	5801                	li	a6,-32
    23f9:	1311                	addi	t1,t1,-28
    23fb:	0000017b          	0x17b
    23ff:	0d10                	addi	a2,sp,656
    2401:	0f00                	addi	s0,sp,912
    2403:	0180                	addi	s0,sp,192
    2405:	0000                	unimp
    2407:	00000583          	lb	a1,0(zero) # 0 <InterruptVector>
    240b:	d210                	sw	a2,32(a2)
    240d:	0000                	unimp
    240f:	0700                	addi	s0,sp,896
    2411:	0700                	addi	s0,sp,896
    2413:	00000573          	0x573
    2417:	8308                	0x8308
    2419:	0005                	c.nop	1
    241b:	0800                	addi	s0,sp,16
    241d:	00000583          	lb	a1,0(zero) # 0 <InterruptVector>
    2421:	00015e0f          	0x15e0f
    2425:	a200                	fsd	fs0,0(a2)
    2427:	0005                	c.nop	1
    2429:	1000                	addi	s0,sp,32
    242b:	00d2                	slli	ra,ra,0x14
    242d:	0000                	unimp
    242f:	92080003          	lb	zero,-1760(a6) # fffdf920 <__global_pointer$+0xdffdf090>
    2433:	0005                	c.nop	1
    2435:	0f00                	addi	s0,sp,912
    2437:	0148                	addi	a0,sp,132
    2439:	0000                	unimp
    243b:	000005b7          	lui	a1,0x0
    243f:	d210                	sw	a2,32(a2)
    2441:	0000                	unimp
    2443:	0b00                	addi	s0,sp,400
    2445:	0f00                	addi	s0,sp,912
    2447:	0000017b          	0x17b
    244b:	000005c7          	fmsub.s	fa1,ft0,ft0,ft0,rne
    244f:	d210                	sw	a2,32(a2)
    2451:	0000                	unimp
    2453:	0300                	addi	s0,sp,384
    2455:	0800                	addi	s0,sp,16
    2457:	000005b7          	lui	a1,0x0
    245b:	0001480f          	0x1480f
    245f:	dc00                	sw	s0,56(s0)
    2461:	0005                	c.nop	1
    2463:	1000                	addi	s0,sp,32
    2465:	00d2                	slli	ra,ra,0x14
    2467:	0000                	unimp
    2469:	7b0f008f          	0x7b0f008f
    246d:	0001                	nop
    246f:	ec00                	fsw	fs0,24(s0)
    2471:	0005                	c.nop	1
    2473:	1000                	addi	s0,sp,32
    2475:	00d2                	slli	ra,ra,0x14
    2477:	0000                	unimp
    2479:	dc080007          	0xdc080007
    247d:	0005                	c.nop	1
    247f:	0f00                	addi	s0,sp,912
    2481:	0148                	addi	a0,sp,132
    2483:	0000                	unimp
    2485:	0601                	addi	a2,a2,0
    2487:	0000                	unimp
    2489:	d210                	sw	a2,32(a2)
    248b:	0000                	unimp
    248d:	5f00                	lw	s0,56(a4)
    248f:	0f00                	addi	s0,sp,912
    2491:	0148                	addi	a0,sp,132
    2493:	0000                	unimp
    2495:	0611                	addi	a2,a2,4
    2497:	0000                	unimp
    2499:	d210                	sw	a2,32(a2)
    249b:	0000                	unimp
    249d:	df00                	sw	s0,56(a4)
    249f:	0f00                	addi	s0,sp,912
    24a1:	015e                	slli	sp,sp,0x17
    24a3:	0000                	unimp
    24a5:	0621                	addi	a2,a2,8
    24a7:	0000                	unimp
    24a9:	d210                	sw	a2,32(a2)
    24ab:	0000                	unimp
    24ad:	ff00                	fsw	fs0,56(a4)
    24af:	0800                	addi	s0,sp,16
    24b1:	0611                	addi	a2,a2,4
    24b3:	0000                	unimp
    24b5:	0001480f          	0x1480f
    24b9:	3700                	fld	fs0,40(a4)
    24bb:	0006                	c.slli	zero,0x1
    24bd:	1400                	addi	s0,sp,544
    24bf:	00d2                	slli	ra,ra,0x14
    24c1:	0000                	unimp
    24c3:	0e00080f          	0xe00080f
    24c7:	000008bb          	0x8bb
    24cb:	5901                	li	s2,-32
    24cd:	0211                	addi	tp,tp,4
    24cf:	0418                	addi	a4,sp,512
    24d1:	0000                	unimp
    24d3:	5c01180b          	0x5c01180b
    24d7:	0911                	addi	s2,s2,4
    24d9:	06a2                	slli	a3,a3,0x8
    24db:	0000                	unimp
    24dd:	2b0c                	fld	fa1,16(a4)
    24df:	01000003          	lb	zero,16(zero) # 10 <InterruptVector+0x10>
    24e3:	115e                	slli	sp,sp,0x37
    24e5:	00017b13          	andi	s6,sp,0
    24e9:	0000                	unimp
    24eb:	530d                	li	t1,-29
    24ed:	0052                	c.slli	zero,0x14
    24ef:	5f01                	li	t5,-32
    24f1:	1311                	addi	t1,t1,-28
    24f3:	0000017b          	0x17b
    24f7:	0d04                	addi	s1,sp,656
    24f9:	00544e43          	fmadd.s	ft8,fs0,ft5,ft0,rmm
    24fd:	6001                	0x6001
    24ff:	1311                	addi	t1,t1,-28
    2501:	0000017b          	0x17b
    2505:	0c08                	addi	a0,sp,528
    2507:	0439                	addi	s0,s0,14
    2509:	0000                	unimp
    250b:	6101                	0x6101
    250d:	0e11                	addi	t3,t3,4
    250f:	0000016f          	jal	sp,250f <main_sw.c.c9eed32e+0x680>
    2513:	0d0c                	addi	a1,sp,656
    2515:	00504d43          	fmadd.s	fs10,ft0,ft5,ft0,rmm
    2519:	6201                	0x6201
    251b:	1311                	addi	t1,t1,-28
    251d:	0000017b          	0x17b
    2521:	0c10                	addi	a2,sp,528
    2523:	00000443          	fmadd.s	fs0,ft0,ft0,ft0,rne
    2527:	6301                	0x6301
    2529:	0e11                	addi	t3,t3,4
    252b:	0000016f          	jal	sp,252b <main_sw.c.c9eed32e+0x69c>
    252f:	0014                	0x14
    2531:	de0e                	sw	gp,60(sp)
    2533:	01000003          	lb	zero,16(zero) # 10 <InterruptVector+0x10>
    2537:	1164                	addi	s1,sp,172
    2539:	4402                	lw	s0,0(sp)
    253b:	0006                	c.slli	zero,0x1
    253d:	0200                	addi	s0,sp,256
    253f:	00000a27          	0xa27
    2543:	00d20407          	0xd20407
    2547:	0000                	unimp
    2549:	0804                	addi	s1,sp,16
    254b:	ce06                	sw	ra,28(sp)
    254d:	0006                	c.slli	zero,0x1
    254f:	1500                	addi	s0,sp,672
    2551:	6f6c                	flw	fa1,92(a4)
    2553:	03000077          	0x3000077
    2557:	00000c13          	li	s8,0
    255b:	0001                	nop
    255d:	7b02                	flw	fs6,32(sp)
    255f:	000a                	c.slli	zero,0x2
    2561:	0700                	addi	s0,sp,896
    2563:	d204                	sw	s1,32(a2)
    2565:	0000                	unimp
    2567:	0400                	addi	s0,sp,512
    2569:	06f9060f          	0x6f9060f
    256d:	0000                	unimp
    256f:	00095603          	lhu	a2,0(s2) # a000 <wiring.c.7604182b+0x7884>
    2573:	0000                	unimp
    2575:	00095d03          	lhu	s10,0(s2)
    2579:	0100                	addi	s0,sp,128
    257b:	00096403          	0x96403
    257f:	0200                	addi	s0,sp,256
    2581:	000a8503          	lb	a0,0(s5)
    2585:	0300                	addi	s0,sp,384
    2587:	0200                	addi	s0,sp,256
    2589:	06c8                	addi	a0,sp,836
    258b:	0000                	unimp
    258d:	00d20407          	0xd20407
    2591:	0000                	unimp
    2593:	1604                	addi	s1,sp,800
    2595:	7e06                	flw	ft8,96(sp)
    2597:	03000007          	0x3000007
    259b:	08c5                	addi	a7,a7,17
    259d:	0000                	unimp
    259f:	0300                	addi	s0,sp,384
    25a1:	000006f3          	0x6f3
    25a5:	0301                	addi	t1,t1,0
    25a7:	0000078b          	0x78b
    25ab:	0302                	c.slli64	t1
    25ad:	0792                	slli	a5,a5,0x4
    25af:	0000                	unimp
    25b1:	07990303          	lb	t1,121(s2)
    25b5:	0000                	unimp
    25b7:	0304                	addi	s1,sp,384
    25b9:	09de                	slli	s3,s3,0x17
    25bb:	0000                	unimp
    25bd:	0305                	addi	t1,t1,1
    25bf:	07aa                	slli	a5,a5,0xa
    25c1:	0000                	unimp
    25c3:	0306                	slli	t1,t1,0x1
    25c5:	07b1                	addi	a5,a5,12
    25c7:	0000                	unimp
    25c9:	07b80307          	0x7b80307
    25cd:	0000                	unimp
    25cf:	0308                	addi	a0,sp,384
    25d1:	000007bf 08050309 	0x8050309000007bf
    25d9:	0000                	unimp
    25db:	030a                	slli	t1,t1,0x2
    25dd:	080c                	addi	a1,sp,16
    25df:	0000                	unimp
    25e1:	0a3f030b          	0xa3f030b
    25e5:	0000                	unimp
    25e7:	030c                	addi	a1,sp,384
    25e9:	00000813          	li	a6,0
    25ed:	030d                	addi	t1,t1,3
    25ef:	081a                	slli	a6,a6,0x6
    25f1:	0000                	unimp
    25f3:	030e                	slli	t1,t1,0x3
    25f5:	0821                	addi	a6,a6,8
    25f7:	0000                	unimp
    25f9:	0828030f          	0x828030f
    25fd:	0000                	unimp
    25ff:	0310                	addi	a2,sp,384
    2601:	0000082f          	0x82f
    2605:	0311                	addi	t1,t1,4
    2607:	00000a57          	0xa57
    260b:	0012                	c.slli	zero,0x4
    260d:	4602                	lw	a2,0(sp)
    260f:	000a                	c.slli	zero,0x2
    2611:	0700                	addi	s0,sp,896
    2613:	d204                	sw	s1,32(a2)
    2615:	0000                	unimp
    2617:	0400                	addi	s0,sp,512
    2619:	062d                	addi	a2,a2,11
    261b:	07c1                	addi	a5,a5,16
    261d:	0000                	unimp
    261f:	00083b03          	0x83b03
    2623:	0000                	unimp
    2625:	000a6a03          	0xa6a03
    2629:	0100                	addi	s0,sp,128
    262b:	00099403          	lh	s0,0(s3) # 1000 <ch32v003fun.c.8affbd33+0xab>
    262f:	0200                	addi	s0,sp,256
    2631:	0008f803          	0x8f803
    2635:	0300                	addi	s0,sp,384
    2637:	0007cd03          	lbu	s10,0(a5)
    263b:	0400                	addi	s0,sp,512
    263d:	00064a03          	lbu	s4,0(a2)
    2641:	0500                	addi	s0,sp,640
    2643:	00091603          	lh	a2,0(s2)
    2647:	0600                	addi	s0,sp,768
    2649:	00097d03          	0x97d03
    264d:	0700                	addi	s0,sp,896
    264f:	0400                	addi	s0,sp,512
    2651:	0410                	addi	a2,sp,512
    2653:	000003eb          	0x3eb
    2657:	0104                	addi	s1,sp,128
    2659:	4608                	lw	a0,8(a2)
    265b:	0005                	c.nop	1
    265d:	0900                	addi	s0,sp,144
    265f:	09350503          	lb	a0,147(a0)
    2663:	0800                	addi	s0,sp,16
    2665:	0000                	unimp
    2667:	260a                	fld	fa2,128(sp)
    2669:	05000007          	0x5000007
    266d:	1036                	c.slli	zero,0x2d
    266f:	0154                	addi	a3,sp,132
    2671:	0000                	unimp
    2673:	0a00                	addi	s0,sp,272
    2675:	000009a7          	0x9a7
    2679:	3705                	jal	2599 <main_sw.c.c9eed32e+0x70a>
    267b:	5410                	lw	a2,40(s0)
    267d:	0001                	nop
    267f:	0100                	addi	s0,sp,128
    2681:	970a                	add	a4,a4,sp
    2683:	0008                	0x8
    2685:	0500                	addi	s0,sp,640
    2687:	1338                	addi	a4,sp,424
    2689:	015e                	slli	sp,sp,0x17
    268b:	0000                	unimp
    268d:	0002                	c.slli64	zero
    268f:	2f05                	jal	2dbf <wiring.c.7604182b+0x643>
    2691:	000a                	c.slli	zero,0x2
    2693:	0500                	addi	s0,sp,640
    2695:	0339                	addi	t1,t1,14
    2697:	000007cf          	fnmadd.s	fa5,ft0,ft0,ft0,rne
    269b:	0008                	0x8
    269d:	0008                	0x8
    269f:	0f00                	addi	s0,sp,912
    26a1:	080c                	addi	a1,sp,16
    26a3:	0000                	unimp
    26a5:	0821                	addi	a6,a6,8
    26a7:	0000                	unimp
    26a9:	d210                	sw	a2,32(a2)
    26ab:	0000                	unimp
    26ad:	0b00                	addi	s0,sp,400
    26af:	0800                	addi	s0,sp,16
    26b1:	0811                	addi	a6,a6,4
    26b3:	0000                	unimp
    26b5:	e016                	fsw	ft5,0(sp)
    26b7:	05000007          	0x5000007
    26bb:	153c                	addi	a5,sp,680
    26bd:	0821                	addi	a6,a6,8
    26bf:	0000                	unimp
    26c1:	0001540f          	0x1540f
    26c5:	4800                	lw	s0,16(s0)
    26c7:	0008                	0x8
    26c9:	1000                	addi	s0,sp,32
    26cb:	00d2                	slli	ra,ra,0x14
    26cd:	0000                	unimp
    26cf:	00d21003          	lh	zero,13(tp) # d <InterruptVector+0xd>
    26d3:	0000                	unimp
    26d5:	0002                	c.slli64	zero
    26d7:	00083207          	fld	ft4,0(a6)
    26db:	1700                	addi	s0,sp,928
    26dd:	076d                	addi	a4,a4,27
    26df:	0000                	unimp
    26e1:	5005                	c.li	zero,-31
    26e3:	4816                	lw	a6,68(sp)
    26e5:	0008                	0x8
    26e7:	1800                	addi	s0,sp,48
    26e9:	0a3a                	slli	s4,s4,0xe
    26eb:	0000                	unimp
    26ed:	2005                	jal	270d <main_sw.c.c9eed32e+0x87e>
    26ef:	0501                	addi	a0,a0,0
    26f1:	0141                	addi	sp,sp,16
    26f3:	0000                	unimp
    26f5:	0894                	addi	a3,sp,80
    26f7:	0000                	unimp
    26f9:	1119                	addi	sp,sp,-26
    26fb:	09fc                	addi	a5,sp,220
    26fd:	0000                	unimp
    26ff:	3105                	jal	231f <main_sw.c.c9eed32e+0x490>
    2701:	0701                	addi	a4,a4,0
    2703:	0141                	addi	sp,sp,16
    2705:	0000                	unimp
    2707:	3611                	jal	220b <main_sw.c.c9eed32e+0x37c>
    2709:	0008                	0x8
    270b:	0500                	addi	s0,sp,640
    270d:	41070133          	sub	sp,a4,a6
    2711:	0001                	nop
    2713:	1900                	addi	s0,sp,176
    2715:	691a                	flw	fs2,132(sp)
    2717:	0500                	addi	s0,sp,640
    2719:	0134                	addi	a3,sp,136
    271b:	0001410b          	0x1410b
    271f:	0000                	unimp
    2721:	0000                	unimp
    2723:	0008a21b          	0x8a21b
    2727:	0500                	addi	s0,sp,640
    2729:	06e0                	addi	s0,sp,844
    272b:	08b9                	addi	a7,a7,14
    272d:	0000                	unimp
    272f:	0009cf17          	auipc	t5,0x9c
    2733:	0500                	addi	s0,sp,640
    2735:	11ec                	addi	a1,sp,236
    2737:	0148                	addi	a0,sp,132
    2739:	0000                	unimp
    273b:	00076617          	auipc	a2,0x76
    273f:	0500                	addi	s0,sp,640
    2741:	0aed                	addi	s5,s5,27
    2743:	0148                	addi	a0,sp,132
    2745:	0000                	unimp
    2747:	1c00                	addi	s0,sp,560
    2749:	0759                	addi	a4,a4,22
    274b:	0000                	unimp
    274d:	b405                	j	216d <main_sw.c.c9eed32e+0x2de>
    274f:	1d06                	slli	s10,s10,0x21
    2751:	067a                	slli	a2,a2,0x1e
    2753:	0000                	unimp
    2755:	a505                	j	2d75 <wiring.c.7604182b+0x5f9>
    2757:	630a                	flw	ft6,128(sp)
    2759:	0001                	nop
    275b:	1c00                	addi	s0,sp,560
    275d:	08b2                	slli	a7,a7,0xc
    275f:	0000                	unimp
    2761:	5705                	li	a4,-31
    2763:	1e06                	slli	t3,t3,0x21
    2765:	06a1                	addi	a3,a3,8
    2767:	0000                	unimp
    2769:	a701                	j	2e69 <wiring.c.7604182b+0x6ed>
    276b:	1711                	addi	a4,a4,-28
    276d:	3a1f 0006 0100      	0x10000063a1f
    2773:	d93011a7          	0xd93011a7
    2777:	0000                	unimp
    2779:	0000                	unimp
	...

0000277c <wiring.c.7604182b>:
    277c:	06ba                	slli	a3,a3,0xe
    277e:	0000                	unimp
    2780:	0004                	0x4
    2782:	057d                	addi	a0,a0,31
    2784:	0000                	unimp
    2786:	0104                	addi	s1,sp,128
    2788:	058d                	addi	a1,a1,3
    278a:	0000                	unimp
    278c:	af0c                	fsd	fa1,24(a4)
    278e:	000a                	c.slli	zero,0x2
    2790:	e100                	fsw	fs0,0(a0)
    2792:	0000                	unimp
    2794:	8600                	0x8600
    2796:	0028                	addi	a0,sp,8
    2798:	0200                	addi	s0,sp,256
    279a:	0704                	addi	s1,sp,896
    279c:	0278                	addi	a4,sp,268
    279e:	0000                	unimp
    27a0:	000b9603          	lh	a2,0(s7) # 1000 <ch32v003fun.c.8affbd33+0xab>
    27a4:	0100                	addi	s0,sp,128
    27a6:	1729                	addi	a4,a4,-22
    27a8:	0030                	addi	a2,sp,8
    27aa:	0000                	unimp
    27ac:	0102                	c.slli64	sp
    27ae:	3f06                	fld	ft10,96(sp)
    27b0:	0005                	c.nop	1
    27b2:	0300                	addi	s0,sp,384
    27b4:	04fc                	addi	a5,sp,588
    27b6:	0000                	unimp
    27b8:	2b01                	jal	2cc8 <wiring.c.7604182b+0x54c>
    27ba:	4318                	lw	a4,0(a4)
    27bc:	0000                	unimp
    27be:	0200                	addi	s0,sp,256
    27c0:	0801                	addi	a6,a6,0
    27c2:	053d                	addi	a0,a0,15
    27c4:	0000                	unimp
    27c6:	0202                	c.slli64	tp
    27c8:	7f05                	lui	t5,0xfffe1
    27ca:	0004                	0x4
    27cc:	0300                	addi	s0,sp,384
    27ce:	02b4                	addi	a3,sp,328
    27d0:	0000                	unimp
    27d2:	3901                	jal	23e2 <main_sw.c.c9eed32e+0x553>
    27d4:	5d19                	li	s10,-26
    27d6:	0000                	unimp
    27d8:	0200                	addi	s0,sp,256
    27da:	0702                	c.slli64	a4
    27dc:	05d8                	addi	a4,sp,708
    27de:	0000                	unimp
    27e0:	0402                	c.slli64	s0
    27e2:	7c05                	lui	s8,0xfffe1
    27e4:	03000003          	lb	zero,48(zero) # 30 <InterruptVector+0x30>
    27e8:	0000054b          	fnmsub.s	fa0,ft0,ft0,ft0,rne
    27ec:	4f01                	li	t5,0
    27ee:	7719                	lui	a4,0xfffe6
    27f0:	0000                	unimp
    27f2:	0200                	addi	s0,sp,256
    27f4:	0704                	addi	s1,sp,896
    27f6:	00000273          	0x273
    27fa:	0802                	c.slli64	a6
    27fc:	7705                	lui	a4,0xfffe1
    27fe:	02000003          	lb	zero,32(zero) # 20 <InterruptVector+0x20>
    2802:	0708                	addi	a0,sp,896
    2804:	026e                	slli	tp,tp,0x1b
    2806:	0000                	unimp
    2808:	0404                	addi	s1,sp,512
    280a:	6905                	lui	s2,0x1
    280c:	746e                	flw	fs0,248(sp)
    280e:	0300                	addi	s0,sp,384
    2810:	0b98                	addi	a4,sp,464
    2812:	0000                	unimp
    2814:	1402                	slli	s0,s0,0x20
    2816:	2412                	fld	fs0,256(sp)
    2818:	0000                	unimp
    281a:	0300                	addi	s0,sp,384
    281c:	04fe                	slli	s1,s1,0x1f
    281e:	0000                	unimp
    2820:	1802                	slli	a6,a6,0x20
    2822:	00003713          	sltiu	a4,zero,0
    2826:	0500                	addi	s0,sp,640
    2828:	009f 0000 ab06      	0xab060000009f
    282e:	0000                	unimp
    2830:	0300                	addi	s0,sp,384
    2832:	02b6                	slli	t0,t0,0xd
    2834:	0000                	unimp
    2836:	2402                	fld	fs0,0(sp)
    2838:	5114                	lw	a3,32(a0)
    283a:	0000                	unimp
    283c:	0300                	addi	s0,sp,384
    283e:	054d                	addi	a0,a0,19
    2840:	0000                	unimp
    2842:	3002                	fld	ft0,32(sp)
    2844:	6b14                	flw	fa3,16(a4)
    2846:	0000                	unimp
    2848:	0600                	addi	s0,sp,768
    284a:	00c1                	addi	ra,ra,16
    284c:	0000                	unimp
    284e:	cd05                	beqz	a0,2886 <wiring.c.7604182b+0x10a>
    2850:	0000                	unimp
    2852:	0700                	addi	s0,sp,896
    2854:	0354                	addi	a3,sp,388
    2856:	0971                	addi	s2,s2,28
    2858:	01f2                	slli	gp,gp,0x1c
    285a:	0000                	unimp
    285c:	8708                	0x8708
    285e:	0005                	c.nop	1
    2860:	0300                	addi	s0,sp,384
    2862:	00cd1373          	csrrw	t1,0xc,s10
    2866:	0000                	unimp
    2868:	0800                	addi	s0,sp,16
    286a:	03fe                	slli	t2,t2,0x1f
    286c:	0000                	unimp
    286e:	cd137403          	0xcd137403
    2872:	0000                	unimp
    2874:	0400                	addi	s0,sp,512
    2876:	0408                	addi	a0,sp,512
    2878:	0004                	0x4
    287a:	0300                	addi	s0,sp,384
    287c:	1375                	addi	t1,t1,-3
    287e:	00cd                	addi	ra,ra,19
    2880:	0000                	unimp
    2882:	0808                	addi	a0,sp,16
    2884:	0744                	addi	s1,sp,900
    2886:	0000                	unimp
    2888:	cd137603          	0xcd137603
    288c:	0000                	unimp
    288e:	0c00                	addi	s0,sp,528
    2890:	4c08                	lw	a0,24(s0)
    2892:	03000007          	0x3000007
    2896:	00cd1377          	0xcd1377
    289a:	0000                	unimp
    289c:	0810                	addi	a2,sp,16
    289e:	00000773          	0x773
    28a2:	cd137803          	0xcd137803
    28a6:	0000                	unimp
    28a8:	1400                	addi	s0,sp,544
    28aa:	7908                	flw	fa0,48(a0)
    28ac:	03000007          	0x3000007
    28b0:	1379                	addi	t1,t1,-2
    28b2:	00cd                	addi	ra,ra,19
    28b4:	0000                	unimp
    28b6:	0818                	addi	a4,sp,16
    28b8:	077f                	0x77f
    28ba:	0000                	unimp
    28bc:	cd137a03          	0xcd137a03
    28c0:	0000                	unimp
    28c2:	1c00                	addi	s0,sp,560
    28c4:	8508                	0x8508
    28c6:	03000007          	0x3000007
    28ca:	00cd137b          	0xcd137b
    28ce:	0000                	unimp
    28d0:	0820                	addi	s0,sp,24
    28d2:	0644                	addi	s1,sp,772
    28d4:	0000                	unimp
    28d6:	cd137c03          	0xcd137c03
    28da:	0000                	unimp
    28dc:	2400                	fld	fs0,8(s0)
    28de:	9b08                	0x9b08
    28e0:	0006                	c.slli	zero,0x1
    28e2:	0300                	addi	s0,sp,384
    28e4:	137d                	addi	t1,t1,-1
    28e6:	00cd                	addi	ra,ra,19
    28e8:	0000                	unimp
    28ea:	0828                	addi	a0,sp,24
    28ec:	09ea                	slli	s3,s3,0x1a
    28ee:	0000                	unimp
    28f0:	cd137e03          	0xcd137e03
    28f4:	0000                	unimp
    28f6:	2c00                	fld	fs0,24(s0)
    28f8:	f008                	fsw	fa0,32(s0)
    28fa:	0009                	c.nop	2
    28fc:	0300                	addi	s0,sp,384
    28fe:	137f                	0x137f
    2900:	00cd                	addi	ra,ra,19
    2902:	0000                	unimp
    2904:	0830                	addi	a2,sp,24
    2906:	09f6                	slli	s3,s3,0x1d
    2908:	0000                	unimp
    290a:	cd138003          	lb	zero,-815(t2)
    290e:	0000                	unimp
    2910:	3400                	fld	fs0,40(s0)
    2912:	2d08                	fld	fa0,24(a0)
    2914:	0006                	c.slli	zero,0x1
    2916:	0300                	addi	s0,sp,384
    2918:	1381                	addi	t2,t2,-32
    291a:	00cd                	addi	ra,ra,19
    291c:	0000                	unimp
    291e:	0838                	addi	a4,sp,24
    2920:	07e5                	addi	a5,a5,25
    2922:	0000                	unimp
    2924:	cd138203          	lb	tp,-815(t2)
    2928:	0000                	unimp
    292a:	3c00                	fld	fs0,56(s0)
    292c:	ed08                	fsw	fa0,24(a0)
    292e:	03000007          	0x3000007
    2932:	00cd1383          	lh	t2,12(s10)
    2936:	0000                	unimp
    2938:	0840                	addi	s0,sp,20
    293a:	07f5                	addi	a5,a5,29
    293c:	0000                	unimp
    293e:	cd138403          	lb	s0,-815(t2)
    2942:	0000                	unimp
    2944:	4400                	lw	s0,8(s0)
    2946:	fd08                	fsw	fa0,56(a0)
    2948:	03000007          	0x3000007
    294c:	1385                	addi	t2,t2,-31
    294e:	00cd                	addi	ra,ra,19
    2950:	0000                	unimp
    2952:	0848                	addi	a0,sp,20
    2954:	08de                	slli	a7,a7,0x17
    2956:	0000                	unimp
    2958:	cd138603          	lb	a2,-815(t2)
    295c:	0000                	unimp
    295e:	4c00                	lw	s0,24(s0)
    2960:	0208                	addi	a0,sp,256
    2962:	000a                	c.slli	zero,0x2
    2964:	0300                	addi	s0,sp,384
    2966:	00cd1387          	0xcd1387
    296a:	0000                	unimp
    296c:	0050                	addi	a2,sp,4
    296e:	00088103          	lb	sp,0(a7)
    2972:	0300                	addi	s0,sp,384
    2974:	0388                	addi	a0,sp,448
    2976:	000000d7          	0xd7
    297a:	1c09                	addi	s8,s8,-30
    297c:	09013703          	0x9013703
    2980:	0000026b          	0x26b
    2984:	3c0a                	fld	fs8,160(sp)
    2986:	0002                	c.slli64	zero
    2988:	0300                	addi	s0,sp,384
    298a:	0139                	addi	sp,sp,14
    298c:	cd10                	sw	a2,24(a0)
    298e:	0000                	unimp
    2990:	0000                	unimp
    2992:	070a                	slli	a4,a4,0x2
    2994:	0006                	c.slli	zero,0x1
    2996:	0300                	addi	s0,sp,384
    2998:	013a                	slli	sp,sp,0xe
    299a:	cd10                	sw	a2,24(a0)
    299c:	0000                	unimp
    299e:	0400                	addi	s0,sp,512
    29a0:	bb0a                	fsd	ft2,432(sp)
    29a2:	0001                	nop
    29a4:	0300                	addi	s0,sp,384
    29a6:	d210013b          	0xd210013b
    29aa:	0000                	unimp
    29ac:	0800                	addi	s0,sp,16
    29ae:	f60a                	fsw	ft2,44(sp)
    29b0:	0002                	c.slli64	zero
    29b2:	0300                	addi	s0,sp,384
    29b4:	013c                	addi	a5,sp,136
    29b6:	cd10                	sw	a2,24(a0)
    29b8:	0000                	unimp
    29ba:	0c00                	addi	s0,sp,528
    29bc:	3e0a                	fld	ft8,160(sp)
    29be:	03000003          	lb	zero,48(zero) # 30 <InterruptVector+0x30>
    29c2:	013d                	addi	sp,sp,15
    29c4:	cd10                	sw	a2,24(a0)
    29c6:	0000                	unimp
    29c8:	1000                	addi	s0,sp,32
    29ca:	5243420b          	0x5243420b
    29ce:	0300                	addi	s0,sp,384
    29d0:	013e                	slli	sp,sp,0xf
    29d2:	cd10                	sw	a2,24(a0)
    29d4:	0000                	unimp
    29d6:	1400                	addi	s0,sp,544
    29d8:	210a                	fld	ft2,128(sp)
    29da:	0006                	c.slli	zero,0x1
    29dc:	0300                	addi	s0,sp,384
    29de:	cd10013f 18000000 	0x18000000cd10013f
    29e6:	0c00                	addi	s0,sp,528
    29e8:	0506                	slli	a0,a0,0x1
    29ea:	0000                	unimp
    29ec:	03014003          	lbu	zero,48(sp)
    29f0:	01fe                	slli	gp,gp,0x1f
    29f2:	0000                	unimp
    29f4:	2809                	jal	2a06 <wiring.c.7604182b+0x28a>
    29f6:	09017703          	0x9017703
    29fa:	0000030f          	0x30f
    29fe:	2b0a                	fld	fs6,128(sp)
    2a00:	03000003          	lb	zero,48(zero) # 30 <InterruptVector+0x30>
    2a04:	0179                	addi	sp,sp,30
    2a06:	0000cd13          	xori	s10,ra,0
    2a0a:	0000                	unimp
    2a0c:	b70a                	fsd	ft2,424(sp)
    2a0e:	03000003          	lb	zero,48(zero) # 30 <InterruptVector+0x30>
    2a12:	017a                	slli	sp,sp,0x1e
    2a14:	0000cd13          	xori	s10,ra,0
    2a18:	0400                	addi	s0,sp,512
    2a1a:	290a                	fld	fs2,128(sp)
    2a1c:	0002                	c.slli64	zero
    2a1e:	0300                	addi	s0,sp,384
    2a20:	cd13017b          	0xcd13017b
    2a24:	0000                	unimp
    2a26:	0800                	addi	s0,sp,16
    2a28:	ec0a                	fsw	ft2,24(sp)
    2a2a:	0004                	0x4
    2a2c:	0300                	addi	s0,sp,384
    2a2e:	017c                	addi	a5,sp,140
    2a30:	0000cd13          	xori	s10,ra,0
    2a34:	0c00                	addi	s0,sp,528
    2a36:	1f0a                	slli	t5,t5,0x22
    2a38:	0002                	c.slli64	zero
    2a3a:	0300                	addi	s0,sp,384
    2a3c:	017d                	addi	sp,sp,31
    2a3e:	0000cd13          	xori	s10,ra,0
    2a42:	1000                	addi	s0,sp,32
    2a44:	ae0a                	fsd	ft2,280(sp)
    2a46:	03000003          	lb	zero,48(zero) # 30 <InterruptVector+0x30>
    2a4a:	017e                	slli	sp,sp,0x1f
    2a4c:	0000cd13          	xori	s10,ra,0
    2a50:	1400                	addi	s0,sp,544
    2a52:	b10a                	fsd	ft2,160(sp)
    2a54:	0001                	nop
    2a56:	0300                	addi	s0,sp,384
    2a58:	017f                	0x17f
    2a5a:	0000cd13          	xori	s10,ra,0
    2a5e:	1800                	addi	s0,sp,48
    2a60:	cf0a                	sw	sp,156(sp)
    2a62:	03000003          	lb	zero,48(zero) # 30 <InterruptVector+0x30>
    2a66:	0180                	addi	s0,sp,192
    2a68:	0000cd13          	xori	s10,ra,0
    2a6c:	1c00                	addi	s0,sp,560
    2a6e:	390a                	fld	fs2,160(sp)
    2a70:	0004                	0x4
    2a72:	0300                	addi	s0,sp,384
    2a74:	0181                	addi	gp,gp,0
    2a76:	0000cd13          	xori	s10,ra,0
    2a7a:	2000                	fld	fs0,0(s0)
    2a7c:	2a0a                	fld	fs4,128(sp)
    2a7e:	0004                	0x4
    2a80:	0300                	addi	s0,sp,384
    2a82:	0182                	c.slli64	gp
    2a84:	0000cd13          	xori	s10,ra,0
    2a88:	2400                	fld	fs0,8(s0)
    2a8a:	0c00                	addi	s0,sp,528
    2a8c:	031e                	slli	t1,t1,0x7
    2a8e:	0000                	unimp
    2a90:	03018303          	lb	t1,48(gp) # 200008c0 <__global_pointer$+0x30>
    2a94:	0278                	addi	a4,sp,268
    2a96:	0000                	unimp
    2a98:	b00d                	j	22ba <main_sw.c.c9eed32e+0x42b>
    2a9a:	0000                	unimp
    2a9c:	2c00                	fld	fs0,24(s0)
    2a9e:	0e000003          	lb	zero,224(zero) # e0 <digitalWrite+0x1c>
    2aa2:	001d                	c.nop	7
    2aa4:	0000                	unimp
    2aa6:	1c05000f          	0x1c05000f
    2aaa:	06000003          	lb	zero,96(zero) # 60 <InterruptVector+0x60>
    2aae:	032c                	addi	a1,sp,392
    2ab0:	0000                	unimp
    2ab2:	00049a0f          	0x49a0f
    2ab6:	0300                	addi	s0,sp,384
    2ab8:	31140b73          	0x31140b73
    2abc:	0d000003          	lb	zero,208(zero) # d0 <digitalWrite+0xc>
    2ac0:	00b0                	addi	a2,sp,72
    2ac2:	0000                	unimp
    2ac4:	00000353          	fadd.s	ft6,ft0,ft0,rne
    2ac8:	1d0e                	slli	s10,s10,0x23
    2aca:	0000                	unimp
    2acc:	1300                	addi	s0,sp,416
    2ace:	0500                	addi	s0,sp,640
    2ad0:	00000343          	fmadd.s	ft6,ft0,ft0,ft0,rne
    2ad4:	5306                	lw	t1,96(sp)
    2ad6:	0f000003          	lb	zero,240(zero) # f0 <digitalWrite+0x2c>
    2ada:	0165                	addi	sp,sp,25
    2adc:	0000                	unimp
    2ade:	140b7403          	0x140b7403
    2ae2:	0358                	addi	a4,sp,388
    2ae4:	0000                	unimp
    2ae6:	0710                	addi	a2,sp,896
    2ae8:	1d04                	addi	s1,sp,688
    2aea:	0000                	unimp
    2aec:	0300                	addi	s0,sp,384
    2aee:	8c010d13          	addi	s10,sp,-1856
    2af2:	11000003          	lb	zero,272(zero) # 110 <digitalWrite+0x4c>
    2af6:	0255                	addi	tp,tp,21
    2af8:	0000                	unimp
    2afa:	1101                	addi	sp,sp,-32
    2afc:	000001cf          	fnmadd.s	ft3,ft0,ft0,ft0,rne
    2b00:	1102                	slli	sp,sp,0x20
    2b02:	0556                	slli	a0,a0,0x15
    2b04:	0000                	unimp
    2b06:	7b120003          	lb	zero,1969(tp) # 7b1 <_data_lma+0xe9>
    2b0a:	000a                	c.slli	zero,0x2
    2b0c:	0700                	addi	s0,sp,896
    2b0e:	1d04                	addi	s1,sp,688
    2b10:	0000                	unimp
    2b12:	0400                	addi	s0,sp,512
    2b14:	03b7060f          	0x3b7060f
    2b18:	0000                	unimp
    2b1a:	5611                	li	a2,-28
    2b1c:	0009                	c.nop	2
    2b1e:	0000                	unimp
    2b20:	5d11                	li	s10,-28
    2b22:	0009                	c.nop	2
    2b24:	0100                	addi	s0,sp,128
    2b26:	6411                	lui	s0,0x4
    2b28:	0009                	c.nop	2
    2b2a:	0200                	addi	s0,sp,256
    2b2c:	8511                	srai	a0,a0,0x4
    2b2e:	000a                	c.slli	zero,0x2
    2b30:	0300                	addi	s0,sp,384
    2b32:	1200                	addi	s0,sp,288
    2b34:	06c8                	addi	a0,sp,836
    2b36:	0000                	unimp
    2b38:	001d0407          	0x1d0407
    2b3c:	0000                	unimp
    2b3e:	1604                	addi	s1,sp,800
    2b40:	3c06                	fld	fs8,96(sp)
    2b42:	0004                	0x4
    2b44:	1100                	addi	s0,sp,160
    2b46:	08c5                	addi	a7,a7,17
    2b48:	0000                	unimp
    2b4a:	1100                	addi	s0,sp,160
    2b4c:	000006f3          	0x6f3
    2b50:	1101                	addi	sp,sp,-32
    2b52:	0000078b          	0x78b
    2b56:	1102                	slli	sp,sp,0x20
    2b58:	0792                	slli	a5,a5,0x4
    2b5a:	0000                	unimp
    2b5c:	07991103          	lh	sp,121(s2) # 1079 <ch32v003fun.c.8affbd33+0x124>
    2b60:	0000                	unimp
    2b62:	1104                	addi	s1,sp,160
    2b64:	09de                	slli	s3,s3,0x17
    2b66:	0000                	unimp
    2b68:	1105                	addi	sp,sp,-31
    2b6a:	07aa                	slli	a5,a5,0xa
    2b6c:	0000                	unimp
    2b6e:	1106                	slli	sp,sp,0x21
    2b70:	07b1                	addi	a5,a5,12
    2b72:	0000                	unimp
    2b74:	07b81107          	0x7b81107
    2b78:	0000                	unimp
    2b7a:	1108                	addi	a0,sp,160
    2b7c:	000007bf 08051109 	0x8051109000007bf
    2b84:	0000                	unimp
    2b86:	110a                	slli	sp,sp,0x22
    2b88:	080c                	addi	a1,sp,16
    2b8a:	0000                	unimp
    2b8c:	0a3f110b          	0xa3f110b
    2b90:	0000                	unimp
    2b92:	110c                	addi	a1,sp,160
    2b94:	00000813          	li	a6,0
    2b98:	110d                	addi	sp,sp,-29
    2b9a:	081a                	slli	a6,a6,0x6
    2b9c:	0000                	unimp
    2b9e:	110e                	slli	sp,sp,0x23
    2ba0:	0821                	addi	a6,a6,8
    2ba2:	0000                	unimp
    2ba4:	0828110f          	0x828110f
    2ba8:	0000                	unimp
    2baa:	1110                	addi	a2,sp,160
    2bac:	0000082f          	0x82f
    2bb0:	1111                	addi	sp,sp,-28
    2bb2:	00000a57          	0xa57
    2bb6:	0012                	c.slli	zero,0x4
    2bb8:	4612                	lw	a2,4(sp)
    2bba:	000a                	c.slli	zero,0x2
    2bbc:	0700                	addi	s0,sp,896
    2bbe:	1d04                	addi	s1,sp,688
    2bc0:	0000                	unimp
    2bc2:	0400                	addi	s0,sp,512
    2bc4:	062d                	addi	a2,a2,11
    2bc6:	047f                	0x47f
    2bc8:	0000                	unimp
    2bca:	3b11                	jal	28de <wiring.c.7604182b+0x162>
    2bcc:	0008                	0x8
    2bce:	0000                	unimp
    2bd0:	6a11                	lui	s4,0x4
    2bd2:	000a                	c.slli	zero,0x2
    2bd4:	0100                	addi	s0,sp,128
    2bd6:	9411                	srai	s0,s0,0x24
    2bd8:	0009                	c.nop	2
    2bda:	0200                	addi	s0,sp,256
    2bdc:	f811                	bnez	s0,2af0 <wiring.c.7604182b+0x374>
    2bde:	0008                	0x8
    2be0:	0300                	addi	s0,sp,384
    2be2:	cd11                	beqz	a0,2bfe <wiring.c.7604182b+0x482>
    2be4:	04000007          	0x4000007
    2be8:	4a11                	li	s4,4
    2bea:	0006                	c.slli	zero,0x1
    2bec:	0500                	addi	s0,sp,640
    2bee:	1611                	addi	a2,a2,-28
    2bf0:	0009                	c.nop	2
    2bf2:	0600                	addi	s0,sp,768
    2bf4:	7d11                	lui	s10,0xfffe4
    2bf6:	0009                	c.nop	2
    2bf8:	0700                	addi	s0,sp,896
    2bfa:	1200                	addi	s0,sp,288
    2bfc:	0aea                	slli	s5,s5,0x1a
    2bfe:	0000                	unimp
    2c00:	001d0407          	0x1d0407
    2c04:	0000                	unimp
    2c06:	3804                	fld	fs1,48(s0)
    2c08:	a406                	fsd	ft1,8(sp)
    2c0a:	0004                	0x4
    2c0c:	1100                	addi	s0,sp,160
    2c0e:	0b06                	slli	s6,s6,0x1
    2c10:	0000                	unimp
    2c12:	1100                	addi	s0,sp,160
    2c14:	0b52                	slli	s6,s6,0x14
    2c16:	0000                	unimp
    2c18:	1101                	addi	sp,sp,-32
    2c1a:	0c0a                	slli	s8,s8,0x2
    2c1c:	0000                	unimp
    2c1e:	0002                	c.slli64	zero
    2c20:	9512                	add	a0,a0,tp
    2c22:	000a                	c.slli	zero,0x2
    2c24:	0700                	addi	s0,sp,896
    2c26:	1d04                	addi	s1,sp,688
    2c28:	0000                	unimp
    2c2a:	0400                	addi	s0,sp,512
    2c2c:	063e                	slli	a2,a2,0xf
    2c2e:	000004f3          	0x4f3
    2c32:	a511                	j	3236 <wiring.c.7604182b+0xaba>
    2c34:	0000000b          	0xb
    2c38:	f711                	bnez	a4,2b44 <wiring.c.7604182b+0x3c8>
    2c3a:	000a                	c.slli	zero,0x2
    2c3c:	0100                	addi	s0,sp,128
    2c3e:	2111                	jal	3042 <wiring.c.7604182b+0x8c6>
    2c40:	000c                	0xc
    2c42:	0200                	addi	s0,sp,256
    2c44:	7c11                	lui	s8,0xfffe4
    2c46:	0300000b          	0x300000b
    2c4a:	c511                	beqz	a0,2c56 <wiring.c.7604182b+0x4da>
    2c4c:	000a                	c.slli	zero,0x2
    2c4e:	0400                	addi	s0,sp,512
    2c50:	ca11                	beqz	a2,2c64 <wiring.c.7604182b+0x4e8>
    2c52:	0500000b          	0x500000b
    2c56:	4211                	li	tp,4
    2c58:	000c                	0xc
    2c5a:	0600                	addi	s0,sp,768
    2c5c:	f811                	bnez	s0,2b70 <wiring.c.7604182b+0x3f4>
    2c5e:	0700000b          	0x700000b
    2c62:	6c11                	lui	s8,0x4
    2c64:	0800000b          	0x800000b
    2c68:	7411                	lui	s0,0xfffe4
    2c6a:	0900000b          	0x900000b
    2c6e:	1200                	addi	s0,sp,288
    2c70:	0b84                	addi	s1,sp,464
    2c72:	0000                	unimp
    2c74:	001d0407          	0x1d0407
    2c78:	0000                	unimp
    2c7a:	4b04                	lw	s1,16(a4)
    2c7c:	3606                	fld	fa2,96(sp)
    2c7e:	0005                	c.nop	1
    2c80:	1100                	addi	s0,sp,160
    2c82:	0ab8                	addi	a4,sp,344
    2c84:	0000                	unimp
    2c86:	1100                	addi	s0,sp,160
    2c88:	0c3a                	slli	s8,s8,0xe
    2c8a:	0000                	unimp
    2c8c:	1101                	addi	sp,sp,-32
    2c8e:	0b21                	addi	s6,s6,8
    2c90:	0000                	unimp
    2c92:	1102                	slli	sp,sp,0x20
    2c94:	0b36                	slli	s6,s6,0xd
    2c96:	0000                	unimp
    2c98:	0c181103          	lh	sp,193(a6)
    2c9c:	0000                	unimp
    2c9e:	1104                	addi	s1,sp,160
    2ca0:	0b18                	addi	a4,sp,400
    2ca2:	0000                	unimp
    2ca4:	1105                	addi	sp,sp,-31
    2ca6:	00000bef          	jal	s7,2ca6 <wiring.c.7604182b+0x52a>
    2caa:	1106                	slli	sp,sp,0x21
    2cac:	0ad8                	addi	a4,sp,340
    2cae:	0000                	unimp
    2cb0:	3f130007          	0x3f130007
    2cb4:	0500000b          	0x500000b
    2cb8:	0aec                	addi	a1,sp,348
    2cba:	00b5                	addi	ra,ra,13
    2cbc:	0000                	unimp
    2cbe:	00000553          	fadd.s	fa0,ft0,ft0,rne
    2cc2:	8f14                	0x8f14
    2cc4:	000a                	c.slli	zero,0x2
    2cc6:	0500                	addi	s0,sp,640
    2cc8:	27ec                	fld	fa1,200(a5)
    2cca:	04a4                	addi	s1,sp,584
    2ccc:	0000                	unimp
    2cce:	1500                	addi	s0,sp,672
    2cd0:	0b5f 0000 df05      	0xdf0500000b5f
    2cd6:	1606                	slli	a2,a2,0x21
    2cd8:	0b2a                	slli	s6,s6,0xa
    2cda:	0000                	unimp
    2cdc:	cf05                	beqz	a4,2d14 <wiring.c.7604182b+0x598>
    2cde:	7406                	flw	fs0,96(sp)
    2ce0:	0005                	c.nop	1
    2ce2:	1400                	addi	s0,sp,544
    2ce4:	0bd2                	slli	s7,s7,0x14
    2ce6:	0000                	unimp
    2ce8:	cf05                	beqz	a4,2d20 <wiring.c.7604182b+0x5a4>
    2cea:	9f1a                	add	t5,t5,t1
    2cec:	0000                	unimp
    2cee:	0000                	unimp
    2cf0:	ad16                	fsd	ft5,152(sp)
    2cf2:	0500000b          	0x500000b
    2cf6:	06c6                	slli	a3,a3,0x11
    2cf8:	0599                	addi	a1,a1,6
    2cfa:	0000                	unimp
    2cfc:	8f14                	0x8f14
    2cfe:	000a                	c.slli	zero,0x2
    2d00:	0500                	addi	s0,sp,640
    2d02:	29c6                	fld	fs3,80(sp)
    2d04:	04a4                	addi	s1,sp,584
    2d06:	0000                	unimp
    2d08:	b914                	fsd	fa3,48(a0)
    2d0a:	0500000b          	0x500000b
    2d0e:	47c6                	lw	a5,80(sp)
    2d10:	000004f3          	0x4f3
    2d14:	1700                	addi	s0,sp,928
    2d16:	0be2                	slli	s7,s7,0x18
    2d18:	0000                	unimp
    2d1a:	a705                	j	343a <wiring.c.7604182b+0xcbe>
    2d1c:	b206                	fsd	ft1,288(sp)
    2d1e:	0005                	c.nop	1
    2d20:	1800                	addi	s0,sp,48
    2d22:	6919                	lui	s2,0x6
    2d24:	0500                	addi	s0,sp,640
    2d26:	0fb4                	addi	a3,sp,984
    2d28:	009f 0000 0000      	0x9f
    2d2e:	000bbe13          	sltiu	t3,s7,0
    2d32:	0500                	addi	s0,sp,640
    2d34:	009f098b          	0x9f098b
    2d38:	0000                	unimp
    2d3a:	000005f3          	0x5f3
    2d3e:	701a                	flw	ft0,164(sp)
    2d40:	6e69                	lui	t3,0x1a
    2d42:	0500                	addi	s0,sp,640
    2d44:	009f1d8b          	0x9f1d8b
    2d48:	0000                	unimp
    2d4a:	000b9f1b          	0xb9f1b
    2d4e:	0500                	addi	s0,sp,640
    2d50:	118c                	addi	a1,sp,224
    2d52:	000005f3          	0x5f3
    2d56:	000c001b          	0xc001b
    2d5a:	0500                	addi	s0,sp,640
    2d5c:	0b8d                	addi	s7,s7,3
    2d5e:	00b5                	addi	ra,ra,13
    2d60:	0000                	unimp
    2d62:	000aff1b          	0xaff1b
    2d66:	0500                	addi	s0,sp,640
    2d68:	099f 0093 0000      	0x93099f
    2d6e:	1c00                	addi	s0,sp,560
    2d70:	6b04                	flw	fs1,16(a4)
    2d72:	0002                	c.slli64	zero
    2d74:	1600                	addi	s0,sp,800
    2d76:	0aa2                	slli	s5,s5,0x8
    2d78:	0000                	unimp
    2d7a:	6c05                	lui	s8,0x1
    2d7c:	3606                	fld	fa2,96(sp)
    2d7e:	0006                	c.slli	zero,0x1
    2d80:	1a00                	addi	s0,sp,304
    2d82:	6970                	flw	fa2,84(a0)
    2d84:	006e                	c.slli	zero,0x1b
    2d86:	6c05                	lui	s8,0x1
    2d88:	b721                	j	2c90 <wiring.c.7604182b+0x514>
    2d8a:	14000003          	lb	zero,320(zero) # 140 <pinMode+0x2c>
    2d8e:	02c5                	addi	t0,t0,17
    2d90:	0000                	unimp
    2d92:	6c05                	lui	s8,0x1
    2d94:	9f2e                	add	t5,t5,a1
    2d96:	0000                	unimp
    2d98:	1b00                	addi	s0,sp,432
    2d9a:	0b9f 0000 6e05      	0x6e0500000b9f
    2da0:	f311                	bnez	a4,2ca4 <wiring.c.7604182b+0x528>
    2da2:	0005                	c.nop	1
    2da4:	1b00                	addi	s0,sp,432
    2da6:	0c00                	addi	s0,sp,528
    2da8:	0000                	unimp
    2daa:	6f05                	lui	t5,0x1
    2dac:	0000b50b          	0xb50b
    2db0:	0000                	unimp
    2db2:	4a16                	lw	s4,68(sp)
    2db4:	000a                	c.slli	zero,0x2
    2db6:	0500                	addi	s0,sp,640
    2db8:	062a                	slli	a2,a2,0xa
    2dba:	0000068b          	0x68b
    2dbe:	701a                	flw	ft0,164(sp)
    2dc0:	6e69                	lui	t3,0x1a
    2dc2:	0500                	addi	s0,sp,640
    2dc4:	1c2a                	slli	s8,s8,0x2a
    2dc6:	000003b7          	lui	t2,0x0
    2dca:	c014                	sw	a3,0(s0)
    2dcc:	000a                	c.slli	zero,0x2
    2dce:	0500                	addi	s0,sp,640
    2dd0:	322a                	fld	ft4,168(sp)
    2dd2:	043c                	addi	a5,sp,520
    2dd4:	0000                	unimp
    2dd6:	000b9f1b          	0xb9f1b
    2dda:	0500                	addi	s0,sp,640
    2ddc:	05f3112b          	0x5f3112b
    2de0:	0000                	unimp
    2de2:	000c001b          	0xc001b
    2de6:	0500                	addi	s0,sp,640
    2de8:	0b2c                	addi	a1,sp,408
    2dea:	00b5                	addi	ra,ra,13
    2dec:	0000                	unimp
    2dee:	000c291b          	0xc291b
    2df2:	0500                	addi	s0,sp,640
    2df4:	0a40                	addi	s0,sp,276
    2df6:	009f 0000 d91b      	0xd91b0000009f
    2dfc:	0500000b          	0x500000b
    2e00:	0a42                	slli	s4,s4,0x10
    2e02:	009f 0000 1600      	0x16000000009f
    2e08:	0acd                	addi	s5,s5,19
    2e0a:	0000                	unimp
    2e0c:	1705                	addi	a4,a4,-31
    2e0e:	a406                	fsd	ft1,8(sp)
    2e10:	0006                	c.slli	zero,0x1
    2e12:	1400                	addi	s0,sp,544
    2e14:	0bea                	slli	s7,s7,0x1a
    2e16:	0000                	unimp
    2e18:	1705                	addi	a4,a4,-31
    2e1a:	8c20                	0x8c20
    2e1c:	00000003          	lb	zero,0(zero) # 0 <InterruptVector>
    2e20:	4a1d                	li	s4,7
    2e22:	0500000b          	0x500000b
    2e26:	1008                	addi	a0,sp,32
    2e28:	038c                	addi	a1,sp,448
    2e2a:	0000                	unimp
    2e2c:	701a                	flw	ft0,164(sp)
    2e2e:	6e69                	lui	t3,0x1a
    2e30:	0500                	addi	s0,sp,640
    2e32:	2708                	fld	fa0,8(a4)
    2e34:	000003b7          	lui	t2,0x0
    2e38:	0000                	unimp
    2e3a:	0022                	c.slli	zero,0x8
    2e3c:	0000                	unimp
    2e3e:	0002                	c.slli64	zero
    2e40:	00000717          	auipc	a4,0x0
    2e44:	0104                	addi	s1,sp,128
    2e46:	292e                	fld	fs2,200(sp)
    2e48:	0000                	unimp
    2e4a:	00a0                	addi	s0,sp,72
    2e4c:	0000                	unimp
    2e4e:	00c4                	addi	s1,sp,68
    2e50:	0000                	unimp
    2e52:	0c4a                	slli	s8,s8,0x12
    2e54:	0000                	unimp
    2e56:	0c76                	slli	s8,s8,0x1d
    2e58:	0000                	unimp
    2e5a:	0ce9                	addi	s9,s9,26
    2e5c:	0000                	unimp
    2e5e:	8001                	c.srli64	s0

Disassembly of section .debug_abbrev:

00000000 <.debug_abbrev>:
	asm volatile( "\n\
   0:	1101                	addi	sp,sp,-32
   2:	2501                	jal	602 <SysTick_Handler+0x216>
   4:	130e                	slli	t1,t1,0x23
   6:	1b0e030b          	0x1b0e030b
   a:	550e                	lw	a0,224(sp)
   c:	10011117          	auipc	sp,0x10011
  10:	02000017          	auipc	zero,0x2000
  14:	012e                	slli	sp,sp,0xb
  16:	1031                	c.nop	-20
  18:	0111                	addi	sp,sp,4
  1a:	0612                	slli	a2,a2,0x4
  1c:	1840                	addi	s0,sp,52
  1e:	01194297          	auipc	t0,0x1194
  22:	03000013          	li	zero,48
  26:	0005                	c.nop	1
  28:	1031                	c.nop	-20
  2a:	1702                	slli	a4,a4,0x20
  2c:	0000                	unimp
  2e:	0504                	addi	s1,sp,640
  30:	3100                	fld	fs0,32(a0)
  32:	0210                	addi	a2,sp,256
  34:	0018                	0x18
  36:	0500                	addi	s0,sp,640
  38:	0034                	addi	a3,sp,8
  3a:	1031                	c.nop	-20
  3c:	1702                	slli	a4,a4,0x20
  3e:	0000                	unimp
  40:	8906                	mv	s2,ra
  42:	0182                	c.slli64	gp
  44:	1101                	addi	sp,sp,-32
  46:	3101                	jal	fffffc46 <__global_pointer$+0xdffff3b6>
  48:	07000013          	li	zero,112
  4c:	828a                	mv	t0,sp
  4e:	0001                	nop
  50:	1802                	slli	a6,a6,0x20
  52:	4291                	li	t0,4
  54:	0018                	0x18
  56:	0800                	addi	s0,sp,16
  58:	1031010b          	0x1031010b
  5c:	1755                	addi	a4,a4,-11
  5e:	1301                	addi	t1,t1,-32
  60:	0000                	unimp
  62:	8909                	andi	a0,a0,2
  64:	0182                	c.slli64	gp
  66:	1100                	addi	s0,sp,160
  68:	3101                	jal	fffffc68 <__global_pointer$+0xdffff3d8>
  6a:	0a000013          	li	zero,160
  6e:	1031010b          	0x1031010b
  72:	1755                	addi	a4,a4,-11
  74:	0000                	unimp
  76:	3100340b          	0x3100340b
  7a:	0210                	addi	a2,sp,256
  7c:	0018                	0x18
  7e:	0c00                	addi	s0,sp,528
  80:	8289                	srli	a3,a3,0x2
  82:	0101                	addi	sp,sp,0
  84:	0111                	addi	sp,sp,4
  86:	4295                	li	t0,5
  88:	3119                	jal	fffffc8e <__global_pointer$+0xdffff3fe>
  8a:	0d000013          	li	zero,208
  8e:	0005                	c.nop	1
  90:	1031                	c.nop	-20
  92:	0b1c                	addi	a5,sp,400
  94:	0000                	unimp
  96:	8a0e                	mv	s4,gp
  98:	0182                	c.slli64	gp
  9a:	3100                	fld	fs0,32(a0)
  9c:	18429113          	0x18429113
  a0:	0000                	unimp
  a2:	31012e0f          	0x31012e0f
  a6:	0110                	addi	a2,sp,128
  a8:	10000013          	li	zero,256
  ac:	0005                	c.nop	1
  ae:	1031                	c.nop	-20
  b0:	0000                	unimp
  b2:	1d11                	addi	s10,s10,-28
  b4:	3100                	fld	fs0,32(a0)
  b6:	5210                	lw	a2,32(a2)
  b8:	5501                	li	a0,-32
  ba:	590b5817          	auipc	a6,0x590b5
  be:	5705                	li	a4,-31
  c0:	1200000b          	0x1200000b
	if (pin <= pin_A2) {
  c4:	011d                	addi	sp,sp,7
  c6:	1031                	c.nop	-20
  c8:	0111                	addi	sp,sp,4
		PinOffset = (pin + 1);
  ca:	0612                	slli	a2,a2,0x4
  cc:	0b58                	addi	a4,sp,404
		GPIOx = GPIOA;
  ce:	0559                	addi	a0,a0,22
  d0:	13010b57          	0x13010b57
  d4:	0000                	unimp
  d6:	31011d13          	0x31011d13
	if (value) {
  da:	1110                	addi	a2,sp,160
		GPIOx-> BSHR |= 1 << (16 + PinOffset);
  dc:	1201                	addi	tp,tp,-32
  de:	5806                	lw	a6,96(sp)
  e0:	570b590b          	0x570b590b
  e4:	1400000b          	0x1400000b
	else if (pin <= pin_C7) {
  e8:	001d                	c.nop	7
  ea:	1031                	c.nop	-20
  ec:	0111                	addi	sp,sp,4
		PinOffset = (pin - 2);
  ee:	0612                	slli	a2,a2,0x4
  f0:	0b58                	addi	a4,sp,404
  f2:	0559                	addi	a0,a0,22
		GPIOx = GPIOC;
  f4:	00000b57          	0xb57
  f8:	1d15                	addi	s10,s10,-27
	else if (pin <= pin_D7) {
  fa:	3101                	jal	fffffcfa <__global_pointer$+0xdffff46a>
  fc:	5210                	lw	a2,32(a2)
  fe:	5501                	li	a0,-32
		PinOffset = (pin - 10);
 100:	590b5817          	auipc	a6,0x590b5
		GPIOx = GPIOD;
 104:	5705                	li	a4,-31
 106:	0013010b          	0x13010b
 10a:	1600                	addi	s0,sp,800
 10c:	011d                	addi	sp,sp,7
 10e:	1031                	c.nop	-20
		GPIOx-> BSHR |= 1 << (16 + PinOffset);
 110:	0152                	slli	sp,sp,0x14
 112:	1755                	addi	a4,a4,-11
	if (pin <= pin_A2) {
 114:	0b58                	addi	a4,sp,404
 116:	0b59                	addi	s6,s6,22
 118:	00000b57          	0xb57
		PinOffset *= (pin + 1);
 11c:	55010b17          	auipc	s6,0x55010
 120:	18000017          	auipc	zero,0x18000
		GPIOx = GPIOA;
 124:	8289                	srli	a3,a3,0x2
		PinOffset *= (pin + 1);
 126:	0101                	addi	sp,sp,0
		GPIOx = GPIOA;
 128:	0111                	addi	sp,sp,4
 12a:	1331                	addi	t1,t1,-20
	GPIOx->CFGLR &= ~(0b1111<<PinOffset);							// zero the 4 configuration bits
 12c:	1301                	addi	t1,t1,-32
 12e:	0000                	unimp
 130:	2e19                	jal	446 <SysTick_Handler+0x5a>
 132:	3100                	fld	fs0,32(a0)
 134:	1110                	addi	a2,sp,160
 136:	1201                	addi	tp,tp,-32
 138:	4006                	0x4006
 13a:	9718                	0x9718
	switch (mode) {
 13c:	1942                	slli	s2,s2,0x30
 13e:	0000                	unimp
 140:	341a                	fld	fs0,416(sp)
 142:	3100                	fld	fs0,32(a0)
 144:	0010                	0x10
 146:	1b00                	addi	s0,sp,432
 148:	000a                	c.slli	zero,0x2
	GPIOx->CFGLR |= modeMask<<PinOffset;
 14a:	1031                	c.nop	-20
 14c:	0111                	addi	sp,sp,4
 14e:	0000                	unimp
 150:	1d1c                	addi	a5,sp,688
 152:	3101                	jal	fffffd52 <__global_pointer$+0xdffff4c2>
 154:	1110                	addi	a2,sp,160
 156:	1201                	addi	tp,tp,-32
 158:	5806                	lw	a6,96(sp)
 15a:	5705590b          	0x5705590b
 15e:	1d00000b          	0x1d00000b
 162:	002e                	c.slli	zero,0xb
 164:	193c193f 0e030e6e 	0xe030e6e193c193f
		digitalWrite(pin, target_pin_state - 1);
 16c:	0b3a                	slli	s6,s6,0xe
 16e:	00000b3b          	0xb3b
	else if (pin <= pin_C7) {
 172:	2e1e                	fld	ft8,448(sp)
 174:	3f00                	fld	fs0,56(a4)
 176:	3c19                	jal	fffffb8c <__global_pointer$+0xdffff2fc>
		PinOffset *= (pin - 2);
 178:	6e19                	lui	t3,0x6
 17a:	030e                	slli	t1,t1,0x3
 17c:	000e                	c.slli	zero,0x3
 17e:	0000                	unimp
 180:	1101                	addi	sp,sp,-32
		GPIOx = GPIOC;
 182:	2501                	jal	782 <_data_lma+0xba>
 184:	130e                	slli	t1,t1,0x23
 186:	1b0e030b          	0x1b0e030b
	else if (pin <= pin_D7) {
 18a:	100e                	c.slli	zero,0x23
 18c:	02000017          	auipc	zero,0x2000
		PinOffset *= (pin - 10);
 190:	0024                	addi	s1,sp,8
 192:	0b3e0b0b          	0xb3e0b0b
		GPIOx = GPIOD;
 196:	00000e03          	lb	t3,0(zero) # 0 <InterruptVector>
		PinOffset *= (pin - 10);
 19a:	03001603          	lh	a2,48(zero) # 30 <InterruptVector+0x30>
		GPIOx = GPIOD;
 19e:	3a0e                	fld	fs4,224(sp)
 1a0:	390b3b0b          	0x390b3b0b
int main() {
 1a4:	0013490b          	0x13490b
 1a8:	0400                	addi	s0,sp,512
 1aa:	0026                	c.slli	zero,0x9
	RCC->CFGR0 = RCC_HPRE_DIV1 | RCC_PLLSRC_HSI_Mul2;      // PLLCLK = HSI * 2 = 48 MHz; HCLK = SYSCLK = APB1
 1ac:	1349                	addi	t1,t1,-14
 1ae:	0000                	unimp
	RCC->CTLR  = RCC_HSION | RCC_PLLON | ((HSITRIM) << 3); // Use HSI, but enable PLL.
 1b0:	2405                	jal	3d0 <handle_reset+0x58>
 1b2:	0b00                	addi	s0,sp,400
	RCC->CFGR0 = RCC_HPRE_DIV1 | RCC_PLLSRC_HSI_Mul2;      // PLLCLK = HSI * 2 = 48 MHz; HCLK = SYSCLK = APB1
 1b4:	030b3e0b          	0x30b3e0b
	RCC->CTLR  = RCC_HSION | RCC_PLLON | ((HSITRIM) << 3); // Use HSI, but enable PLL.
 1b8:	0008                	0x8
 1ba:	0600                	addi	s0,sp,768
 1bc:	0b0b000f          	0xb0b000f
	FLASH->ACTLR = FLASH_ACTLR_LATENCY_1;                  // 1 Cycle Latency
 1c0:	00000e03          	lb	t3,0(zero) # 0 <InterruptVector>
 1c4:	0b000f07          	0xb000f07
	RCC->INTR  = 0x009F0000;                               // Clear PLL, CSSC, HSE, HSI and LSI ready flags.
 1c8:	0800000b          	0x800000b
	while((RCC->CTLR & RCC_PLLRDY) == 0);                                      // Wait till PLL is ready
 1cc:	0b0b000f          	0xb0b000f
 1d0:	1349                	addi	t1,t1,-14
 1d2:	0000                	unimp
 1d4:	0109                	addi	sp,sp,2
 1d6:	4901                	li	s2,0
 1d8:	00130113          	addi	sp,t1,1 # fffe2001 <__global_pointer$+0xdffe1771>
	while ((RCC->CFGR0 & (uint32_t)RCC_SWS) != (uint32_t)0x08);                // Wait till PLL is used as system clock source
 1dc:	0a00                	addi	s0,sp,272
	RCC->CFGR0 = ( RCC->CFGR0 & ((uint32_t)~(RCC_SW))) | (uint32_t)RCC_SW_PLL; // Select PLL as system clock source
 1de:	0021                	c.nop	8
 1e0:	1349                	addi	t1,t1,-14
 1e2:	00000b2f          	0xb2f
	while ((RCC->CFGR0 & (uint32_t)RCC_SWS) != (uint32_t)0x08);                // Wait till PLL is used as system clock source
 1e6:	4900350b          	0x4900350b
 1ea:	0c000013          	li	zero,192
 1ee:	0b0b0113          	addi	sp,s6,176 # 550101cc <__global_pointer$+0x3500f93c>
	SysTick->CTLR = 0;
 1f2:	0b3a                	slli	s6,s6,0xe
 1f4:	0b390b3b          	0xb390b3b
 1f8:	1301                	addi	t1,t1,-32
 1fa:	0000                	unimp
 1fc:	0d0d                	addi	s10,s10,3
 1fe:	0300                	addi	s0,sp,384
 200:	3a0e                	fld	fs4,224(sp)
 202:	390b3b0b          	0x390b3b0b
	SysTick->CMP = (SYSTEM_CORE_CLOCK/SYSTICKHZ)-1;
 206:	3813490b          	0x3813490b
	SysTick->CNT = 0;
 20a:	0e00000b          	0xe00000b
	SysTick->CTLR = SYSTICK_CTLR_STE | SYSTICK_CTLR_STIE |
 20e:	000d                	c.nop	3
 210:	0b3a0803          	lb	a6,179(s4) # 40b3 <wiring.c.7604182b+0x1937>
	RCC->CFGR0 &= ~(0x1F<<11);
 214:	0b390b3b          	0xb390b3b
 218:	1349                	addi	t1,t1,-14
 21a:	0b38                	addi	a4,sp,408
 21c:	0000                	unimp
	RCC->APB2PCENR |= RCC_APB2Periph_GPIOA | RCC_APB2Periph_ADC1;
 21e:	0b01130f          	0xb01130f
	GPIOA->CFGLR &= ~(0xf<<(4*GPIO_PinSource2));	// CNF = 00: Analog, MODE = 00: Input
 222:	3b0b3a0b          	0x3b0b3a0b
	RCC->APB2PCENR |= RCC_APB2Periph_GPIOA | RCC_APB2Periph_ADC1;
 226:	3905                	jal	fffffe56 <__global_pointer$+0xdffff5c6>
 228:	0013010b          	0x13010b
	GPIOA->CFGLR &= ~(0xf<<(4*GPIO_PinSource2));	// CNF = 00: Analog, MODE = 00: Input
 22c:	1000                	addi	s0,sp,32
 22e:	000d                	c.nop	3
 230:	0b3a0e03          	lb	t3,179(s4)
 234:	0b39053b          	0xb39053b
 238:	1349                	addi	t1,t1,-14
	RCC->APB2PRSTR |= RCC_APB2Periph_ADC1;
 23a:	0b38                	addi	a4,sp,408
	ADC1->CTLR2 |= ADC_ADON | ADC_EXTSEL;
 23c:	0000                	unimp
 23e:	0d11                	addi	s10,s10,4
 240:	0300                	addi	s0,sp,384
	RCC->APB2PRSTR |= RCC_APB2Periph_ADC1;
 242:	3a08                	fld	fa0,48(a2)
 244:	39053b0b          	0x39053b0b
	RCC->APB2PRSTR &= ~RCC_APB2Periph_ADC1;
 248:	3813490b          	0x3813490b
 24c:	1200000b          	0x1200000b
	ADC1->RSQR1 = 0;
 250:	0016                	c.slli	zero,0x5
 252:	0b3a0e03          	lb	t3,179(s4)
 256:	0b39053b          	0xb39053b
	ADC1->RSQR2 = 0;
 25a:	1349                	addi	t1,t1,-14
	ADC1->RSQR3 = ADC_Channel_0;	// 0-9 for 8 ext inputs and two internals
 25c:	0000                	unimp
 25e:	03003413          	sltiu	s0,zero,48
	ADC1->SAMPTR2 &= ~ADC_SMP2;
 262:	3a0e                	fld	fs4,224(sp)
 264:	39053b0b          	0x39053b0b
 268:	0013490b          	0x13490b
	ADC1->SAMPTR2 |= ( ADC_SampleTime_3Cycles << (3 * ADC_Channel_0 ) );	// 0:7 => 3/9/15/30/43/57/73/241 cycles
 26c:	1400                	addi	s0,sp,544
 26e:	0104                	addi	s1,sp,128
 270:	0b3e                	slli	s6,s6,0xf
 272:	13490b0b          	0x13490b0b
	ADC1->CTLR2 |= ADC_ADON | ADC_EXTSEL;
 276:	0b3a                	slli	s6,s6,0xe
 278:	0b39053b          	0xb39053b
 27c:	1301                	addi	t1,t1,-32
	ADC1->CTLR2 |= ADC_RSTCAL;
 27e:	0000                	unimp
 280:	2815                	jal	2b4 <main+0x110>
	while(ADC1->CTLR2 & ADC_RSTCAL);
 282:	0300                	addi	s0,sp,384
 284:	1c0e                	slli	s8,s8,0x23
	ADC1->CTLR2 |= ADC_RSTCAL;
 286:	1600000b          	0x1600000b
 28a:	0034                	addi	a3,sp,8
 28c:	0b3a0e03          	lb	t3,179(s4)
	while(ADC1->CTLR2 & ADC_RSTCAL);
 290:	0b390b3b          	0xb390b3b
 294:	1349                	addi	t1,t1,-14
	ADC1->CTLR2 |= ADC_CAL;
 296:	0000193f 03011317 	0x30113170000193f
 29e:	0b0e                	slli	s6,s6,0x3
 2a0:	3b0b3a0b          	0x3b0b3a0b
	while(ADC1->CTLR2 & ADC_CAL);
 2a4:	3905                	jal	fffffed4 <__global_pointer$+0xdffff644>
 2a6:	0013010b          	0x13010b
 2aa:	1800                	addi	s0,sp,48
 2ac:	012e                	slli	sp,sp,0xb
			RCC->APB2PCENR |= RCC_APB2Periph_GPIOA;
 2ae:	0e03193f 053b0b3a 	0x53b0b3a0e03193f
	pinMode(pin_A1, pinMode_I_floating);
 2b6:	0b39                	addi	s6,s6,14
 2b8:	13011927          	0x13011927
 2bc:	0000                	unimp
			RCC->APB2PCENR |= RCC_APB2Periph_GPIOC;
 2be:	0519                	addi	a0,a0,6
		int temp=LEDs[0].brightness;
 2c0:	0300                	addi	s0,sp,384
 2c2:	3a08                	fld	fa0,48(a2)
	ADC1->CTLR2 |= ADC_SWSTART;
 2c4:	39053b0b          	0x39053b0b
 2c8:	0013490b          	0x13490b
 2cc:	1a00                	addi	s0,sp,304
	pinMode(pin_A1, pinMode_I_floating);
 2ce:	002e                	c.slli	zero,0xb
	pinMode(pin_A2, pinMode_I_floating);
 2d0:	0e03193f 053b0b3a 	0x53b0b3a0e03193f
	pinMode(pin_C1, pinMode_I_floating);
 2d8:	0b39                	addi	s6,s6,14
 2da:	0000                	unimp
	pinMode(pin_C2, pinMode_I_floating);
 2dc:	3f012e1b          	0x3f012e1b
 2e0:	0319                	addi	t1,t1,6
		Delay_Ms(( Delay >> 3 ) + 5 );
 2e2:	3a0e                	fld	fs4,224(sp)
 2e4:	39053b0b          	0x39053b0b
	ADC1->CTLR2 |= ADC_SWSTART;
 2e8:	4919270b          	0x4919270b
	uint32_t targend = SysTick->CNT + n;
 2ec:	00130113          	addi	sp,t1,1
		Delay_Ms(( Delay >> 3 ) + 5 );
 2f0:	1c00                	addi	s0,sp,560
 2f2:	0005                	c.nop	1
		int temp=LEDs[0].brightness;
 2f4:	0b3a0e03          	lb	t3,179(s4)
	ADC1->CTLR2 |= ADC_SWSTART;
 2f8:	0b39053b          	0xb39053b
 2fc:	1349                	addi	t1,t1,-14
 2fe:	0000                	unimp
 300:	0b1d                	addi	s6,s6,7
 302:	0001                	nop
	while(!(ADC1->STATR & ADC_EOC));
 304:	1e00                	addi	s0,sp,816
 306:	0034                	addi	a3,sp,8
 308:	0b3a0803          	lb	a6,179(s4)
	return ADC1->RDATAR;
 30c:	0b39053b          	0xb39053b
 310:	1349                	addi	t1,t1,-14
 312:	0000                	unimp
		Delay_Ms(( Delay >> 3 ) + 5 );
 314:	2e1f 3f00 0319      	0x3193f002e1f
 31a:	3a0e                	fld	fs4,224(sp)
 31c:	39053b0b          	0x39053b0b
 320:	0019270b          	0x19270b
 324:	2000                	fld	fs0,0(s0)
 326:	0018                	0x18
 328:	0000                	unimp
 32a:	1521                	addi	a0,a0,-24
 32c:	2701                	jal	a2c <_data_lma+0x364>
 32e:	4919                	li	s2,6
 330:	00130113          	addi	sp,t1,1
 334:	2200                	fld	fs0,0(a2)
	while( ((int32_t)( SysTick->CNT - targend )) < 0 );
 336:	0005                	c.nop	1
 338:	1349                	addi	t1,t1,-14
 33a:	0000                	unimp
 33c:	03000a23          	sb	a6,52(zero) # 34 <InterruptVector+0x34>
		int temp=LEDs[0].brightness;
 340:	3a08                	fld	fa0,48(a2)
 342:	39053b0b          	0x39053b0b
		for(int i=1; i<12; i++){
 346:	2400000b          	0x2400000b
		int temp=LEDs[0].brightness;
 34a:	012e                	slli	sp,sp,0xb
			LEDs[i-1].brightness=LEDs[i].brightness;
 34c:	0b3a0e03          	lb	t3,179(s4)
 350:	0b39053b          	0xb39053b
 354:	13491927          	0x13491927
 358:	1301                	addi	t1,t1,-32
 35a:	0000                	unimp
 35c:	0b25                	addi	s6,s6,9
 35e:	0101                	addi	sp,sp,0
 360:	26000013          	li	zero,608
 364:	0026                	c.slli	zero,0x9
 366:	0000                	unimp
 368:	03012e27          	fsw	fa6,60(sp) # 10011048 <wiring.c.7604182b+0x1000e8cc>
		for(int i=1; i<12; i++){
 36c:	3a0e                	fld	fs4,224(sp)
 36e:	390b3b0b          	0x390b3b0b
		LEDs[11].brightness=temp;
 372:	4919270b          	0x4919270b
	while(1){
 376:	00130113          	addi	sp,t1,1
	asm volatile( "\n\
 37a:	2800                	fld	fs0,16(s0)
 37c:	0005                	c.nop	1
 37e:	0b3a0803          	lb	a6,179(s4)
 382:	0b390b3b          	0xb390b3b
 386:	1349                	addi	t1,t1,-14
 388:	0000                	unimp
 38a:	3429                	jal	fffffd94 <__global_pointer$+0xdffff504>
 38c:	0300                	addi	s0,sp,384
 38e:	3a08                	fld	fa0,48(a2)
 390:	390b3b0b          	0x390b3b0b
 394:	0013490b          	0x13490b
 398:	2a00                	fld	fs0,16(a2)
 39a:	0034                	addi	a3,sp,8
 39c:	0b3a0e03          	lb	t3,179(s4)
asm volatile(
 3a0:	0b390b3b          	0xb390b3b
 3a4:	1349                	addi	t1,t1,-14
 3a6:	0000                	unimp
 3a8:	3f012e2b          	0x3f012e2b
 3ac:	0319                	addi	t1,t1,6
 3ae:	3a0e                	fld	fs4,224(sp)
 3b0:	390b3b0b          	0x390b3b0b
 3b4:	4919270b          	0x4919270b
 3b8:	00130113          	addi	sp,t1,1
 3bc:	2c00                	fld	fs0,24(s0)
 3be:	0005                	c.nop	1
 3c0:	0b3a0e03          	lb	t3,179(s4)
 3c4:	0b390b3b          	0xb390b3b
 3c8:	1349                	addi	t1,t1,-14
 3ca:	0000                	unimp
 3cc:	0100                	addi	s0,sp,128
 3ce:	0111                	addi	sp,sp,4
 3d0:	0e25                	addi	t3,t3,9
 3d2:	0e030b13          	addi	s6,t1,224
	SETUP_SYSTICK_HCLK
 3d6:	17100e1b          	0x17100e1b
 3da:	0000                	unimp
 3dc:	0402                	c.slli64	s0
asm volatile(
 3de:	0301                	addi	t1,t1,0
 3e0:	3e0e                	fld	ft8,224(sp)
 3e2:	490b0b0b          	0x490b0b0b
 3e6:	3b0b3a13          	sltiu	s4,s6,944
	asm volatile( "1: j 1b" );
 3ea:	010b390b          	0x10b390b
{
 3ee:	03000013          	li	zero,48
 3f2:	0028                	addi	a0,sp,8
	SysTick->CMP += (SYSTEM_CORE_CLOCK/SYSTICKHZ);
 3f4:	0b1c0e03          	lb	t3,177(s8) # 10b1 <ch32v003fun.c.8affbd33+0x15c>
{
 3f8:	0000                	unimp
 3fa:	2404                	fld	fs1,8(s0)
	SysTick->CMP += (SYSTEM_CORE_CLOCK/SYSTICKHZ);
 3fc:	0b00                	addi	s0,sp,400
 3fe:	030b3e0b          	0x30b3e0b
{
 402:	000e                	c.slli	zero,0x3
 404:	0500                	addi	s0,sp,640
 406:	0016                	c.slli	zero,0x5
 408:	0b3a0e03          	lb	t3,179(s4)
 40c:	0b390b3b          	0xb390b3b
 410:	1349                	addi	t1,t1,-14
 412:	0000                	unimp
 414:	2406                	fld	fs0,64(sp)
 416:	0b00                	addi	s0,sp,400
 418:	030b3e0b          	0x30b3e0b
 41c:	0008                	0x8
 41e:	0700                	addi	s0,sp,896
 420:	0026                	c.slli	zero,0x9
 422:	1349                	addi	t1,t1,-14
 424:	0000                	unimp
 426:	3508                	fld	fa0,40(a0)
	SysTick->CMP += (SYSTEM_CORE_CLOCK/SYSTICKHZ);
 428:	4900                	lw	s0,16(a0)
 42a:	09000013          	li	zero,144
 42e:	0b0b0113          	addi	sp,s6,176
	SysTick->SR = 0;
 432:	0b3a                	slli	s6,s6,0xe
	ramp = ( ramp + 1 ) & 0x3F;		// 0 to 63
 434:	0b390b3b          	0xb390b3b
 438:	1301                	addi	t1,t1,-32
 43a:	0000                	unimp
 43c:	0d0a                	slli	s10,s10,0x2
 43e:	0300                	addi	s0,sp,384
 440:	3a0e                	fld	fs4,224(sp)
 442:	390b3b0b          	0x390b3b0b
 446:	3813490b          	0x3813490b
 44a:	0b00000b          	0xb00000b
	if (ramp == 0) {
 44e:	0b0b0113          	addi	sp,s6,176
 452:	0b3a                	slli	s6,s6,0xe
 454:	0b39053b          	0xb39053b
		pinMode(LEDs[group[currentgroup][0]].pinCathode, pinMode_I_floating); // switch off this group
 458:	1301                	addi	t1,t1,-32
 45a:	0000                	unimp
 45c:	0d0c                	addi	a1,sp,656
 45e:	0300                	addi	s0,sp,384
 460:	3a0e                	fld	fs4,224(sp)
 462:	39053b0b          	0x39053b0b
 466:	3813490b          	0x3813490b
 46a:	0d00000b          	0xd00000b
 46e:	000d                	c.nop	3
 470:	0b3a0803          	lb	a6,179(s4)
 474:	0b39053b          	0xb39053b
 478:	1349                	addi	t1,t1,-14
 47a:	0b38                	addi	a4,sp,408
 47c:	0000                	unimp
 47e:	160e                	slli	a2,a2,0x23
 480:	0300                	addi	s0,sp,384
 482:	3a0e                	fld	fs4,224(sp)
 484:	39053b0b          	0x39053b0b
 488:	0013490b          	0x13490b
		currentgroup = (currentgroup + 1) & 0x3;	// move to next group
 48c:	0f00                	addi	s0,sp,912
		pinMode(LEDs[group[currentgroup][0]].pinCathode, pinMode_O_pushPull); // switch on the group
 48e:	0101                	addi	sp,sp,0
 490:	1349                	addi	t1,t1,-14
		currentgroup = (currentgroup + 1) & 0x3;	// move to next group
 492:	1301                	addi	t1,t1,-32
 494:	0000                	unimp
 496:	2110                	fld	fa2,0(a0)
 498:	4900                	lw	s0,16(a0)
 49a:	000b2f13          	slti	t5,s6,0
		pinMode(LEDs[group[currentgroup][0]].pinCathode, pinMode_O_pushPull); // switch on the group
 49e:	1100                	addi	s0,sp,160
 4a0:	0034                	addi	a3,sp,8
 4a2:	0b3a0e03          	lb	t3,179(s4)
 4a6:	0b39053b          	0xb39053b
 4aa:	1349                	addi	t1,t1,-14
 4ac:	0000                	unimp
 4ae:	1312                	slli	t1,t1,0x24
 4b0:	0b01                	addi	s6,s6,0
 4b2:	3a05                	jal	fffffde2 <__global_pointer$+0xdffff552>
 4b4:	39053b0b          	0x39053b0b
 4b8:	0013010b          	0x13010b
 4bc:	1300                	addi	s0,sp,416
 4be:	000d                	c.nop	3
 4c0:	0b3a0e03          	lb	t3,179(s4)
 4c4:	0b39053b          	0xb39053b
 4c8:	1349                	addi	t1,t1,-14
 4ca:	0538                	addi	a4,sp,648
 4cc:	0000                	unimp
 4ce:	2114                	fld	fa3,0(a0)
		digitalWrite(LEDs[group[currentgroup][0]].pinCathode, low);
 4d0:	4900                	lw	s0,16(a0)
 4d2:	00052f13          	slti	t5,a0,0
 4d6:	1500                	addi	s0,sp,672
 4d8:	0028                	addi	a0,sp,8
 4da:	0b1c0803          	lb	a6,177(s8)
 4de:	0000                	unimp
 4e0:	3416                	fld	fs0,352(sp)
		if (LEDs[group[currentgroup][0]].brightness) { 
 4e2:	0300                	addi	s0,sp,384
 4e4:	3a0e                	fld	fs4,224(sp)
 4e6:	390b3b0b          	0x390b3b0b
 4ea:	3f13490b          	0x3f13490b
 4ee:	0019                	c.nop	6
 4f0:	1700                	addi	s0,sp,928
 4f2:	0034                	addi	a3,sp,8
 4f4:	0b3a0e03          	lb	t3,179(s4)
			pinMode(LEDs[group[currentgroup][0]].pinAnode, pinMode_O_pushPull); // switch on this LED
 4f8:	0b390b3b          	0xb390b3b
 4fc:	1349                	addi	t1,t1,-14
 4fe:	0000                	unimp
 500:	2e18                	fld	fa4,24(a2)
 502:	3f01                	jal	412 <SysTick_Handler+0x26>
			digitalWrite(LEDs[group[currentgroup][0]].pinAnode, high);
 504:	0319                	addi	t1,t1,6
 506:	3a0e                	fld	fs4,224(sp)
 508:	39053b0b          	0x39053b0b
 50c:	0113490b          	0x113490b
 510:	19000013          	li	zero,400
 514:	0000010b          	0x10b
 518:	341a                	fld	fs0,416(sp)
		if (LEDs[group[currentgroup][1]].brightness) { 
 51a:	0300                	addi	s0,sp,384
 51c:	3a08                	fld	fa0,48(a2)
 51e:	39053b0b          	0x39053b0b
 522:	0013490b          	0x13490b
 526:	1b00                	addi	s0,sp,432
 528:	012e                	slli	sp,sp,0xb
 52a:	0e03193f 0b3b0b3a 	0xb3b0b3a0e03193f
 532:	0b39                	addi	s6,s6,14
 534:	13011927          	0x13011927
 538:	0000                	unimp
 53a:	2e1c                	fld	fa5,24(a2)
 53c:	3f00                	fld	fs0,56(a4)
 53e:	0319                	addi	t1,t1,6
 540:	3a0e                	fld	fs4,224(sp)
			pinMode(LEDs[group[currentgroup][1]].pinAnode, pinMode_O_pushPull); // switch on this LED
 542:	390b3b0b          	0x390b3b0b
 546:	0019270b          	0x19270b
 54a:	1d00                	addi	s0,sp,688
 54c:	002e                	c.slli	zero,0xb
 54e:	0e03193f 0b3b0b3a 	0xb3b0b3a0e03193f
 556:	0b39                	addi	s6,s6,14
			digitalWrite(LEDs[group[currentgroup][1]].pinAnode, high);
 558:	13491927          	0x13491927
 55c:	0000                	unimp
 55e:	2e1e                	fld	ft8,448(sp)
 560:	0301                	addi	t1,t1,0
 562:	3a0e                	fld	fs4,224(sp)
 564:	39053b0b          	0x39053b0b
 568:	0019270b          	0x19270b
 56c:	1f00                	addi	s0,sp,944
		if (LEDs[group[currentgroup][2]].brightness) { 
 56e:	0005                	c.nop	1
 570:	0b3a0e03          	lb	t3,179(s4)
 574:	0b39053b          	0xb39053b
 578:	1349                	addi	t1,t1,-14
 57a:	0000                	unimp
 57c:	0100                	addi	s0,sp,128
 57e:	0111                	addi	sp,sp,4
 580:	0e25                	addi	t3,t3,9
 582:	0e030b13          	addi	s6,t1,224
 586:	17100e1b          	0x17100e1b
 58a:	0000                	unimp
 58c:	2402                	fld	fs0,0(sp)
 58e:	0b00                	addi	s0,sp,400
 590:	030b3e0b          	0x30b3e0b
 594:	000e                	c.slli	zero,0x3
			pinMode(LEDs[group[currentgroup][2]].pinAnode, pinMode_O_pushPull); // switch on this LED
 596:	0300                	addi	s0,sp,384
 598:	0016                	c.slli	zero,0x5
 59a:	0b3a0e03          	lb	t3,179(s4)
 59e:	0b390b3b          	0xb390b3b
 5a2:	1349                	addi	t1,t1,-14
 5a4:	0000                	unimp
 5a6:	2404                	fld	fs1,8(s0)
			digitalWrite(LEDs[group[currentgroup][2]].pinAnode, high);
 5a8:	0b00                	addi	s0,sp,400
 5aa:	030b3e0b          	0x30b3e0b
 5ae:	0008                	0x8
 5b0:	0500                	addi	s0,sp,640
 5b2:	0026                	c.slli	zero,0x9
 5b4:	1349                	addi	t1,t1,-14
 5b6:	0000                	unimp
 5b8:	3506                	fld	fa0,96(sp)
	if (LEDs[group[currentgroup][0]].brightness <= ramp) { // if the target pulse width has been achieved
 5ba:	4900                	lw	s0,16(a0)
 5bc:	07000013          	li	zero,112
 5c0:	0b0b0113          	addi	sp,s6,176
 5c4:	0b3a                	slli	s6,s6,0xe
 5c6:	0b390b3b          	0xb390b3b
 5ca:	1301                	addi	t1,t1,-32
 5cc:	0000                	unimp
 5ce:	0d08                	addi	a0,sp,656
 5d0:	0300                	addi	s0,sp,384
 5d2:	3a0e                	fld	fs4,224(sp)
 5d4:	390b3b0b          	0x390b3b0b
 5d8:	3813490b          	0x3813490b
 5dc:	0900000b          	0x900000b
 5e0:	0b0b0113          	addi	sp,s6,176
 5e4:	0b3a                	slli	s6,s6,0xe
 5e6:	0b39053b          	0xb39053b
		pinMode(LEDs[group[currentgroup][0]].pinAnode, pinMode_I_floating); // switch off this LED
 5ea:	1301                	addi	t1,t1,-32
 5ec:	0000                	unimp
 5ee:	0d0a                	slli	s10,s10,0x2
 5f0:	0300                	addi	s0,sp,384
 5f2:	3a0e                	fld	fs4,224(sp)
 5f4:	39053b0b          	0x39053b0b
 5f8:	3813490b          	0x3813490b
 5fc:	0b00000b          	0xb00000b
 600:	000d                	c.nop	3
 602:	0b3a0803          	lb	a6,179(s4)
 606:	0b39053b          	0xb39053b
	if (LEDs[group[currentgroup][1]].brightness <= ramp) {
 60a:	1349                	addi	t1,t1,-14
 60c:	0b38                	addi	a4,sp,408
 60e:	0000                	unimp
 610:	160c                	addi	a1,sp,800
 612:	0300                	addi	s0,sp,384
 614:	3a0e                	fld	fs4,224(sp)
 616:	39053b0b          	0x39053b0b
 61a:	0013490b          	0x13490b
 61e:	0d00                	addi	s0,sp,656
 620:	0101                	addi	sp,sp,0
 622:	1349                	addi	t1,t1,-14
 624:	1301                	addi	t1,t1,-32
 626:	0000                	unimp
 628:	210e                	fld	ft2,192(sp)
 62a:	4900                	lw	s0,16(a0)
 62c:	000b2f13          	slti	t5,s6,0
		pinMode(LEDs[group[currentgroup][1]].pinAnode, pinMode_I_floating); // switch off this LED
 630:	0f00                	addi	s0,sp,912
 632:	0034                	addi	a3,sp,8
 634:	0b3a0e03          	lb	t3,179(s4)
 638:	0b39053b          	0xb39053b
 63c:	1349                	addi	t1,t1,-14
 63e:	0000                	unimp
 640:	0410                	addi	a2,sp,512
 642:	3e01                	jal	152 <pinMode+0x3e>
 644:	490b0b0b          	0x490b0b0b
 648:	3b0b3a13          	sltiu	s4,s6,944
 64c:	3905                	jal	27c <main+0xd8>
	if (LEDs[group[currentgroup][2]].brightness <= ramp) {
 64e:	0013010b          	0x13010b
 652:	1100                	addi	s0,sp,160
 654:	0028                	addi	a0,sp,8
 656:	0b1c0e03          	lb	t3,177(s8)
 65a:	0000                	unimp
 65c:	0412                	slli	s0,s0,0x4
 65e:	0301                	addi	t1,t1,0
 660:	3e0e                	fld	ft8,224(sp)
 662:	490b0b0b          	0x490b0b0b
 666:	3b0b3a13          	sltiu	s4,s6,944
 66a:	010b390b          	0x10b390b
 66e:	13000013          	li	zero,304
 672:	012e                	slli	sp,sp,0xb
 674:	0e03193f 0b3b0b3a 	0xb3b0b3a0e03193f
		pinMode(LEDs[group[currentgroup][2]].pinAnode, pinMode_I_floating); // switch off this LED
 67c:	0b39                	addi	s6,s6,14
 67e:	13491927          	0x13491927
 682:	1301                	addi	t1,t1,-32
}
 684:	0000                	unimp
 686:	0514                	addi	a3,sp,640
 688:	0300                	addi	s0,sp,384
 68a:	3a0e                	fld	fs4,224(sp)
 68c:	390b3b0b          	0x390b3b0b
 690:	0013490b          	0x13490b
 694:	1500                	addi	s0,sp,672
 696:	002e                	c.slli	zero,0xb
 698:	0e03193f 0b3b0b3a 	0xb3b0b3a0e03193f
 6a0:	0b39                	addi	s6,s6,14
 6a2:	0000                	unimp
 6a4:	2e16                	fld	ft8,320(sp)
 6a6:	3f01                	jal	5b6 <SysTick_Handler+0x1ca>
 6a8:	0319                	addi	t1,t1,6
 6aa:	3a0e                	fld	fs4,224(sp)
 6ac:	390b3b0b          	0x390b3b0b
 6b0:	0119270b          	0x119270b
 6b4:	17000013          	li	zero,368
 6b8:	012e                	slli	sp,sp,0xb
 6ba:	0e03193f 0b3b0b3a 	0xb3b0b3a0e03193f
 6c2:	0b39                	addi	s6,s6,14
 6c4:	1301                	addi	t1,t1,-32
 6c6:	0000                	unimp
 6c8:	0b18                	addi	a4,sp,400
 6ca:	0001                	nop
 6cc:	1900                	addi	s0,sp,176
 6ce:	0034                	addi	a3,sp,8
 6d0:	0b3a0803          	lb	a6,179(s4)
 6d4:	0b390b3b          	0xb390b3b
 6d8:	1349                	addi	t1,t1,-14
 6da:	0000                	unimp
 6dc:	051a                	slli	a0,a0,0x6
 6de:	0300                	addi	s0,sp,384
 6e0:	3a08                	fld	fa0,48(a2)
 6e2:	390b3b0b          	0x390b3b0b
 6e6:	0013490b          	0x13490b
 6ea:	1b00                	addi	s0,sp,432
 6ec:	0034                	addi	a3,sp,8
 6ee:	0b3a0e03          	lb	t3,179(s4)
 6f2:	0b390b3b          	0xb390b3b
 6f6:	1349                	addi	t1,t1,-14
 6f8:	0000                	unimp
 6fa:	0f1c                	addi	a5,sp,912
 6fc:	0b00                	addi	s0,sp,400
 6fe:	0013490b          	0x13490b
 702:	1d00                	addi	s0,sp,688
 704:	012e                	slli	sp,sp,0xb
 706:	0e03193f 0b3b0b3a 	0xb3b0b3a0e03193f
 70e:	0b39                	addi	s6,s6,14
 710:	13491927          	0x13491927
 714:	0000                	unimp
 716:	0100                	addi	s0,sp,128
 718:	0011                	c.nop	4
 71a:	0610                	addi	a2,sp,768
 71c:	0111                	addi	sp,sp,4
 71e:	0112                	slli	sp,sp,0x4
 720:	0e1b0e03          	lb	t3,225(s6)
 724:	0e25                	addi	t3,t3,9
 726:	00000513          	li	a0,0
	...

Disassembly of section .debug_loc:

00000000 <.debug_loc>:
	...
	asm volatile( "\n\
       8:	0001                	nop
       a:	005a                	c.slli	zero,0x16
       c:	0000                	unimp
       e:	0000                	unimp
      10:	0000                	unimp
      12:	0100                	addi	s0,sp,128
      14:	5600                	lw	s0,40(a2)
	...
      26:	0001                	nop
      28:	0000005b          	0x5b
      2c:	0000                	unimp
      2e:	0000                	unimp
      30:	0100                	addi	s0,sp,128
      32:	5a00                	lw	s0,48(a2)
	...
      3c:	0004                	0x4
      3e:	9f5b01f3          	0x9f5b01f3
	...
      4a:	0001                	nop
      4c:	005a                	c.slli	zero,0x16
	...
      5a:	0000                	unimp
      5c:	0100                	addi	s0,sp,128
      5e:	5c00                	lw	s0,56(s0)
	...
      68:	0001                	nop
      6a:	005c                	addi	a5,sp,4
	...
      78:	0000                	unimp
      7a:	0100                	addi	s0,sp,128
      7c:	5500                	lw	s0,40(a0)
	...
      86:	0001                	nop
      88:	0055                	c.nop	21
	...
      96:	0000                	unimp
      98:	0200                	addi	s0,sp,256
      9a:	3000                	fld	fs0,32(s0)
      9c:	009f 0000 0000      	0x9f
      a2:	0000                	unimp
      a4:	0100                	addi	s0,sp,128
      a6:	5e00                	lw	s0,56(a2)
	...
      b0:	0001                	nop
      b2:	005e                	c.slli	zero,0x17
      b4:	0000                	unimp
      b6:	0000                	unimp
      b8:	0000                	unimp
      ba:	0300                	addi	s0,sp,384
      bc:	7e00                	flw	fs0,56(a2)
      be:	9f7f                	0x9f7f
	...
	if (pin <= pin_A2) {
      c8:	0001                	nop
		PinOffset = (pin + 1);
      ca:	005e                	c.slli	zero,0x17
	...
		GPIOx-> BSHR |= 1 << PinOffset;
      d8:	0000                	unimp
	if (value) {
      da:	0100                	addi	s0,sp,128
		GPIOx-> BSHR |= 1 << (16 + PinOffset);
      dc:	5a00                	lw	s0,48(a2)
	...
}
      e6:	0001                	nop
	else if (pin <= pin_C7) {
      e8:	005f 0000 0000      	0x5f
		PinOffset = (pin - 2);
      ee:	0000                	unimp
      f0:	0200                	addi	s0,sp,256
      f2:	9100                	0x9100
		GPIOx = GPIOC;
      f4:	0070                	addi	a2,sp,12
      f6:	0000                	unimp
      f8:	0000                	unimp
	else if (pin <= pin_D7) {
      fa:	0000                	unimp
      fc:	0600                	addi	s0,sp,768
      fe:	7f00                	flw	fs0,56(a4)
		PinOffset = (pin - 10);
     100:	7c00                	flw	fs0,56(s0)
     102:	2200                	fld	fs0,0(a2)
		GPIOx = GPIOD;
     104:	009f 0000 0000      	0x9f
     10a:	0000                	unimp
     10c:	0100                	addi	s0,sp,128
     10e:	5a00                	lw	s0,48(a2)
	...
	if (pin <= pin_A2) {
     118:	0008                	0x8
		PinOffset *= (pin + 1);
     11a:	007f                	0x7f
     11c:	007c                	addi	a5,sp,12
     11e:	2322                	fld	ft6,8(sp)
     120:	9f01                	0x9f01
	...
		GPIOx = GPIOA;
     12a:	0006                	c.slli	zero,0x1
	GPIOx->CFGLR &= ~(0b1111<<PinOffset);							// zero the 4 configuration bits
     12c:	007f                	0x7f
     12e:	007c                	addi	a5,sp,12
     130:	9f22                	add	t5,t5,s0
	...
	switch (mode) {
     142:	0001                	nop
     144:	0000005b          	0x5b
     148:	0000                	unimp
	GPIOx->CFGLR |= modeMask<<PinOffset;
     14a:	0000                	unimp
     14c:	0100                	addi	s0,sp,128
     14e:	5900                	lw	s0,48(a0)
	...
     158:	0004                	0x4
     15a:	9f5b01f3          	0x9f5b01f3
	...
	if (target_pin_state > pinState_nochange) {
     166:	0001                	nop
		digitalWrite(pin, target_pin_state - 1);
     168:	0059                	c.nop	22
     16a:	0000                	unimp
     16c:	0000                	unimp
     16e:	0000                	unimp
     170:	0100                	addi	s0,sp,128
	else if (pin <= pin_C7) {
     172:	5a00                	lw	s0,48(a2)
	...
		PinOffset *= (pin - 2);
     17c:	0001                	nop
     17e:	0059                	c.nop	22
	...
	else if (pin <= pin_D7) {
     18c:	0000                	unimp
		PinOffset *= (pin - 10);
     18e:	0100                	addi	s0,sp,128
     190:	5c00                	lw	s0,56(s0)
	...
     19a:	0004                	0x4
		GPIOx = GPIOD;
     19c:	9f5c01f3          	0x9f5c01f3
	...
int main() {
     1a8:	0001                	nop
     1aa:	005c                	addi	a5,sp,4
	RCC->CFGR0 = RCC_HPRE_DIV1 | RCC_PLLSRC_HSI_Mul2;      // PLLCLK = HSI * 2 = 48 MHz; HCLK = SYSCLK = APB1
     1ac:	0000                	unimp
     1ae:	0000                	unimp
	RCC->CTLR  = RCC_HSION | RCC_PLLON | ((HSITRIM) << 3); // Use HSI, but enable PLL.
     1b0:	0000                	unimp
     1b2:	0400                	addi	s0,sp,512
	RCC->CFGR0 = RCC_HPRE_DIV1 | RCC_PLLSRC_HSI_Mul2;      // PLLCLK = HSI * 2 = 48 MHz; HCLK = SYSCLK = APB1
     1b4:	f300                	fsw	fs0,32(a4)
     1b6:	5c01                	li	s8,-32
	RCC->CTLR  = RCC_HSION | RCC_PLLON | ((HSITRIM) << 3); // Use HSI, but enable PLL.
     1b8:	009f 0000 0000      	0x9f
	...
	RCC->INTR  = 0x009F0000;                               // Clear PLL, CSSC, HSE, HSI and LSI ready flags.
     1c6:	0000                	unimp
     1c8:	0100                	addi	s0,sp,128
     1ca:	5d00                	lw	s0,56(a0)
	...
	while((RCC->CTLR & RCC_PLLRDY) == 0);                                      // Wait till PLL is ready
     1d4:	0001                	nop
     1d6:	005d                	c.nop	23
     1d8:	0000                	unimp
	RCC->CFGR0 = ( RCC->CFGR0 & ((uint32_t)~(RCC_SW))) | (uint32_t)RCC_SW_PLL; // Select PLL as system clock source
     1da:	0000                	unimp
	while ((RCC->CFGR0 & (uint32_t)RCC_SWS) != (uint32_t)0x08);                // Wait till PLL is used as system clock source
     1dc:	0000                	unimp
	RCC->CFGR0 = ( RCC->CFGR0 & ((uint32_t)~(RCC_SW))) | (uint32_t)RCC_SW_PLL; // Select PLL as system clock source
     1de:	0400                	addi	s0,sp,512
     1e0:	f300                	fsw	fs0,32(a4)
     1e2:	5d01                	li	s10,-32
     1e4:	009f 0000 0000      	0x9f
	...
	SysTick->CTLR = 0;
     1f2:	0000                	unimp
     1f4:	0100                	addi	s0,sp,128
     1f6:	5e00                	lw	s0,56(a2)
	...
     200:	0004                	0x4
     202:	9f5e01f3          	0x9f5e01f3
	...
	SysTick->CTLR = SYSTICK_CTLR_STE | SYSTICK_CTLR_STIE |
     20e:	0001                	nop
     210:	005e                	c.slli	zero,0x17
	RCC->CFGR0 &= ~(0x1F<<11);
     212:	0000                	unimp
     214:	0000                	unimp
     216:	0000                	unimp
     218:	0400                	addi	s0,sp,512
     21a:	f300                	fsw	fs0,32(a4)
     21c:	5e01                	li	t3,-32
	RCC->APB2PCENR |= RCC_APB2Periph_GPIOA | RCC_APB2Periph_ADC1;
     21e:	009f 0000 0000      	0x9f
	...
	GPIOA->CFGLR &= ~(0xf<<(4*GPIO_PinSource2));	// CNF = 00: Analog, MODE = 00: Input
     22c:	0000                	unimp
     22e:	0600                	addi	s0,sp,768
     230:	7d00                	flw	fs0,56(a0)
     232:	7900                	flw	fs0,48(a0)
     234:	1c00                	addi	s0,sp,560
     236:	009f 0000 0000      	0x9f
	ADC1->CTLR2 |= ADC_ADON | ADC_EXTSEL;
     23c:	0000                	unimp
     23e:	0100                	addi	s0,sp,128
     240:	5800                	lw	s0,48(s0)
	...
	RCC->APB2PRSTR &= ~RCC_APB2Periph_ADC1;
     24a:	0006                	c.slli	zero,0x1
     24c:	007d                	c.nop	31
     24e:	0079                	c.nop	30
	ADC1->RSQR1 = 0;
     250:	9f1c                	0x9f1c
	...
	ADC1->RSQR2 = 0;
     25a:	0006                	c.slli	zero,0x1
	ADC1->RSQR3 = ADC_Channel_0;	// 0-9 for 8 ext inputs and two internals
     25c:	0079                	c.nop	30
     25e:	007c                	addi	a5,sp,12
	ADC1->SAMPTR2 &= ~ADC_SMP2;
     260:	9f1c                	0x9f1c
	...
     26a:	0001                	nop
	ADC1->SAMPTR2 |= ( ADC_SampleTime_3Cycles << (3 * ADC_Channel_0 ) );	// 0:7 => 3/9/15/30/43/57/73/241 cycles
     26c:	0000005b          	0x5b
     270:	0000                	unimp
     272:	0000                	unimp
	ADC1->CTLR2 |= ADC_ADON | ADC_EXTSEL;
     274:	0200                	addi	s0,sp,256
     276:	3000                	fld	fs0,32(s0)
     278:	009f 0000 0000      	0x9f
	ADC1->CTLR2 |= ADC_RSTCAL;
     27e:	0000                	unimp
     280:	0200                	addi	s0,sp,256
	while(ADC1->CTLR2 & ADC_RSTCAL);
     282:	3100                	fld	fs0,32(a0)
     284:	009f 0000 0000      	0x9f
	ADC1->CTLR2 |= ADC_RSTCAL;
     28a:	0000                	unimp
     28c:	0200                	addi	s0,sp,256
	while(ADC1->CTLR2 & ADC_RSTCAL);
     28e:	3200                	fld	fs0,32(a2)
     290:	009f 0000 0000      	0x9f
	ADC1->CTLR2 |= ADC_CAL;
     296:	0000                	unimp
     298:	0100                	addi	s0,sp,128
     29a:	5b00                	lw	s0,48(a4)
	...
	while(ADC1->CTLR2 & ADC_CAL);
     2a4:	0006                	c.slli	zero,0x1
     2a6:	0079                	c.nop	30
     2a8:	007c                	addi	a5,sp,12
     2aa:	9f1c                	0x9f1c
	...
	pinMode(pin_A1, pinMode_I_floating);
     2b4:	0008                	0x8
     2b6:	0079                	c.nop	30
			RCC->APB2PCENR |= RCC_APB2Periph_GPIOA;
     2b8:	007c                	addi	a5,sp,12
     2ba:	231c                	fld	fa5,0(a4)
     2bc:	9f01                	0x9f01
	...
     2ce:	0002                	c.slli64	zero
	pinMode(pin_A2, pinMode_I_floating);
     2d0:	9f30                	0x9f30
	...
	pinMode(pin_C1, pinMode_I_floating);
     2da:	0001                	nop
	pinMode(pin_C2, pinMode_I_floating);
     2dc:	0056                	c.slli	zero,0x15
     2de:	0000                	unimp
     2e0:	0000                	unimp
		Delay_Ms(( Delay >> 3 ) + 5 );
     2e2:	0000                	unimp
     2e4:	0200                	addi	s0,sp,256
	ADC1->CTLR2 |= ADC_SWSTART;
     2e6:	7200                	flw	fs0,32(a2)
	...
		Delay_Ms(( Delay >> 3 ) + 5 );
     2f0:	0200                	addi	s0,sp,256
     2f2:	7200                	flw	fs0,32(a2)
		int temp=LEDs[0].brightness;
     2f4:	006c                	addi	a1,sp,12
     2f6:	0000                	unimp
	ADC1->CTLR2 |= ADC_SWSTART;
     2f8:	0000                	unimp
     2fa:	0000                	unimp
     2fc:	0200                	addi	s0,sp,256
     2fe:	3000                	fld	fs0,32(s0)
     300:	009f 0000 0000      	0x9f
	while(!(ADC1->STATR & ADC_EOC));
     306:	0000                	unimp
     308:	0200                	addi	s0,sp,256
     30a:	7200                	flw	fs0,32(a2)
	...
		Delay_Ms(( Delay >> 3 ) + 5 );
     31c:	0100                	addi	s0,sp,128
	uint32_t targend = SysTick->CNT + n;
     31e:	5e00                	lw	s0,56(a2)
	...
     328:	0004                	0x4
     32a:	9f5e01f3          	0x9f5e01f3
	...
	while( ((int32_t)( SysTick->CNT - targend )) < 0 );
     336:	0006                	c.slli	zero,0x1
     338:	007d                	c.nop	31
     33a:	007c                	addi	a5,sp,12
     33c:	9f22                	add	t5,t5,s0
	...
		for(int i=1; i<12; i++){
     346:	0001                	nop
		int temp=LEDs[0].brightness;
     348:	005c                	addi	a5,sp,4
     34a:	0000                	unimp
			LEDs[i-1].brightness=LEDs[i].brightness;
     34c:	0000                	unimp
     34e:	0000                	unimp
     350:	0300                	addi	s0,sp,384
     352:	7c00                	flw	fs0,56(s0)
     354:	9f7f                	0x9f7f
	...
     35e:	0001                	nop
     360:	005d                	c.nop	23
     362:	0000                	unimp
     364:	0000                	unimp
     366:	0000                	unimp
     368:	0300                	addi	s0,sp,384
     36a:	7c00                	flw	fs0,56(s0)
		for(int i=1; i<12; i++){
     36c:	9f7e                	add	t5,t5,t6
	...
	while(1){
     376:	0001                	nop
	asm volatile( "\n\
     378:	005d                	c.nop	23
     37a:	0000                	unimp
     37c:	0000                	unimp
     37e:	0000                	unimp
     380:	0300                	addi	s0,sp,384
     382:	7d00                	flw	fs0,56(a0)
     384:	9f7f                	0x9f7f
	...
     38e:	0001                	nop
     390:	005e                	c.slli	zero,0x17
     392:	0000                	unimp
     394:	0000                	unimp
     396:	0000                	unimp
     398:	0800                	addi	s0,sp,16
     39a:	7d00                	flw	fs0,56(a0)
     39c:	7c00                	flw	fs0,56(s0)
     39e:	2200                	fld	fs0,0(a2)
asm volatile(
     3a0:	009f0123          	sb	s1,2(t5) # 1002 <ch32v003fun.c.8affbd33+0xad>
     3a4:	0000                	unimp
     3a6:	0000                	unimp
     3a8:	0000                	unimp
     3aa:	0600                	addi	s0,sp,768
     3ac:	7d00                	flw	fs0,56(a0)
     3ae:	7c00                	flw	fs0,56(s0)
     3b0:	2200                	fld	fs0,0(a2)
     3b2:	009f 0000 0000      	0x9f
	...
     3c0:	0000                	unimp
     3c2:	0100                	addi	s0,sp,128
     3c4:	5a00                	lw	s0,48(a2)
	...
     3ce:	0001                	nop
     3d0:	0056                	c.slli	zero,0x15
     3d2:	0000                	unimp
     3d4:	0000                	unimp
	SETUP_SYSTICK_HCLK
     3d6:	0000                	unimp
     3d8:	0100                	addi	s0,sp,128
     3da:	5a00                	lw	s0,48(a2)
	...
asm volatile(
     3e4:	0002                	c.slli64	zero
     3e6:	6491                	lui	s1,0x4
	...
{
     3f0:	0001                	nop
     3f2:	0056                	c.slli	zero,0x15
	SysTick->CMP += (SYSTEM_CORE_CLOCK/SYSTICKHZ);
     3f4:	0000                	unimp
     3f6:	0000                	unimp
{
     3f8:	0000                	unimp
     3fa:	0100                	addi	s0,sp,128
	SysTick->CMP += (SYSTEM_CORE_CLOCK/SYSTICKHZ);
     3fc:	5600                	lw	s0,40(a2)
	...
{
     40e:	0001                	nop
     410:	0000005b          	0x5b
     414:	0000                	unimp
     416:	0000                	unimp
     418:	0200                	addi	s0,sp,256
     41a:	9100                	0x9100
     41c:	006c                	addi	a1,sp,12
     41e:	0000                	unimp
     420:	0000                	unimp
     422:	0000                	unimp
     424:	0100                	addi	s0,sp,128
     426:	5b00                	lw	s0,48(a4)
	...
	SysTick->SR = 0;
     430:	0002                	c.slli64	zero
     432:	6891                	lui	a7,0x4
	...
	ramp = ( ramp + 1 ) & 0x3F;		// 0 to 63
     43c:	0001                	nop
     43e:	0000005b          	0x5b
     442:	0000                	unimp
     444:	0000                	unimp
     446:	0200                	addi	s0,sp,256
     448:	9100                	0x9100
     44a:	0068                	addi	a0,sp,12
	if (ramp == 0) {
     44c:	0000                	unimp
     44e:	0000                	unimp
     450:	0000                	unimp
     452:	0200                	addi	s0,sp,256
     454:	7200                	flw	fs0,32(a2)
     456:	0068                	addi	a0,sp,12
		pinMode(LEDs[group[currentgroup][0]].pinCathode, pinMode_I_floating); // switch off this group
     458:	0000                	unimp
     45a:	0000                	unimp
     45c:	0000                	unimp
     45e:	0100                	addi	s0,sp,128
     460:	5b00                	lw	s0,48(a4)
	...
     46a:	0002                	c.slli64	zero
     46c:	6891                	lui	a7,0x4
	...
     47e:	0001                	nop
     480:	005c                	addi	a5,sp,4
     482:	0000                	unimp
     484:	0000                	unimp
     486:	0000                	unimp
     488:	0400                	addi	s0,sp,512
		currentgroup = (currentgroup + 1) & 0x3;	// move to next group
     48a:	f300                	fsw	fs0,32(a4)
     48c:	5c01                	li	s8,-32
		pinMode(LEDs[group[currentgroup][0]].pinCathode, pinMode_O_pushPull); // switch on the group
     48e:	009f 0000 0000      	0x9f
	...
		currentgroup = (currentgroup + 1) & 0x3;	// move to next group
     49c:	0000                	unimp
		pinMode(LEDs[group[currentgroup][0]].pinCathode, pinMode_O_pushPull); // switch on the group
     49e:	0100                	addi	s0,sp,128
     4a0:	5d00                	lw	s0,56(a0)
	...
     4aa:	0004                	0x4
     4ac:	9f5d01f3          	0x9f5d01f3
	...
     4c0:	0001                	nop
     4c2:	005e                	c.slli	zero,0x17
     4c4:	0000                	unimp
     4c6:	0000                	unimp
     4c8:	0000                	unimp
     4ca:	0200                	addi	s0,sp,256
     4cc:	9100                	0x9100
     4ce:	0070                	addi	a2,sp,12
		digitalWrite(LEDs[group[currentgroup][0]].pinCathode, low);
     4d0:	0000                	unimp
     4d2:	0000                	unimp
     4d4:	0000                	unimp
     4d6:	0100                	addi	s0,sp,128
     4d8:	5e00                	lw	s0,56(a2)
	...
		if (LEDs[group[currentgroup][0]].brightness) { 
     4e2:	0002                	c.slli64	zero
     4e4:	7091                	lui	ra,0xfffe4
	...
     4ee:	0001                	nop
     4f0:	005e                	c.slli	zero,0x17
	...
			pinMode(LEDs[group[currentgroup][0]].pinAnode, pinMode_O_pushPull); // switch on this LED
     4fe:	0000                	unimp
     500:	0100                	addi	s0,sp,128
     502:	5900                	lw	s0,48(a0)
	...
			digitalWrite(LEDs[group[currentgroup][0]].pinAnode, high);
     50c:	0001                	nop
     50e:	005f 0000 0000      	0x5f
     514:	0000                	unimp
     516:	0200                	addi	s0,sp,256
     518:	9100                	0x9100
		if (LEDs[group[currentgroup][1]].brightness) { 
     51a:	006c                	addi	a1,sp,12
     51c:	0000                	unimp
     51e:	0000                	unimp
     520:	0000                	unimp
     522:	0300                	addi	s0,sp,384
     524:	7900                	flw	fs0,48(a0)
     526:	9f02                	jalr	t5
	...
     530:	0001                	nop
     532:	005f 0000 0000      	0x5f
     538:	0000                	unimp
     53a:	0100                	addi	s0,sp,128
     53c:	5f00                	lw	s0,56(a4)
	...
			pinMode(LEDs[group[currentgroup][1]].pinAnode, pinMode_O_pushPull); // switch on this LED
     546:	0001                	nop
     548:	0059                	c.nop	22
	...
     556:	0000                	unimp
			digitalWrite(LEDs[group[currentgroup][1]].pinAnode, high);
     558:	0200                	addi	s0,sp,256
     55a:	3100                	fld	fs0,32(a0)
     55c:	009f 0000 0000      	0x9f
     562:	0000                	unimp
     564:	0200                	addi	s0,sp,256
     566:	7200                	flw	fs0,32(a2)
	...
		if (LEDs[group[currentgroup][2]].brightness) { 
     570:	0200                	addi	s0,sp,256
     572:	7200                	flw	fs0,32(a2)
     574:	0060                	addi	s0,sp,12
     576:	0000                	unimp
     578:	0000                	unimp
     57a:	0000                	unimp
     57c:	0200                	addi	s0,sp,256
     57e:	7200                	flw	fs0,32(a2)
	...
     590:	0200                	addi	s0,sp,256
     592:	3000                	fld	fs0,32(s0)
     594:	009f 0000 0000      	0x9f
			pinMode(LEDs[group[currentgroup][2]].pinAnode, pinMode_O_pushPull); // switch on this LED
     59a:	0000                	unimp
     59c:	0100                	addi	s0,sp,128
     59e:	5c00                	lw	s0,56(s0)
	...
			digitalWrite(LEDs[group[currentgroup][2]].pinAnode, high);
     5a8:	0001                	nop
     5aa:	005c                	addi	a5,sp,4
     5ac:	0000                	unimp
     5ae:	0000                	unimp
     5b0:	0000                	unimp
     5b2:	0300                	addi	s0,sp,384
     5b4:	7c00                	flw	fs0,56(s0)
     5b6:	9f7f                	0x9f7f
	...
	if (LEDs[group[currentgroup][0]].brightness <= ramp) { // if the target pulse width has been achieved
     5c0:	0001                	nop
     5c2:	005c                	addi	a5,sp,4
	...
     5d0:	0000                	unimp
     5d2:	0100                	addi	s0,sp,128
     5d4:	5a00                	lw	s0,48(a2)
	...
     5de:	0001                	nop
     5e0:	005a                	c.slli	zero,0x16
	...
		pinMode(LEDs[group[currentgroup][0]].pinAnode, pinMode_I_floating); // switch off this LED
     5ee:	0000                	unimp
     5f0:	0100                	addi	s0,sp,128
     5f2:	5a00                	lw	s0,48(a2)
	...
     5fc:	0001                	nop
     5fe:	005a                	c.slli	zero,0x16
     600:	0000                	unimp
     602:	0000                	unimp
     604:	0000                	unimp
     606:	c400                	sw	s0,8(s0)
	if (LEDs[group[currentgroup][1]].brightness <= ramp) {
     608:	0000                	unimp
     60a:	cc00                	sw	s0,24(s0)
     60c:	0000                	unimp
     60e:	0100                	addi	s0,sp,128
     610:	5a00                	lw	s0,48(a2)
     612:	00cc                	addi	a1,sp,68
     614:	0000                	unimp
     616:	00ce                	slli	ra,ra,0x13
     618:	0000                	unimp
     61a:	7f7a0003          	lb	zero,2039(s4)
     61e:	ce9f 0000 e800      	0xe8000000ce9f
     624:	0000                	unimp
     626:	0400                	addi	s0,sp,512
     628:	f300                	fsw	fs0,32(a4)
     62a:	5a01                	li	s4,-32
     62c:	e89f 0000 f000      	0xf0000000e89f
		pinMode(LEDs[group[currentgroup][1]].pinAnode, pinMode_I_floating); // switch off this LED
     632:	0000                	unimp
     634:	0100                	addi	s0,sp,128
     636:	5a00                	lw	s0,48(a2)
     638:	00f0                	addi	a2,sp,76
     63a:	0000                	unimp
     63c:	00f2                	slli	ra,ra,0x1c
     63e:	0000                	unimp
     640:	027a0003          	lb	zero,39(s4)
     644:	f29f 0000 fa00      	0xfa000000f29f
     64a:	0000                	unimp
     64c:	0400                	addi	s0,sp,512
	if (LEDs[group[currentgroup][2]].brightness <= ramp) {
     64e:	f300                	fsw	fs0,32(a4)
     650:	5a01                	li	s4,-32
     652:	fa9f 0000 0200      	0x2000000fa9f
     658:	0001                	nop
     65a:	0100                	addi	s0,sp,128
     65c:	5a00                	lw	s0,48(a2)
     65e:	0102                	c.slli64	sp
     660:	0000                	unimp
     662:	0104                	addi	s1,sp,128
     664:	0000                	unimp
     666:	0a7a0003          	lb	zero,167(s4)
     66a:	049f 0001 1400      	0x14000001049f
     670:	0001                	nop
     672:	0400                	addi	s0,sp,512
     674:	f300                	fsw	fs0,32(a4)
		pinMode(LEDs[group[currentgroup][2]].pinAnode, pinMode_I_floating); // switch off this LED
     676:	5a01                	li	s4,-32
     678:	009f 0000 0000      	0x9f
     67e:	0000                	unimp
     680:	ca00                	sw	s0,16(a2)
     682:	0000                	unimp
}
     684:	d800                	sw	s0,48(s0)
     686:	0000                	unimp
     688:	0600                	addi	s0,sp,768
     68a:	0c00                	addi	s0,sp,528
     68c:	0800                	addi	s0,sp,16
     68e:	4001                	c.li	zero,0
     690:	d89f 0000 e600      	0xe6000000d89f
     696:	0000                	unimp
     698:	0100                	addi	s0,sp,128
     69a:	5f00                	lw	s0,56(a4)
     69c:	00ee                	slli	ra,ra,0x1b
     69e:	0000                	unimp
     6a0:	00fa                	slli	ra,ra,0x1e
     6a2:	0000                	unimp
     6a4:	0006                	c.slli	zero,0x1
     6a6:	000c                	0xc
     6a8:	0110                	addi	a2,sp,128
     6aa:	9f40                	0x9f40
     6ac:	0100                	addi	s0,sp,128
     6ae:	0000                	unimp
     6b0:	0110                	addi	a2,sp,128
     6b2:	0000                	unimp
     6b4:	0006                	c.slli	zero,0x1
     6b6:	000c                	0xc
     6b8:	0114                	addi	a3,sp,128
     6ba:	9f40                	0x9f40
     6bc:	0110                	addi	a2,sp,128
     6be:	0000                	unimp
     6c0:	0114                	addi	a3,sp,128
     6c2:	0000                	unimp
     6c4:	0001                	nop
     6c6:	005f 0000 0000      	0x5f
     6cc:	0000                	unimp
     6ce:	c400                	sw	s0,8(s0)
     6d0:	0000                	unimp
     6d2:	d400                	sw	s0,40(s0)
     6d4:	0000                	unimp
     6d6:	0200                	addi	s0,sp,256
     6d8:	3000                	fld	fs0,32(s0)
     6da:	d49f 0000 dc00      	0xdc000000d49f
     6e0:	0000                	unimp
     6e2:	0100                	addi	s0,sp,128
     6e4:	5a00                	lw	s0,48(a2)
     6e6:	00e8                	addi	a0,sp,76
     6e8:	0000                	unimp
     6ea:	00f4                	addi	a3,sp,76
     6ec:	0000                	unimp
     6ee:	0002                	c.slli64	zero
     6f0:	9f30                	0x9f30
     6f2:	00f4                	addi	a3,sp,76
     6f4:	0000                	unimp
     6f6:	00fa                	slli	ra,ra,0x1e
     6f8:	0000                	unimp
     6fa:	0001                	nop
     6fc:	fa5a                	fsw	fs6,52(sp)
     6fe:	0000                	unimp
     700:	0a00                	addi	s0,sp,272
     702:	0001                	nop
     704:	0200                	addi	s0,sp,256
     706:	3000                	fld	fs0,32(s0)
     708:	0a9f 0001 1200      	0x120000010a9f
     70e:	0001                	nop
     710:	0100                	addi	s0,sp,128
     712:	5a00                	lw	s0,48(a2)
	...
     71c:	0114                	addi	a3,sp,128
     71e:	0000                	unimp
     720:	0171                	addi	sp,sp,28
     722:	0000                	unimp
     724:	0001                	nop
     726:	715a                	flw	ft2,180(sp)
     728:	0001                	nop
     72a:	7200                	flw	fs0,32(a2)
     72c:	0001                	nop
     72e:	0400                	addi	s0,sp,512
     730:	f300                	fsw	fs0,32(a4)
     732:	5a01                	li	s4,-32
     734:	729f 0001 a400      	0xa4000001729f
     73a:	0001                	nop
     73c:	0100                	addi	s0,sp,128
     73e:	5a00                	lw	s0,48(a2)
	...
     748:	0114                	addi	a3,sp,128
     74a:	0000                	unimp
     74c:	0154                	addi	a3,sp,132
     74e:	0000                	unimp
     750:	0001                	nop
     752:	0001545b          	0x1545b
     756:	7200                	flw	fs0,32(a2)
     758:	0001                	nop
     75a:	0400                	addi	s0,sp,512
     75c:	f300                	fsw	fs0,32(a4)
     75e:	5b01                	li	s6,-32
     760:	729f 0001 a200      	0xa2000001729f
     766:	0001                	nop
     768:	0100                	addi	s0,sp,128
     76a:	5b00                	lw	s0,48(a4)
     76c:	01a2                	slli	gp,gp,0x8
     76e:	0000                	unimp
     770:	01a4                	addi	s1,sp,200
     772:	0000                	unimp
     774:	0004                	0x4
     776:	9f5b01f3          	0x9f5b01f3
	...
     782:	011a                	slli	sp,sp,0x6
     784:	0000                	unimp
     786:	012c                	addi	a1,sp,136
     788:	0000                	unimp
     78a:	0006                	c.slli	zero,0x1
     78c:	000c                	0xc
     78e:	0108                	addi	a0,sp,128
     790:	9f40                	0x9f40
     792:	012c                	addi	a1,sp,136
     794:	0000                	unimp
     796:	0171                	addi	sp,sp,28
     798:	0000                	unimp
     79a:	0001                	nop
     79c:	785e                	flw	fa6,244(sp)
     79e:	0001                	nop
     7a0:	8800                	0x8800
     7a2:	0001                	nop
     7a4:	0600                	addi	s0,sp,768
     7a6:	0c00                	addi	s0,sp,528
     7a8:	1000                	addi	s0,sp,32
     7aa:	4001                	c.li	zero,0
     7ac:	8e9f 0001 a200      	0xa20000018e9f
     7b2:	0001                	nop
     7b4:	0600                	addi	s0,sp,768
     7b6:	0c00                	addi	s0,sp,528
     7b8:	1400                	addi	s0,sp,544
     7ba:	4001                	c.li	zero,0
     7bc:	009f 0000 0000      	0x9f
     7c2:	0000                	unimp
     7c4:	1400                	addi	s0,sp,544
     7c6:	0001                	nop
     7c8:	2800                	fld	fs0,16(s0)
     7ca:	0001                	nop
     7cc:	0200                	addi	s0,sp,256
     7ce:	3400                	fld	fs0,40(s0)
     7d0:	289f 0001 6000      	0x60000001289f
     7d6:	0001                	nop
     7d8:	0100                	addi	s0,sp,128
     7da:	5f00                	lw	s0,56(a4)
     7dc:	0172                	slli	sp,sp,0x1c
     7de:	0000                	unimp
     7e0:	0182                	c.slli64	gp
     7e2:	0000                	unimp
     7e4:	0002                	c.slli64	zero
     7e6:	9f34                	0x9f34
     7e8:	0182                	c.slli64	gp
     7ea:	0000                	unimp
     7ec:	0188                	addi	a0,sp,192
     7ee:	0000                	unimp
     7f0:	0001                	nop
     7f2:	885f 0001 9c00      	0x9c000001885f
     7f8:	0001                	nop
     7fa:	0200                	addi	s0,sp,256
     7fc:	3400                	fld	fs0,40(s0)
     7fe:	9c9f 0001 a200      	0xa20000019c9f
     804:	0001                	nop
     806:	0100                	addi	s0,sp,128
     808:	5f00                	lw	s0,56(a4)
	...
     812:	013c                	addi	a5,sp,136
     814:	0000                	unimp
     816:	014a                	slli	sp,sp,0x12
     818:	0000                	unimp
     81a:	0002                	c.slli64	zero
     81c:	9f30                	0x9f30
     81e:	014a                	slli	sp,sp,0x12
     820:	0000                	unimp
     822:	0171                	addi	sp,sp,28
     824:	0000                	unimp
     826:	0001                	nop
     828:	715c                	flw	fa5,36(a0)
     82a:	0001                	nop
     82c:	7200                	flw	fs0,32(a2)
     82e:	0001                	nop
     830:	0900                	addi	s0,sp,144
     832:	f300                	fsw	fs0,32(a4)
     834:	5b01                	li	s6,-32
     836:	00009803          	lh	a6,0(ra) # fffe4000 <__global_pointer$+0xdffe3770>
     83a:	2220                	fld	fs0,64(a2)
	...
     844:	013c                	addi	a5,sp,136
     846:	0000                	unimp
     848:	014a                	slli	sp,sp,0x12
     84a:	0000                	unimp
     84c:	0002                	c.slli64	zero
     84e:	9f30                	0x9f30
     850:	014a                	slli	sp,sp,0x12
     852:	0000                	unimp
     854:	0154                	addi	a3,sp,132
     856:	0000                	unimp
     858:	0008                	0x8
     85a:	9003007b          	0x9003007b
     85e:	0000                	unimp
     860:	2220                	fld	fs0,64(a2)
     862:	0154                	addi	a3,sp,132
     864:	0000                	unimp
     866:	0172                	slli	sp,sp,0x1c
     868:	0000                	unimp
     86a:	0009                	c.nop	2
     86c:	035b01f3          	0x35b01f3
     870:	0090                	addi	a2,sp,64
     872:	2000                	fld	fs0,0(s0)
     874:	0022                	c.slli	zero,0x8
	...
     882:	0000                	unimp
     884:	0100                	addi	s0,sp,128
     886:	5a00                	lw	s0,48(a2)
	...
     890:	0004                	0x4
     892:	9f5a01f3          	0x9f5a01f3
	...
     8a6:	0001                	nop
     8a8:	0000005b          	0x5b
     8ac:	0000                	unimp
     8ae:	0000                	unimp
     8b0:	0100                	addi	s0,sp,128
     8b2:	5900                	lw	s0,48(a0)
	...
     8bc:	0004                	0x4
     8be:	9f5b01f3          	0x9f5b01f3
	...
     8d2:	0002                	c.slli64	zero
     8d4:	9f30                	0x9f30
	...
     8de:	0001                	nop
     8e0:	0058                	addi	a4,sp,4
     8e2:	0000                	unimp
     8e4:	0000                	unimp
     8e6:	0000                	unimp
     8e8:	0100                	addi	s0,sp,128
     8ea:	5800                	lw	s0,48(s0)
	...
     8fc:	0006                	c.slli	zero,0x1
     8fe:	000c                	0xc
     900:	0271                	addi	tp,tp,28
     902:	9f00                	0x9f00
	...
     90c:	7f7e0003          	lb	zero,2039(t3) # 67f7 <wiring.c.7604182b+0x407b>
     910:	009f 0000 0000      	0x9f
     916:	0000                	unimp
     918:	0300                	addi	s0,sp,384
     91a:	7e00                	flw	fs0,56(a2)
     91c:	9f7e                	add	t5,t5,t6
	...
     926:	7f7e0003          	lb	zero,2039(t3)
     92a:	009f 0000 0000      	0x9f
	...
     938:	0000                	unimp
     93a:	0100                	addi	s0,sp,128
     93c:	5b00                	lw	s0,48(a4)
	...
     946:	0001                	nop
     948:	005f 0000 0000      	0x5f
     94e:	0000                	unimp
     950:	0200                	addi	s0,sp,256
     952:	9100                	0x9100
     954:	006c                	addi	a1,sp,12
     956:	0000                	unimp
     958:	0000                	unimp
     95a:	0000                	unimp
     95c:	0100                	addi	s0,sp,128
     95e:	5f00                	lw	s0,56(a4)
	...
     970:	0002                	c.slli64	zero
     972:	9f30                	0x9f30
	...
     97c:	0001                	nop
     97e:	005e                	c.slli	zero,0x17
     980:	0000                	unimp
     982:	0000                	unimp
     984:	0000                	unimp
     986:	0300                	addi	s0,sp,384
     988:	7e00                	flw	fs0,56(a2)
     98a:	9f7f                	0x9f7f
	...
     994:	0001                	nop
     996:	005e                	c.slli	zero,0x17
	...
     9a4:	0000                	unimp
     9a6:	0100                	addi	s0,sp,128
     9a8:	5a00                	lw	s0,48(a2)
	...
     9b2:	0004                	0x4
     9b4:	9f5a01f3          	0x9f5a01f3
	...
     9c8:	0001                	nop
     9ca:	0000005b          	0x5b
     9ce:	0000                	unimp
     9d0:	0000                	unimp
     9d2:	0100                	addi	s0,sp,128
     9d4:	5800                	lw	s0,48(s0)
	...
     9de:	0001                	nop
     9e0:	005a                	c.slli	zero,0x16
	...
     9ee:	0000                	unimp
     9f0:	0100                	addi	s0,sp,128
     9f2:	5c00                	lw	s0,56(s0)
	...
     9fc:	0004                	0x4
     9fe:	9f5c01f3          	0x9f5c01f3
	...
     a0a:	01fa                	slli	gp,gp,0x1e
     a0c:	0000                	unimp
     a0e:	0204                	addi	s1,sp,256
     a10:	0000                	unimp
     a12:	0002                	c.slli64	zero
     a14:	9f3c                	0x9f3c
	...
     a1e:	02ae                	slli	t0,t0,0xb
     a20:	0000                	unimp
     a22:	02be                	slli	t0,t0,0xf
     a24:	0000                	unimp
     a26:	0002                	c.slli64	zero
     a28:	9f30                	0x9f30
	...
     a32:	02be                	slli	t0,t0,0xf
     a34:	0000                	unimp
     a36:	02ce                	slli	t0,t0,0x13
     a38:	0000                	unimp
     a3a:	0002                	c.slli64	zero
     a3c:	9f31                	0x9f31
	...
     a46:	0310                	addi	a2,sp,384
     a48:	0000                	unimp
     a4a:	0316                	slli	t1,t1,0x5
     a4c:	0000                	unimp
     a4e:	007a0007          	0x7a0007
     a52:	ff0a                	fsw	ft2,188(sp)
     a54:	1aff                	0x1aff
     a56:	009f 0000 0000      	0x9f
     a5c:	0000                	unimp
     a5e:	1000                	addi	s0,sp,32
     a60:	16000003          	lb	zero,352(zero) # 160 <pinMode+0x4c>
     a64:	0f000003          	lb	zero,240(zero) # f0 <digitalWrite+0x2c>
     a68:	7a00                	flw	fs0,48(a2)
     a6a:	3300                	fld	fs0,32(a4)
     a6c:	0a26                	slli	s4,s4,0x9
     a6e:	1fff                	0x1fff
     a70:	231a                	fld	ft6,384(sp)
     a72:	0a05                	addi	s4,s4,1
     a74:	bb80                	fsd	fs0,48(a5)
     a76:	9f1e                	add	t5,t5,t2
	...
     a80:	0336                	slli	t1,t1,0xd
     a82:	0000                	unimp
     a84:	0340                	addi	s0,sp,388
     a86:	0000                	unimp
     a88:	0001                	nop
     a8a:	005f 0000 0000      	0x5f
	...
     a98:	0000                	unimp
     a9a:	0100                	addi	s0,sp,128
     a9c:	5a00                	lw	s0,48(a2)
	...
     aa6:	0001                	nop
     aa8:	005f 0000 0000      	0x5f
	...
     ab6:	0000                	unimp
     ab8:	0100                	addi	s0,sp,128
     aba:	5a00                	lw	s0,48(a2)
	...
     ac4:	0004                	0x4
     ac6:	9f5a01f3          	0x9f5a01f3
	...
     ad2:	0001                	nop
     ad4:	005a                	c.slli	zero,0x16
	...
     ae2:	0000                	unimp
     ae4:	0100                	addi	s0,sp,128
     ae6:	5a00                	lw	s0,48(a2)
	...
     af0:	0004                	0x4
     af2:	9f5a01f3          	0x9f5a01f3
	...
     b06:	0001                	nop
     b08:	005f 0000 0000      	0x5f
     b0e:	0000                	unimp
     b10:	0200                	addi	s0,sp,256
     b12:	7200                	flw	fs0,32(a2)
	...
     b1c:	0100                	addi	s0,sp,128
     b1e:	5f00                	lw	s0,56(a4)
	...
     b28:	7c7e0003          	lb	zero,1991(t3)
     b2c:	009f 0000 0000      	0x9f
     b32:	0000                	unimp
     b34:	0100                	addi	s0,sp,128
     b36:	5e00                	lw	s0,56(a2)
	...
     b40:	0002                	c.slli64	zero
     b42:	0072                	c.slli	zero,0x1c
	...
     b4c:	0001                	nop
     b4e:	005f 0000 0000      	0x5f
     b54:	0000                	unimp
     b56:	0100                	addi	s0,sp,128
     b58:	5e00                	lw	s0,56(a2)
	...
     b62:	0002                	c.slli64	zero
     b64:	0072                	c.slli	zero,0x1c
	...
     b6e:	0002                	c.slli64	zero
     b70:	0072                	c.slli	zero,0x1c
	...
     b7a:	0001                	nop
     b7c:	005f 0000 0000      	0x5f
     b82:	0000                	unimp
     b84:	0300                	addi	s0,sp,384
     b86:	7f00                	flw	fs0,56(a4)
     b88:	9f04                	0x9f04
	...
     b92:	0001                	nop
     b94:	005f 0000 0000      	0x5f
     b9a:	0000                	unimp
     b9c:	0100                	addi	s0,sp,128
     b9e:	5e00                	lw	s0,56(a2)
	...
     ba8:	0002                	c.slli64	zero
     baa:	0072                	c.slli	zero,0x1c
	...
     bb4:	0001                	nop
     bb6:	005f 0000 0000      	0x5f
     bbc:	0000                	unimp
     bbe:	0300                	addi	s0,sp,384
     bc0:	7e00                	flw	fs0,56(a2)
     bc2:	9f7c                	0x9f7c
	...
     bcc:	0001                	nop
     bce:	005e                	c.slli	zero,0x17
     bd0:	0000                	unimp
     bd2:	0000                	unimp
     bd4:	0000                	unimp
     bd6:	0200                	addi	s0,sp,256
     bd8:	7200                	flw	fs0,32(a2)
	...
     bea:	0100                	addi	s0,sp,128
     bec:	5a00                	lw	s0,48(a2)
	...
     bf6:	0001                	nop
     bf8:	0059                	c.nop	22
     bfa:	0000                	unimp
     bfc:	0000                	unimp
     bfe:	0000                	unimp
     c00:	0100                	addi	s0,sp,128
     c02:	5800                	lw	s0,48(s0)
	...
     c0c:	0001                	nop
     c0e:	0058                	addi	a4,sp,4
     c10:	0000                	unimp
     c12:	0000                	unimp
     c14:	0000                	unimp
     c16:	0100                	addi	s0,sp,128
     c18:	5900                	lw	s0,48(a0)
	...
     c22:	0001                	nop
     c24:	0058                	addi	a4,sp,4
     c26:	0000                	unimp
     c28:	0000                	unimp
     c2a:	0000                	unimp
     c2c:	0100                	addi	s0,sp,128
     c2e:	5e00                	lw	s0,56(a2)
	...
     c38:	0001                	nop
     c3a:	0059                	c.nop	22
     c3c:	0000                	unimp
     c3e:	0000                	unimp
     c40:	0000                	unimp
     c42:	0300                	addi	s0,sp,384
     c44:	7900                	flw	fs0,48(a0)
     c46:	9f7f                	0x9f7f
	...
     c50:	0001                	nop
     c52:	0059                	c.nop	22
     c54:	0000                	unimp
     c56:	0000                	unimp
     c58:	0000                	unimp
     c5a:	0300                	addi	s0,sp,384
     c5c:	7900                	flw	fs0,48(a0)
     c5e:	9f01                	0x9f01
	...
     c68:	0001                	nop
     c6a:	0059                	c.nop	22
     c6c:	0000                	unimp
     c6e:	0000                	unimp
     c70:	0000                	unimp
     c72:	0100                	addi	s0,sp,128
     c74:	5e00                	lw	s0,56(a2)
	...
     c7e:	0001                	nop
     c80:	0059                	c.nop	22
	...
     c8e:	0000                	unimp
     c90:	0200                	addi	s0,sp,256
     c92:	3000                	fld	fs0,32(s0)
     c94:	009f 0000 0000      	0x9f
     c9a:	0000                	unimp
     c9c:	0300                	addi	s0,sp,384
     c9e:	9100                	0x9100
     ca0:	7f9c                	flw	fa5,56(a5)
	...
     caa:	9c720003          	lb	zero,-1593(tp) # fffff9c7 <__global_pointer$+0xdffff137>
     cae:	007f                	0x7f
     cb0:	0000                	unimp
     cb2:	0000                	unimp
     cb4:	0000                	unimp
     cb6:	0300                	addi	s0,sp,384
     cb8:	9100                	0x9100
     cba:	7f9c                	flw	fa5,56(a5)
	...
     cc4:	0001                	nop
     cc6:	005f 0000 0000      	0x5f
     ccc:	0000                	unimp
     cce:	0300                	addi	s0,sp,384
     cd0:	9100                	0x9100
     cd2:	7f9c                	flw	fa5,56(a5)
	...
     ce4:	0002                	c.slli64	zero
     ce6:	9f31                	0x9f31
	...
     cf0:	0001                	nop
     cf2:	005a                	c.slli	zero,0x16
     cf4:	0000                	unimp
     cf6:	0000                	unimp
     cf8:	0000                	unimp
     cfa:	0200                	addi	s0,sp,256
     cfc:	3100                	fld	fs0,32(a0)
     cfe:	009f 0000 0000      	0x9f
     d04:	0000                	unimp
     d06:	0100                	addi	s0,sp,128
     d08:	5a00                	lw	s0,48(a2)
	...
     d12:	0001                	nop
     d14:	0000005b          	0x5b
     d18:	0000                	unimp
     d1a:	0000                	unimp
     d1c:	0100                	addi	s0,sp,128
     d1e:	5a00                	lw	s0,48(a2)
	...
     d28:	0001                	nop
     d2a:	005a                	c.slli	zero,0x16
     d2c:	0000                	unimp
     d2e:	0000                	unimp
     d30:	0000                	unimp
     d32:	0100                	addi	s0,sp,128
     d34:	5a00                	lw	s0,48(a2)
	...
     d3e:	0001                	nop
     d40:	005a                	c.slli	zero,0x16
     d42:	0000                	unimp
     d44:	0000                	unimp
     d46:	0000                	unimp
     d48:	0100                	addi	s0,sp,128
     d4a:	5a00                	lw	s0,48(a2)
	...
     d54:	0001                	nop
     d56:	0000005b          	0x5b
	...
     d66:	0300                	addi	s0,sp,384
     d68:	0800                	addi	s0,sp,16
     d6a:	9f20                	0x9f20
	...
     d74:	0001                	nop
     d76:	0058                	addi	a4,sp,4
     d78:	0000                	unimp
     d7a:	0000                	unimp
     d7c:	0000                	unimp
     d7e:	0300                	addi	s0,sp,384
     d80:	0800                	addi	s0,sp,16
     d82:	9f20                	0x9f20
	...
     d8c:	0001                	nop
     d8e:	0058                	addi	a4,sp,4
	...
     d9c:	0000                	unimp
     d9e:	0200                	addi	s0,sp,256
     da0:	3000                	fld	fs0,32(s0)
     da2:	009f 0000 0000      	0x9f
     da8:	0000                	unimp
     daa:	0100                	addi	s0,sp,128
     dac:	5e00                	lw	s0,56(a2)
	...
     db6:	0001                	nop
     db8:	005e                	c.slli	zero,0x17
     dba:	0000                	unimp
     dbc:	0000                	unimp
     dbe:	0000                	unimp
     dc0:	0300                	addi	s0,sp,384
     dc2:	9100                	0x9100
     dc4:	7f98                	flw	fa4,56(a5)
	...
     dce:	0002                	c.slli64	zero
     dd0:	9f30                	0x9f30
	...
     dda:	98910003          	lb	zero,-1655(sp)
     dde:	007f                	0x7f
	...
     dec:	0000                	unimp
     dee:	0200                	addi	s0,sp,256
     df0:	3000                	fld	fs0,32(s0)
     df2:	009f 0000 0000      	0x9f
     df8:	0000                	unimp
     dfa:	0200                	addi	s0,sp,256
     dfc:	3100                	fld	fs0,32(a0)
     dfe:	009f 0000 0000      	0x9f
     e04:	0000                	unimp
     e06:	0100                	addi	s0,sp,128
     e08:	5c00                	lw	s0,56(s0)
	...
     e12:	0002                	c.slli64	zero
     e14:	9f30                	0x9f30
	...
     e1e:	0001                	nop
     e20:	005c                	addi	a5,sp,4
     e22:	0000                	unimp
     e24:	0000                	unimp
     e26:	0000                	unimp
     e28:	0100                	addi	s0,sp,128
     e2a:	5c00                	lw	s0,56(s0)
	...
     e34:	0001                	nop
     e36:	005c                	addi	a5,sp,4
     e38:	0000                	unimp
     e3a:	0000                	unimp
     e3c:	0000                	unimp
     e3e:	0100                	addi	s0,sp,128
     e40:	5c00                	lw	s0,56(s0)
	...
     e52:	48910003          	lb	zero,1161(sp)
     e56:	009f 0000 0000      	0x9f
     e5c:	0000                	unimp
     e5e:	0100                	addi	s0,sp,128
     e60:	5e00                	lw	s0,56(a2)
	...
     e72:	000c                	0xc
     e74:	007d                	c.nop	31
     e76:	ff08                	fsw	fa0,56(a4)
     e78:	081a                	slli	a6,a6,0x6
     e7a:	2975                	jal	1336 <ch32v003fun.c.8affbd33+0x3e1>
     e7c:	ff08                	fsw	fa0,56(a4)
     e7e:	9f1a                	add	t5,t5,t1
	...
     e90:	0002                	c.slli64	zero
     e92:	9f30                	0x9f30
	...
     ea4:	0002                	c.slli64	zero
     ea6:	9f3a                	add	t5,t5,a4
	...
     eb8:	0002                	c.slli64	zero
     eba:	007f                	0x7f
	...
     ecc:	48910003          	lb	zero,1161(sp)
     ed0:	009f 0000 0000      	0x9f
     ed6:	0000                	unimp
     ed8:	0100                	addi	s0,sp,128
     eda:	5e00                	lw	s0,56(a2)
	...
     eec:	0002                	c.slli64	zero
     eee:	9f30                	0x9f30
	...
     f00:	0002                	c.slli64	zero
     f02:	9f3a                	add	t5,t5,a4
	...
     f14:	48910003          	lb	zero,1161(sp)
     f18:	009f 0000 0000      	0x9f
     f1e:	0000                	unimp
     f20:	0100                	addi	s0,sp,128
     f22:	5e00                	lw	s0,56(a2)
	...
     f34:	0002                	c.slli64	zero
     f36:	9f31                	0x9f31
	...
     f48:	0002                	c.slli64	zero
     f4a:	9f30                	0x9f30
	...
     f5c:	0002                	c.slli64	zero
     f5e:	9f3a                	add	t5,t5,a4
	...
     f70:	0002                	c.slli64	zero
     f72:	007f                	0x7f
	...
     f84:	48910003          	lb	zero,1161(sp)
     f88:	009f 0000 0000      	0x9f
     f8e:	0000                	unimp
     f90:	0100                	addi	s0,sp,128
     f92:	5e00                	lw	s0,56(a2)
	...
     f9c:	48910003          	lb	zero,1161(sp)
     fa0:	009f 0000 0000      	0x9f
	...
     fae:	0000                	unimp
     fb0:	0200                	addi	s0,sp,256
     fb2:	3100                	fld	fs0,32(a0)
     fb4:	009f 0000 0000      	0x9f
	...
     fc2:	0000                	unimp
     fc4:	0c00                	addi	s0,sp,528
     fc6:	7d00                	flw	fs0,56(a0)
     fc8:	0800                	addi	s0,sp,16
     fca:	1aff                	0x1aff
     fcc:	5808                	lw	a0,48(s0)
     fce:	0829                	addi	a6,a6,10
     fd0:	1aff                	0x1aff
     fd2:	009f 0000 0000      	0x9f
     fd8:	0000                	unimp
     fda:	0c00                	addi	s0,sp,528
     fdc:	9100                	0x9100
     fde:	01947fab          	0x1947fab
     fe2:	5808                	lw	a0,48(s0)
     fe4:	0829                	addi	a6,a6,10
     fe6:	1aff                	0x1aff
     fe8:	009f 0000 0000      	0x9f
	...
     ff6:	0000                	unimp
     ff8:	0200                	addi	s0,sp,256
     ffa:	4000                	lw	s0,0(s0)
     ffc:	009f 0000 0000      	0x9f
	...
    100a:	0000                	unimp
    100c:	0100                	addi	s0,sp,128
    100e:	5a00                	lw	s0,48(a2)
	...
    1020:	48910003          	lb	zero,1161(sp)
    1024:	009f 0000 0000      	0x9f
    102a:	0000                	unimp
    102c:	0100                	addi	s0,sp,128
    102e:	5e00                	lw	s0,56(a2)
	...
    1038:	48910003          	lb	zero,1161(sp)
    103c:	009f 0000 0000      	0x9f
	...
    104a:	0000                	unimp
    104c:	0200                	addi	s0,sp,256
    104e:	3000                	fld	fs0,32(s0)
    1050:	009f 0000 0000      	0x9f
	...
    105e:	0000                	unimp
    1060:	0100                	addi	s0,sp,128
    1062:	5c00                	lw	s0,56(s0)
	...
    106c:	0004                	0x4
    106e:	9f5c01f3          	0x9f5c01f3
	...
    107a:	000a                	c.slli	zero,0x2
    107c:	007a                	c.slli	zero,0x1e
    107e:	007f                	0x7f
    1080:	f31c                	fsw	fa5,32(a4)
    1082:	5c01                	li	s8,-32
    1084:	9f22                	add	t5,t5,s0
	...
    108e:	007f000b          	0x7f000b
    1092:	f320                	fsw	fs0,96(a4)
    1094:	5c01                	li	s8,-32
    1096:	7a22                	flw	fs4,40(sp)
    1098:	2200                	fld	fs0,0(a2)
    109a:	009f 0000 0000      	0x9f
    10a0:	0000                	unimp
    10a2:	0a00                	addi	s0,sp,272
    10a4:	7a00                	flw	fs0,48(a2)
    10a6:	7f00                	flw	fs0,56(a4)
    10a8:	1c00                	addi	s0,sp,560
    10aa:	225c01f3          	0x225c01f3
    10ae:	009f 0000 0000      	0x9f
	...
    10bc:	0000                	unimp
    10be:	0100                	addi	s0,sp,128
    10c0:	5a00                	lw	s0,48(a2)
	...
    10ca:	0001                	nop
    10cc:	005f 0000 0000      	0x5f
	...
    10da:	0000                	unimp
    10dc:	0100                	addi	s0,sp,128
    10de:	5a00                	lw	s0,48(a2)
	...
    10e8:	0001                	nop
    10ea:	005a                	c.slli	zero,0x16
	...
    10f8:	0000                	unimp
    10fa:	0100                	addi	s0,sp,128
    10fc:	5b00                	lw	s0,48(a4)
	...
    1106:	0001                	nop
    1108:	0000005b          	0x5b
	...
    1118:	0100                	addi	s0,sp,128
    111a:	5a00                	lw	s0,48(a2)
	...
    1124:	0001                	nop
    1126:	005a                	c.slli	zero,0x16
	...
    1134:	0000                	unimp
    1136:	0100                	addi	s0,sp,128
    1138:	5b00                	lw	s0,48(a4)
	...
    1142:	0001                	nop
    1144:	0000005b          	0x5b
	...
    1154:	0100                	addi	s0,sp,128
    1156:	5c00                	lw	s0,56(s0)
	...
    1160:	0004                	0x4
    1162:	9f5c01f3          	0x9f5c01f3
	...
    116e:	0006                	c.slli	zero,0x1
    1170:	315c01f3          	0x315c01f3
    1174:	9f1c                	0x9f1c
	...
    1186:	0001                	nop
    1188:	005a                	c.slli	zero,0x16
    118a:	0000                	unimp
    118c:	0000                	unimp
    118e:	0000                	unimp
    1190:	0100                	addi	s0,sp,128
    1192:	5a00                	lw	s0,48(a2)
	...
    11a4:	0001                	nop
    11a6:	0000005b          	0x5b
    11aa:	0000                	unimp
    11ac:	0000                	unimp
    11ae:	0100                	addi	s0,sp,128
    11b0:	5b00                	lw	s0,48(a4)
	...
    11c2:	0001                	nop
    11c4:	005a                	c.slli	zero,0x16
    11c6:	0000                	unimp
    11c8:	0000                	unimp
    11ca:	0000                	unimp
    11cc:	0400                	addi	s0,sp,512
    11ce:	f300                	fsw	fs0,32(a4)
    11d0:	5a01                	li	s4,-32
    11d2:	009f 0000 0000      	0x9f
    11d8:	0000                	unimp
    11da:	0100                	addi	s0,sp,128
    11dc:	5a00                	lw	s0,48(a2)
	...
    11e6:	0004                	0x4
    11e8:	9f5a01f3          	0x9f5a01f3
	...
    11fc:	0001                	nop
    11fe:	005c                	addi	a5,sp,4
    1200:	0000                	unimp
    1202:	0000                	unimp
    1204:	0000                	unimp
    1206:	0300                	addi	s0,sp,384
    1208:	7c00                	flw	fs0,56(s0)
    120a:	9f7f                	0x9f7f
	...
    1214:	0001                	nop
    1216:	005c                	addi	a5,sp,4
    1218:	0000                	unimp
    121a:	0000                	unimp
    121c:	0000                	unimp
    121e:	0600                	addi	s0,sp,768
    1220:	7c00                	flw	fs0,56(s0)
    1222:	7e00                	flw	fs0,56(a2)
    1224:	1c00                	addi	s0,sp,560
    1226:	009f 0000 0000      	0x9f
    122c:	0000                	unimp
    122e:	0800                	addi	s0,sp,16
    1230:	7c00                	flw	fs0,56(s0)
    1232:	7e00                	flw	fs0,56(a2)
    1234:	1c00                	addi	s0,sp,560
    1236:	009f0123          	sb	s1,2(t5)
    123a:	0000                	unimp
    123c:	0000                	unimp
    123e:	0000                	unimp
    1240:	0300                	addi	s0,sp,384
    1242:	7c00                	flw	fs0,56(s0)
    1244:	9f7f                	0x9f7f
	...
    1256:	0001                	nop
    1258:	005a                	c.slli	zero,0x16
    125a:	0000                	unimp
    125c:	0000                	unimp
    125e:	0000                	unimp
    1260:	0600                	addi	s0,sp,768
    1262:	7a00                	flw	fs0,48(a2)
    1264:	7e00                	flw	fs0,56(a2)
    1266:	2200                	fld	fs0,0(a2)
    1268:	009f 0000 0000      	0x9f
    126e:	0000                	unimp
    1270:	0100                	addi	s0,sp,128
    1272:	5f00                	lw	s0,56(a4)
	...
    127c:	0006                	c.slli	zero,0x1
    127e:	007a                	c.slli	zero,0x1e
    1280:	007e                	c.slli	zero,0x1f
    1282:	9f22                	add	t5,t5,s0
	...
    128c:	0008                	0x8
    128e:	007a                	c.slli	zero,0x1e
    1290:	007e                	c.slli	zero,0x1f
    1292:	3122                	fld	ft2,40(sp)
    1294:	9f1c                	0x9f1c
	...
    129e:	0001                	nop
    12a0:	005a                	c.slli	zero,0x16
    12a2:	0000                	unimp
    12a4:	0000                	unimp
    12a6:	0000                	unimp
    12a8:	0400                	addi	s0,sp,512
    12aa:	f300                	fsw	fs0,32(a4)
    12ac:	5a01                	li	s4,-32
    12ae:	009f 0000 0000      	0x9f
	...
    12bc:	0000                	unimp
    12be:	0100                	addi	s0,sp,128
    12c0:	5b00                	lw	s0,48(a4)
	...
    12ca:	0006                	c.slli	zero,0x1
    12cc:	007e007b          	0x7e007b
    12d0:	9f22                	add	t5,t5,s0
	...
    12da:	0001                	nop
    12dc:	005d                	c.nop	23
    12de:	0000                	unimp
    12e0:	0000                	unimp
    12e2:	0000                	unimp
    12e4:	0600                	addi	s0,sp,768
    12e6:	7b00                	flw	fs0,48(a4)
    12e8:	7e00                	flw	fs0,56(a2)
    12ea:	2200                	fld	fs0,0(a2)
    12ec:	009f 0000 0000      	0x9f
    12f2:	0000                	unimp
    12f4:	0800                	addi	s0,sp,16
    12f6:	7b00                	flw	fs0,48(a4)
    12f8:	7e00                	flw	fs0,56(a2)
    12fa:	2200                	fld	fs0,0(a2)
    12fc:	1c31                	addi	s8,s8,-20
    12fe:	009f 0000 0000      	0x9f
    1304:	0000                	unimp
    1306:	0100                	addi	s0,sp,128
    1308:	5b00                	lw	s0,48(a4)
	...
    131a:	0001                	nop
    131c:	005a                	c.slli	zero,0x16
    131e:	0000                	unimp
    1320:	0000                	unimp
    1322:	0000                	unimp
    1324:	0100                	addi	s0,sp,128
    1326:	5800                	lw	s0,48(s0)
	...
    1330:	0001                	nop
    1332:	0058                	addi	a4,sp,4
	...
    1340:	0000                	unimp
    1342:	0100                	addi	s0,sp,128
    1344:	5b00                	lw	s0,48(a4)
	...
    134e:	0004                	0x4
    1350:	9f5b01f3          	0x9f5b01f3
	...
    135c:	0001                	nop
    135e:	0000005b          	0x5b
    1362:	0000                	unimp
    1364:	0000                	unimp
    1366:	0700                	addi	s0,sp,896
    1368:	f300                	fsw	fs0,32(a4)
    136a:	5b01                	li	s6,-32
    136c:	ff08                	fsw	fa0,56(a4)
    136e:	9f1a                	add	t5,t5,t1
	...
    1378:	0001                	nop
    137a:	0000005b          	0x5b
	...
    138a:	0100                	addi	s0,sp,128
    138c:	5a00                	lw	s0,48(a2)
	...
    1396:	0001                	nop
    1398:	0058                	addi	a4,sp,4
	...
    13a6:	0000                	unimp
    13a8:	0100                	addi	s0,sp,128
    13aa:	5a00                	lw	s0,48(a2)
	...
    13b4:	0001                	nop
    13b6:	0058                	addi	a4,sp,4
    13b8:	0000                	unimp
    13ba:	0000                	unimp
    13bc:	0000                	unimp
    13be:	0300                	addi	s0,sp,384
    13c0:	7800                	flw	fs0,48(s0)
    13c2:	9f01                	0x9f01
	...
    13cc:	0004                	0x4
    13ce:	9f5a01f3          	0x9f5a01f3
	...
    13e2:	0001                	nop
    13e4:	0000005b          	0x5b
    13e8:	0000                	unimp
    13ea:	0000                	unimp
    13ec:	0100                	addi	s0,sp,128
    13ee:	5900                	lw	s0,48(a0)
	...
    13f8:	0004                	0x4
    13fa:	9f5b01f3          	0x9f5b01f3
	...
    140e:	017a0003          	lb	zero,23(s4)
    1412:	009f 0000 0000      	0x9f
    1418:	0000                	unimp
    141a:	0700                	addi	s0,sp,896
    141c:	7800                	flw	fs0,48(s0)
    141e:	2000                	fld	fs0,0(s0)
    1420:	007f                	0x7f
    1422:	9f22                	add	t5,t5,s0
	...
    142c:	00780007          	0x780007
    1430:	7f20                	flw	fs0,120(a4)
    1432:	2200                	fld	fs0,0(a2)
    1434:	009f 0000 0000      	0x9f
    143a:	0000                	unimp
    143c:	0700                	addi	s0,sp,896
    143e:	7800                	flw	fs0,48(s0)
    1440:	2000                	fld	fs0,0(s0)
    1442:	007a                	c.slli	zero,0x1e
    1444:	9f22                	add	t5,t5,s0
	...
    1456:	0001                	nop
    1458:	0059                	c.nop	22
    145a:	0000                	unimp
    145c:	0000                	unimp
    145e:	0000                	unimp
    1460:	0100                	addi	s0,sp,128
    1462:	5900                	lw	s0,48(a0)
	...
    1474:	0001                	nop
    1476:	0058                	addi	a4,sp,4
    1478:	0000                	unimp
    147a:	0000                	unimp
    147c:	0000                	unimp
    147e:	0300                	addi	s0,sp,384
    1480:	7800                	flw	fs0,48(s0)
    1482:	9f01                	0x9f01
	...
    148c:	01780003          	lb	zero,23(a6) # 590b5117 <__global_pointer$+0x390b4887>
    1490:	009f 0000 0000      	0x9f
	...
    149e:	0000                	unimp
    14a0:	0100                	addi	s0,sp,128
    14a2:	5800                	lw	s0,48(s0)
	...
    14ac:	01780003          	lb	zero,23(a6)
    14b0:	009f 0000 0000      	0x9f
    14b6:	0000                	unimp
    14b8:	0400                	addi	s0,sp,512
    14ba:	f300                	fsw	fs0,32(a4)
    14bc:	5a01                	li	s4,-32
    14be:	009f 0000 0000      	0x9f
	...
    14cc:	0000                	unimp
    14ce:	0100                	addi	s0,sp,128
    14d0:	5c00                	lw	s0,56(s0)
	...
    14da:	0006                	c.slli	zero,0x1
    14dc:	007c                	addi	a5,sp,12
    14de:	007f                	0x7f
    14e0:	9f1c                	0x9f1c
	...
    14ea:	0008                	0x8
    14ec:	007c                	addi	a5,sp,12
    14ee:	007f                	0x7f
    14f0:	231c                	fld	fa5,0(a4)
    14f2:	9f01                	0x9f01
	...
    1504:	0001                	nop
    1506:	005a                	c.slli	zero,0x16
    1508:	0000                	unimp
    150a:	0000                	unimp
    150c:	0000                	unimp
    150e:	0600                	addi	s0,sp,768
    1510:	7a00                	flw	fs0,48(a2)
    1512:	7f00                	flw	fs0,56(a4)
    1514:	2200                	fld	fs0,0(a2)
    1516:	009f 0000 0000      	0x9f
    151c:	0000                	unimp
    151e:	0800                	addi	s0,sp,16
    1520:	7a00                	flw	fs0,48(a2)
    1522:	7f00                	flw	fs0,56(a4)
    1524:	2200                	fld	fs0,0(a2)
    1526:	009f0123          	sb	s1,2(t5)
    152a:	0000                	unimp
    152c:	0000                	unimp
    152e:	0000                	unimp
    1530:	0600                	addi	s0,sp,768
    1532:	7a00                	flw	fs0,48(a2)
    1534:	7f00                	flw	fs0,56(a4)
    1536:	2200                	fld	fs0,0(a2)
    1538:	009f 0000 0000      	0x9f
	...
    1546:	0000                	unimp
    1548:	0100                	addi	s0,sp,128
    154a:	5b00                	lw	s0,48(a4)
	...
    1554:	0006                	c.slli	zero,0x1
    1556:	007f007b          	0x7f007b
    155a:	9f22                	add	t5,t5,s0
	...
    1564:	0008                	0x8
    1566:	007f007b          	0x7f007b
    156a:	2322                	fld	ft6,8(sp)
    156c:	9f01                	0x9f01
	...
    1576:	0006                	c.slli	zero,0x1
    1578:	007f007b          	0x7f007b
    157c:	9f22                	add	t5,t5,s0
	...
    158e:	0001                	nop
    1590:	005a                	c.slli	zero,0x16
    1592:	0000                	unimp
    1594:	0000                	unimp
    1596:	0000                	unimp
    1598:	0400                	addi	s0,sp,512
    159a:	f300                	fsw	fs0,32(a4)
    159c:	5a01                	li	s4,-32
    159e:	009f 0000 0000      	0x9f
    15a4:	0000                	unimp
    15a6:	0100                	addi	s0,sp,128
    15a8:	5a00                	lw	s0,48(a2)
	...
    15b2:	0004                	0x4
    15b4:	9f5a01f3          	0x9f5a01f3
	...
    15c8:	0001                	nop
    15ca:	005c                	addi	a5,sp,4
    15cc:	0000                	unimp
    15ce:	0000                	unimp
    15d0:	0000                	unimp
    15d2:	0600                	addi	s0,sp,768
    15d4:	7c00                	flw	fs0,56(s0)
    15d6:	7e00                	flw	fs0,56(a2)
    15d8:	1c00                	addi	s0,sp,560
    15da:	009f 0000 0000      	0x9f
    15e0:	0000                	unimp
    15e2:	0800                	addi	s0,sp,16
    15e4:	7c00                	flw	fs0,56(s0)
    15e6:	7e00                	flw	fs0,56(a2)
    15e8:	1c00                	addi	s0,sp,560
    15ea:	009f0123          	sb	s1,2(t5)
    15ee:	0000                	unimp
    15f0:	0000                	unimp
    15f2:	0000                	unimp
    15f4:	0600                	addi	s0,sp,768
    15f6:	7c00                	flw	fs0,56(s0)
    15f8:	7e00                	flw	fs0,56(a2)
    15fa:	1c00                	addi	s0,sp,560
    15fc:	009f 0000 0000      	0x9f
	...
    160a:	0000                	unimp
    160c:	0100                	addi	s0,sp,128
    160e:	5a00                	lw	s0,48(a2)
	...
    1618:	0006                	c.slli	zero,0x1
    161a:	007a                	c.slli	zero,0x1e
    161c:	007e                	c.slli	zero,0x1f
    161e:	9f22                	add	t5,t5,s0
	...
    1628:	0001                	nop
    162a:	005f 0000 0000      	0x5f
    1630:	0000                	unimp
    1632:	0800                	addi	s0,sp,16
    1634:	7a00                	flw	fs0,48(a2)
    1636:	7e00                	flw	fs0,56(a2)
    1638:	2200                	fld	fs0,0(a2)
    163a:	1c31                	addi	s8,s8,-20
    163c:	009f 0000 0000      	0x9f
    1642:	0000                	unimp
    1644:	0900                	addi	s0,sp,144
    1646:	7e00                	flw	fs0,56(a2)
    1648:	f300                	fsw	fs0,32(a4)
    164a:	5a01                	li	s4,-32
    164c:	3122                	fld	ft2,40(sp)
    164e:	9f1c                	0x9f1c
	...
    1658:	0006                	c.slli	zero,0x1
    165a:	007a                	c.slli	zero,0x1e
    165c:	007e                	c.slli	zero,0x1f
    165e:	9f22                	add	t5,t5,s0
	...
    1668:	01f30007          	0x1f30007
    166c:	7e5a                	flw	ft8,180(sp)
    166e:	2200                	fld	fs0,0(a2)
    1670:	009f 0000 0000      	0x9f
	...
    167e:	0000                	unimp
    1680:	0100                	addi	s0,sp,128
    1682:	5b00                	lw	s0,48(a4)
	...
    168c:	0006                	c.slli	zero,0x1
    168e:	007e007b          	0x7e007b
    1692:	9f22                	add	t5,t5,s0
	...
    169c:	0008                	0x8
    169e:	007e007b          	0x7e007b
    16a2:	3122                	fld	ft2,40(sp)
    16a4:	9f1c                	0x9f1c
	...
    16ae:	0006                	c.slli	zero,0x1
    16b0:	007e007b          	0x7e007b
    16b4:	9f22                	add	t5,t5,s0
	...
    16c6:	0001                	nop
    16c8:	005a                	c.slli	zero,0x16
    16ca:	0000                	unimp
    16cc:	0000                	unimp
    16ce:	0000                	unimp
    16d0:	0400                	addi	s0,sp,512
    16d2:	f300                	fsw	fs0,32(a4)
    16d4:	5a01                	li	s4,-32
    16d6:	009f 0000 0000      	0x9f
    16dc:	0000                	unimp
    16de:	0100                	addi	s0,sp,128
    16e0:	5a00                	lw	s0,48(a2)
	...
    16ea:	0001                	nop
    16ec:	005d                	c.nop	23
    16ee:	0000                	unimp
    16f0:	0000                	unimp
    16f2:	0000                	unimp
    16f4:	0100                	addi	s0,sp,128
    16f6:	5a00                	lw	s0,48(a2)
	...
    1708:	0001                	nop
    170a:	0000005b          	0x5b
    170e:	0000                	unimp
    1710:	0000                	unimp
    1712:	0400                	addi	s0,sp,512
    1714:	f300                	fsw	fs0,32(a4)
    1716:	5b01                	li	s6,-32
    1718:	009f 0000 0000      	0x9f
    171e:	0000                	unimp
    1720:	0100                	addi	s0,sp,128
    1722:	5b00                	lw	s0,48(a4)
	...
    172c:	0001                	nop
    172e:	005e                	c.slli	zero,0x17
    1730:	0000                	unimp
    1732:	0000                	unimp
    1734:	0000                	unimp
    1736:	0400                	addi	s0,sp,512
    1738:	f300                	fsw	fs0,32(a4)
    173a:	5b01                	li	s6,-32
    173c:	009f 0000 0000      	0x9f
    1742:	0000                	unimp
    1744:	0100                	addi	s0,sp,128
    1746:	5b00                	lw	s0,48(a4)
	...
    1758:	0001                	nop
    175a:	005c                	addi	a5,sp,4
    175c:	0000                	unimp
    175e:	0000                	unimp
    1760:	0000                	unimp
    1762:	0400                	addi	s0,sp,512
    1764:	f300                	fsw	fs0,32(a4)
    1766:	5c01                	li	s8,-32
    1768:	009f 0000 0000      	0x9f
    176e:	0000                	unimp
    1770:	0100                	addi	s0,sp,128
    1772:	5c00                	lw	s0,56(s0)
	...
    177c:	0004                	0x4
    177e:	9f5c01f3          	0x9f5c01f3
	...
    178a:	0001                	nop
    178c:	005f 0000 0000      	0x5f
    1792:	0000                	unimp
    1794:	0400                	addi	s0,sp,512
    1796:	f300                	fsw	fs0,32(a4)
    1798:	5c01                	li	s8,-32
    179a:	009f 0000 0000      	0x9f
    17a0:	0000                	unimp
    17a2:	0100                	addi	s0,sp,128
    17a4:	5c00                	lw	s0,56(s0)
	...
    17ae:	0001                	nop
    17b0:	005f 0000 0000      	0x5f
	...
    17be:	0000                	unimp
    17c0:	0100                	addi	s0,sp,128
    17c2:	5a00                	lw	s0,48(a2)
	...
    17cc:	0004                	0x4
    17ce:	9f5a01f3          	0x9f5a01f3
	...
    17da:	0001                	nop
    17dc:	005a                	c.slli	zero,0x16
    17de:	0000                	unimp
    17e0:	0000                	unimp
    17e2:	0000                	unimp
    17e4:	0100                	addi	s0,sp,128
    17e6:	5d00                	lw	s0,56(a0)
	...
    17f0:	0001                	nop
    17f2:	005a                	c.slli	zero,0x16
	...
    1800:	0000                	unimp
    1802:	0100                	addi	s0,sp,128
    1804:	5b00                	lw	s0,48(a4)
	...
    180e:	0004                	0x4
    1810:	9f5b01f3          	0x9f5b01f3
	...
    181c:	0001                	nop
    181e:	0000005b          	0x5b
    1822:	0000                	unimp
    1824:	0000                	unimp
    1826:	0100                	addi	s0,sp,128
    1828:	5e00                	lw	s0,56(a2)
	...
    1832:	0004                	0x4
    1834:	9f5b01f3          	0x9f5b01f3
	...
    1840:	0001                	nop
    1842:	0000005b          	0x5b
	...
    1852:	0100                	addi	s0,sp,128
    1854:	5c00                	lw	s0,56(s0)
	...
    185e:	0001                	nop
    1860:	005f 0000 0000      	0x5f
    1866:	0000                	unimp
    1868:	0600                	addi	s0,sp,768
    186a:	7f00                	flw	fs0,56(a4)
    186c:	7c00                	flw	fs0,56(s0)
    186e:	1c00                	addi	s0,sp,560
    1870:	009f 0000 0000      	0x9f
    1876:	0000                	unimp
    1878:	0800                	addi	s0,sp,16
    187a:	7f00                	flw	fs0,56(a4)
    187c:	7c00                	flw	fs0,56(s0)
    187e:	1c00                	addi	s0,sp,560
    1880:	009f0123          	sb	s1,2(t5)
    1884:	0000                	unimp
    1886:	0000                	unimp
    1888:	0000                	unimp
    188a:	0600                	addi	s0,sp,768
    188c:	7f00                	flw	fs0,56(a4)
    188e:	7c00                	flw	fs0,56(s0)
    1890:	1c00                	addi	s0,sp,560
    1892:	009f 0000 0000      	0x9f
    1898:	0000                	unimp
    189a:	0100                	addi	s0,sp,128
    189c:	5c00                	lw	s0,56(s0)
	...
    18a6:	0001                	nop
    18a8:	005f 0000 0000      	0x5f
	...
    18b6:	0000                	unimp
    18b8:	0100                	addi	s0,sp,128
    18ba:	5b00                	lw	s0,48(a4)
	...
    18c4:	0001                	nop
    18c6:	005e                	c.slli	zero,0x17
    18c8:	0000                	unimp
    18ca:	0000                	unimp
    18cc:	0000                	unimp
    18ce:	0100                	addi	s0,sp,128
    18d0:	5b00                	lw	s0,48(a4)
	...
    18e2:	0001                	nop
    18e4:	005a                	c.slli	zero,0x16
    18e6:	0000                	unimp
    18e8:	0000                	unimp
    18ea:	0000                	unimp
    18ec:	0100                	addi	s0,sp,128
    18ee:	5d00                	lw	s0,56(a0)
	...
    18f8:	0001                	nop
    18fa:	005a                	c.slli	zero,0x16
	...
    1908:	0000                	unimp
    190a:	0800                	addi	s0,sp,16
    190c:	7d00                	flw	fs0,56(a0)
    190e:	7c00                	flw	fs0,56(s0)
    1910:	2200                	fld	fs0,0(a2)
    1912:	009f0123          	sb	s1,2(t5)
    1916:	0000                	unimp
    1918:	0000                	unimp
    191a:	0000                	unimp
    191c:	0600                	addi	s0,sp,768
    191e:	7d00                	flw	fs0,56(a0)
    1920:	7c00                	flw	fs0,56(s0)
    1922:	2200                	fld	fs0,0(a2)
    1924:	009f 0000 0000      	0x9f
	...
    1932:	0000                	unimp
    1934:	0800                	addi	s0,sp,16
    1936:	7e00                	flw	fs0,56(a2)
    1938:	7c00                	flw	fs0,56(s0)
    193a:	2200                	fld	fs0,0(a2)
    193c:	009f0123          	sb	s1,2(t5)
    1940:	0000                	unimp
    1942:	0000                	unimp
    1944:	0000                	unimp
    1946:	0600                	addi	s0,sp,768
    1948:	7e00                	flw	fs0,56(a2)
    194a:	7c00                	flw	fs0,56(s0)
    194c:	2200                	fld	fs0,0(a2)
    194e:	009f 0000 0000      	0x9f
	...
    195c:	0000                	unimp
    195e:	0100                	addi	s0,sp,128
    1960:	5a00                	lw	s0,48(a2)
	...
    196a:	0004                	0x4
    196c:	9f5a01f3          	0x9f5a01f3
	...
    1980:	0001                	nop
    1982:	0000005b          	0x5b
    1986:	0000                	unimp
    1988:	0000                	unimp
    198a:	0100                	addi	s0,sp,128
    198c:	5b00                	lw	s0,48(a4)
	...
    199e:	0001                	nop
    19a0:	005c                	addi	a5,sp,4
    19a2:	0000                	unimp
    19a4:	0000                	unimp
    19a6:	0000                	unimp
    19a8:	0400                	addi	s0,sp,512
    19aa:	f300                	fsw	fs0,32(a4)
    19ac:	5c01                	li	s8,-32
    19ae:	009f 0000 0000      	0x9f
	...
    19bc:	0000                	unimp
    19be:	0100                	addi	s0,sp,128
    19c0:	5a00                	lw	s0,48(a2)
	...
    19d2:	0001                	nop
    19d4:	005a                	c.slli	zero,0x16
    19d6:	0000                	unimp
    19d8:	0000                	unimp
    19da:	0000                	unimp
    19dc:	0100                	addi	s0,sp,128
    19de:	5900                	lw	s0,48(a0)
	...
    19e8:	0004                	0x4
    19ea:	9f5a01f3          	0x9f5a01f3
	...
    19fe:	0001                	nop
    1a00:	0000005b          	0x5b
    1a04:	0000                	unimp
    1a06:	0000                	unimp
    1a08:	0100                	addi	s0,sp,128
    1a0a:	5800                	lw	s0,48(s0)
	...
    1a14:	0004                	0x4
    1a16:	9f5b01f3          	0x9f5b01f3
	...
    1a2a:	0001                	nop
    1a2c:	005a                	c.slli	zero,0x16
	...
    1a3a:	0000                	unimp
    1a3c:	0100                	addi	s0,sp,128
    1a3e:	5a00                	lw	s0,48(a2)
	...
    1a48:	b8910003          	lb	zero,-1143(sp)
    1a4c:	00000077          	0x77
    1a50:	0000                	unimp
    1a52:	0000                	unimp
    1a54:	0300                	addi	s0,sp,384
    1a56:	9100                	0x9100
    1a58:	77b8                	flw	fa4,104(a5)
	...
    1a62:	0004                	0x4
    1a64:	9f5a01f3          	0x9f5a01f3
	...
    1a70:	0001                	nop
    1a72:	0058                	addi	a4,sp,4
    1a74:	0000                	unimp
    1a76:	0000                	unimp
    1a78:	0000                	unimp
    1a7a:	0300                	addi	s0,sp,384
    1a7c:	9100                	0x9100
    1a7e:	77b8                	flw	fa4,104(a5)
	...
    1a88:	0001                	nop
    1a8a:	0058                	addi	a4,sp,4
    1a8c:	0000                	unimp
    1a8e:	0000                	unimp
    1a90:	0000                	unimp
    1a92:	0100                	addi	s0,sp,128
    1a94:	5700                	lw	s0,40(a4)
	...
    1a9e:	0001                	nop
    1aa0:	0058                	addi	a4,sp,4
	...
    1aae:	0000                	unimp
    1ab0:	0100                	addi	s0,sp,128
    1ab2:	5b00                	lw	s0,48(a4)
	...
    1abc:	0002                	c.slli64	zero
    1abe:	0072                	c.slli	zero,0x1c
	...
    1ac8:	0004                	0x4
    1aca:	9f5b01f3          	0x9f5b01f3
	...
    1ad6:	0002                	c.slli64	zero
    1ad8:	0072                	c.slli	zero,0x1c
	...
    1ae2:	0004                	0x4
    1ae4:	9f5b01f3          	0x9f5b01f3
	...
    1af0:	0002                	c.slli64	zero
    1af2:	0072                	c.slli	zero,0x1c
	...
    1afc:	0004                	0x4
    1afe:	9f5b01f3          	0x9f5b01f3
	...
    1b12:	0001                	nop
    1b14:	0056                	c.slli	zero,0x15
    1b16:	0000                	unimp
    1b18:	0000                	unimp
    1b1a:	0000                	unimp
    1b1c:	0300                	addi	s0,sp,384
    1b1e:	9100                	0x9100
    1b20:	77c0                	flw	fs0,44(a5)
	...
    1b2a:	0001                	nop
    1b2c:	005a                	c.slli	zero,0x16
    1b2e:	0000                	unimp
    1b30:	0000                	unimp
    1b32:	0000                	unimp
    1b34:	0100                	addi	s0,sp,128
    1b36:	5600                	lw	s0,40(a2)
	...
    1b40:	0001                	nop
    1b42:	0056                	c.slli	zero,0x15
	...
    1b50:	0000                	unimp
    1b52:	0200                	addi	s0,sp,256
    1b54:	3000                	fld	fs0,32(s0)
    1b56:	009f 0000 0000      	0x9f
    1b5c:	0000                	unimp
    1b5e:	0100                	addi	s0,sp,128
    1b60:	5900                	lw	s0,48(a0)
	...
    1b6a:	0001                	nop
    1b6c:	0059                	c.nop	22
    1b6e:	0000                	unimp
    1b70:	0000                	unimp
    1b72:	0000                	unimp
    1b74:	0300                	addi	s0,sp,384
    1b76:	7900                	flw	fs0,48(a0)
    1b78:	9f7f                	0x9f7f
	...
    1b82:	0001                	nop
    1b84:	0059                	c.nop	22
	...
    1b92:	0000                	unimp
    1b94:	0100                	addi	s0,sp,128
    1b96:	5b00                	lw	s0,48(a4)
	...
    1ba0:	0001                	nop
    1ba2:	005d                	c.nop	23
    1ba4:	0000                	unimp
    1ba6:	0000                	unimp
    1ba8:	0000                	unimp
    1baa:	0300                	addi	s0,sp,384
    1bac:	7c00                	flw	fs0,56(s0)
    1bae:	9f7f                	0x9f7f
	...
    1bb8:	0001                	nop
    1bba:	0000005b          	0x5b
    1bbe:	0000                	unimp
    1bc0:	0000                	unimp
    1bc2:	0100                	addi	s0,sp,128
    1bc4:	5500                	lw	s0,40(a0)
	...
    1bce:	0001                	nop
    1bd0:	005d                	c.nop	23
    1bd2:	0000                	unimp
    1bd4:	0000                	unimp
    1bd6:	0000                	unimp
    1bd8:	0100                	addi	s0,sp,128
    1bda:	5800                	lw	s0,48(s0)
	...
    1bec:	0001                	nop
    1bee:	0055                	c.nop	21
    1bf0:	0000                	unimp
    1bf2:	0000                	unimp
    1bf4:	0000                	unimp
    1bf6:	0100                	addi	s0,sp,128
    1bf8:	5500                	lw	s0,40(a0)
	...
    1c02:	0001                	nop
    1c04:	0055                	c.nop	21
    1c06:	0000                	unimp
    1c08:	0000                	unimp
    1c0a:	0000                	unimp
    1c0c:	0100                	addi	s0,sp,128
    1c0e:	5800                	lw	s0,48(s0)
	...
    1c18:	0001                	nop
    1c1a:	0055                	c.nop	21
    1c1c:	0000                	unimp
    1c1e:	0000                	unimp
    1c20:	0000                	unimp
    1c22:	0100                	addi	s0,sp,128
    1c24:	5c00                	lw	s0,56(s0)
	...
    1c2e:	0001                	nop
    1c30:	0058                	addi	a4,sp,4
    1c32:	0000                	unimp
    1c34:	0000                	unimp
    1c36:	0000                	unimp
    1c38:	0100                	addi	s0,sp,128
    1c3a:	5800                	lw	s0,48(s0)
	...
    1c44:	0001                	nop
    1c46:	0058                	addi	a4,sp,4
    1c48:	0000                	unimp
    1c4a:	0000                	unimp
    1c4c:	0000                	unimp
    1c4e:	0100                	addi	s0,sp,128
    1c50:	5700                	lw	s0,40(a4)
	...
    1c62:	0001                	nop
    1c64:	005f 0000 0000      	0x5f
    1c6a:	0000                	unimp
    1c6c:	0100                	addi	s0,sp,128
    1c6e:	5f00                	lw	s0,56(a4)
	...
    1c78:	0001                	nop
    1c7a:	005f 0000 0000      	0x5f
    1c80:	0000                	unimp
    1c82:	0100                	addi	s0,sp,128
    1c84:	5c00                	lw	s0,56(s0)
	...
    1c8e:	0001                	nop
    1c90:	005c                	addi	a5,sp,4
    1c92:	0000                	unimp
    1c94:	0000                	unimp
    1c96:	0000                	unimp
    1c98:	1600                	addi	s0,sp,800
    1c9a:	7500                	flw	fs0,40(a0)
    1c9c:	1200                	addi	s0,sp,288
    1c9e:	4b40                	lw	s0,20(a4)
    1ca0:	2224                	fld	fs1,64(a2)
    1ca2:	007c                	addi	a5,sp,12
    1ca4:	1416                	slli	s0,s0,0x25
    1ca6:	4b40                	lw	s0,20(a4)
    1ca8:	2224                	fld	fs1,64(a2)
    1caa:	0001282b          	0x1282b
    1cae:	1316                	slli	t1,t1,0x25
    1cb0:	009f 0000 0000      	0x9f
    1cb6:	0000                	unimp
    1cb8:	0100                	addi	s0,sp,128
    1cba:	5f00                	lw	s0,56(a4)
	...
    1cc4:	0002                	c.slli64	zero
    1cc6:	9f31                	0x9f31
	...
    1cd0:	0001                	nop
    1cd2:	005c                	addi	a5,sp,4
    1cd4:	0000                	unimp
    1cd6:	0000                	unimp
    1cd8:	0000                	unimp
    1cda:	0100                	addi	s0,sp,128
    1cdc:	5c00                	lw	s0,56(s0)
	...
    1ce6:	0001                	nop
    1ce8:	005c                	addi	a5,sp,4
    1cea:	0000                	unimp
    1cec:	0000                	unimp
    1cee:	0000                	unimp
    1cf0:	0200                	addi	s0,sp,256
    1cf2:	3100                	fld	fs0,32(a0)
    1cf4:	009f 0000 0000      	0x9f
    1cfa:	0000                	unimp
    1cfc:	0100                	addi	s0,sp,128
    1cfe:	5c00                	lw	s0,56(s0)
	...
    1d08:	0001                	nop
    1d0a:	0000005b          	0x5b
    1d0e:	0000                	unimp
    1d10:	0000                	unimp
    1d12:	0100                	addi	s0,sp,128
    1d14:	5b00                	lw	s0,48(a4)
	...
    1d1e:	0001                	nop
    1d20:	005c                	addi	a5,sp,4
    1d22:	0000                	unimp
    1d24:	0000                	unimp
    1d26:	0000                	unimp
    1d28:	0300                	addi	s0,sp,384
    1d2a:	7c00                	flw	fs0,56(s0)
    1d2c:	9f01                	0x9f01
	...
    1d3e:	0001                	nop
    1d40:	005a                	c.slli	zero,0x16
    1d42:	0000                	unimp
    1d44:	0000                	unimp
    1d46:	0000                	unimp
    1d48:	0100                	addi	s0,sp,128
    1d4a:	5a00                	lw	s0,48(a2)
	...
    1d54:	0001                	nop
    1d56:	005a                	c.slli	zero,0x16
    1d58:	0000                	unimp
    1d5a:	0000                	unimp
    1d5c:	0000                	unimp
    1d5e:	0100                	addi	s0,sp,128
    1d60:	5f00                	lw	s0,56(a4)
	...
    1d6a:	0001                	nop
    1d6c:	005f 0000 0000      	0x5f
    1d72:	0000                	unimp
    1d74:	0300                	addi	s0,sp,384
    1d76:	9100                	0x9100
    1d78:	77b8                	flw	fa4,104(a5)
	...
    1d82:	0001                	nop
    1d84:	005f 0000 0000      	0x5f
    1d8a:	0000                	unimp
    1d8c:	0100                	addi	s0,sp,128
    1d8e:	5f00                	lw	s0,56(a4)
	...
    1d98:	c4910003          	lb	zero,-951(sp)
    1d9c:	00000077          	0x77
    1da0:	0000                	unimp
    1da2:	0000                	unimp
    1da4:	0100                	addi	s0,sp,128
    1da6:	5f00                	lw	s0,56(a4)
	...
    1db0:	0001                	nop
    1db2:	005a                	c.slli	zero,0x16
    1db4:	0000                	unimp
    1db6:	0000                	unimp
    1db8:	0000                	unimp
    1dba:	0200                	addi	s0,sp,256
    1dbc:	3100                	fld	fs0,32(a0)
    1dbe:	009f 0000 0000      	0x9f
    1dc4:	0000                	unimp
    1dc6:	0100                	addi	s0,sp,128
    1dc8:	5f00                	lw	s0,56(a4)
	...
    1dd2:	0001                	nop
    1dd4:	005f 0000 0000      	0x5f
    1dda:	0000                	unimp
    1ddc:	0100                	addi	s0,sp,128
    1dde:	5f00                	lw	s0,56(a4)
	...
    1de8:	0002                	c.slli64	zero
    1dea:	9f31                	0x9f31
	...
    1df4:	0001                	nop
    1df6:	005f 0000 0000      	0x5f
	...
    1e04:	0000                	unimp
    1e06:	0100                	addi	s0,sp,128
    1e08:	5d00                	lw	s0,56(a0)
	...
    1e12:	c0910003          	lb	zero,-1015(sp)
    1e16:	00000077          	0x77
    1e1a:	0000                	unimp
    1e1c:	0000                	unimp
    1e1e:	0100                	addi	s0,sp,128
    1e20:	5d00                	lw	s0,56(a0)
	...
    1e2a:	c8910003          	lb	zero,-887(sp)
    1e2e:	00000077          	0x77
    1e32:	0000                	unimp
    1e34:	0000                	unimp
    1e36:	0100                	addi	s0,sp,128
    1e38:	5d00                	lw	s0,56(a0)
	...
    1e42:	0001                	nop
    1e44:	005d                	c.nop	23
	...
    1e52:	0000                	unimp
    1e54:	0200                	addi	s0,sp,256
    1e56:	3000                	fld	fs0,32(s0)
    1e58:	009f 0000 0000      	0x9f
    1e5e:	0000                	unimp
    1e60:	0100                	addi	s0,sp,128
    1e62:	5500                	lw	s0,40(a0)
	...
    1e6c:	cc910003          	lb	zero,-823(sp)
    1e70:	00000077          	0x77
    1e74:	0000                	unimp
    1e76:	0000                	unimp
    1e78:	0100                	addi	s0,sp,128
    1e7a:	5500                	lw	s0,40(a0)
	...
    1e84:	0002                	c.slli64	zero
    1e86:	9f30                	0x9f30
	...
    1e90:	0001                	nop
    1e92:	0055                	c.nop	21
    1e94:	0000                	unimp
    1e96:	0000                	unimp
    1e98:	0000                	unimp
    1e9a:	0200                	addi	s0,sp,256
    1e9c:	3000                	fld	fs0,32(s0)
    1e9e:	009f 0000 0000      	0x9f
    1ea4:	0000                	unimp
    1ea6:	0100                	addi	s0,sp,128
    1ea8:	5500                	lw	s0,40(a0)
	...
    1eb2:	0002                	c.slli64	zero
    1eb4:	9f30                	0x9f30
	...
    1ebe:	0001                	nop
    1ec0:	0055                	c.nop	21
	...
    1ece:	0000                	unimp
    1ed0:	0200                	addi	s0,sp,256
    1ed2:	3000                	fld	fs0,32(s0)
    1ed4:	009f 0000 0000      	0x9f
	...
    1ee2:	0000                	unimp
    1ee4:	0100                	addi	s0,sp,128
    1ee6:	5c00                	lw	s0,56(s0)
	...
    1ef0:	bc910003          	lb	zero,-1079(sp)
    1ef4:	00000077          	0x77
    1ef8:	0000                	unimp
    1efa:	0000                	unimp
    1efc:	0300                	addi	s0,sp,384
    1efe:	9100                	0x9100
    1f00:	77bc                	flw	fa5,104(a5)
	...
    1f12:	0001                	nop
    1f14:	005a                	c.slli	zero,0x16
    1f16:	0000                	unimp
    1f18:	0000                	unimp
    1f1a:	0000                	unimp
    1f1c:	0100                	addi	s0,sp,128
    1f1e:	5a00                	lw	s0,48(a2)
	...
    1f30:	0001                	nop
    1f32:	005a                	c.slli	zero,0x16
    1f34:	0000                	unimp
    1f36:	0000                	unimp
    1f38:	0000                	unimp
    1f3a:	0400                	addi	s0,sp,512
    1f3c:	f300                	fsw	fs0,32(a4)
    1f3e:	5a01                	li	s4,-32
    1f40:	009f 0000 0000      	0x9f
    1f46:	0000                	unimp
    1f48:	0100                	addi	s0,sp,128
    1f4a:	5a00                	lw	s0,48(a2)
	...
    1f54:	0001                	nop
    1f56:	005a                	c.slli	zero,0x16
	...
    1f64:	0000                	unimp
    1f66:	0100                	addi	s0,sp,128
    1f68:	5b00                	lw	s0,48(a4)
	...
    1f72:	0001                	nop
    1f74:	0058                	addi	a4,sp,4
    1f76:	0000                	unimp
    1f78:	0000                	unimp
    1f7a:	0000                	unimp
    1f7c:	0100                	addi	s0,sp,128
    1f7e:	5b00                	lw	s0,48(a4)
	...
    1f88:	0004                	0x4
    1f8a:	9f5b01f3          	0x9f5b01f3
	...
    1f96:	0001                	nop
    1f98:	0058                	addi	a4,sp,4
    1f9a:	0000                	unimp
    1f9c:	0000                	unimp
    1f9e:	0000                	unimp
    1fa0:	0400                	addi	s0,sp,512
    1fa2:	f300                	fsw	fs0,32(a4)
    1fa4:	5b01                	li	s6,-32
    1fa6:	009f 0000 0000      	0x9f
	...
    1fb4:	0000                	unimp
    1fb6:	0100                	addi	s0,sp,128
    1fb8:	5800                	lw	s0,48(s0)
	...
    1fca:	0001                	nop
    1fcc:	005a                	c.slli	zero,0x16
    1fce:	0000                	unimp
    1fd0:	0000                	unimp
    1fd2:	0000                	unimp
    1fd4:	0100                	addi	s0,sp,128
    1fd6:	5f00                	lw	s0,56(a4)
	...
    1fe0:	017f0003          	lb	zero,23(t5)
    1fe4:	009f 0000 0000      	0x9f
    1fea:	0000                	unimp
    1fec:	0100                	addi	s0,sp,128
    1fee:	5f00                	lw	s0,56(a4)
	...
    2000:	0019                	c.nop	6
    2002:	0078                	addi	a4,sp,12
    2004:	0294                	addi	a3,sp,320
    2006:	1438                	addi	a4,sp,552
    2008:	1f14                	addi	a3,sp,944
    200a:	0a241023          	sh	sp,160(s0) # fffe40a0 <__global_pointer$+0xdffe3810>
    200e:	ffff                	0xffff
    2010:	171a                	slli	a4,a4,0x26
    2012:	0a16                	slli	s4,s4,0x5
    2014:	ffff                	0xffff
    2016:	161a                	slli	a2,a2,0x26
    2018:	2125                	jal	2440 <main_sw.c.c9eed32e+0x5b1>
    201a:	009f 0000 0000      	0x9f
	...
    2028:	0000                	unimp
    202a:	0100                	addi	s0,sp,128
    202c:	5e00                	lw	s0,56(a2)
	...
    2036:	0001                	nop
    2038:	005e                	c.slli	zero,0x17
	...
    2046:	0000                	unimp
    2048:	0100                	addi	s0,sp,128
    204a:	5800                	lw	s0,48(s0)
	...
    205c:	0001                	nop
    205e:	005a                	c.slli	zero,0x16
    2060:	0000                	unimp
    2062:	0000                	unimp
    2064:	0000                	unimp
    2066:	0100                	addi	s0,sp,128
    2068:	5f00                	lw	s0,56(a4)
	...
    2072:	027f0003          	lb	zero,39(t5)
    2076:	009f 0000 0000      	0x9f
    207c:	0000                	unimp
    207e:	0100                	addi	s0,sp,128
    2080:	5f00                	lw	s0,56(a4)
	...
    2092:	0001                	nop
    2094:	005c                	addi	a5,sp,4
	...
    20a2:	0000                	unimp
    20a4:	0100                	addi	s0,sp,128
    20a6:	5e00                	lw	s0,56(a2)
	...
    20b0:	0001                	nop
    20b2:	005e                	c.slli	zero,0x17
	...
    20c0:	0000                	unimp
    20c2:	0100                	addi	s0,sp,128
    20c4:	5800                	lw	s0,48(s0)
	...
    20ce:	0001                	nop
    20d0:	0058                	addi	a4,sp,4
	...
    20de:	0000                	unimp
    20e0:	0100                	addi	s0,sp,128
    20e2:	5a00                	lw	s0,48(a2)
	...
    20ec:	0001                	nop
    20ee:	005f 0000 0000      	0x5f
    20f4:	0000                	unimp
    20f6:	0100                	addi	s0,sp,128
    20f8:	5f00                	lw	s0,56(a4)
	...
    210a:	0001                	nop
    210c:	005d                	c.nop	23
    210e:	0000                	unimp
    2110:	0000                	unimp
    2112:	0000                	unimp
    2114:	0100                	addi	s0,sp,128
    2116:	5d00                	lw	s0,56(a0)
	...
    2128:	0001                	nop
    212a:	005e                	c.slli	zero,0x17
    212c:	0000                	unimp
    212e:	0000                	unimp
    2130:	0000                	unimp
    2132:	0100                	addi	s0,sp,128
    2134:	5e00                	lw	s0,56(a2)
	...
    213e:	0001                	nop
    2140:	005e                	c.slli	zero,0x17
	...
    214e:	0000                	unimp
    2150:	0100                	addi	s0,sp,128
    2152:	5a00                	lw	s0,48(a2)
	...
    215c:	0001                	nop
    215e:	0059                	c.nop	22
    2160:	0000                	unimp
    2162:	0000                	unimp
    2164:	0000                	unimp
    2166:	0400                	addi	s0,sp,512
    2168:	f300                	fsw	fs0,32(a4)
    216a:	5a01                	li	s4,-32
    216c:	009f 0000 0000      	0x9f
	...
    217a:	0000                	unimp
    217c:	0100                	addi	s0,sp,128
    217e:	5800                	lw	s0,48(s0)
	...
    2188:	7f7a0003          	lb	zero,2039(s4)
    218c:	009f 0000 0000      	0x9f
	...
    219a:	0000                	unimp
    219c:	0100                	addi	s0,sp,128
    219e:	5a00                	lw	s0,48(a2)
	...
    21a8:	0004                	0x4
    21aa:	9f5a01f3          	0x9f5a01f3
	...
    21b6:	0001                	nop
    21b8:	005a                	c.slli	zero,0x16
    21ba:	0000                	unimp
    21bc:	0000                	unimp
    21be:	0000                	unimp
    21c0:	0400                	addi	s0,sp,512
    21c2:	f300                	fsw	fs0,32(a4)
    21c4:	5a01                	li	s4,-32
    21c6:	009f 0000 0000      	0x9f
	...
    21d4:	0000                	unimp
    21d6:	0400                	addi	s0,sp,512
    21d8:	0a00                	addi	s0,sp,272
    21da:	3e80                	fld	fs0,56(a3)
    21dc:	009f 0000 0000      	0x9f
    21e2:	0000                	unimp
    21e4:	0300                	addi	s0,sp,384
    21e6:	7f00                	flw	fs0,56(a4)
    21e8:	9f7f                	0x9f7f
	...
    21f2:	7e7f0003          	lb	zero,2023(t5)
    21f6:	009f 0000 0000      	0x9f
    21fc:	0000                	unimp
    21fe:	0300                	addi	s0,sp,384
    2200:	7f00                	flw	fs0,56(a4)
    2202:	9f7f                	0x9f7f
	...

Disassembly of section .debug_aranges:

00000000 <.debug_aranges>:
	asm volatile( "\n\
   0:	0104                	addi	s1,sp,128
   2:	0000                	unimp
   4:	0002                	c.slli64	zero
   6:	0000                	unimp
   8:	0000                	unimp
   a:	0004                	0x4
	...
  28:	00c4                	addi	s1,sp,68
  2a:	0000                	unimp
  2c:	0050                	addi	a2,sp,4
  2e:	0000                	unimp
  30:	0114                	addi	a3,sp,128
  32:	0000                	unimp
  34:	0090                	addi	a2,sp,64
	...
  46:	0000                	unimp
  48:	01a4                	addi	s1,sp,200
  4a:	0000                	unimp
  4c:	01d4                	addi	a3,sp,196
  4e:	0000                	unimp
  50:	0378                	addi	a4,sp,396
  52:	0000                	unimp
  54:	0072                	c.slli	zero,0x1c
  56:	0000                	unimp
  58:	03ea                	slli	t2,t2,0x1a
  5a:	0000                	unimp
  5c:	0002                	c.slli64	zero
	...
	else if (pin <= pin_C7) {
  ea:	0000                	unimp
  ec:	009c                	addi	a5,sp,64
	...
		GPIOx = GPIOC;
  f6:	0000                	unimp
  f8:	03ec                	addi	a1,sp,460
	else if (pin <= pin_D7) {
  fa:	0000                	unimp
  fc:	02d0                	addi	a2,sp,324
	...
		GPIOx = GPIOD;
 106:	0000                	unimp
		PinOffset = (pin - 10);
 108:	001c                	0x1c
		GPIOx = GPIOD;
 10a:	0000                	unimp
 10c:	0002                	c.slli64	zero
 10e:	2e3a                	fld	ft8,392(sp)
		GPIOx-> BSHR |= 1 << (16 + PinOffset);
 110:	0000                	unimp
 112:	0004                	0x4
	if (pin <= pin_A2) {
 114:	0000                	unimp
 116:	0000                	unimp
 118:	00a0                	addi	s0,sp,72
		PinOffset *= (pin + 1);
 11a:	0000                	unimp
 11c:	0024                	addi	s1,sp,8
	...

Disassembly of section .debug_ranges:

00000000 <.debug_ranges>:
   0:	0001                	nop
   2:	0000                	unimp
   4:	0001                	nop
   6:	0000                	unimp
   8:	0001                	nop
   a:	0000                	unimp
   c:	0001                	nop
   e:	0000                	unimp
  10:	0001                	nop
  12:	0000                	unimp
  14:	0001                	nop
  16:	0000                	unimp
  18:	0001                	nop
  1a:	0000                	unimp
  1c:	0001                	nop
	...
  26:	0000                	unimp
  28:	0001                	nop
  2a:	0000                	unimp
  2c:	0001                	nop
  2e:	0000                	unimp
  30:	0001                	nop
  32:	0000                	unimp
  34:	0001                	nop
	...
  3e:	0000                	unimp
  40:	0001                	nop
  42:	0000                	unimp
  44:	0001                	nop
  46:	0000                	unimp
  48:	0001                	nop
  4a:	0000                	unimp
  4c:	0001                	nop
	...
  56:	0000                	unimp
  58:	01a4                	addi	s1,sp,200
  5a:	0000                	unimp
  5c:	01a4                	addi	s1,sp,200
  5e:	0000                	unimp
  60:	01ac                	addi	a1,sp,200
  62:	0000                	unimp
  64:	01f2                	slli	gp,gp,0x1c
	...
  6e:	0000                	unimp
  70:	02ae                	slli	t0,t0,0xb
  72:	0000                	unimp
  74:	02b4                	addi	a3,sp,328
  76:	0000                	unimp
  78:	02b8                	addi	a4,sp,328
  7a:	0000                	unimp
  7c:	02be                	slli	t0,t0,0xf
	...
  86:	0000                	unimp
  88:	02be                	slli	t0,t0,0xf
  8a:	0000                	unimp
  8c:	02c0                	addi	s0,sp,324
  8e:	0000                	unimp
  90:	02c8                	addi	a0,sp,324
  92:	0000                	unimp
  94:	02ce                	slli	t0,t0,0x13
	...
  9e:	0000                	unimp
  a0:	02c0                	addi	s0,sp,324
  a2:	0000                	unimp
  a4:	02c8                	addi	a0,sp,324
  a6:	0000                	unimp
  a8:	02e2                	slli	t0,t0,0x18
  aa:	0000                	unimp
  ac:	02f8                	addi	a4,sp,332
  ae:	0000                	unimp
  b0:	02f8                	addi	a4,sp,332
  b2:	0000                	unimp
  b4:	0344                	addi	s1,sp,388
  b6:	0000                	unimp
  b8:	0346                	slli	t1,t1,0x11
  ba:	0000                	unimp
  bc:	0376                	slli	t1,t1,0x1d
	...
	if (pin <= pin_A2) {
  c6:	0000                	unimp
  c8:	02c4                	addi	s1,sp,324
		PinOffset = (pin + 1);
  ca:	0000                	unimp
  cc:	02c8                	addi	a0,sp,324
		GPIOx = GPIOA;
  ce:	0000                	unimp
  d0:	02e6                	slli	t0,t0,0x19
		PinOffset = (pin + 1);
  d2:	0000                	unimp
		GPIOx = GPIOA;
  d4:	02ea                	slli	t0,t0,0x1a
  d6:	0000                	unimp
		GPIOx-> BSHR |= 1 << PinOffset;
  d8:	02f8                	addi	a4,sp,332
	if (value) {
  da:	0000                	unimp
		GPIOx-> BSHR |= 1 << (16 + PinOffset);
  dc:	0310                	addi	a2,sp,384
	...
}
  e6:	0000                	unimp
	else if (pin <= pin_C7) {
  e8:	02ea                	slli	t0,t0,0x1a
  ea:	0000                	unimp
  ec:	02ee                	slli	t0,t0,0x1b
		PinOffset = (pin - 2);
  ee:	0000                	unimp
  f0:	0310                	addi	a2,sp,384
  f2:	0000                	unimp
		GPIOx = GPIOC;
  f4:	0314                	addi	a3,sp,384
  f6:	0000                	unimp
  f8:	031a                	slli	t1,t1,0x6
	else if (pin <= pin_D7) {
  fa:	0000                	unimp
  fc:	031c                	addi	a5,sp,384
  fe:	0000                	unimp
		PinOffset = (pin - 10);
 100:	031e                	slli	t1,t1,0x7
 102:	0000                	unimp
		GPIOx = GPIOD;
 104:	0340                	addi	s0,sp,388
	...
 10e:	0000                	unimp
		GPIOx-> BSHR |= 1 << (16 + PinOffset);
 110:	0346                	slli	t1,t1,0x11
 112:	0000                	unimp
	if (pin <= pin_A2) {
 114:	0348                	addi	a0,sp,388
 116:	0000                	unimp
 118:	034c                	addi	a1,sp,388
		PinOffset *= (pin + 1);
 11a:	0000                	unimp
 11c:	0372                	slli	t1,t1,0x1c
	...
 126:	0000                	unimp
		GPIOx = GPIOA;
 128:	0001                	nop
 12a:	0000                	unimp
	GPIOx->CFGLR &= ~(0b1111<<PinOffset);							// zero the 4 configuration bits
 12c:	0001                	nop
 12e:	0000                	unimp
 130:	0001                	nop
 132:	0000                	unimp
 134:	0001                	nop
	...
	switch (mode) {
 13e:	0000                	unimp
 140:	0001                	nop
 142:	0000                	unimp
 144:	0001                	nop
 146:	0000                	unimp
 148:	0001                	nop
	GPIOx->CFGLR |= modeMask<<PinOffset;
 14a:	0000                	unimp
 14c:	0001                	nop
 14e:	0000                	unimp
 150:	0001                	nop
 152:	0000                	unimp
 154:	0001                	nop
 156:	0000                	unimp
 158:	0001                	nop
 15a:	0000                	unimp
 15c:	0001                	nop
 15e:	0000                	unimp
 160:	0001                	nop
 162:	0000                	unimp
 164:	0001                	nop
	if (target_pin_state > pinState_nochange) {
 166:	0000                	unimp
		digitalWrite(pin, target_pin_state - 1);
 168:	0001                	nop
 16a:	0000                	unimp
 16c:	0001                	nop
 16e:	0000                	unimp
 170:	0001                	nop
	else if (pin <= pin_C7) {
 172:	0000                	unimp
 174:	0001                	nop
	...
		PinOffset *= (pin - 2);
 17e:	0000                	unimp
 180:	0001                	nop
		GPIOx = GPIOC;
 182:	0000                	unimp
 184:	0001                	nop
 186:	0000                	unimp
	else if (pin <= pin_D7) {
 188:	0001                	nop
 18a:	0000                	unimp
 18c:	0001                	nop
		PinOffset *= (pin - 10);
 18e:	0000                	unimp
 190:	0001                	nop
 192:	0000                	unimp
 194:	0001                	nop
		GPIOx = GPIOD;
 196:	0000                	unimp
 198:	0001                	nop
		PinOffset *= (pin - 10);
 19a:	0000                	unimp
		GPIOx = GPIOD;
 19c:	0001                	nop
 19e:	0000                	unimp
 1a0:	0001                	nop
}
 1a2:	0000                	unimp
int main() {
 1a4:	0001                	nop
	...
	RCC->CFGR0 = RCC_HPRE_DIV1 | RCC_PLLSRC_HSI_Mul2;      // PLLCLK = HSI * 2 = 48 MHz; HCLK = SYSCLK = APB1
 1ae:	0000                	unimp
	RCC->CTLR  = RCC_HSION | RCC_PLLON | ((HSITRIM) << 3); // Use HSI, but enable PLL.
 1b0:	0001                	nop
 1b2:	0000                	unimp
	RCC->CFGR0 = RCC_HPRE_DIV1 | RCC_PLLSRC_HSI_Mul2;      // PLLCLK = HSI * 2 = 48 MHz; HCLK = SYSCLK = APB1
 1b4:	0001                	nop
 1b6:	0000                	unimp
	RCC->CTLR  = RCC_HSION | RCC_PLLON | ((HSITRIM) << 3); // Use HSI, but enable PLL.
 1b8:	0001                	nop
 1ba:	0000                	unimp
 1bc:	0001                	nop
	...
	RCC->INTR  = 0x009F0000;                               // Clear PLL, CSSC, HSE, HSI and LSI ready flags.
 1c6:	0000                	unimp
 1c8:	0001                	nop
 1ca:	0000                	unimp
	while((RCC->CTLR & RCC_PLLRDY) == 0);                                      // Wait till PLL is ready
 1cc:	0001                	nop
 1ce:	0000                	unimp
 1d0:	0001                	nop
 1d2:	0000                	unimp
 1d4:	0001                	nop
 1d6:	0000                	unimp
 1d8:	0001                	nop
	RCC->CFGR0 = ( RCC->CFGR0 & ((uint32_t)~(RCC_SW))) | (uint32_t)RCC_SW_PLL; // Select PLL as system clock source
 1da:	0000                	unimp
	while ((RCC->CFGR0 & (uint32_t)RCC_SWS) != (uint32_t)0x08);                // Wait till PLL is used as system clock source
 1dc:	0001                	nop
	...
 1e6:	0000                	unimp
 1e8:	0001                	nop
 1ea:	0000                	unimp
 1ec:	0001                	nop
 1ee:	0000                	unimp
 1f0:	0001                	nop
	SysTick->CTLR = 0;
 1f2:	0000                	unimp
 1f4:	0001                	nop
	...
 1fe:	0000                	unimp
 200:	0001                	nop
 202:	0000                	unimp
	SysTick->CMP = (SYSTEM_CORE_CLOCK/SYSTICKHZ)-1;
 204:	0001                	nop
 206:	0000                	unimp
 208:	0001                	nop
	SysTick->CNT = 0;
 20a:	0000                	unimp
 20c:	0001                	nop
	...
	RCC->CFGR0 &= ~(0x1F<<11);
 216:	0000                	unimp
 218:	0001                	nop
 21a:	0000                	unimp
 21c:	0001                	nop
	RCC->APB2PCENR |= RCC_APB2Periph_GPIOA | RCC_APB2Periph_ADC1;
 21e:	0000                	unimp
	GPIOA->CFGLR &= ~(0xf<<(4*GPIO_PinSource2));	// CNF = 00: Analog, MODE = 00: Input
 220:	0001                	nop
 222:	0000                	unimp
 224:	0001                	nop
	RCC->APB2PCENR |= RCC_APB2Periph_GPIOA | RCC_APB2Periph_ADC1;
 226:	0000                	unimp
 228:	0001                	nop
 22a:	0000                	unimp
	GPIOA->CFGLR &= ~(0xf<<(4*GPIO_PinSource2));	// CNF = 00: Analog, MODE = 00: Input
 22c:	0001                	nop
 22e:	0000                	unimp
 230:	0001                	nop
 232:	0000                	unimp
 234:	0001                	nop
	...
	ADC1->CTLR2 |= ADC_ADON | ADC_EXTSEL;
 23e:	0000                	unimp
 240:	0001                	nop
	RCC->APB2PRSTR |= RCC_APB2Periph_ADC1;
 242:	0000                	unimp
 244:	0001                	nop
 246:	0000                	unimp
	RCC->APB2PRSTR &= ~RCC_APB2Periph_ADC1;
 248:	0001                	nop
 24a:	0000                	unimp
 24c:	0001                	nop
	...
	ADC1->RSQR1 = 0;
 256:	0000                	unimp
	ADC1->RSQR2 = 0;
 258:	0001                	nop
 25a:	0000                	unimp
	ADC1->RSQR3 = ADC_Channel_0;	// 0-9 for 8 ext inputs and two internals
 25c:	0001                	nop
 25e:	0000                	unimp
	ADC1->SAMPTR2 &= ~ADC_SMP2;
 260:	0001                	nop
 262:	0000                	unimp
 264:	0001                	nop
 266:	0000                	unimp
 268:	0001                	nop
 26a:	0000                	unimp
	ADC1->SAMPTR2 |= ( ADC_SampleTime_3Cycles << (3 * ADC_Channel_0 ) );	// 0:7 => 3/9/15/30/43/57/73/241 cycles
 26c:	0001                	nop
 26e:	0000                	unimp
 270:	00c4                	addi	s1,sp,68
 272:	0000                	unimp
	ADC1->CTLR2 |= ADC_ADON | ADC_EXTSEL;
 274:	0114                	addi	a3,sp,128
 276:	0000                	unimp
 278:	0114                	addi	a3,sp,128
 27a:	0000                	unimp
 27c:	01a4                	addi	s1,sp,200
	ADC1->CTLR2 |= ADC_RSTCAL;
 27e:	0000                	unimp
 280:	0001                	nop
	while(ADC1->CTLR2 & ADC_RSTCAL);
 282:	0000                	unimp
 284:	0001                	nop
	ADC1->CTLR2 |= ADC_RSTCAL;
 286:	0000                	unimp
 288:	0001                	nop
 28a:	0000                	unimp
 28c:	0001                	nop
	while(ADC1->CTLR2 & ADC_RSTCAL);
 28e:	0000                	unimp
 290:	01a4                	addi	s1,sp,200
 292:	0000                	unimp
 294:	0378                	addi	a4,sp,396
	ADC1->CTLR2 |= ADC_CAL;
 296:	0000                	unimp
 298:	0378                	addi	a4,sp,396
 29a:	0000                	unimp
 29c:	03ea                	slli	t2,t2,0x1a
 29e:	0000                	unimp
 2a0:	03ea                	slli	t2,t2,0x1a
	while(ADC1->CTLR2 & ADC_CAL);
 2a2:	0000                	unimp
 2a4:	03ec                	addi	a1,sp,460
 2a6:	0000                	unimp
 2a8:	0001                	nop
 2aa:	0000                	unimp
 2ac:	0001                	nop
			RCC->APB2PCENR |= RCC_APB2Periph_GPIOA;
 2ae:	0000                	unimp
 2b0:	0001                	nop
 2b2:	0000                	unimp
	pinMode(pin_A1, pinMode_I_floating);
 2b4:	0001                	nop
 2b6:	0000                	unimp
 2b8:	0001                	nop
 2ba:	0000                	unimp
 2bc:	0001                	nop
			RCC->APB2PCENR |= RCC_APB2Periph_GPIOC;
 2be:	0000                	unimp
		int temp=LEDs[0].brightness;
 2c0:	0001                	nop
 2c2:	0000                	unimp
	ADC1->CTLR2 |= ADC_SWSTART;
 2c4:	0001                	nop
 2c6:	0000                	unimp
 2c8:	0001                	nop
 2ca:	0000                	unimp
 2cc:	0001                	nop
	pinMode(pin_A1, pinMode_I_floating);
 2ce:	0000                	unimp
	pinMode(pin_A2, pinMode_I_floating);
 2d0:	0001                	nop
 2d2:	0000                	unimp
 2d4:	0001                	nop
	pinMode(pin_C1, pinMode_I_floating);
 2d6:	0000                	unimp
 2d8:	0001                	nop
 2da:	0000                	unimp
	pinMode(pin_C2, pinMode_I_floating);
 2dc:	0001                	nop
 2de:	0000                	unimp
 2e0:	0001                	nop
		Delay_Ms(( Delay >> 3 ) + 5 );
 2e2:	0000                	unimp
 2e4:	0001                	nop
	ADC1->CTLR2 |= ADC_SWSTART;
 2e6:	0000                	unimp
 2e8:	0001                	nop
	uint32_t targend = SysTick->CNT + n;
 2ea:	0000                	unimp
 2ec:	0001                	nop
		Delay_Ms(( Delay >> 3 ) + 5 );
 2ee:	0000                	unimp
 2f0:	0001                	nop
 2f2:	0000                	unimp
		int temp=LEDs[0].brightness;
 2f4:	0001                	nop
 2f6:	0000                	unimp
	ADC1->CTLR2 |= ADC_SWSTART;
 2f8:	0001                	nop
 2fa:	0000                	unimp
 2fc:	0001                	nop
 2fe:	0000                	unimp
 300:	0001                	nop
 302:	0000                	unimp
	while(!(ADC1->STATR & ADC_EOC));
 304:	0001                	nop
 306:	0000                	unimp
 308:	0001                	nop
 30a:	0000                	unimp
	return ADC1->RDATAR;
 30c:	0001                	nop
 30e:	0000                	unimp
 310:	0001                	nop
 312:	0000                	unimp
		Delay_Ms(( Delay >> 3 ) + 5 );
 314:	0001                	nop
 316:	0000                	unimp
 318:	0001                	nop
 31a:	0000                	unimp
 31c:	0001                	nop
 31e:	0000                	unimp
 320:	0001                	nop
 322:	0000                	unimp
 324:	0001                	nop
 326:	0000                	unimp
 328:	0001                	nop
 32a:	0000                	unimp
 32c:	0001                	nop
 32e:	0000                	unimp
 330:	0000                	unimp
 332:	0000                	unimp
 334:	009c                	addi	a5,sp,64
	while( ((int32_t)( SysTick->CNT - targend )) < 0 );
 336:	0000                	unimp
 338:	0001                	nop
 33a:	0000                	unimp
 33c:	0001                	nop
 33e:	0000                	unimp
		int temp=LEDs[0].brightness;
 340:	03ec                	addi	a1,sp,460
 342:	0000                	unimp
		for(int i=1; i<12; i++){
 344:	06bc                	addi	a5,sp,840
	...

Disassembly of section .debug_line:

00000000 <.debug_line>:
	asm volatile( "\n\
       0:	26d1                	jal	3c4 <handle_reset+0x4c>
       2:	0000                	unimp
       4:	00680003          	lb	zero,6(a6)
       8:	0000                	unimp
       a:	0101                	addi	sp,sp,0
       c:	000d0efb          	0xd0efb
      10:	0101                	addi	sp,sp,0
      12:	0101                	addi	sp,sp,0
      14:	0000                	unimp
      16:	0100                	addi	s0,sp,128
      18:	0000                	unimp
      1a:	6301                	0x6301
      1c:	3368                	fld	fa0,224(a4)
      1e:	7632                	flw	fa2,44(sp)
      20:	3030                	fld	fa2,96(s0)
      22:	6e756633          	0x6e756633
      26:	0000                	unimp
      28:	32336863          	bltu	t1,gp,358 <main+0x1b4>
      2c:	3076                	fld	ft0,376(sp)
      2e:	3330                	fld	fa2,96(a4)
      30:	7566                	flw	fa0,120(sp)
      32:	2e6e                	fld	ft8,216(sp)
      34:	00010063          	beqz	sp,34 <InterruptVector+0x34>
      38:	7700                	flw	fs0,40(a4)
      3a:	7269                	lui	tp,0xffffa
      3c:	6e69                	lui	t3,0x1a
      3e:	00632e67          	0x632e67
      42:	0000                	unimp
      44:	6d00                	flw	fs0,24(a0)
      46:	6961                	lui	s2,0x18
      48:	2d6e                	fld	fs10,216(sp)
      4a:	632e7773          	csrrci	a4,0x632,28
      4e:	0000                	unimp
      50:	0000                	unimp
      52:	32336863          	bltu	t1,gp,382 <handle_reset+0xa>
      56:	3076                	fld	ft0,376(sp)
      58:	3330                	fld	fa2,96(a4)
      5a:	7566                	flw	fa0,120(sp)
      5c:	2e6e                	fld	ft8,216(sp)
      5e:	0068                	addi	a0,sp,12
      60:	0001                	nop
      62:	3c00                	fld	fs0,56(s0)
      64:	7562                	flw	fa0,56(sp)
      66:	6c69                	lui	s8,0x1a
      68:	2d74                	fld	fa3,216(a0)
      6a:	6e69                	lui	t3,0x1a
      6c:	003e                	c.slli	zero,0xf
      6e:	0000                	unimp
      70:	0000                	unimp
      72:	0105                	addi	sp,sp,1
      74:	0500                	addi	s0,sp,640
      76:	0002                	c.slli64	zero
      78:	0000                	unimp
      7a:	0300                	addi	s0,sp,384
      7c:	050103d7          	0x50103d7
      80:	0302                	c.slli64	t1
      82:	0901                	addi	s2,s2,0
      84:	0000                	unimp
      86:	0501                	addi	a0,a0,0
      88:	0601                	addi	a2,a2,0
      8a:	00097f03          	0x97f03
      8e:	0100                	addi	s0,sp,128
      90:	0405                	addi	s0,s0,1
      92:	00090103          	lb	sp,0(s2) # 18000 <wiring.c.7604182b+0x15884>
      96:	0100                	addi	s0,sp,128
      98:	0205                	addi	tp,tp,1
      9a:	0306                	slli	t1,t1,0x1
      9c:	0901                	addi	s2,s2,0
      9e:	0000                	unimp
      a0:	0301                	addi	t1,t1,0
      a2:	0901                	addi	s2,s2,0
      a4:	0000                	unimp
      a6:	0501                	addi	a0,a0,0
      a8:	0609                	addi	a2,a2,2
      aa:	00090003          	lb	zero,0(s2)
      ae:	0100                	addi	s0,sp,128
      b0:	0205                	addi	tp,tp,1
      b2:	0306                	slli	t1,t1,0x1
      b4:	0901                	addi	s2,s2,0
      b6:	0000                	unimp
      b8:	0301                	addi	t1,t1,0
      ba:	0902                	c.slli64	s2
      bc:	0000                	unimp
      be:	0501                	addi	a0,a0,0
      c0:	0609                	addi	a2,a2,2
      c2:	00090003          	lb	zero,0(s2)
	if (pin <= pin_A2) {
      c6:	0100                	addi	s0,sp,128
      c8:	0e05                	addi	t3,t3,1
		PinOffset = (pin + 1);
      ca:	0200                	addi	s0,sp,256
      cc:	0104                	addi	s1,sp,128
		GPIOx = GPIOA;
      ce:	0306                	slli	t1,t1,0x1
      d0:	0900                	addi	s0,sp,144
		PinOffset = (pin + 1);
      d2:	0000                	unimp
		GPIOx = GPIOA;
      d4:	0501                	addi	a0,a0,0
      d6:	04020007          	0x4020007
	if (value) {
      da:	0601                	addi	a2,a2,0
		GPIOx-> BSHR |= 1 << (16 + PinOffset);
      dc:	00090103          	lb	sp,0(s2)
      e0:	0100                	addi	s0,sp,128
      e2:	0205                	addi	tp,tp,1
      e4:	0200                	addi	s0,sp,256
}
      e6:	0104                	addi	s1,sp,128
	else if (pin <= pin_C7) {
      e8:	00097f03          	0x97f03
      ec:	0100                	addi	s0,sp,128
		PinOffset = (pin - 2);
      ee:	0306                	slli	t1,t1,0x1
      f0:	0906                	slli	s2,s2,0x1
      f2:	0000                	unimp
		GPIOx = GPIOC;
      f4:	0501                	addi	a0,a0,0
      f6:	0610                	addi	a2,sp,768
      f8:	00090003          	lb	zero,0(s2)
	else if (pin <= pin_D7) {
      fc:	0100                	addi	s0,sp,128
      fe:	0205                	addi	tp,tp,1
		PinOffset = (pin - 10);
     100:	0306                	slli	t1,t1,0x1
     102:	0901                	addi	s2,s2,0
		GPIOx = GPIOD;
     104:	0000                	unimp
     106:	0501                	addi	a0,a0,0
		PinOffset = (pin - 10);
     108:	0614                	addi	a3,sp,768
		GPIOx = GPIOD;
     10a:	00090003          	lb	zero,0(s2)
     10e:	0100                	addi	s0,sp,128
		GPIOx-> BSHR |= 1 << (16 + PinOffset);
     110:	0105                	addi	sp,sp,1
     112:	00090103          	lb	sp,0(s2)
	if (pin <= pin_A2) {
     116:	0100                	addi	s0,sp,128
     118:	0305                	addi	t1,t1,1
		PinOffset *= (pin + 1);
     11a:	0306                	slli	t1,t1,0x1
     11c:	0979                	addi	s2,s2,30
     11e:	0000                	unimp
     120:	0501                	addi	a0,a0,0
		GPIOx = GPIOA;
     122:	062e                	slli	a2,a2,0xb
     124:	00090003          	lb	zero,0(s2)
     128:	0100                	addi	s0,sp,128
     12a:	0505                	addi	a0,a0,1
	GPIOx->CFGLR &= ~(0b1111<<PinOffset);							// zero the 4 configuration bits
     12c:	00090003          	lb	zero,0(s2)
     130:	0100                	addi	s0,sp,128
     132:	0305                	addi	t1,t1,1
     134:	0200                	addi	s0,sp,256
     136:	0204                	addi	s1,sp,256
     138:	0306                	slli	t1,t1,0x1
     13a:	00000903          	lb	s2,0(zero) # 0 <InterruptVector>
	switch (mode) {
     13e:	0501                	addi	a0,a0,0
     140:	0010                	0x10
     142:	0402                	c.slli64	s0
     144:	0602                	c.slli64	a2
     146:	00090003          	lb	zero,0(s2)
	GPIOx->CFGLR |= modeMask<<PinOffset;
     14a:	0100                	addi	s0,sp,128
     14c:	1705                	addi	a4,a4,-31
     14e:	0200                	addi	s0,sp,256
     150:	0204                	addi	s1,sp,256
     152:	00090003          	lb	zero,0(s2)
     156:	0100                	addi	s0,sp,128
     158:	1805                	addi	a6,a6,-31
     15a:	0200                	addi	s0,sp,256
     15c:	0204                	addi	s1,sp,256
     15e:	00097c03          	0x97c03
     162:	0100                	addi	s0,sp,128
     164:	1405                	addi	s0,s0,-31
	if (target_pin_state > pinState_nochange) {
     166:	0200                	addi	s0,sp,256
		digitalWrite(pin, target_pin_state - 1);
     168:	0204                	addi	s1,sp,256
     16a:	00090403          	lb	s0,0(s2)
     16e:	0100                	addi	s0,sp,128
     170:	1705                	addi	a4,a4,-31
	else if (pin <= pin_C7) {
     172:	0200                	addi	s0,sp,256
     174:	0204                	addi	s1,sp,256
     176:	0306                	slli	t1,t1,0x1
		PinOffset *= (pin - 2);
     178:	097c                	addi	a5,sp,156
     17a:	0000                	unimp
     17c:	0901                	addi	s2,s2,0
     17e:	0000                	unimp
     180:	0100                	addi	s0,sp,128
		GPIOx = GPIOC;
     182:	0501                	addi	a0,a0,0
     184:	0001                	nop
     186:	0205                	addi	tp,tp,1
	else if (pin <= pin_D7) {
     188:	0000                	unimp
     18a:	0000                	unimp
     18c:	0103b803          	0x103b803
		PinOffset *= (pin - 10);
     190:	0205                	addi	tp,tp,1
     192:	00090103          	lb	sp,0(s2)
		GPIOx = GPIOD;
     196:	0100                	addi	s0,sp,128
     198:	00090103          	lb	sp,0(s2)
     19c:	0100                	addi	s0,sp,128
     19e:	00090103          	lb	sp,0(s2)
}
     1a2:	0100                	addi	s0,sp,128
int main() {
     1a4:	00090103          	lb	sp,0(s2)
     1a8:	0100                	addi	s0,sp,128
     1aa:	0105                	addi	sp,sp,1
	RCC->CFGR0 = RCC_HPRE_DIV1 | RCC_PLLSRC_HSI_Mul2;      // PLLCLK = HSI * 2 = 48 MHz; HCLK = SYSCLK = APB1
     1ac:	0306                	slli	t1,t1,0x1
     1ae:	097c                	addi	a5,sp,156
	RCC->CTLR  = RCC_HSION | RCC_PLLON | ((HSITRIM) << 3); // Use HSI, but enable PLL.
     1b0:	0000                	unimp
     1b2:	0301                	addi	t1,t1,0
	RCC->CFGR0 = RCC_HPRE_DIV1 | RCC_PLLSRC_HSI_Mul2;      // PLLCLK = HSI * 2 = 48 MHz; HCLK = SYSCLK = APB1
     1b4:	0900                	addi	s0,sp,144
     1b6:	0000                	unimp
	RCC->CTLR  = RCC_HSION | RCC_PLLON | ((HSITRIM) << 3); // Use HSI, but enable PLL.
     1b8:	0501                	addi	a0,a0,0
     1ba:	0306                	slli	t1,t1,0x1
     1bc:	0902                	c.slli64	s2
	FLASH->ACTLR = FLASH_ACTLR_LATENCY_1;                  // 1 Cycle Latency
     1be:	0000                	unimp
     1c0:	0501                	addi	a0,a0,0
     1c2:	0304                	addi	s1,sp,384
     1c4:	0902                	c.slli64	s2
	RCC->INTR  = 0x009F0000;                               // Clear PLL, CSSC, HSE, HSI and LSI ready flags.
     1c6:	0000                	unimp
     1c8:	0501                	addi	a0,a0,0
     1ca:	0602                	c.slli64	a2
	while((RCC->CTLR & RCC_PLLRDY) == 0);                                      // Wait till PLL is ready
     1cc:	00090103          	lb	sp,0(s2)
     1d0:	0100                	addi	s0,sp,128
     1d2:	0405                	addi	s0,s0,1
     1d4:	0306                	slli	t1,t1,0x1
     1d6:	0900                	addi	s0,sp,144
     1d8:	0000                	unimp
	RCC->CFGR0 = ( RCC->CFGR0 & ((uint32_t)~(RCC_SW))) | (uint32_t)RCC_SW_PLL; // Select PLL as system clock source
     1da:	0501                	addi	a0,a0,0
	while ((RCC->CFGR0 & (uint32_t)RCC_SWS) != (uint32_t)0x08);                // Wait till PLL is used as system clock source
     1dc:	030c                	addi	a1,sp,384
	RCC->CFGR0 = ( RCC->CFGR0 & ((uint32_t)~(RCC_SW))) | (uint32_t)RCC_SW_PLL; // Select PLL as system clock source
     1de:	0902                	c.slli64	s2
     1e0:	0000                	unimp
     1e2:	0501                	addi	a0,a0,0
     1e4:	0602                	c.slli64	a2
	while ((RCC->CFGR0 & (uint32_t)RCC_SWS) != (uint32_t)0x08);                // Wait till PLL is used as system clock source
     1e6:	00090203          	lb	tp,0(s2)
     1ea:	0100                	addi	s0,sp,128
     1ec:	0805                	addi	a6,a6,1
     1ee:	0306                	slli	t1,t1,0x1
     1f0:	0900                	addi	s0,sp,144
	SysTick->CTLR = 0;
     1f2:	0000                	unimp
     1f4:	0501                	addi	a0,a0,0
     1f6:	0310                	addi	a2,sp,384
     1f8:	0901                	addi	s2,s2,0
     1fa:	0000                	unimp
     1fc:	0501                	addi	a0,a0,0
     1fe:	0402000f          	0x402000f
     202:	0601                	addi	a2,a2,0
	SysTick->CMP = (SYSTEM_CORE_CLOCK/SYSTICKHZ)-1;
     204:	00090203          	lb	tp,0(s2)
     208:	0100                	addi	s0,sp,128
	SysTick->CNT = 0;
     20a:	0205                	addi	tp,tp,1
     20c:	0200                	addi	s0,sp,256
	SysTick->CTLR = SYSTICK_CTLR_STE | SYSTICK_CTLR_STIE |
     20e:	0104                	addi	s1,sp,128
     210:	0306                	slli	t1,t1,0x1
	RCC->CFGR0 &= ~(0x1F<<11);
     212:	0900                	addi	s0,sp,144
     214:	0000                	unimp
     216:	0601                	addi	a2,a2,0
     218:	00090303          	lb	t1,0(s2)
     21c:	0100                	addi	s0,sp,128
	RCC->APB2PCENR |= RCC_APB2Periph_GPIOA | RCC_APB2Periph_ADC1;
     21e:	0605                	addi	a2,a2,1
	GPIOA->CFGLR &= ~(0xf<<(4*GPIO_PinSource2));	// CNF = 00: Analog, MODE = 00: Input
     220:	0306                	slli	t1,t1,0x1
     222:	0900                	addi	s0,sp,144
     224:	0000                	unimp
	RCC->APB2PCENR |= RCC_APB2Periph_GPIOA | RCC_APB2Periph_ADC1;
     226:	0501                	addi	a0,a0,0
     228:	0602                	c.slli64	a2
     22a:	00090103          	lb	sp,0(s2)
	GPIOA->CFGLR &= ~(0xf<<(4*GPIO_PinSource2));	// CNF = 00: Analog, MODE = 00: Input
     22e:	0100                	addi	s0,sp,128
     230:	0405                	addi	s0,s0,1
     232:	0306                	slli	t1,t1,0x1
     234:	0900                	addi	s0,sp,144
     236:	0000                	unimp
     238:	0501                	addi	a0,a0,0
	RCC->APB2PRSTR |= RCC_APB2Periph_ADC1;
     23a:	0315                	addi	t1,t1,5
	ADC1->CTLR2 |= ADC_ADON | ADC_EXTSEL;
     23c:	0901                	addi	s2,s2,0
     23e:	0000                	unimp
     240:	0501                	addi	a0,a0,0
	RCC->APB2PRSTR |= RCC_APB2Periph_ADC1;
     242:	0604                	addi	s1,sp,768
     244:	00090103          	lb	sp,0(s2)
	RCC->APB2PRSTR &= ~RCC_APB2Periph_ADC1;
     248:	0100                	addi	s0,sp,128
     24a:	1505                	addi	a0,a0,-31
     24c:	0306                	slli	t1,t1,0x1
     24e:	0900                	addi	s0,sp,144
	ADC1->RSQR1 = 0;
     250:	0000                	unimp
     252:	0501                	addi	a0,a0,0
     254:	062a                	slli	a2,a2,0xa
     256:	00097f03          	0x97f03
	ADC1->RSQR2 = 0;
     25a:	0100                	addi	s0,sp,128
	ADC1->RSQR3 = ADC_Channel_0;	// 0-9 for 8 ext inputs and two internals
     25c:	0f05                	addi	t5,t5,1
     25e:	00090003          	lb	zero,0(s2)
	ADC1->SAMPTR2 &= ~ADC_SMP2;
     262:	0100                	addi	s0,sp,128
     264:	0d05                	addi	s10,s10,1
     266:	0306                	slli	t1,t1,0x1
     268:	0901                	addi	s2,s2,0
     26a:	0000                	unimp
	ADC1->SAMPTR2 |= ( ADC_SampleTime_3Cycles << (3 * ADC_Channel_0 ) );	// 0:7 => 3/9/15/30/43/57/73/241 cycles
     26c:	0501                	addi	a0,a0,0
     26e:	0315                	addi	t1,t1,5
     270:	097f                	0x97f
     272:	0000                	unimp
	ADC1->CTLR2 |= ADC_ADON | ADC_EXTSEL;
     274:	0501                	addi	a0,a0,0
     276:	0604                	addi	s1,sp,768
     278:	00090103          	lb	sp,0(s2)
     27c:	0100                	addi	s0,sp,128
	ADC1->CTLR2 |= ADC_RSTCAL;
     27e:	1505                	addi	a0,a0,-31
     280:	0306                	slli	t1,t1,0x1
	while(ADC1->CTLR2 & ADC_RSTCAL);
     282:	0900                	addi	s0,sp,144
     284:	0000                	unimp
	ADC1->CTLR2 |= ADC_RSTCAL;
     286:	0501                	addi	a0,a0,0
     288:	062a                	slli	a2,a2,0xa
     28a:	00097f03          	0x97f03
	while(ADC1->CTLR2 & ADC_RSTCAL);
     28e:	0100                	addi	s0,sp,128
     290:	0f05                	addi	t5,t5,1
     292:	00090003          	lb	zero,0(s2)
	ADC1->CTLR2 |= ADC_CAL;
     296:	0100                	addi	s0,sp,128
     298:	0d05                	addi	s10,s10,1
     29a:	0306                	slli	t1,t1,0x1
     29c:	0901                	addi	s2,s2,0
     29e:	0000                	unimp
     2a0:	0501                	addi	a0,a0,0
	while(ADC1->CTLR2 & ADC_CAL);
     2a2:	0315                	addi	t1,t1,5
     2a4:	097f                	0x97f
     2a6:	0000                	unimp
     2a8:	0501                	addi	a0,a0,0
     2aa:	0004                	0x4
     2ac:	0402                	c.slli64	s0
			RCC->APB2PCENR |= RCC_APB2Periph_GPIOA;
     2ae:	0604                	addi	s1,sp,768
     2b0:	00090103          	lb	sp,0(s2)
	pinMode(pin_A1, pinMode_I_floating);
     2b4:	0100                	addi	s0,sp,128
     2b6:	1505                	addi	a0,a0,-31
     2b8:	0200                	addi	s0,sp,256
     2ba:	0404                	addi	s1,sp,512
     2bc:	0306                	slli	t1,t1,0x1
			RCC->APB2PCENR |= RCC_APB2Periph_GPIOC;
     2be:	0900                	addi	s0,sp,144
		int temp=LEDs[0].brightness;
     2c0:	0000                	unimp
     2c2:	0501                	addi	a0,a0,0
	ADC1->CTLR2 |= ADC_SWSTART;
     2c4:	002a                	c.slli	zero,0xa
     2c6:	0402                	c.slli64	s0
     2c8:	0604                	addi	s1,sp,768
     2ca:	00097f03          	0x97f03
	pinMode(pin_A1, pinMode_I_floating);
     2ce:	0100                	addi	s0,sp,128
	pinMode(pin_A2, pinMode_I_floating);
     2d0:	0f05                	addi	t5,t5,1
     2d2:	0200                	addi	s0,sp,256
     2d4:	0404                	addi	s1,sp,512
	pinMode(pin_C1, pinMode_I_floating);
     2d6:	00090003          	lb	zero,0(s2)
     2da:	0100                	addi	s0,sp,128
	pinMode(pin_C2, pinMode_I_floating);
     2dc:	0105                	addi	sp,sp,1
     2de:	0306                	slli	t1,t1,0x1
     2e0:	0905                	addi	s2,s2,1
		Delay_Ms(( Delay >> 3 ) + 5 );
     2e2:	0000                	unimp
     2e4:	0501                	addi	a0,a0,0
	ADC1->CTLR2 |= ADC_SWSTART;
     2e6:	0304                	addi	s1,sp,384
     2e8:	096e                	slli	s2,s2,0x1b
	uint32_t targend = SysTick->CNT + n;
     2ea:	0000                	unimp
     2ec:	0501                	addi	a0,a0,0
		Delay_Ms(( Delay >> 3 ) + 5 );
     2ee:	04020003          	lb	zero,64(tp) # ffffa040 <__global_pointer$+0xdfff97b0>
     2f2:	09030603          	lb	a2,144(t1)
		int temp=LEDs[0].brightness;
     2f6:	0009                	c.nop	2
	ADC1->CTLR2 |= ADC_SWSTART;
     2f8:	0100                	addi	s0,sp,128
     2fa:	1205                	addi	tp,tp,-31
     2fc:	0200                	addi	s0,sp,256
     2fe:	0304                	addi	s1,sp,384
     300:	0306                	slli	t1,t1,0x1
     302:	0900                	addi	s0,sp,144
	while(!(ADC1->STATR & ADC_EOC));
     304:	0000                	unimp
     306:	0501                	addi	a0,a0,0
     308:	0010                	0x10
     30a:	0402                	c.slli64	s0
	return ADC1->RDATAR;
     30c:	09000303          	lb	t1,144(zero) # 90 <InterruptVector+0x90>
     310:	0000                	unimp
     312:	0501                	addi	a0,a0,0
		Delay_Ms(( Delay >> 3 ) + 5 );
     314:	0016                	c.slli	zero,0x5
     316:	0402                	c.slli64	s0
     318:	7f030603          	lb	a2,2032(t1)
     31c:	0009                	c.nop	2
     31e:	0100                	addi	s0,sp,128
     320:	0009                	c.nop	2
     322:	0000                	unimp
     324:	0101                	addi	sp,sp,0
     326:	0105                	addi	sp,sp,1
     328:	0500                	addi	s0,sp,640
     32a:	0002                	c.slli64	zero
     32c:	0000                	unimp
     32e:	0300                	addi	s0,sp,384
     330:	038e                	slli	t2,t2,0x3
     332:	0501                	addi	a0,a0,0
     334:	0302                	c.slli64	t1
	while( ((int32_t)( SysTick->CNT - targend )) < 0 );
     336:	0000090b          	0x90b
     33a:	0501                	addi	a0,a0,0
     33c:	0601                	addi	a2,a2,0
     33e:	00097503          	0x97503
		int temp=LEDs[0].brightness;
     342:	0100                	addi	s0,sp,128
		for(int i=1; i<12; i++){
     344:	0605                	addi	a2,a2,1
     346:	00090403          	lb	s0,0(s2)
		int temp=LEDs[0].brightness;
     34a:	0100                	addi	s0,sp,128
			LEDs[i-1].brightness=LEDs[i].brightness;
     34c:	0105                	addi	sp,sp,1
     34e:	00097c03          	0x97c03
     352:	0100                	addi	s0,sp,128
     354:	0505                	addi	a0,a0,1
     356:	00090b03          	lb	s6,0(s2)
     35a:	0100                	addi	s0,sp,128
     35c:	1005                	c.nop	-31
     35e:	00090003          	lb	zero,0(s2)
     362:	0100                	addi	s0,sp,128
     364:	0305                	addi	t1,t1,1
     366:	0306                	slli	t1,t1,0x1
     368:	0901                	addi	s2,s2,0
     36a:	0000                	unimp
		for(int i=1; i<12; i++){
     36c:	0301                	addi	t1,t1,0
     36e:	0901                	addi	s2,s2,0
     370:	0000                	unimp
		LEDs[11].brightness=temp;
     372:	0501                	addi	a0,a0,0
     374:	060c                	addi	a1,sp,768
	while(1){
     376:	00097f03          	0x97f03
	asm volatile( "\n\
     37a:	0100                	addi	s0,sp,128
     37c:	0905                	addi	s2,s2,1
     37e:	00090103          	lb	sp,0(s2)
     382:	0100                	addi	s0,sp,128
     384:	0c05                	addi	s8,s8,1
     386:	00097f03          	0x97f03
     38a:	0100                	addi	s0,sp,128
     38c:	0605                	addi	a2,a2,1
     38e:	00097803          	0x97803
     392:	0100                	addi	s0,sp,128
     394:	1005                	c.nop	-31
     396:	00090f03          	lb	t5,0(s2)
     39a:	0100                	addi	s0,sp,128
     39c:	1505                	addi	a0,a0,-31
     39e:	00097f03          	0x97f03
asm volatile(
     3a2:	0100                	addi	s0,sp,128
     3a4:	0205                	addi	tp,tp,1
     3a6:	0306                	slli	t1,t1,0x1
     3a8:	097f                	0x97f
     3aa:	0000                	unimp
     3ac:	0501                	addi	a0,a0,0
     3ae:	09010303          	lb	t1,144(sp)
     3b2:	0000                	unimp
     3b4:	0501                	addi	a0,a0,0
     3b6:	0615                	addi	a2,a2,5
     3b8:	00090003          	lb	zero,0(s2)
     3bc:	0100                	addi	s0,sp,128
     3be:	0305                	addi	t1,t1,1
     3c0:	0306                	slli	t1,t1,0x1
     3c2:	0901                	addi	s2,s2,0
     3c4:	0000                	unimp
     3c6:	0501                	addi	a0,a0,0
     3c8:	0610                	addi	a2,sp,768
     3ca:	00090003          	lb	zero,0(s2)
     3ce:	0100                	addi	s0,sp,128
     3d0:	2405                	jal	5f0 <SysTick_Handler+0x204>
     3d2:	00090003          	lb	zero,0(s2)
	SETUP_SYSTICK_HCLK
     3d6:	0100                	addi	s0,sp,128
     3d8:	1005                	c.nop	-31
     3da:	00090003          	lb	zero,0(s2)
asm volatile(
     3de:	0100                	addi	s0,sp,128
     3e0:	0c05                	addi	s8,s8,1
     3e2:	00090003          	lb	zero,0(s2)
     3e6:	0100                	addi	s0,sp,128
     3e8:	1005                	c.nop	-31
	asm volatile( "1: j 1b" );
     3ea:	00090003          	lb	zero,0(s2)
{
     3ee:	0100                	addi	s0,sp,128
     3f0:	0905                	addi	s2,s2,1
     3f2:	00090103          	lb	sp,0(s2)
	SysTick->CMP += (SYSTEM_CORE_CLOCK/SYSTICKHZ);
     3f6:	0100                	addi	s0,sp,128
{
     3f8:	1005                	c.nop	-31
     3fa:	00097f03          	0x97f03
	SysTick->CMP += (SYSTEM_CORE_CLOCK/SYSTICKHZ);
     3fe:	0100                	addi	s0,sp,128
{
     400:	0305                	addi	t1,t1,1
     402:	0306                	slli	t1,t1,0x1
     404:	0901                	addi	s2,s2,0
     406:	0000                	unimp
     408:	0501                	addi	a0,a0,0
     40a:	0609                	addi	a2,a2,2
     40c:	00090003          	lb	zero,0(s2)
     410:	0100                	addi	s0,sp,128
     412:	0205                	addi	tp,tp,1
     414:	00090103          	lb	sp,0(s2)
     418:	0100                	addi	s0,sp,128
     41a:	0905                	addi	s2,s2,1
     41c:	00097f03          	0x97f03
     420:	0100                	addi	s0,sp,128
     422:	0a05                	addi	s4,s4,1
     424:	0306                	slli	t1,t1,0x1
     426:	0901                	addi	s2,s2,0
	SysTick->CMP += (SYSTEM_CORE_CLOCK/SYSTICKHZ);
     428:	0000                	unimp
     42a:	0501                	addi	a0,a0,0
     42c:	0602                	c.slli64	a2
     42e:	00090003          	lb	zero,0(s2)
	SysTick->SR = 0;
     432:	0100                	addi	s0,sp,128
	ramp = ( ramp + 1 ) & 0x3F;		// 0 to 63
     434:	0306                	slli	t1,t1,0x1
     436:	0902                	c.slli64	s2
     438:	0000                	unimp
     43a:	0501                	addi	a0,a0,0
     43c:	0605                	addi	a2,a2,1
     43e:	00090003          	lb	zero,0(s2)
     442:	0100                	addi	s0,sp,128
     444:	0305                	addi	t1,t1,1
     446:	0306                	slli	t1,t1,0x1
     448:	0901                	addi	s2,s2,0
     44a:	0000                	unimp
	if (ramp == 0) {
     44c:	0501                	addi	a0,a0,0
     44e:	0610                	addi	a2,sp,768
     450:	00090003          	lb	zero,0(s2)
     454:	0100                	addi	s0,sp,128
     456:	0c05                	addi	s8,s8,1
		pinMode(LEDs[group[currentgroup][0]].pinCathode, pinMode_I_floating); // switch off this group
     458:	00090003          	lb	zero,0(s2)
     45c:	0100                	addi	s0,sp,128
     45e:	0205                	addi	tp,tp,1
     460:	0306                	slli	t1,t1,0x1
     462:	0902                	c.slli64	s2
     464:	0000                	unimp
     466:	0501                	addi	a0,a0,0
     468:	0606                	slli	a2,a2,0x1
     46a:	00090403          	lb	s0,0(s2)
     46e:	0100                	addi	s0,sp,128
     470:	1605                	addi	a2,a2,-31
     472:	00090103          	lb	sp,0(s2)
     476:	0100                	addi	s0,sp,128
     478:	0d05                	addi	s10,s10,1
     47a:	00097b03          	0x97b03
     47e:	0100                	addi	s0,sp,128
     480:	0205                	addi	tp,tp,1
     482:	0306                	slli	t1,t1,0x1
     484:	0904                	addi	s1,sp,144
     486:	0000                	unimp
     488:	0301                	addi	t1,t1,0
		currentgroup = (currentgroup + 1) & 0x3;	// move to next group
     48a:	0901                	addi	s2,s2,0
     48c:	0000                	unimp
		pinMode(LEDs[group[currentgroup][0]].pinCathode, pinMode_O_pushPull); // switch on the group
     48e:	0501                	addi	a0,a0,0
     490:	0616                	slli	a2,a2,0x5
		currentgroup = (currentgroup + 1) & 0x3;	// move to next group
     492:	00090003          	lb	zero,0(s2)
     496:	0100                	addi	s0,sp,128
     498:	0905                	addi	s2,s2,1
     49a:	00090003          	lb	zero,0(s2)
		pinMode(LEDs[group[currentgroup][0]].pinCathode, pinMode_O_pushPull); // switch on the group
     49e:	0100                	addi	s0,sp,128
     4a0:	0e05                	addi	t3,t3,1
     4a2:	0306                	slli	t1,t1,0x1
     4a4:	0900                	addi	s0,sp,144
     4a6:	0000                	unimp
     4a8:	0501                	addi	a0,a0,0
     4aa:	0602                	c.slli64	a2
     4ac:	00090003          	lb	zero,0(s2)
     4b0:	0100                	addi	s0,sp,128
     4b2:	0105                	addi	sp,sp,1
     4b4:	00090703          	lb	a4,0(s2)
     4b8:	0100                	addi	s0,sp,128
     4ba:	0205                	addi	tp,tp,1
     4bc:	00096f03          	0x96f03
     4c0:	0100                	addi	s0,sp,128
     4c2:	1005                	c.nop	-31
     4c4:	00097e03          	0x97e03
     4c8:	0100                	addi	s0,sp,128
     4ca:	0305                	addi	t1,t1,1
     4cc:	0306                	slli	t1,t1,0x1
     4ce:	090d                	addi	s2,s2,3
		digitalWrite(LEDs[group[currentgroup][0]].pinCathode, low);
     4d0:	0000                	unimp
     4d2:	0501                	addi	a0,a0,0
     4d4:	0615                	addi	a2,a2,5
     4d6:	00090103          	lb	sp,0(s2)
     4da:	0100                	addi	s0,sp,128
     4dc:	0805                	addi	a6,a6,1
     4de:	00097f03          	0x97f03
		if (LEDs[group[currentgroup][0]].brightness) { 
     4e2:	0100                	addi	s0,sp,128
     4e4:	0305                	addi	t1,t1,1
     4e6:	0306                	slli	t1,t1,0x1
     4e8:	0901                	addi	s2,s2,0
     4ea:	0000                	unimp
     4ec:	0501                	addi	a0,a0,0
     4ee:	061c                	addi	a5,sp,768
     4f0:	00097e03          	0x97e03
     4f4:	0100                	addi	s0,sp,128
			pinMode(LEDs[group[currentgroup][0]].pinAnode, pinMode_O_pushPull); // switch on this LED
     4f6:	0d05                	addi	s10,s10,1
     4f8:	00090203          	lb	tp,0(s2)
     4fc:	0100                	addi	s0,sp,128
     4fe:	0305                	addi	t1,t1,1
     500:	0306                	slli	t1,t1,0x1
     502:	0901                	addi	s2,s2,0
			digitalWrite(LEDs[group[currentgroup][0]].pinAnode, high);
     504:	0000                	unimp
     506:	0501                	addi	a0,a0,0
     508:	00030613          	mv	a2,t1
     50c:	0009                	c.nop	2
     50e:	0100                	addi	s0,sp,128
     510:	1b05                	addi	s6,s6,-31
     512:	0306                	slli	t1,t1,0x1
     514:	097d                	addi	s2,s2,31
     516:	0000                	unimp
     518:	0901                	addi	s2,s2,0
		if (LEDs[group[currentgroup][1]].brightness) { 
     51a:	0000                	unimp
     51c:	0100                	addi	s0,sp,128
     51e:	0401                	addi	s0,s0,0
     520:	0502                	c.slli64	a0
     522:	0035                	c.nop	13
     524:	0205                	addi	tp,tp,1
     526:	00c4                	addi	s1,sp,68
     528:	0000                	unimp
     52a:	0100eb03          	0x100eb03
     52e:	0205                	addi	tp,tp,1
     530:	00090203          	lb	tp,0(s2)
     534:	0100                	addi	s0,sp,128
     536:	00090103          	lb	sp,0(s2)
     53a:	0100                	addi	s0,sp,128
     53c:	00090203          	lb	tp,0(s2)
     540:	0100                	addi	s0,sp,128
			pinMode(LEDs[group[currentgroup][1]].pinAnode, pinMode_O_pushPull); // switch on this LED
     542:	0505                	addi	a0,a0,1
     544:	0306                	slli	t1,t1,0x1
     546:	0900                	addi	s0,sp,144
     548:	0000                	unimp
     54a:	0501                	addi	a0,a0,0
     54c:	01030603          	lb	a2,16(t1)
     550:	0609                	addi	a2,a2,2
     552:	0100                	addi	s0,sp,128
     554:	00090103          	lb	sp,0(s2)
			digitalWrite(LEDs[group[currentgroup][1]].pinAnode, high);
     558:	0100                	addi	s0,sp,128
     55a:	0d05                	addi	s10,s10,1
     55c:	0306                	slli	t1,t1,0x1
     55e:	0900                	addi	s0,sp,144
     560:	0000                	unimp
     562:	0501                	addi	a0,a0,0
     564:	0309                	addi	t1,t1,2
     566:	097f                	0x97f
     568:	0004                	0x4
     56a:	0501                	addi	a0,a0,0
     56c:	030d                	addi	t1,t1,3
		if (LEDs[group[currentgroup][2]].brightness) { 
     56e:	0901                	addi	s2,s2,0
     570:	0004                	0x4
     572:	0501                	addi	a0,a0,0
     574:	0309                	addi	t1,t1,2
     576:	097f                	0x97f
     578:	0002                	c.slli64	zero
     57a:	0501                	addi	a0,a0,0
     57c:	0602                	c.slli64	a2
     57e:	04090f03          	lb	t5,64(s2)
     582:	0100                	addi	s0,sp,128
     584:	1005                	c.nop	-31
     586:	0306                	slli	t1,t1,0x1
     588:	0901                	addi	s2,s2,0
     58a:	0000                	unimp
     58c:	0501                	addi	a0,a0,0
     58e:	0305                	addi	t1,t1,1
     590:	097f                	0x97f
     592:	0002                	c.slli64	zero
     594:	0501                	addi	a0,a0,0
			pinMode(LEDs[group[currentgroup][2]].pinAnode, pinMode_O_pushPull); // switch on this LED
     596:	0315                	addi	t1,t1,5
     598:	0904                	addi	s1,sp,144
     59a:	0002                	c.slli64	zero
     59c:	0501                	addi	a0,a0,0
     59e:	0310                	addi	a2,sp,384
     5a0:	0900                	addi	s0,sp,144
     5a2:	0006                	c.slli	zero,0x1
     5a4:	0501                	addi	a0,a0,0
     5a6:	0301                	addi	t1,t1,0
			digitalWrite(LEDs[group[currentgroup][2]].pinAnode, high);
     5a8:	0902                	c.slli64	s2
     5aa:	0004                	0x4
     5ac:	0501                	addi	a0,a0,0
     5ae:	6e030607          	0x6e030607
     5b2:	0209                	addi	tp,tp,2
     5b4:	0100                	addi	s0,sp,128
     5b6:	0a05                	addi	s4,s4,1
     5b8:	0306                	slli	t1,t1,0x1
	if (LEDs[group[currentgroup][0]].brightness <= ramp) { // if the target pulse width has been achieved
     5ba:	0900                	addi	s0,sp,144
     5bc:	0000                	unimp
     5be:	0501                	addi	a0,a0,0
     5c0:	01030603          	lb	a2,16(t1)
     5c4:	0609                	addi	a2,a2,2
     5c6:	0100                	addi	s0,sp,128
     5c8:	00090103          	lb	sp,0(s2)
     5cc:	0100                	addi	s0,sp,128
     5ce:	0d05                	addi	s10,s10,1
     5d0:	0306                	slli	t1,t1,0x1
     5d2:	0900                	addi	s0,sp,144
     5d4:	0000                	unimp
     5d6:	0501                	addi	a0,a0,0
     5d8:	0309                	addi	t1,t1,2
     5da:	097f                	0x97f
     5dc:	0006                	c.slli	zero,0x1
     5de:	0501                	addi	a0,a0,0
     5e0:	03030607          	0x3030607
     5e4:	0609                	addi	a2,a2,2
     5e6:	0100                	addi	s0,sp,128
     5e8:	0a05                	addi	s4,s4,1
		pinMode(LEDs[group[currentgroup][0]].pinAnode, pinMode_I_floating); // switch off this LED
     5ea:	0306                	slli	t1,t1,0x1
     5ec:	0900                	addi	s0,sp,144
     5ee:	0000                	unimp
     5f0:	0501                	addi	a0,a0,0
     5f2:	01030603          	lb	a2,16(t1)
     5f6:	0609                	addi	a2,a2,2
     5f8:	0100                	addi	s0,sp,128
     5fa:	00090103          	lb	sp,0(s2)
     5fe:	0100                	addi	s0,sp,128
     600:	0d05                	addi	s10,s10,1
     602:	0306                	slli	t1,t1,0x1
     604:	0900                	addi	s0,sp,144
     606:	0000                	unimp
	if (LEDs[group[currentgroup][1]].brightness <= ramp) {
     608:	0501                	addi	a0,a0,0
     60a:	0309                	addi	t1,t1,2
     60c:	097f                	0x97f
     60e:	0004                	0x4
     610:	0501                	addi	a0,a0,0
     612:	030d                	addi	t1,t1,3
     614:	0901                	addi	s2,s2,0
     616:	0004                	0x4
     618:	0501                	addi	a0,a0,0
     61a:	0309                	addi	t1,t1,2
     61c:	097f                	0x97f
     61e:	0002                	c.slli64	zero
     620:	0501                	addi	a0,a0,0
     622:	0b030603          	lb	a2,176(t1)
     626:	0609                	addi	a2,a2,2
     628:	0100                	addi	s0,sp,128
     62a:	1c05                	addi	s8,s8,-31
     62c:	0306                	slli	t1,t1,0x1
     62e:	0900                	addi	s0,sp,144
		pinMode(LEDs[group[currentgroup][1]].pinAnode, pinMode_I_floating); // switch off this LED
     630:	0000                	unimp
     632:	0901                	addi	s2,s2,0
     634:	0004                	0x4
     636:	0100                	addi	s0,sp,128
     638:	0401                	addi	s0,s0,0
     63a:	0502                	c.slli64	a0
     63c:	0038                	addi	a4,sp,8
     63e:	0205                	addi	tp,tp,1
     640:	0114                	addi	a3,sp,128
     642:	0000                	unimp
     644:	05012903          	lw	s2,80(sp)
     648:	0302                	c.slli64	t1
     64a:	0901                	addi	s2,s2,0
     64c:	0000                	unimp
	if (LEDs[group[currentgroup][2]].brightness <= ramp) {
     64e:	0301                	addi	t1,t1,0
     650:	0901                	addi	s2,s2,0
     652:	0000                	unimp
     654:	0301                	addi	t1,t1,0
     656:	0902                	c.slli64	s2
     658:	0000                	unimp
     65a:	0501                	addi	a0,a0,0
     65c:	0605                	addi	a2,a2,1
     65e:	00090003          	lb	zero,0(s2)
     662:	0100                	addi	s0,sp,128
     664:	0305                	addi	t1,t1,1
     666:	0306                	slli	t1,t1,0x1
     668:	0901                	addi	s2,s2,0
     66a:	0006                	c.slli	zero,0x1
     66c:	0301                	addi	t1,t1,0
     66e:	0901                	addi	s2,s2,0
     670:	0000                	unimp
     672:	0501                	addi	a0,a0,0
     674:	0615                	addi	a2,a2,5
		pinMode(LEDs[group[currentgroup][2]].pinAnode, pinMode_I_floating); // switch off this LED
     676:	00090003          	lb	zero,0(s2)
     67a:	0100                	addi	s0,sp,128
     67c:	0d05                	addi	s10,s10,1
     67e:	04090003          	lb	zero,64(s2)
     682:	0100                	addi	s0,sp,128
}
     684:	0905                	addi	s2,s2,1
     686:	04097f03          	0x4097f03
     68a:	0100                	addi	s0,sp,128
     68c:	0d05                	addi	s10,s10,1
     68e:	04090103          	lb	sp,64(s2)
     692:	0100                	addi	s0,sp,128
     694:	0905                	addi	s2,s2,1
     696:	02097f03          	0x2097f03
     69a:	0100                	addi	s0,sp,128
     69c:	0205                	addi	tp,tp,1
     69e:	0306                	slli	t1,t1,0x1
     6a0:	0004090f          	0x4090f
     6a4:	0501                	addi	a0,a0,0
     6a6:	0003060f          	0x3060f
     6aa:	0009                	c.nop	2
     6ac:	0100                	addi	s0,sp,128
     6ae:	1a05                	addi	s4,s4,-31
     6b0:	02090003          	lb	zero,32(s2)
     6b4:	0100                	addi	s0,sp,128
     6b6:	1205                	addi	tp,tp,-31
     6b8:	06090003          	lb	zero,96(s2)
     6bc:	0100                	addi	s0,sp,128
     6be:	0f05                	addi	t5,t5,1
     6c0:	04090003          	lb	zero,64(s2)
     6c4:	0100                	addi	s0,sp,128
     6c6:	0205                	addi	tp,tp,1
     6c8:	0306                	slli	t1,t1,0x1
     6ca:	0902                	c.slli64	s2
     6cc:	0004                	0x4
     6ce:	0301                	addi	t1,t1,0
     6d0:	0902                	c.slli64	s2
     6d2:	0000                	unimp
     6d4:	0301                	addi	t1,t1,0
     6d6:	0902                	c.slli64	s2
     6d8:	0000                	unimp
     6da:	0301                	addi	t1,t1,0
     6dc:	091e                	slli	s2,s2,0x7
     6de:	000e                	c.slli	zero,0x3
     6e0:	0501                	addi	a0,a0,0
     6e2:	061a                	slli	a2,a2,0x6
     6e4:	00090003          	lb	zero,0(s2)
     6e8:	0100                	addi	s0,sp,128
     6ea:	0f05                	addi	t5,t5,1
     6ec:	0e090003          	lb	zero,224(s2)
     6f0:	0100                	addi	s0,sp,128
     6f2:	1a05                	addi	s4,s4,-31
     6f4:	04090003          	lb	zero,64(s2)
     6f8:	0100                	addi	s0,sp,128
     6fa:	0f05                	addi	t5,t5,1
     6fc:	04090003          	lb	zero,64(s2)
     700:	0100                	addi	s0,sp,128
     702:	0205                	addi	tp,tp,1
     704:	0306                	slli	t1,t1,0x1
     706:	00060903          	lb	s2,0(a2) # 7873b <wiring.c.7604182b+0x75fbf>
     70a:	0501                	addi	a0,a0,0
     70c:	0605                	addi	a2,a2,1
     70e:	00090003          	lb	zero,0(s2)
     712:	0100                	addi	s0,sp,128
     714:	0305                	addi	t1,t1,1
     716:	0306                	slli	t1,t1,0x1
     718:	0901                	addi	s2,s2,0
     71a:	0002                	c.slli64	zero
     71c:	0501                	addi	a0,a0,0
     71e:	094c0307          	0x94c0307
     722:	000a                	c.slli	zero,0x2
     724:	0501                	addi	a0,a0,0
     726:	060a                	slli	a2,a2,0x2
     728:	00090003          	lb	zero,0(s2)
     72c:	0100                	addi	s0,sp,128
     72e:	0305                	addi	t1,t1,1
     730:	0306                	slli	t1,t1,0x1
     732:	0901                	addi	s2,s2,0
     734:	0006                	c.slli	zero,0x1
     736:	0301                	addi	t1,t1,0
     738:	0901                	addi	s2,s2,0
     73a:	0000                	unimp
     73c:	0501                	addi	a0,a0,0
     73e:	0615                	addi	a2,a2,5
     740:	00090003          	lb	zero,0(s2)
     744:	0100                	addi	s0,sp,128
     746:	0d05                	addi	s10,s10,1
     748:	04090003          	lb	zero,64(s2)
     74c:	0100                	addi	s0,sp,128
     74e:	0905                	addi	s2,s2,1
     750:	06097f03          	0x6097f03
     754:	0100                	addi	s0,sp,128
     756:	0705                	addi	a4,a4,1
     758:	0306                	slli	t1,t1,0x1
     75a:	00060903          	lb	s2,0(a2)
     75e:	0501                	addi	a0,a0,0
     760:	060a                	slli	a2,a2,0x2
     762:	00090003          	lb	zero,0(s2)
     766:	0100                	addi	s0,sp,128
     768:	0305                	addi	t1,t1,1
     76a:	0306                	slli	t1,t1,0x1
     76c:	0901                	addi	s2,s2,0
     76e:	0006                	c.slli	zero,0x1
     770:	0301                	addi	t1,t1,0
     772:	0901                	addi	s2,s2,0
     774:	0000                	unimp
     776:	0501                	addi	a0,a0,0
     778:	0615                	addi	a2,a2,5
     77a:	00090003          	lb	zero,0(s2)
     77e:	0100                	addi	s0,sp,128
     780:	0d05                	addi	s10,s10,1
     782:	04090003          	lb	zero,64(s2)
     786:	0100                	addi	s0,sp,128
     788:	0905                	addi	s2,s2,1
     78a:	04097f03          	0x4097f03
     78e:	0100                	addi	s0,sp,128
     790:	0d05                	addi	s10,s10,1
     792:	04090103          	lb	sp,64(s2)
     796:	0100                	addi	s0,sp,128
     798:	0905                	addi	s2,s2,1
     79a:	02097f03          	0x2097f03
     79e:	0100                	addi	s0,sp,128
     7a0:	0105                	addi	sp,sp,1
     7a2:	06093103          	0x6093103
     7a6:	0100                	addi	s0,sp,128
     7a8:	0209                	addi	tp,tp,2
     7aa:	0000                	unimp
     7ac:	0101                	addi	sp,sp,0
     7ae:	0505                	addi	a0,a0,1
     7b0:	0500                	addi	s0,sp,640
     7b2:	0002                	c.slli64	zero
     7b4:	0000                	unimp
     7b6:	0300                	addi	s0,sp,384
     7b8:	0798                	addi	a4,sp,960
     7ba:	0301                	addi	t1,t1,0
     7bc:	0900                	addi	s0,sp,144
     7be:	0000                	unimp
     7c0:	0501                	addi	a0,a0,0
     7c2:	09020307          	0x9020307
     7c6:	0000                	unimp
     7c8:	0501                	addi	a0,a0,0
     7ca:	0306                	slli	t1,t1,0x1
     7cc:	0901                	addi	s2,s2,0
     7ce:	0000                	unimp
     7d0:	0501                	addi	a0,a0,0
     7d2:	09020307          	0x9020307
     7d6:	0000                	unimp
     7d8:	0301                	addi	t1,t1,0
     7da:	0902                	c.slli64	s2
     7dc:	0000                	unimp
     7de:	0501                	addi	a0,a0,0
     7e0:	030c                	addi	a1,sp,384
     7e2:	00000903          	lb	s2,0(zero) # 0 <InterruptVector>
     7e6:	0501                	addi	a0,a0,0
     7e8:	0316                	slli	t1,t1,0x5
     7ea:	0900                	addi	s0,sp,144
     7ec:	0000                	unimp
     7ee:	0501                	addi	a0,a0,0
     7f0:	0308                	addi	a0,sp,384
     7f2:	0900                	addi	s0,sp,144
     7f4:	0000                	unimp
     7f6:	0501                	addi	a0,a0,0
     7f8:	0310                	addi	a2,sp,384
     7fa:	00000907          	0x907
     7fe:	0501                	addi	a0,a0,0
     800:	030c                	addi	a1,sp,384
     802:	00000903          	lb	s2,0(zero) # 0 <InterruptVector>
     806:	0501                	addi	a0,a0,0
     808:	0315                	addi	t1,t1,5
     80a:	0902                	c.slli64	s2
     80c:	0000                	unimp
     80e:	0501                	addi	a0,a0,0
     810:	030c                	addi	a1,sp,384
     812:	097e                	slli	s2,s2,0x1f
     814:	0000                	unimp
     816:	0501                	addi	a0,a0,0
     818:	0315                	addi	t1,t1,5
     81a:	0902                	c.slli64	s2
     81c:	0000                	unimp
     81e:	0501                	addi	a0,a0,0
     820:	0305                	addi	t1,t1,1
     822:	097f                	0x97f
     824:	0000                	unimp
     826:	0501                	addi	a0,a0,0
     828:	0310                	addi	a2,sp,384
     82a:	00000903          	lb	s2,0(zero) # 0 <InterruptVector>
     82e:	0501                	addi	a0,a0,0
     830:	030c                	addi	a1,sp,384
     832:	0900                	addi	s0,sp,144
     834:	0000                	unimp
     836:	0501                	addi	a0,a0,0
     838:	0310                	addi	a2,sp,384
     83a:	0900                	addi	s0,sp,144
     83c:	0000                	unimp
     83e:	0501                	addi	a0,a0,0
     840:	0308                	addi	a0,sp,384
     842:	097e                	slli	s2,s2,0x1f
     844:	0000                	unimp
     846:	0501                	addi	a0,a0,0
     848:	0315                	addi	t1,t1,5
     84a:	0900                	addi	s0,sp,144
     84c:	0000                	unimp
     84e:	0501                	addi	a0,a0,0
     850:	031e                	slli	t1,t1,0x7
     852:	0905                	addi	s2,s2,1
     854:	0000                	unimp
     856:	0501                	addi	a0,a0,0
     858:	0314                	addi	a3,sp,384
     85a:	0900                	addi	s0,sp,144
     85c:	0000                	unimp
     85e:	0501                	addi	a0,a0,0
     860:	030d                	addi	t1,t1,3
     862:	0900                	addi	s0,sp,144
     864:	0000                	unimp
     866:	0501                	addi	a0,a0,0
     868:	030c                	addi	a1,sp,384
     86a:	0901                	addi	s2,s2,0
     86c:	0000                	unimp
     86e:	0501                	addi	a0,a0,0
     870:	0309                	addi	t1,t1,2
     872:	00000903          	lb	s2,0(zero) # 0 <InterruptVector>
     876:	0501                	addi	a0,a0,0
     878:	030c                	addi	a1,sp,384
     87a:	097d                	addi	s2,s2,31
     87c:	0000                	unimp
     87e:	0501                	addi	a0,a0,0
     880:	0306                	slli	t1,t1,0x1
     882:	0000096f          	jal	s2,882 <_data_lma+0x1ba>
     886:	0501                	addi	a0,a0,0
     888:	0301                	addi	t1,t1,0
     88a:	00000917          	auipc	s2,0x0
     88e:	0901                	addi	s2,s2,0
     890:	0000                	unimp
     892:	0100                	addi	s0,sp,128
     894:	0501                	addi	a0,a0,0
     896:	0001                	nop
     898:	0205                	addi	tp,tp,1
     89a:	0000                	unimp
     89c:	0000                	unimp
     89e:	05011403          	lh	s0,80(sp)
     8a2:	0302                	c.slli64	t1
     8a4:	0901                	addi	s2,s2,0
     8a6:	0000                	unimp
     8a8:	0501                	addi	a0,a0,0
     8aa:	0601                	addi	a2,a2,0
     8ac:	00097f03          	0x97f03
     8b0:	0100                	addi	s0,sp,128
     8b2:	00090003          	lb	zero,0(s2) # 88a <_data_lma+0x1c2>
     8b6:	0100                	addi	s0,sp,128
     8b8:	0205                	addi	tp,tp,1
     8ba:	00090103          	lb	sp,0(s2)
     8be:	0100                	addi	s0,sp,128
     8c0:	0306                	slli	t1,t1,0x1
     8c2:	0901                	addi	s2,s2,0
     8c4:	0000                	unimp
     8c6:	0501                	addi	a0,a0,0
     8c8:	0601                	addi	a2,a2,0
     8ca:	00090103          	lb	sp,0(s2)
     8ce:	0100                	addi	s0,sp,128
     8d0:	0009                	c.nop	2
     8d2:	0000                	unimp
     8d4:	0101                	addi	sp,sp,0
     8d6:	0304                	addi	s1,sp,384
     8d8:	0c05                	addi	s8,s8,1
     8da:	0500                	addi	s0,sp,640
     8dc:	a402                	fsd	ft0,8(sp)
     8de:	0001                	nop
     8e0:	0300                	addi	s0,sp,384
     8e2:	029f 0501 0302      	0x3020501029f
     8e8:	0901                	addi	s2,s2,0
     8ea:	0000                	unimp
     8ec:	0401                	addi	s0,s0,0
     8ee:	0301                	addi	t1,t1,0
     8f0:	0499                	addi	s1,s1,6
     8f2:	0009                	c.nop	2
     8f4:	0100                	addi	s0,sp,128
     8f6:	0304                	addi	s1,sp,384
     8f8:	0c05                	addi	s8,s8,1
     8fa:	0306                	slli	t1,t1,0x1
     8fc:	7be6                	flw	fs7,120(sp)
     8fe:	0009                	c.nop	2
     900:	0100                	addi	s0,sp,128
     902:	0104                	addi	s1,sp,128
     904:	0d05                	addi	s10,s10,1
     906:	09049a03          	lh	s4,144(s1) # 4090 <wiring.c.7604182b+0x1914>
     90a:	0008                	0x8
     90c:	0301                	addi	t1,t1,0
     90e:	0901                	addi	s2,s2,0
     910:	0004                	0x4
     912:	0301                	addi	t1,t1,0
     914:	097f                	0x97f
     916:	0004                	0x4
     918:	0501                	addi	a0,a0,0
     91a:	0602                	c.slli64	a2
     91c:	04090103          	lb	sp,64(s2)
     920:	0100                	addi	s0,sp,128
     922:	0d05                	addi	s10,s10,1
     924:	0306                	slli	t1,t1,0x1
     926:	0900                	addi	s0,sp,144
     928:	0000                	unimp
     92a:	0501                	addi	a0,a0,0
     92c:	0602                	c.slli64	a2
     92e:	06090103          	lb	sp,96(s2)
     932:	0100                	addi	s0,sp,128
     934:	0f05                	addi	t5,t5,1
     936:	0306                	slli	t1,t1,0x1
     938:	0900                	addi	s0,sp,144
     93a:	0000                	unimp
     93c:	0501                	addi	a0,a0,0
     93e:	0602                	c.slli64	a2
     940:	08090103          	lb	sp,128(s2)
     944:	0100                	addi	s0,sp,128
     946:	0d05                	addi	s10,s10,1
     948:	0306                	slli	t1,t1,0x1
     94a:	0900                	addi	s0,sp,144
     94c:	0000                	unimp
     94e:	0501                	addi	a0,a0,0
     950:	0602                	c.slli64	a2
     952:	06090303          	lb	t1,96(s2)
     956:	0100                	addi	s0,sp,128
     958:	1305                	addi	t1,t1,-31
     95a:	0306                	slli	t1,t1,0x1
     95c:	0900                	addi	s0,sp,144
     95e:	0000                	unimp
     960:	0501                	addi	a0,a0,0
     962:	030c                	addi	a1,sp,384
     964:	0900                	addi	s0,sp,144
     966:	0004                	0x4
     968:	0501                	addi	a0,a0,0
     96a:	0626                	slli	a2,a2,0x9
     96c:	04090003          	lb	zero,64(s2)
     970:	0100                	addi	s0,sp,128
     972:	0705                	addi	a4,a4,1
     974:	00090003          	lb	zero,0(s2)
     978:	0100                	addi	s0,sp,128
     97a:	0c05                	addi	s8,s8,1
     97c:	0306                	slli	t1,t1,0x1
     97e:	0900                	addi	s0,sp,144
     980:	0000                	unimp
     982:	0501                	addi	a0,a0,0
     984:	09000313          	li	t1,144
     988:	0002                	c.slli64	zero
     98a:	0501                	addi	a0,a0,0
     98c:	09000307          	0x9000307
     990:	0002                	c.slli64	zero
     992:	0501                	addi	a0,a0,0
     994:	0602                	c.slli64	a2
     996:	02090103          	lb	sp,32(s2)
     99a:	0100                	addi	s0,sp,128
     99c:	1405                	addi	s0,s0,-31
     99e:	0306                	slli	t1,t1,0x1
     9a0:	0900                	addi	s0,sp,144
     9a2:	0000                	unimp
     9a4:	0501                	addi	a0,a0,0
     9a6:	0308                	addi	a0,sp,384
     9a8:	0901                	addi	s2,s2,0
     9aa:	0002                	c.slli64	zero
     9ac:	0501                	addi	a0,a0,0
     9ae:	031c                	addi	a5,sp,384
     9b0:	097f                	0x97f
     9b2:	0002                	c.slli64	zero
     9b4:	0501                	addi	a0,a0,0
     9b6:	0335                	addi	t1,t1,13
     9b8:	0900                	addi	s0,sp,144
     9ba:	0002                	c.slli64	zero
     9bc:	0501                	addi	a0,a0,0
     9be:	030d                	addi	t1,t1,3
     9c0:	0900                	addi	s0,sp,144
     9c2:	0004                	0x4
     9c4:	0501                	addi	a0,a0,0
     9c6:	0602                	c.slli64	a2
     9c8:	02090103          	lb	sp,32(s2)
     9cc:	0100                	addi	s0,sp,128
     9ce:	0d05                	addi	s10,s10,1
     9d0:	0306                	slli	t1,t1,0x1
     9d2:	0900                	addi	s0,sp,144
     9d4:	0000                	unimp
     9d6:	0501                	addi	a0,a0,0
     9d8:	063c                	addi	a5,sp,776
     9da:	04090003          	lb	zero,64(s2)
     9de:	0100                	addi	s0,sp,128
     9e0:	0805                	addi	a6,a6,1
     9e2:	00090003          	lb	zero,0(s2)
     9e6:	0100                	addi	s0,sp,128
     9e8:	0d05                	addi	s10,s10,1
     9ea:	0306                	slli	t1,t1,0x1
     9ec:	0900                	addi	s0,sp,144
     9ee:	0000                	unimp
     9f0:	0501                	addi	a0,a0,0
     9f2:	0315                	addi	t1,t1,5
     9f4:	0900                	addi	s0,sp,144
     9f6:	0002                	c.slli64	zero
     9f8:	0501                	addi	a0,a0,0
     9fa:	0308                	addi	a0,sp,384
     9fc:	0900                	addi	s0,sp,144
     9fe:	0002                	c.slli64	zero
     a00:	0401                	addi	s0,s0,0
     a02:	06020503          	lb	a0,96(tp) # 60 <InterruptVector+0x60>
     a06:	097be003          	0x97be003
     a0a:	0004                	0x4
     a0c:	0301                	addi	t1,t1,0
     a0e:	7f95                	lui	t6,0xfffe5
     a10:	0009                	c.nop	2
     a12:	0100                	addi	s0,sp,128
     a14:	1005                	c.nop	-31
     a16:	0306                	slli	t1,t1,0x1
     a18:	0900                	addi	s0,sp,144
     a1a:	0000                	unimp
     a1c:	0501                	addi	a0,a0,0
     a1e:	0602                	c.slli64	a2
     a20:	08090303          	lb	t1,128(s2)
     a24:	0100                	addi	s0,sp,128
     a26:	0404                	addi	s1,sp,512
     a28:	0305                	addi	t1,t1,1
     a2a:	0921ef03          	0x921ef03
     a2e:	0000                	unimp
     a30:	0501                	addi	a0,a0,0
     a32:	00030627          	0x30627
     a36:	0009                	c.nop	2
     a38:	0100                	addi	s0,sp,128
     a3a:	0304                	addi	s1,sp,384
     a3c:	0205                	addi	tp,tp,1
     a3e:	0306                	slli	t1,t1,0x1
     a40:	0a095e97          	auipc	t4,0xa095
     a44:	0100                	addi	s0,sp,128
     a46:	0f05                	addi	t5,t5,1
     a48:	0306                	slli	t1,t1,0x1
     a4a:	0900                	addi	s0,sp,144
     a4c:	0000                	unimp
     a4e:	0501                	addi	a0,a0,0
     a50:	0602                	c.slli64	a2
     a52:	06090303          	lb	t1,96(s2)
     a56:	0100                	addi	s0,sp,128
     a58:	0f05                	addi	t5,t5,1
     a5a:	0306                	slli	t1,t1,0x1
     a5c:	0900                	addi	s0,sp,144
     a5e:	0000                	unimp
     a60:	0501                	addi	a0,a0,0
     a62:	0602                	c.slli64	a2
     a64:	04090303          	lb	t1,64(s2)
     a68:	0100                	addi	s0,sp,128
     a6a:	1005                	c.nop	-31
     a6c:	0306                	slli	t1,t1,0x1
     a6e:	0900                	addi	s0,sp,144
     a70:	0000                	unimp
     a72:	0501                	addi	a0,a0,0
     a74:	0602                	c.slli64	a2
     a76:	0900dd03          	lhu	s10,144(ra)
     a7a:	0004                	0x4
     a7c:	0301                	addi	t1,t1,0
     a7e:	7edc                	flw	fa5,60(a3)
     a80:	0009                	c.nop	2
     a82:	0100                	addi	s0,sp,128
     a84:	0d05                	addi	s10,s10,1
     a86:	0306                	slli	t1,t1,0x1
     a88:	0900                	addi	s0,sp,144
     a8a:	0000                	unimp
     a8c:	0501                	addi	a0,a0,0
     a8e:	0602                	c.slli64	a2
     a90:	0c090303          	lb	t1,192(s2)
     a94:	0100                	addi	s0,sp,128
     a96:	1105                	addi	sp,sp,-31
     a98:	0306                	slli	t1,t1,0x1
     a9a:	0900                	addi	s0,sp,144
     a9c:	0000                	unimp
     a9e:	0501                	addi	a0,a0,0
     aa0:	0903030f          	0x903030f
     aa4:	0002                	c.slli64	zero
     aa6:	0501                	addi	a0,a0,0
     aa8:	0311                	addi	t1,t1,4
     aaa:	097d                	addi	s2,s2,31
     aac:	0006                	c.slli	zero,0x1
     aae:	0501                	addi	a0,a0,0
     ab0:	0602                	c.slli64	a2
     ab2:	06090303          	lb	t1,96(s2)
     ab6:	0100                	addi	s0,sp,128
     ab8:	0f05                	addi	t5,t5,1
     aba:	0306                	slli	t1,t1,0x1
     abc:	0900                	addi	s0,sp,144
     abe:	0000                	unimp
     ac0:	0501                	addi	a0,a0,0
     ac2:	0602                	c.slli64	a2
     ac4:	0e090303          	lb	t1,224(s2)
     ac8:	0100                	addi	s0,sp,128
     aca:	1105                	addi	sp,sp,-31
     acc:	0306                	slli	t1,t1,0x1
     ace:	0900                	addi	s0,sp,144
     ad0:	0000                	unimp
     ad2:	0501                	addi	a0,a0,0
     ad4:	030e                	slli	t1,t1,0x3
     ad6:	090d                	addi	s2,s2,3
     ad8:	0002                	c.slli64	zero
     ada:	0501                	addi	a0,a0,0
     adc:	0311                	addi	t1,t1,4
     ade:	00060973          	0x60973
     ae2:	0501                	addi	a0,a0,0
     ae4:	0602                	c.slli64	a2
     ae6:	06090103          	lb	sp,96(s2)
     aea:	0100                	addi	s0,sp,128
     aec:	1105                	addi	sp,sp,-31
     aee:	0306                	slli	t1,t1,0x1
     af0:	0900                	addi	s0,sp,144
     af2:	0000                	unimp
     af4:	0501                	addi	a0,a0,0
     af6:	0602                	c.slli64	a2
     af8:	08090303          	lb	t1,128(s2)
     afc:	0100                	addi	s0,sp,128
     afe:	0e05                	addi	t3,t3,1
     b00:	0306                	slli	t1,t1,0x1
     b02:	0900                	addi	s0,sp,144
     b04:	0000                	unimp
     b06:	0501                	addi	a0,a0,0
     b08:	0602                	c.slli64	a2
     b0a:	08090103          	lb	sp,128(s2)
     b0e:	0100                	addi	s0,sp,128
     b10:	0e05                	addi	t3,t3,1
     b12:	0306                	slli	t1,t1,0x1
     b14:	0900                	addi	s0,sp,144
     b16:	0000                	unimp
     b18:	0501                	addi	a0,a0,0
     b1a:	0602                	c.slli64	a2
     b1c:	04090103          	lb	sp,64(s2)
     b20:	0100                	addi	s0,sp,128
     b22:	0e05                	addi	t3,t3,1
     b24:	0306                	slli	t1,t1,0x1
     b26:	0900                	addi	s0,sp,144
     b28:	0000                	unimp
     b2a:	0501                	addi	a0,a0,0
     b2c:	0602                	c.slli64	a2
     b2e:	04090303          	lb	t1,64(s2)
     b32:	0100                	addi	s0,sp,128
     b34:	1005                	c.nop	-31
     b36:	0306                	slli	t1,t1,0x1
     b38:	0900                	addi	s0,sp,144
     b3a:	0000                	unimp
     b3c:	0501                	addi	a0,a0,0
     b3e:	0602                	c.slli64	a2
     b40:	0c090103          	lb	sp,192(s2)
     b44:	0100                	addi	s0,sp,128
     b46:	1005                	c.nop	-31
     b48:	0306                	slli	t1,t1,0x1
     b4a:	0900                	addi	s0,sp,144
     b4c:	0000                	unimp
     b4e:	0501                	addi	a0,a0,0
     b50:	0602                	c.slli64	a2
     b52:	08090303          	lb	t1,128(s2)
     b56:	0100                	addi	s0,sp,128
     b58:	0e05                	addi	t3,t3,1
     b5a:	0306                	slli	t1,t1,0x1
     b5c:	0900                	addi	s0,sp,144
     b5e:	0000                	unimp
     b60:	0501                	addi	a0,a0,0
     b62:	0602                	c.slli64	a2
     b64:	0a090303          	lb	t1,160(s2)
     b68:	0100                	addi	s0,sp,128
     b6a:	0e05                	addi	t3,t3,1
     b6c:	0306                	slli	t1,t1,0x1
     b6e:	0900                	addi	s0,sp,144
     b70:	0000                	unimp
     b72:	0501                	addi	a0,a0,0
     b74:	030c                	addi	a1,sp,384
     b76:	0901                	addi	s2,s2,0
     b78:	0004                	0x4
     b7a:	0501                	addi	a0,a0,0
     b7c:	030e                	slli	t1,t1,0x3
     b7e:	097f                	0x97f
     b80:	0004                	0x4
     b82:	0501                	addi	a0,a0,0
     b84:	0602                	c.slli64	a2
     b86:	08090103          	lb	sp,128(s2)
     b8a:	0100                	addi	s0,sp,128
     b8c:	2105                	jal	fac <ch32v003fun.c.8affbd33+0x57>
     b8e:	00090003          	lb	zero,0(s2)
     b92:	0100                	addi	s0,sp,128
     b94:	0705                	addi	a4,a4,1
     b96:	00090003          	lb	zero,0(s2)
     b9a:	0100                	addi	s0,sp,128
     b9c:	0c05                	addi	s8,s8,1
     b9e:	0306                	slli	t1,t1,0x1
     ba0:	0900                	addi	s0,sp,144
     ba2:	0000                	unimp
     ba4:	0501                	addi	a0,a0,0
     ba6:	0314                	addi	a3,sp,384
     ba8:	0900                	addi	s0,sp,144
     baa:	0004                	0x4
     bac:	0501                	addi	a0,a0,0
     bae:	09000307          	0x9000307
     bb2:	0002                	c.slli64	zero
     bb4:	0501                	addi	a0,a0,0
     bb6:	0602                	c.slli64	a2
     bb8:	02090303          	lb	t1,32(s2)
     bbc:	0100                	addi	s0,sp,128
     bbe:	0e05                	addi	t3,t3,1
     bc0:	0306                	slli	t1,t1,0x1
     bc2:	0900                	addi	s0,sp,144
     bc4:	0000                	unimp
     bc6:	0501                	addi	a0,a0,0
     bc8:	0602                	c.slli64	a2
     bca:	0c090103          	lb	sp,192(s2)
     bce:	0100                	addi	s0,sp,128
     bd0:	0c05                	addi	s8,s8,1
     bd2:	0306                	slli	t1,t1,0x1
     bd4:	0900                	addi	s0,sp,144
     bd6:	0000                	unimp
     bd8:	0501                	addi	a0,a0,0
     bda:	061e                	slli	a2,a2,0x7
     bdc:	04090003          	lb	zero,64(s2)
     be0:	0100                	addi	s0,sp,128
     be2:	0705                	addi	a4,a4,1
     be4:	00090003          	lb	zero,0(s2)
     be8:	0100                	addi	s0,sp,128
     bea:	0c05                	addi	s8,s8,1
     bec:	0306                	slli	t1,t1,0x1
     bee:	0900                	addi	s0,sp,144
     bf0:	0000                	unimp
     bf2:	0501                	addi	a0,a0,0
     bf4:	0314                	addi	a3,sp,384
     bf6:	0900                	addi	s0,sp,144
     bf8:	0004                	0x4
     bfa:	0501                	addi	a0,a0,0
     bfc:	09000307          	0x9000307
     c00:	0002                	c.slli64	zero
     c02:	0501                	addi	a0,a0,0
     c04:	0602                	c.slli64	a2
     c06:	09018903          	lb	s2,144(gp) # 20000920 <__global_pointer$+0x90>
     c0a:	0002                	c.slli64	zero
     c0c:	0401                	addi	s0,s0,0
     c0e:	0302                	c.slli64	t1
     c10:	00097df3          	csrrci	s11,ustatus,18
     c14:	0100                	addi	s0,sp,128
     c16:	0405                	addi	s0,s0,1
     c18:	00090203          	lb	tp,0(s2)
     c1c:	0100                	addi	s0,sp,128
     c1e:	1305                	addi	t1,t1,-31
     c20:	0306                	slli	t1,t1,0x1
     c22:	0900                	addi	s0,sp,144
     c24:	0000                	unimp
     c26:	0401                	addi	s0,s0,0
     c28:	03020503          	lb	a0,48(tp) # 30 <InterruptVector+0x30>
     c2c:	0609028f          	0x609028f
     c30:	0100                	addi	s0,sp,128
     c32:	0204                	addi	s1,sp,256
     c34:	1305                	addi	t1,t1,-31
     c36:	097df103          	0x97df103
     c3a:	0004                	0x4
     c3c:	0501                	addi	a0,a0,0
     c3e:	0604                	addi	s1,sp,768
     c40:	06090103          	lb	sp,96(s2)
     c44:	0100                	addi	s0,sp,128
     c46:	0304                	addi	s1,sp,384
     c48:	0205                	addi	tp,tp,1
     c4a:	09028b03          	lb	s6,144(t0) # 11940ae <wiring.c.7604182b+0x1191932>
     c4e:	0000                	unimp
     c50:	0401                	addi	s0,s0,0
     c52:	0302                	c.slli64	t1
     c54:	7df2                	flw	fs11,60(sp)
     c56:	0009                	c.nop	2
     c58:	0100                	addi	s0,sp,128
     c5a:	0405                	addi	s0,s0,1
     c5c:	00090503          	lb	a0,0(s2)
     c60:	0100                	addi	s0,sp,128
     c62:	1305                	addi	t1,t1,-31
     c64:	0306                	slli	t1,t1,0x1
     c66:	0900                	addi	s0,sp,144
     c68:	0000                	unimp
     c6a:	0401                	addi	s0,s0,0
     c6c:	02950303          	lb	t1,41(a0)
     c70:	0209                	addi	tp,tp,2
     c72:	0100                	addi	s0,sp,128
     c74:	0e05                	addi	t3,t3,1
     c76:	097ef503          	0x97ef503
     c7a:	0004                	0x4
     c7c:	0401                	addi	s0,s0,0
     c7e:	0502                	c.slli64	a0
     c80:	7ef60313          	addi	t1,a2,2031
     c84:	0409                	addi	s0,s0,2
     c86:	0100                	addi	s0,sp,128
     c88:	0405                	addi	s0,s0,1
     c8a:	0306                	slli	t1,t1,0x1
     c8c:	0901                	addi	s2,s2,0
     c8e:	0006                	c.slli	zero,0x1
     c90:	0401                	addi	s0,s0,0
     c92:	03020503          	lb	a0,48(tp) # 30 <InterruptVector+0x30>
     c96:	0009028b          	0x9028b
     c9a:	0100                	addi	s0,sp,128
     c9c:	02090103          	lb	sp,32(s2)
     ca0:	0100                	addi	s0,sp,128
     ca2:	06090103          	lb	sp,96(s2)
     ca6:	0100                	addi	s0,sp,128
     ca8:	06090103          	lb	sp,96(s2)
     cac:	0100                	addi	s0,sp,128
     cae:	0305                	addi	t1,t1,1
     cb0:	0306                	slli	t1,t1,0x1
     cb2:	0905                	addi	s2,s2,1
     cb4:	0006                	c.slli	zero,0x1
     cb6:	0501                	addi	a0,a0,0
     cb8:	030e                	slli	t1,t1,0x3
     cba:	7ef6                	flw	ft9,124(sp)
     cbc:	0409                	addi	s0,s0,2
     cbe:	0100                	addi	s0,sp,128
     cc0:	0104                	addi	s1,sp,128
     cc2:	1c05                	addi	s8,s8,-31
     cc4:	0906ae03          	lw	t3,144(a3)
     cc8:	0004                	0x4
     cca:	0401                	addi	s0,s0,0
     ccc:	03030503          	lb	a0,48(t1)
     cd0:	7adc                	flw	fa5,52(a3)
     cd2:	0409                	addi	s0,s0,2
     cd4:	0100                	addi	s0,sp,128
     cd6:	1305                	addi	t1,t1,-31
     cd8:	06090103          	lb	sp,96(s2)
     cdc:	0100                	addi	s0,sp,128
     cde:	0205                	addi	tp,tp,1
     ce0:	0306                	slli	t1,t1,0x1
     ce2:	097c                	addi	a5,sp,156
     ce4:	0004                	0x4
     ce6:	0501                	addi	a0,a0,0
     ce8:	09020303          	lb	t1,144(tp) # 90 <InterruptVector+0x90>
     cec:	0000                	unimp
     cee:	0501                	addi	a0,a0,0
     cf0:	0302                	c.slli64	t1
     cf2:	00097ef7          	0x97ef7
     cf6:	0100                	addi	s0,sp,128
     cf8:	0e05                	addi	t3,t3,1
     cfa:	0306                	slli	t1,t1,0x1
     cfc:	0900                	addi	s0,sp,144
     cfe:	0000                	unimp
     d00:	0501                	addi	a0,a0,0
     d02:	0602                	c.slli64	a2
     d04:	0c090303          	lb	t1,192(s2)
     d08:	0100                	addi	s0,sp,128
     d0a:	2105                	jal	112a <ch32v003fun.c.8affbd33+0x1d5>
     d0c:	00090003          	lb	zero,0(s2)
     d10:	0100                	addi	s0,sp,128
     d12:	0705                	addi	a4,a4,1
     d14:	00090003          	lb	zero,0(s2)
     d18:	0100                	addi	s0,sp,128
     d1a:	0e05                	addi	t3,t3,1
     d1c:	0306                	slli	t1,t1,0x1
     d1e:	0900                	addi	s0,sp,144
     d20:	0000                	unimp
     d22:	0501                	addi	a0,a0,0
     d24:	0316                	slli	t1,t1,0x5
     d26:	0900                	addi	s0,sp,144
     d28:	0004                	0x4
     d2a:	0501                	addi	a0,a0,0
     d2c:	09000307          	0x9000307
     d30:	0002                	c.slli64	zero
     d32:	0501                	addi	a0,a0,0
     d34:	0602                	c.slli64	a2
     d36:	02090303          	lb	t1,32(s2)
     d3a:	0100                	addi	s0,sp,128
     d3c:	0d05                	addi	s10,s10,1
     d3e:	0306                	slli	t1,t1,0x1
     d40:	0900                	addi	s0,sp,144
     d42:	0000                	unimp
     d44:	0501                	addi	a0,a0,0
     d46:	84030603          	lb	a2,-1984(t1)
     d4a:	0901                	addi	s2,s2,0
     d4c:	0004                	0x4
     d4e:	0401                	addi	s0,s0,0
     d50:	0501                	addi	a0,a0,0
     d52:	0302                	c.slli64	t1
     d54:	05a4                	addi	s1,sp,712
     d56:	0009                	c.nop	2
     d58:	0100                	addi	s0,sp,128
     d5a:	1c05                	addi	s8,s8,-31
     d5c:	0306                	slli	t1,t1,0x1
     d5e:	0900                	addi	s0,sp,144
     d60:	0000                	unimp
     d62:	0401                	addi	s0,s0,0
     d64:	03030503          	lb	a0,48(t1)
     d68:	7adc                	flw	fa5,52(a3)
     d6a:	0409                	addi	s0,s0,2
     d6c:	0100                	addi	s0,sp,128
     d6e:	0104                	addi	s1,sp,128
     d70:	1c05                	addi	s8,s8,-31
     d72:	0905a403          	lw	s0,144(a1) # 90 <InterruptVector+0x90>
     d76:	0006                	c.slli	zero,0x1
     d78:	0401                	addi	s0,s0,0
     d7a:	03030503          	lb	a0,48(t1)
     d7e:	7adc                	flw	fa5,52(a3)
     d80:	0209                	addi	tp,tp,2
     d82:	0100                	addi	s0,sp,128
     d84:	0104                	addi	s1,sp,128
     d86:	0b05                	addi	s6,s6,1
     d88:	0905a403          	lw	s0,144(a1)
     d8c:	0002                	c.slli64	zero
     d8e:	0501                	addi	a0,a0,0
     d90:	0602                	c.slli64	a2
     d92:	18090103          	lb	sp,384(s2)
     d96:	0100                	addi	s0,sp,128
     d98:	3405                	jal	7b8 <_data_lma+0xf0>
     d9a:	00090003          	lb	zero,0(s2)
     d9e:	0100                	addi	s0,sp,128
     da0:	0705                	addi	a4,a4,1
     da2:	00090003          	lb	zero,0(s2)
     da6:	0100                	addi	s0,sp,128
     da8:	1c05                	addi	s8,s8,-31
     daa:	0306                	slli	t1,t1,0x1
     dac:	0900                	addi	s0,sp,144
     dae:	0000                	unimp
     db0:	0501                	addi	a0,a0,0
     db2:	0322                	slli	t1,t1,0x8
     db4:	0900                	addi	s0,sp,144
     db6:	0004                	0x4
     db8:	0501                	addi	a0,a0,0
     dba:	09000307          	0x9000307
     dbe:	0002                	c.slli64	zero
     dc0:	0401                	addi	s0,s0,0
     dc2:	06030503          	lb	a0,96(t1)
     dc6:	097adc03          	lhu	s8,151(s5)
     dca:	0004                	0x4
     dcc:	0501                	addi	a0,a0,0
     dce:	00030613          	mv	a2,t1
     dd2:	0009                	c.nop	2
     dd4:	0100                	addi	s0,sp,128
     dd6:	0b05                	addi	s6,s6,1
     dd8:	04090103          	lb	sp,64(s2)
     ddc:	0100                	addi	s0,sp,128
     dde:	0305                	addi	t1,t1,1
     de0:	02090003          	lb	zero,32(s2)
     de4:	0100                	addi	s0,sp,128
     de6:	1305                	addi	t1,t1,-31
     de8:	02097f03          	0x2097f03
     dec:	0100                	addi	s0,sp,128
     dee:	0305                	addi	t1,t1,1
     df0:	0306                	slli	t1,t1,0x1
     df2:	0901                	addi	s2,s2,0
     df4:	0004                	0x4
     df6:	0501                	addi	a0,a0,0
     df8:	09000307          	0x9000307
     dfc:	0000                	unimp
     dfe:	0501                	addi	a0,a0,0
     e00:	0310                	addi	a2,sp,384
     e02:	0900                	addi	s0,sp,144
     e04:	0000                	unimp
     e06:	0501                	addi	a0,a0,0
     e08:	0004                	0x4
     e0a:	0402                	c.slli64	s0
     e0c:	09010303          	lb	t1,144(sp)
     e10:	0000                	unimp
     e12:	0501                	addi	a0,a0,0
     e14:	0020                	addi	s0,sp,8
     e16:	0402                	c.slli64	s0
     e18:	00030603          	lb	a2,0(t1)
     e1c:	0009                	c.nop	2
     e1e:	0100                	addi	s0,sp,128
     e20:	1805                	addi	a6,a6,-31
     e22:	0200                	addi	s0,sp,256
     e24:	0304                	addi	s1,sp,384
     e26:	10090003          	lb	zero,256(s2)
     e2a:	0100                	addi	s0,sp,128
     e2c:	2005                	jal	e4c <_data_lma+0x784>
     e2e:	0200                	addi	s0,sp,256
     e30:	0304                	addi	s1,sp,384
     e32:	06090003          	lb	zero,96(s2)
     e36:	0100                	addi	s0,sp,128
     e38:	1805                	addi	a6,a6,-31
     e3a:	0200                	addi	s0,sp,256
     e3c:	0304                	addi	s1,sp,384
     e3e:	04090003          	lb	zero,64(s2)
     e42:	0100                	addi	s0,sp,128
     e44:	1605                	addi	a2,a2,-31
     e46:	0200                	addi	s0,sp,256
     e48:	0304                	addi	s1,sp,384
     e4a:	0306                	slli	t1,t1,0x1
     e4c:	097f                	0x97f
     e4e:	0006                	c.slli	zero,0x1
     e50:	0501                	addi	a0,a0,0
     e52:	04020017          	auipc	zero,0x4020
     e56:	00030603          	lb	a2,0(t1)
     e5a:	0009                	c.nop	2
     e5c:	0100                	addi	s0,sp,128
     e5e:	1005                	c.nop	-31
     e60:	0200                	addi	s0,sp,256
     e62:	0304                	addi	s1,sp,384
     e64:	0306                	slli	t1,t1,0x1
     e66:	0900                	addi	s0,sp,144
     e68:	0002                	c.slli64	zero
     e6a:	0501                	addi	a0,a0,0
     e6c:	04020003          	lb	zero,64(tp) # 40 <InterruptVector+0x40>
     e70:	00030603          	lb	a2,0(t1)
     e74:	0009                	c.nop	2
     e76:	0100                	addi	s0,sp,128
     e78:	0306                	slli	t1,t1,0x1
     e7a:	00040903          	lb	s2,0(s0)
     e7e:	0501                	addi	a0,a0,0
     e80:	0616                	slli	a2,a2,0x5
     e82:	00090003          	lb	zero,0(s2)
     e86:	0100                	addi	s0,sp,128
     e88:	0705                	addi	a4,a4,1
     e8a:	0306                	slli	t1,t1,0x1
     e8c:	0978                	addi	a4,sp,156
     e8e:	0004                	0x4
     e90:	0901                	addi	s2,s2,0
     e92:	0002                	c.slli64	zero
     e94:	0100                	addi	s0,sp,128
     e96:	0501                	addi	a0,a0,0
     e98:	0001                	nop
     e9a:	0205                	addi	tp,tp,1
     e9c:	0378                	addi	a4,sp,396
     e9e:	0000                	unimp
     ea0:	0105fe03          	0x105fe03
     ea4:	0205                	addi	tp,tp,1
     ea6:	00090103          	lb	sp,0(s2)
     eaa:	0100                	addi	s0,sp,128
     eac:	0105                	addi	sp,sp,1
     eae:	28091403          	lh	s0,640(s2)
     eb2:	0100                	addi	s0,sp,128
     eb4:	0205                	addi	tp,tp,1
     eb6:	36091b03          	lh	s6,864(s2)
     eba:	0100                	addi	s0,sp,128
     ebc:	0105                	addi	sp,sp,1
     ebe:	08090303          	lb	t1,128(s2)
     ec2:	0100                	addi	s0,sp,128
     ec4:	0c09                	addi	s8,s8,2
     ec6:	0000                	unimp
     ec8:	0101                	addi	sp,sp,0
     eca:	0105                	addi	sp,sp,1
     ecc:	0006                	c.slli	zero,0x1
     ece:	0205                	addi	tp,tp,1
     ed0:	03ea                	slli	t2,t2,0x1a
     ed2:	0000                	unimp
     ed4:	0106b403          	0x106b403
     ed8:	0306                	slli	t1,t1,0x1
     eda:	00097ef3          	csrrci	t4,ustatus,18
     ede:	0100                	addi	s0,sp,128
     ee0:	0205                	addi	tp,tp,1
     ee2:	00090203          	lb	tp,0(s2)
     ee6:	0100                	addi	s0,sp,128
     ee8:	0209                	addi	tp,tp,2
     eea:	0000                	unimp
     eec:	0101                	addi	sp,sp,0
     eee:	0105                	addi	sp,sp,1
     ef0:	0006                	c.slli	zero,0x1
     ef2:	0205                	addi	tp,tp,1
     ef4:	0000                	unimp
     ef6:	0000                	unimp
     ef8:	0105aa03          	lw	s4,16(a1)
     efc:	1e05                	addi	t3,t3,-31
     efe:	0306                	slli	t1,t1,0x1
     f00:	7bc6                	flw	fs7,112(sp)
     f02:	0009                	c.nop	2
     f04:	0100                	addi	s0,sp,128
     f06:	2005                	jal	f26 <_data_lma+0x85e>
     f08:	00090003          	lb	zero,0(s2)
     f0c:	0100                	addi	s0,sp,128
     f0e:	3205                	jal	82e <_data_lma+0x166>
     f10:	00090003          	lb	zero,0(s2)
     f14:	0100                	addi	s0,sp,128
     f16:	1e05                	addi	t3,t3,-31
     f18:	0306                	slli	t1,t1,0x1
     f1a:	0900                	addi	s0,sp,144
     f1c:	0000                	unimp
     f1e:	0501                	addi	a0,a0,0
     f20:	0039                	c.nop	14
     f22:	0402                	c.slli64	s0
     f24:	0601                	addi	a2,a2,0
     f26:	00090003          	lb	zero,0(s2)
     f2a:	0100                	addi	s0,sp,128
     f2c:	3205                	jal	84c <_data_lma+0x184>
     f2e:	0200                	addi	s0,sp,256
     f30:	0104                	addi	s1,sp,128
     f32:	0306                	slli	t1,t1,0x1
     f34:	0900                	addi	s0,sp,144
     f36:	0000                	unimp
     f38:	0501                	addi	a0,a0,0
     f3a:	0042                	c.slli	zero,0x10
     f3c:	0402                	c.slli64	s0
     f3e:	0604                	addi	s1,sp,768
     f40:	00090003          	lb	zero,0(s2)
     f44:	0100                	addi	s0,sp,128
     f46:	4e05                	li	t3,1
     f48:	0200                	addi	s0,sp,256
     f4a:	0404                	addi	s1,sp,512
     f4c:	0306                	slli	t1,t1,0x1
     f4e:	0900                	addi	s0,sp,144
     f50:	0000                	unimp
     f52:	0501                	addi	a0,a0,0
     f54:	0041                	c.nop	16
     f56:	0402                	c.slli64	s0
     f58:	00030603          	lb	a2,0(t1)
     f5c:	0009                	c.nop	2
     f5e:	0100                	addi	s0,sp,128
     f60:	3d05                	jal	d90 <_data_lma+0x6c8>
     f62:	0200                	addi	s0,sp,256
     f64:	0304                	addi	s1,sp,384
     f66:	00090003          	lb	zero,0(s2)
     f6a:	0100                	addi	s0,sp,128
     f6c:	3e05                	jal	a9c <_data_lma+0x3d4>
     f6e:	0200                	addi	s0,sp,256
     f70:	0304                	addi	s1,sp,384
     f72:	0306                	slli	t1,t1,0x1
     f74:	0900                	addi	s0,sp,144
     f76:	0000                	unimp
     f78:	0901                	addi	s2,s2,0
     f7a:	0000                	unimp
     f7c:	0100                	addi	s0,sp,128
     f7e:	0501                	addi	a0,a0,0
     f80:	0001                	nop
     f82:	0205                	addi	tp,tp,1
     f84:	0000                	unimp
     f86:	0000                	unimp
     f88:	05011a03          	lh	s4,80(sp)
     f8c:	0302                	c.slli64	t1
     f8e:	0901                	addi	s2,s2,0
     f90:	0000                	unimp
     f92:	0301                	addi	t1,t1,0
     f94:	0901                	addi	s2,s2,0
     f96:	0000                	unimp
     f98:	0501                	addi	a0,a0,0
     f9a:	0601                	addi	a2,a2,0
     f9c:	00097e03          	0x97e03
     fa0:	0100                	addi	s0,sp,128
     fa2:	0205                	addi	tp,tp,1
     fa4:	00090203          	lb	tp,0(s2)
     fa8:	0100                	addi	s0,sp,128
     faa:	0105                	addi	sp,sp,1
     fac:	00097e03          	0x97e03
     fb0:	0100                	addi	s0,sp,128
     fb2:	00090003          	lb	zero,0(s2)
     fb6:	0100                	addi	s0,sp,128
     fb8:	0205                	addi	tp,tp,1
     fba:	00090203          	lb	tp,0(s2)
     fbe:	0100                	addi	s0,sp,128
     fc0:	0306                	slli	t1,t1,0x1
     fc2:	0901                	addi	s2,s2,0
     fc4:	0000                	unimp
     fc6:	0501                	addi	a0,a0,0
     fc8:	0606                	slli	a2,a2,0x1
     fca:	0903f603          	0x903f603
     fce:	0000                	unimp
     fd0:	0501                	addi	a0,a0,0
     fd2:	030d                	addi	t1,t1,3
     fd4:	0901                	addi	s2,s2,0
     fd6:	0000                	unimp
     fd8:	0501                	addi	a0,a0,0
     fda:	0312                	slli	t1,t1,0x4
     fdc:	0900                	addi	s0,sp,144
     fde:	0000                	unimp
     fe0:	0501                	addi	a0,a0,0
     fe2:	030c                	addi	a1,sp,384
     fe4:	0900                	addi	s0,sp,144
     fe6:	0000                	unimp
     fe8:	0501                	addi	a0,a0,0
     fea:	0308                	addi	a0,sp,384
     fec:	0900                	addi	s0,sp,144
     fee:	0000                	unimp
     ff0:	0501                	addi	a0,a0,0
     ff2:	0301                	addi	t1,t1,0
     ff4:	7c8c                	flw	fa1,56(s1)
     ff6:	0009                	c.nop	2
     ff8:	0100                	addi	s0,sp,128
     ffa:	0605                	addi	a2,a2,1
     ffc:	0903f603          	0x903f603
    1000:	0000                	unimp
    1002:	0501                	addi	a0,a0,0
    1004:	030a                	slli	t1,t1,0x2
    1006:	0902                	c.slli64	s2
    1008:	0000                	unimp
    100a:	0501                	addi	a0,a0,0
    100c:	0312                	slli	t1,t1,0x4
    100e:	097c                	addi	a5,sp,156
    1010:	0000                	unimp
    1012:	0501                	addi	a0,a0,0
    1014:	030a                	slli	t1,t1,0x2
    1016:	0904                	addi	s1,sp,144
    1018:	0000                	unimp
    101a:	0501                	addi	a0,a0,0
    101c:	0305                	addi	t1,t1,1
    101e:	00d8                	addi	a4,sp,68
    1020:	0009                	c.nop	2
    1022:	0100                	addi	s0,sp,128
    1024:	0705                	addi	a4,a4,1
    1026:	097faf03          	lw	t5,151(t6) # fffe5097 <__global_pointer$+0xdffe4807>
    102a:	0000                	unimp
    102c:	0301                	addi	t1,t1,0
    102e:	00000903          	lb	s2,0(zero) # 0 <InterruptVector>
    1032:	0501                	addi	a0,a0,0
    1034:	030c                	addi	a1,sp,384
    1036:	097d                	addi	s2,s2,31
    1038:	0000                	unimp
    103a:	0501                	addi	a0,a0,0
    103c:	0306                	slli	t1,t1,0x1
    103e:	0900                	addi	s0,sp,144
    1040:	0000                	unimp
    1042:	0501                	addi	a0,a0,0
    1044:	031c                	addi	a5,sp,384
    1046:	00000903          	lb	s2,0(zero) # 0 <InterruptVector>
    104a:	0501                	addi	a0,a0,0
    104c:	09000307          	0x9000307
    1050:	0000                	unimp
    1052:	0501                	addi	a0,a0,0
    1054:	0308                	addi	a0,sp,384
    1056:	00000903          	lb	s2,0(zero) # 0 <InterruptVector>
    105a:	0501                	addi	a0,a0,0
    105c:	030a                	slli	t1,t1,0x2
    105e:	097e                	slli	s2,s2,0x1f
    1060:	0000                	unimp
    1062:	0501                	addi	a0,a0,0
    1064:	0315                	addi	t1,t1,5
    1066:	0901                	addi	s2,s2,0
    1068:	0000                	unimp
    106a:	0501                	addi	a0,a0,0
    106c:	030d                	addi	t1,t1,3
    106e:	0901                	addi	s2,s2,0
    1070:	0000                	unimp
    1072:	0501                	addi	a0,a0,0
    1074:	0315                	addi	t1,t1,5
    1076:	097f                	0x97f
    1078:	0000                	unimp
    107a:	0501                	addi	a0,a0,0
    107c:	0308                	addi	a0,sp,384
    107e:	0901                	addi	s2,s2,0
    1080:	0000                	unimp
    1082:	0501                	addi	a0,a0,0
    1084:	0315                	addi	t1,t1,5
    1086:	097f                	0x97f
    1088:	0000                	unimp
    108a:	0501                	addi	a0,a0,0
    108c:	030c                	addi	a1,sp,384
    108e:	0900                	addi	s0,sp,144
    1090:	0000                	unimp
    1092:	0501                	addi	a0,a0,0
    1094:	0308                	addi	a0,sp,384
    1096:	0901                	addi	s2,s2,0
    1098:	0000                	unimp
    109a:	0501                	addi	a0,a0,0
    109c:	0315                	addi	t1,t1,5
    109e:	097e                	slli	s2,s2,0x1f
    10a0:	0000                	unimp
    10a2:	0501                	addi	a0,a0,0
    10a4:	030a                	slli	t1,t1,0x2
    10a6:	0900                	addi	s0,sp,144
    10a8:	0000                	unimp
    10aa:	0501                	addi	a0,a0,0
    10ac:	09070307          	0x9070307
    10b0:	0000                	unimp
    10b2:	0501                	addi	a0,a0,0
    10b4:	0309                	addi	t1,t1,2
    10b6:	0972                	slli	s2,s2,0x1c
    10b8:	0000                	unimp
    10ba:	0501                	addi	a0,a0,0
    10bc:	090e0307          	0x90e0307
    10c0:	0000                	unimp
    10c2:	0301                	addi	t1,t1,0
    10c4:	0902                	c.slli64	s2
    10c6:	0000                	unimp
    10c8:	0301                	addi	t1,t1,0
    10ca:	097f                	0x97f
    10cc:	0000                	unimp
    10ce:	0501                	addi	a0,a0,0
    10d0:	030d                	addi	t1,t1,3
    10d2:	0901                	addi	s2,s2,0
    10d4:	0000                	unimp
    10d6:	0501                	addi	a0,a0,0
    10d8:	09000307          	0x9000307
    10dc:	0000                	unimp
    10de:	0501                	addi	a0,a0,0
    10e0:	0304                	addi	s1,sp,384
    10e2:	00000903          	lb	s2,0(zero) # 0 <InterruptVector>
    10e6:	0501                	addi	a0,a0,0
    10e8:	030c                	addi	a1,sp,384
    10ea:	093d                	addi	s2,s2,15
    10ec:	0000                	unimp
    10ee:	0501                	addi	a0,a0,0
    10f0:	0309                	addi	t1,t1,2
    10f2:	7fae                	flw	ft11,232(sp)
    10f4:	0009                	c.nop	2
    10f6:	0100                	addi	s0,sp,128
    10f8:	0405                	addi	s0,s0,1
    10fa:	00091503          	lh	a0,0(s2)
    10fe:	0100                	addi	s0,sp,128
    1100:	0a05                	addi	s4,s4,1
    1102:	00092403          	lw	s0,0(s2)
    1106:	0100                	addi	s0,sp,128
    1108:	0c05                	addi	s8,s8,1
    110a:	00090103          	lb	sp,0(s2)
    110e:	0100                	addi	s0,sp,128
    1110:	0905                	addi	s2,s2,1
    1112:	00090103          	lb	sp,0(s2)
    1116:	0100                	addi	s0,sp,128
    1118:	0c05                	addi	s8,s8,1
    111a:	00097f03          	0x97f03
    111e:	0100                	addi	s0,sp,128
    1120:	0905                	addi	s2,s2,1
    1122:	00090103          	lb	sp,0(s2)
    1126:	0100                	addi	s0,sp,128
    1128:	0d05                	addi	s10,s10,1
    112a:	00090103          	lb	sp,0(s2)
    112e:	0100                	addi	s0,sp,128
    1130:	1705                	addi	a4,a4,-31
    1132:	00095f03          	lhu	t5,0(s2)
    1136:	0100                	addi	s0,sp,128
    1138:	0805                	addi	a6,a6,1
    113a:	00097f03          	0x97f03
    113e:	0100                	addi	s0,sp,128
    1140:	0d05                	addi	s10,s10,1
    1142:	00090103          	lb	sp,0(s2)
    1146:	0100                	addi	s0,sp,128
    1148:	0c05                	addi	s8,s8,1
    114a:	00090803          	lb	a6,0(s2)
    114e:	0100                	addi	s0,sp,128
    1150:	00090b03          	lb	s6,0(s2)
    1154:	0100                	addi	s0,sp,128
    1156:	00090103          	lb	sp,0(s2)
    115a:	0100                	addi	s0,sp,128
    115c:	00092303          	lw	t1,0(s2)
    1160:	0100                	addi	s0,sp,128
    1162:	0905                	addi	s2,s2,1
    1164:	00094b03          	lbu	s6,0(s2)
    1168:	0100                	addi	s0,sp,128
    116a:	1705                	addi	a4,a4,-31
    116c:	00097e03          	0x97e03
    1170:	0100                	addi	s0,sp,128
    1172:	0d05                	addi	s10,s10,1
    1174:	00090f03          	lb	t5,0(s2)
    1178:	0100                	addi	s0,sp,128
    117a:	1705                	addi	a4,a4,-31
    117c:	00097103          	0x97103
    1180:	0100                	addi	s0,sp,128
    1182:	0c05                	addi	s8,s8,1
    1184:	00091303          	lh	t1,0(s2)
    1188:	0100                	addi	s0,sp,128
    118a:	1205                	addi	tp,tp,-31
    118c:	00090503          	lb	a0,0(s2)
    1190:	0100                	addi	s0,sp,128
    1192:	0b05                	addi	s6,s6,1
    1194:	00090003          	lb	zero,0(s2)
    1198:	0100                	addi	s0,sp,128
    119a:	1205                	addi	tp,tp,-31
    119c:	00090003          	lb	zero,0(s2)
    11a0:	0100                	addi	s0,sp,128
    11a2:	0c05                	addi	s8,s8,1
    11a4:	00090103          	lb	sp,0(s2)
    11a8:	0100                	addi	s0,sp,128
    11aa:	0b05                	addi	s6,s6,1
    11ac:	00097f03          	0x97f03
    11b0:	0100                	addi	s0,sp,128
    11b2:	0c05                	addi	s8,s8,1
    11b4:	00090103          	lb	sp,0(s2)
    11b8:	0100                	addi	s0,sp,128
    11ba:	0d05                	addi	s10,s10,1
    11bc:	00090b03          	lb	s6,0(s2)
    11c0:	0100                	addi	s0,sp,128
    11c2:	0009                	c.nop	2
    11c4:	0000                	unimp
    11c6:	0101                	addi	sp,sp,0
    11c8:	2b05                	jal	16f8 <ch32v003fun.c.8affbd33+0x7a3>
    11ca:	0500                	addi	s0,sp,640
    11cc:	0002                	c.slli64	zero
    11ce:	0000                	unimp
    11d0:	0300                	addi	s0,sp,384
    11d2:	00f2                	slli	ra,ra,0x1c
    11d4:	0501                	addi	a0,a0,0
    11d6:	032d                	addi	t1,t1,11
    11d8:	0900                	addi	s0,sp,144
    11da:	0000                	unimp
    11dc:	0501                	addi	a0,a0,0
    11de:	0346                	slli	t1,t1,0x11
    11e0:	0900                	addi	s0,sp,144
    11e2:	0000                	unimp
    11e4:	0501                	addi	a0,a0,0
    11e6:	063c                	addi	a5,sp,776
    11e8:	00090003          	lb	zero,0(s2)
    11ec:	0100                	addi	s0,sp,128
    11ee:	4d05                	li	s10,1
    11f0:	0200                	addi	s0,sp,256
    11f2:	0104                	addi	s1,sp,128
    11f4:	0306                	slli	t1,t1,0x1
    11f6:	0900                	addi	s0,sp,144
    11f8:	0000                	unimp
    11fa:	0501                	addi	a0,a0,0
    11fc:	0046                	c.slli	zero,0x11
    11fe:	0402                	c.slli64	s0
    1200:	0601                	addi	a2,a2,0
    1202:	00090003          	lb	zero,0(s2)
    1206:	0100                	addi	s0,sp,128
    1208:	6205                	lui	tp,0x1
    120a:	0200                	addi	s0,sp,256
    120c:	0404                	addi	s1,sp,512
    120e:	0306                	slli	t1,t1,0x1
    1210:	0900                	addi	s0,sp,144
    1212:	0000                	unimp
    1214:	0501                	addi	a0,a0,0
    1216:	0402006f          	j	21256 <wiring.c.7604182b+0x1eada>
    121a:	0604                	addi	s1,sp,768
    121c:	00090003          	lb	zero,0(s2)
    1220:	0100                	addi	s0,sp,128
    1222:	5a05                	li	s4,-31
    1224:	0200                	addi	s0,sp,256
    1226:	0304                	addi	s1,sp,384
    1228:	0306                	slli	t1,t1,0x1
    122a:	0900                	addi	s0,sp,144
    122c:	0000                	unimp
    122e:	0501                	addi	a0,a0,0
    1230:	005d                	c.nop	23
    1232:	0402                	c.slli64	s0
    1234:	00030603          	lb	a2,0(t1)
    1238:	0009                	c.nop	2
    123a:	0100                	addi	s0,sp,128
    123c:	5005                	c.li	zero,-31
    123e:	0200                	addi	s0,sp,256
    1240:	0304                	addi	s1,sp,384
    1242:	0306                	slli	t1,t1,0x1
    1244:	0900                	addi	s0,sp,144
    1246:	0000                	unimp
    1248:	0501                	addi	a0,a0,0
    124a:	0056                	c.slli	zero,0x15
    124c:	0402                	c.slli64	s0
    124e:	00030603          	lb	a2,0(t1)
    1252:	0009                	c.nop	2
    1254:	0100                	addi	s0,sp,128
    1256:	0009                	c.nop	2
    1258:	0000                	unimp
    125a:	0101                	addi	sp,sp,0
    125c:	2605                	jal	157c <ch32v003fun.c.8affbd33+0x627>
    125e:	0500                	addi	s0,sp,640
    1260:	0002                	c.slli64	zero
    1262:	0000                	unimp
    1264:	0300                	addi	s0,sp,384
    1266:	050100f3          	0x50100f3
    126a:	0328                	addi	a0,sp,392
    126c:	0900                	addi	s0,sp,144
    126e:	0000                	unimp
    1270:	0501                	addi	a0,a0,0
    1272:	0402002f          	0x402002f
    1276:	0301                	addi	t1,t1,0
    1278:	0900                	addi	s0,sp,144
    127a:	0000                	unimp
    127c:	0501                	addi	a0,a0,0
    127e:	04020033          	0x4020033
    1282:	0601                	addi	a2,a2,0
    1284:	00090003          	lb	zero,0(s2)
    1288:	0100                	addi	s0,sp,128
    128a:	3205                	jal	baa <_data_lma+0x4e2>
    128c:	0200                	addi	s0,sp,256
    128e:	0104                	addi	s1,sp,128
    1290:	00090003          	lb	zero,0(s2)
    1294:	0100                	addi	s0,sp,128
    1296:	2805                	jal	12c6 <ch32v003fun.c.8affbd33+0x371>
    1298:	0200                	addi	s0,sp,256
    129a:	0104                	addi	s1,sp,128
    129c:	00090003          	lb	zero,0(s2)
    12a0:	0100                	addi	s0,sp,128
    12a2:	4305                	li	t1,1
    12a4:	0200                	addi	s0,sp,256
    12a6:	0304                	addi	s1,sp,384
    12a8:	0306                	slli	t1,t1,0x1
    12aa:	0900                	addi	s0,sp,144
    12ac:	0000                	unimp
    12ae:	0501                	addi	a0,a0,0
    12b0:	004d                	c.nop	19
    12b2:	0402                	c.slli64	s0
    12b4:	00030603          	lb	a2,0(t1)
    12b8:	0009                	c.nop	2
    12ba:	0100                	addi	s0,sp,128
    12bc:	4105                	li	sp,1
    12be:	0200                	addi	s0,sp,256
    12c0:	0204                	addi	s1,sp,256
    12c2:	0306                	slli	t1,t1,0x1
    12c4:	0900                	addi	s0,sp,144
    12c6:	0000                	unimp
    12c8:	0501                	addi	a0,a0,0
    12ca:	0038                	addi	a4,sp,8
    12cc:	0402                	c.slli64	s0
    12ce:	0302                	c.slli64	t1
    12d0:	0900                	addi	s0,sp,144
    12d2:	0000                	unimp
    12d4:	0501                	addi	a0,a0,0
    12d6:	0039                	c.nop	14
    12d8:	0402                	c.slli64	s0
    12da:	0602                	c.slli64	a2
    12dc:	00090003          	lb	zero,0(s2)
    12e0:	0100                	addi	s0,sp,128
    12e2:	3e05                	jal	e12 <_data_lma+0x74a>
    12e4:	0200                	addi	s0,sp,256
    12e6:	0204                	addi	s1,sp,256
    12e8:	00090003          	lb	zero,0(s2)
    12ec:	0100                	addi	s0,sp,128
    12ee:	0009                	c.nop	2
    12f0:	0000                	unimp
    12f2:	0101                	addi	sp,sp,0
    12f4:	3105                	jal	f14 <_data_lma+0x84c>
    12f6:	0500                	addi	s0,sp,640
    12f8:	0002                	c.slli64	zero
    12fa:	0000                	unimp
    12fc:	0300                	addi	s0,sp,384
    12fe:	00f4                	addi	a3,sp,76
    1300:	0501                	addi	a0,a0,0
    1302:	09000333          	0x9000333
    1306:	0000                	unimp
    1308:	0501                	addi	a0,a0,0
    130a:	003a                	c.slli	zero,0xe
    130c:	0402                	c.slli64	s0
    130e:	0301                	addi	t1,t1,0
    1310:	0900                	addi	s0,sp,144
    1312:	0000                	unimp
    1314:	0501                	addi	a0,a0,0
    1316:	04020033          	0x4020033
    131a:	0601                	addi	a2,a2,0
    131c:	00090003          	lb	zero,0(s2)
    1320:	0100                	addi	s0,sp,128
    1322:	4305                	li	t1,1
    1324:	0200                	addi	s0,sp,256
    1326:	0204                	addi	s1,sp,256
    1328:	00090003          	lb	zero,0(s2)
    132c:	0100                	addi	s0,sp,128
    132e:	4205                	li	tp,1
    1330:	0200                	addi	s0,sp,256
    1332:	0204                	addi	s1,sp,256
    1334:	00090003          	lb	zero,0(s2)
    1338:	0100                	addi	s0,sp,128
    133a:	3c05                	jal	d6a <_data_lma+0x6a2>
    133c:	0200                	addi	s0,sp,256
    133e:	0204                	addi	s1,sp,256
    1340:	00090003          	lb	zero,0(s2)
    1344:	0100                	addi	s0,sp,128
    1346:	6205                	lui	tp,0x1
    1348:	00090003          	lb	zero,0(s2)
    134c:	0100                	addi	s0,sp,128
    134e:	5605                	li	a2,-31
    1350:	0200                	addi	s0,sp,256
    1352:	0404                	addi	s1,sp,512
    1354:	0306                	slli	t1,t1,0x1
    1356:	0900                	addi	s0,sp,144
    1358:	0000                	unimp
    135a:	0501                	addi	a0,a0,0
    135c:	0048                	addi	a0,sp,4
    135e:	0402                	c.slli64	s0
    1360:	0304                	addi	s1,sp,384
    1362:	0900                	addi	s0,sp,144
    1364:	0000                	unimp
    1366:	0501                	addi	a0,a0,0
    1368:	004e                	c.slli	zero,0x13
    136a:	0402                	c.slli64	s0
    136c:	0604                	addi	s1,sp,768
    136e:	00090003          	lb	zero,0(s2)
    1372:	0100                	addi	s0,sp,128
    1374:	5305                	li	t1,-31
    1376:	0200                	addi	s0,sp,256
    1378:	0404                	addi	s1,sp,512
    137a:	00090003          	lb	zero,0(s2)
    137e:	0100                	addi	s0,sp,128
    1380:	0009                	c.nop	2
    1382:	0000                	unimp
    1384:	0101                	addi	sp,sp,0
    1386:	0105                	addi	sp,sp,1
    1388:	0500                	addi	s0,sp,640
    138a:	0002                	c.slli64	zero
    138c:	0000                	unimp
    138e:	0300                	addi	s0,sp,384
    1390:	00f6                	slli	ra,ra,0x1d
    1392:	0501                	addi	a0,a0,0
    1394:	0302                	c.slli64	t1
    1396:	0901                	addi	s2,s2,0
    1398:	0000                	unimp
    139a:	0501                	addi	a0,a0,0
    139c:	0009                	c.nop	2
    139e:	0402                	c.slli64	s0
    13a0:	0301                	addi	t1,t1,0
    13a2:	0900                	addi	s0,sp,144
    13a4:	0000                	unimp
    13a6:	0501                	addi	a0,a0,0
    13a8:	000d                	c.nop	3
    13aa:	0402                	c.slli64	s0
    13ac:	0601                	addi	a2,a2,0
    13ae:	00090003          	lb	zero,0(s2)
    13b2:	0100                	addi	s0,sp,128
    13b4:	0205                	addi	tp,tp,1
    13b6:	0200                	addi	s0,sp,256
    13b8:	0104                	addi	s1,sp,128
    13ba:	00090003          	lb	zero,0(s2)
    13be:	0100                	addi	s0,sp,128
    13c0:	1005                	c.nop	-31
    13c2:	0200                	addi	s0,sp,256
    13c4:	0204                	addi	s1,sp,256
    13c6:	00090003          	lb	zero,0(s2)
    13ca:	0100                	addi	s0,sp,128
    13cc:	0205                	addi	tp,tp,1
    13ce:	0306                	slli	t1,t1,0x1
    13d0:	0901                	addi	s2,s2,0
    13d2:	0000                	unimp
    13d4:	0501                	addi	a0,a0,0
    13d6:	0601                	addi	a2,a2,0
    13d8:	00090103          	lb	sp,0(s2)
    13dc:	0100                	addi	s0,sp,128
    13de:	2005                	jal	13fe <ch32v003fun.c.8affbd33+0x4a9>
    13e0:	0200                	addi	s0,sp,256
    13e2:	0304                	addi	s1,sp,384
    13e4:	0306                	slli	t1,t1,0x1
    13e6:	097e                	slli	s2,s2,0x1f
    13e8:	0000                	unimp
    13ea:	0501                	addi	a0,a0,0
    13ec:	04020017          	auipc	zero,0x4020
    13f0:	09000303          	lb	t1,144(zero) # 90 <InterruptVector+0x90>
    13f4:	0000                	unimp
    13f6:	0501                	addi	a0,a0,0
    13f8:	0018                	0x18
    13fa:	0402                	c.slli64	s0
    13fc:	00030603          	lb	a2,0(t1)
    1400:	0009                	c.nop	2
    1402:	0100                	addi	s0,sp,128
    1404:	1d05                	addi	s10,s10,-31
    1406:	0200                	addi	s0,sp,256
    1408:	0304                	addi	s1,sp,384
    140a:	00090003          	lb	zero,0(s2)
    140e:	0100                	addi	s0,sp,128
    1410:	0009                	c.nop	2
    1412:	0000                	unimp
    1414:	0101                	addi	sp,sp,0
    1416:	0105                	addi	sp,sp,1
    1418:	0500                	addi	s0,sp,640
    141a:	0002                	c.slli64	zero
    141c:	0000                	unimp
    141e:	0300                	addi	s0,sp,384
    1420:	050100fb          	0x50100fb
    1424:	0302                	c.slli64	t1
    1426:	0901                	addi	s2,s2,0
    1428:	0000                	unimp
    142a:	0301                	addi	t1,t1,0
    142c:	0901                	addi	s2,s2,0
    142e:	0000                	unimp
    1430:	0501                	addi	a0,a0,0
    1432:	0605                	addi	a2,a2,1
    1434:	00090003          	lb	zero,0(s2)
    1438:	0100                	addi	s0,sp,128
    143a:	0805                	addi	a6,a6,1
    143c:	00090003          	lb	zero,0(s2)
    1440:	0100                	addi	s0,sp,128
    1442:	0905                	addi	s2,s2,1
    1444:	0200                	addi	s0,sp,256
    1446:	0104                	addi	s1,sp,128
    1448:	0306                	slli	t1,t1,0x1
    144a:	0901                	addi	s2,s2,0
    144c:	0000                	unimp
    144e:	0501                	addi	a0,a0,0
    1450:	0402000f          	0x402000f
    1454:	0601                	addi	a2,a2,0
    1456:	00090003          	lb	zero,0(s2)
    145a:	0100                	addi	s0,sp,128
    145c:	0205                	addi	tp,tp,1
    145e:	0200                	addi	s0,sp,256
    1460:	0104                	addi	s1,sp,128
    1462:	00090003          	lb	zero,0(s2)
    1466:	0100                	addi	s0,sp,128
    1468:	0c05                	addi	s8,s8,1
    146a:	0200                	addi	s0,sp,256
    146c:	0204                	addi	s1,sp,256
    146e:	00090003          	lb	zero,0(s2)
    1472:	0100                	addi	s0,sp,128
    1474:	1205                	addi	tp,tp,-31
    1476:	0200                	addi	s0,sp,256
    1478:	0304                	addi	s1,sp,384
    147a:	00090003          	lb	zero,0(s2)
    147e:	0100                	addi	s0,sp,128
    1480:	1705                	addi	a4,a4,-31
    1482:	0200                	addi	s0,sp,256
    1484:	0404                	addi	s1,sp,512
    1486:	00090003          	lb	zero,0(s2)
    148a:	0100                	addi	s0,sp,128
    148c:	0205                	addi	tp,tp,1
    148e:	0306                	slli	t1,t1,0x1
    1490:	0901                	addi	s2,s2,0
    1492:	0000                	unimp
    1494:	0501                	addi	a0,a0,0
    1496:	060c                	addi	a1,sp,768
    1498:	00090003          	lb	zero,0(s2)
    149c:	0100                	addi	s0,sp,128
    149e:	1305                	addi	t1,t1,-31
    14a0:	00097e03          	0x97e03
    14a4:	0100                	addi	s0,sp,128
    14a6:	0105                	addi	sp,sp,1
    14a8:	00090303          	lb	t1,0(s2)
    14ac:	0100                	addi	s0,sp,128
    14ae:	0009                	c.nop	2
    14b0:	0000                	unimp
    14b2:	0101                	addi	sp,sp,0
    14b4:	0105                	addi	sp,sp,1
    14b6:	0500                	addi	s0,sp,640
    14b8:	0002                	c.slli64	zero
    14ba:	0000                	unimp
    14bc:	0300                	addi	s0,sp,384
    14be:	0601029b          	0x601029b
    14c2:	00090003          	lb	zero,0(s2)
    14c6:	0100                	addi	s0,sp,128
    14c8:	0205                	addi	tp,tp,1
    14ca:	0306                	slli	t1,t1,0x1
    14cc:	0901                	addi	s2,s2,0
    14ce:	0000                	unimp
    14d0:	0301                	addi	t1,t1,0
    14d2:	0901                	addi	s2,s2,0
    14d4:	0000                	unimp
    14d6:	0501                	addi	a0,a0,0
    14d8:	0605                	addi	a2,a2,1
    14da:	00090003          	lb	zero,0(s2)
    14de:	0100                	addi	s0,sp,128
    14e0:	0a05                	addi	s4,s4,1
    14e2:	0306                	slli	t1,t1,0x1
    14e4:	0900                	addi	s0,sp,144
    14e6:	0000                	unimp
    14e8:	0501                	addi	a0,a0,0
    14ea:	061d                	addi	a2,a2,7
    14ec:	00090003          	lb	zero,0(s2)
    14f0:	0100                	addi	s0,sp,128
    14f2:	1b05                	addi	s6,s6,-31
    14f4:	00090003          	lb	zero,0(s2)
    14f8:	0100                	addi	s0,sp,128
    14fa:	0105                	addi	sp,sp,1
    14fc:	00090303          	lb	t1,0(s2)
    1500:	0100                	addi	s0,sp,128
    1502:	2d05                	jal	1b32 <ch32v003fun.c.8affbd33+0xbdd>
    1504:	0200                	addi	s0,sp,256
    1506:	0304                	addi	s1,sp,384
    1508:	0306                	slli	t1,t1,0x1
    150a:	097e                	slli	s2,s2,0x1f
    150c:	0000                	unimp
    150e:	0501                	addi	a0,a0,0
    1510:	0029                	c.nop	10
    1512:	0402                	c.slli64	s0
    1514:	09000303          	lb	t1,144(zero) # 90 <InterruptVector+0x90>
    1518:	0000                	unimp
    151a:	0501                	addi	a0,a0,0
    151c:	002a                	c.slli	zero,0xa
    151e:	0402                	c.slli64	s0
    1520:	00030603          	lb	a2,0(t1)
    1524:	0009                	c.nop	2
    1526:	0100                	addi	s0,sp,128
    1528:	0905                	addi	s2,s2,1
    152a:	0200                	addi	s0,sp,256
    152c:	0104                	addi	s1,sp,128
    152e:	0306                	slli	t1,t1,0x1
    1530:	0900                	addi	s0,sp,144
    1532:	0000                	unimp
    1534:	0501                	addi	a0,a0,0
    1536:	0002                	c.slli64	zero
    1538:	0402                	c.slli64	s0
    153a:	0601                	addi	a2,a2,0
    153c:	00090003          	lb	zero,0(s2)
    1540:	0100                	addi	s0,sp,128
    1542:	0c05                	addi	s8,s8,1
    1544:	0200                	addi	s0,sp,256
    1546:	0204                	addi	s1,sp,256
    1548:	00090003          	lb	zero,0(s2)
    154c:	0100                	addi	s0,sp,128
    154e:	0009                	c.nop	2
    1550:	0000                	unimp
    1552:	0101                	addi	sp,sp,0
    1554:	0105                	addi	sp,sp,1
    1556:	0500                	addi	s0,sp,640
    1558:	0002                	c.slli64	zero
    155a:	0000                	unimp
    155c:	0300                	addi	s0,sp,384
    155e:	02ac                	addi	a1,sp,328
    1560:	0501                	addi	a0,a0,0
    1562:	0302                	c.slli64	t1
    1564:	0901                	addi	s2,s2,0
    1566:	0000                	unimp
    1568:	0501                	addi	a0,a0,0
    156a:	0601                	addi	a2,a2,0
    156c:	00097f03          	0x97f03
    1570:	0100                	addi	s0,sp,128
    1572:	1905                	addi	s2,s2,-31
    1574:	00090103          	lb	sp,0(s2)
    1578:	0100                	addi	s0,sp,128
    157a:	0205                	addi	tp,tp,1
    157c:	0306                	slli	t1,t1,0x1
    157e:	0978                	addi	a4,sp,156
    1580:	0000                	unimp
    1582:	0301                	addi	t1,t1,0
    1584:	0901                	addi	s2,s2,0
    1586:	0000                	unimp
    1588:	0301                	addi	t1,t1,0
    158a:	0901                	addi	s2,s2,0
    158c:	0000                	unimp
    158e:	0501                	addi	a0,a0,0
    1590:	0308                	addi	a0,sp,384
    1592:	0900                	addi	s0,sp,144
    1594:	0000                	unimp
    1596:	0501                	addi	a0,a0,0
    1598:	0609                	addi	a2,a2,2
    159a:	00090103          	lb	sp,0(s2)
    159e:	0100                	addi	s0,sp,128
    15a0:	0e05                	addi	t3,t3,1
    15a2:	0306                	slli	t1,t1,0x1
    15a4:	097f                	0x97f
    15a6:	0000                	unimp
    15a8:	0501                	addi	a0,a0,0
    15aa:	00030613          	mv	a2,t1
    15ae:	0009                	c.nop	2
    15b0:	0100                	addi	s0,sp,128
    15b2:	1105                	addi	sp,sp,-31
    15b4:	00090003          	lb	zero,0(s2)
    15b8:	0100                	addi	s0,sp,128
    15ba:	0105                	addi	sp,sp,1
    15bc:	00090703          	lb	a4,0(s2)
    15c0:	0100                	addi	s0,sp,128
    15c2:	0009                	c.nop	2
    15c4:	0000                	unimp
    15c6:	0101                	addi	sp,sp,0
    15c8:	0105                	addi	sp,sp,1
    15ca:	0500                	addi	s0,sp,640
    15cc:	0002                	c.slli64	zero
    15ce:	0000                	unimp
    15d0:	0300                	addi	s0,sp,384
    15d2:	02b1                	addi	t0,t0,12
    15d4:	0501                	addi	a0,a0,0
    15d6:	0302                	c.slli64	t1
    15d8:	0901                	addi	s2,s2,0
    15da:	0000                	unimp
    15dc:	0301                	addi	t1,t1,0
    15de:	0901                	addi	s2,s2,0
    15e0:	0000                	unimp
    15e2:	0301                	addi	t1,t1,0
    15e4:	0901                	addi	s2,s2,0
    15e6:	0000                	unimp
    15e8:	0501                	addi	a0,a0,0
    15ea:	0601                	addi	a2,a2,0
    15ec:	00097d03          	0x97d03
    15f0:	0100                	addi	s0,sp,128
    15f2:	0905                	addi	s2,s2,1
    15f4:	0200                	addi	s0,sp,256
    15f6:	0104                	addi	s1,sp,128
    15f8:	0306                	slli	t1,t1,0x1
    15fa:	00000903          	lb	s2,0(zero) # 0 <InterruptVector>
    15fe:	0501                	addi	a0,a0,0
    1600:	0002                	c.slli64	zero
    1602:	0402                	c.slli64	s0
    1604:	0601                	addi	a2,a2,0
    1606:	00090003          	lb	zero,0(s2)
    160a:	0100                	addi	s0,sp,128
    160c:	0306                	slli	t1,t1,0x1
    160e:	0901                	addi	s2,s2,0
    1610:	0000                	unimp
    1612:	0501                	addi	a0,a0,0
    1614:	0601                	addi	a2,a2,0
    1616:	00090103          	lb	sp,0(s2)
    161a:	0100                	addi	s0,sp,128
    161c:	1105                	addi	sp,sp,-31
    161e:	0200                	addi	s0,sp,256
    1620:	0204                	addi	s1,sp,256
    1622:	0306                	slli	t1,t1,0x1
    1624:	097e                	slli	s2,s2,0x1f
    1626:	0000                	unimp
    1628:	0501                	addi	a0,a0,0
    162a:	0018                	0x18
    162c:	0402                	c.slli64	s0
    162e:	0602                	c.slli64	a2
    1630:	00090003          	lb	zero,0(s2)
    1634:	0100                	addi	s0,sp,128
    1636:	1605                	addi	a2,a2,-31
    1638:	0200                	addi	s0,sp,256
    163a:	0204                	addi	s1,sp,256
    163c:	00090003          	lb	zero,0(s2)
    1640:	0100                	addi	s0,sp,128
    1642:	0c05                	addi	s8,s8,1
    1644:	0200                	addi	s0,sp,256
    1646:	0204                	addi	s1,sp,256
    1648:	0306                	slli	t1,t1,0x1
    164a:	0900                	addi	s0,sp,144
    164c:	0000                	unimp
    164e:	0901                	addi	s2,s2,0
    1650:	0000                	unimp
    1652:	0100                	addi	s0,sp,128
    1654:	0501                	addi	a0,a0,0
    1656:	0001                	nop
    1658:	0205                	addi	tp,tp,1
    165a:	0000                	unimp
    165c:	0000                	unimp
    165e:	0102b903          	0x102b903
    1662:	0205                	addi	tp,tp,1
    1664:	00090103          	lb	sp,0(s2)
    1668:	0100                	addi	s0,sp,128
    166a:	00090103          	lb	sp,0(s2)
    166e:	0100                	addi	s0,sp,128
    1670:	0105                	addi	sp,sp,1
    1672:	0306                	slli	t1,t1,0x1
    1674:	097e                	slli	s2,s2,0x1f
    1676:	0000                	unimp
    1678:	0501                	addi	a0,a0,0
    167a:	0009                	c.nop	2
    167c:	0402                	c.slli64	s0
    167e:	0601                	addi	a2,a2,0
    1680:	00090203          	lb	tp,0(s2)
    1684:	0100                	addi	s0,sp,128
    1686:	0205                	addi	tp,tp,1
    1688:	0200                	addi	s0,sp,256
    168a:	0104                	addi	s1,sp,128
    168c:	0306                	slli	t1,t1,0x1
    168e:	0900                	addi	s0,sp,144
    1690:	0000                	unimp
    1692:	0501                	addi	a0,a0,0
    1694:	000e                	c.slli	zero,0x3
    1696:	0402                	c.slli64	s0
    1698:	0302                	c.slli64	t1
    169a:	0900                	addi	s0,sp,144
    169c:	0000                	unimp
    169e:	0501                	addi	a0,a0,0
    16a0:	0402000b          	0x402000b
    16a4:	0302                	c.slli64	t1
    16a6:	0900                	addi	s0,sp,144
    16a8:	0000                	unimp
    16aa:	0501                	addi	a0,a0,0
    16ac:	0014                	0x14
    16ae:	0402                	c.slli64	s0
    16b0:	0302                	c.slli64	t1
    16b2:	0900                	addi	s0,sp,144
    16b4:	0000                	unimp
    16b6:	0501                	addi	a0,a0,0
    16b8:	000e                	c.slli	zero,0x3
    16ba:	0402                	c.slli64	s0
    16bc:	0302                	c.slli64	t1
    16be:	0900                	addi	s0,sp,144
    16c0:	0000                	unimp
    16c2:	0501                	addi	a0,a0,0
    16c4:	0014                	0x14
    16c6:	0402                	c.slli64	s0
    16c8:	0302                	c.slli64	t1
    16ca:	0900                	addi	s0,sp,144
    16cc:	0000                	unimp
    16ce:	0501                	addi	a0,a0,0
    16d0:	0402000b          	0x402000b
    16d4:	0302                	c.slli64	t1
    16d6:	0900                	addi	s0,sp,144
    16d8:	0000                	unimp
    16da:	0501                	addi	a0,a0,0
    16dc:	0602                	c.slli64	a2
    16de:	00090103          	lb	sp,0(s2)
    16e2:	0100                	addi	s0,sp,128
    16e4:	1305                	addi	t1,t1,-31
    16e6:	0306                	slli	t1,t1,0x1
    16e8:	0900                	addi	s0,sp,144
    16ea:	0000                	unimp
    16ec:	0501                	addi	a0,a0,0
    16ee:	0301                	addi	t1,t1,0
    16f0:	0901                	addi	s2,s2,0
    16f2:	0000                	unimp
    16f4:	0501                	addi	a0,a0,0
    16f6:	097f0313          	addi	t1,t5,151
    16fa:	0000                	unimp
    16fc:	0901                	addi	s2,s2,0
    16fe:	0000                	unimp
    1700:	0100                	addi	s0,sp,128
    1702:	0501                	addi	a0,a0,0
    1704:	0001                	nop
    1706:	0205                	addi	tp,tp,1
    1708:	0000                	unimp
    170a:	0000                	unimp
    170c:	0102c103          	lbu	sp,16(t0)
    1710:	0205                	addi	tp,tp,1
    1712:	00090103          	lb	sp,0(s2)
    1716:	0100                	addi	s0,sp,128
    1718:	00090103          	lb	sp,0(s2)
    171c:	0100                	addi	s0,sp,128
    171e:	00090203          	lb	tp,0(s2)
    1722:	0100                	addi	s0,sp,128
    1724:	0105                	addi	sp,sp,1
    1726:	0306                	slli	t1,t1,0x1
    1728:	097c                	addi	a5,sp,156
    172a:	0000                	unimp
    172c:	0501                	addi	a0,a0,0
    172e:	0305                	addi	t1,t1,1
    1730:	0904                	addi	s1,sp,144
    1732:	0000                	unimp
    1734:	0501                	addi	a0,a0,0
    1736:	0602                	c.slli64	a2
    1738:	00090103          	lb	sp,0(s2)
    173c:	0100                	addi	s0,sp,128
    173e:	1f05                	addi	t5,t5,-31
    1740:	0306                	slli	t1,t1,0x1
    1742:	0900                	addi	s0,sp,144
    1744:	0000                	unimp
    1746:	0501                	addi	a0,a0,0
    1748:	09000327          	0x9000327
    174c:	0000                	unimp
    174e:	0501                	addi	a0,a0,0
    1750:	031f 0900 0000      	0x900031f
    1756:	0501                	addi	a0,a0,0
    1758:	09000327          	0x9000327
    175c:	0000                	unimp
    175e:	0501                	addi	a0,a0,0
    1760:	0305                	addi	t1,t1,1
    1762:	0900                	addi	s0,sp,144
    1764:	0000                	unimp
    1766:	0501                	addi	a0,a0,0
    1768:	0402002b          	0x402002b
    176c:	0601                	addi	a2,a2,0
    176e:	00090003          	lb	zero,0(s2)
    1772:	0100                	addi	s0,sp,128
    1774:	3205                	jal	1094 <ch32v003fun.c.8affbd33+0x13f>
    1776:	0200                	addi	s0,sp,256
    1778:	0104                	addi	s1,sp,128
    177a:	0306                	slli	t1,t1,0x1
    177c:	0900                	addi	s0,sp,144
    177e:	0000                	unimp
    1780:	0501                	addi	a0,a0,0
    1782:	0602                	c.slli64	a2
    1784:	00090203          	lb	tp,0(s2)
    1788:	0100                	addi	s0,sp,128
    178a:	0505                	addi	a0,a0,1
    178c:	0306                	slli	t1,t1,0x1
    178e:	0900                	addi	s0,sp,144
    1790:	0000                	unimp
    1792:	0501                	addi	a0,a0,0
    1794:	0609                	addi	a2,a2,2
    1796:	00090303          	lb	t1,0(s2)
    179a:	0100                	addi	s0,sp,128
    179c:	0d05                	addi	s10,s10,1
    179e:	00090003          	lb	zero,0(s2)
    17a2:	0100                	addi	s0,sp,128
    17a4:	0e05                	addi	t3,t3,1
    17a6:	0306                	slli	t1,t1,0x1
    17a8:	0900                	addi	s0,sp,144
    17aa:	0000                	unimp
    17ac:	0501                	addi	a0,a0,0
    17ae:	031a                	slli	t1,t1,0x6
    17b0:	0900                	addi	s0,sp,144
    17b2:	0000                	unimp
    17b4:	0501                	addi	a0,a0,0
    17b6:	09000317          	auipc	t1,0x9000
    17ba:	0000                	unimp
    17bc:	0501                	addi	a0,a0,0
    17be:	0612                	slli	a2,a2,0x4
    17c0:	00097e03          	0x97e03
    17c4:	0100                	addi	s0,sp,128
    17c6:	1905                	addi	s2,s2,-31
    17c8:	0306                	slli	t1,t1,0x1
    17ca:	0900                	addi	s0,sp,144
    17cc:	0000                	unimp
    17ce:	0501                	addi	a0,a0,0
    17d0:	09000317          	auipc	t1,0x9000
    17d4:	0000                	unimp
    17d6:	0501                	addi	a0,a0,0
    17d8:	060d                	addi	a2,a2,3
    17da:	00090003          	lb	zero,0(s2)
    17de:	0100                	addi	s0,sp,128
    17e0:	0a05                	addi	s4,s4,1
    17e2:	00090003          	lb	zero,0(s2)
    17e6:	0100                	addi	s0,sp,128
    17e8:	0305                	addi	t1,t1,1
    17ea:	0306                	slli	t1,t1,0x1
    17ec:	0900                	addi	s0,sp,144
    17ee:	0000                	unimp
    17f0:	0501                	addi	a0,a0,0
    17f2:	0305                	addi	t1,t1,1
    17f4:	097f                	0x97f
    17f6:	0000                	unimp
    17f8:	0501                	addi	a0,a0,0
    17fa:	0301                	addi	t1,t1,0
    17fc:	00000907          	0x907
    1800:	0501                	addi	a0,a0,0
    1802:	0305                	addi	t1,t1,1
    1804:	0979                	addi	s2,s2,30
    1806:	0000                	unimp
    1808:	0901                	addi	s2,s2,0
    180a:	0000                	unimp
    180c:	0100                	addi	s0,sp,128
    180e:	0501                	addi	a0,a0,0
    1810:	0001                	nop
    1812:	0205                	addi	tp,tp,1
    1814:	0000                	unimp
    1816:	0000                	unimp
    1818:	0102d103          	lhu	sp,16(t0)
    181c:	0205                	addi	tp,tp,1
    181e:	00090103          	lb	sp,0(s2)
    1822:	0100                	addi	s0,sp,128
    1824:	00090103          	lb	sp,0(s2)
    1828:	0100                	addi	s0,sp,128
    182a:	00090103          	lb	sp,0(s2)
    182e:	0100                	addi	s0,sp,128
    1830:	0905                	addi	s2,s2,1
    1832:	0200                	addi	s0,sp,256
    1834:	0104                	addi	s1,sp,128
    1836:	00090003          	lb	zero,0(s2)
    183a:	0100                	addi	s0,sp,128
    183c:	0205                	addi	tp,tp,1
    183e:	0200                	addi	s0,sp,256
    1840:	0104                	addi	s1,sp,128
    1842:	0306                	slli	t1,t1,0x1
    1844:	0900                	addi	s0,sp,144
    1846:	0000                	unimp
    1848:	0501                	addi	a0,a0,0
    184a:	000e                	c.slli	zero,0x3
    184c:	0402                	c.slli64	s0
    184e:	0302                	c.slli64	t1
    1850:	0900                	addi	s0,sp,144
    1852:	0000                	unimp
    1854:	0501                	addi	a0,a0,0
    1856:	0402000b          	0x402000b
    185a:	0302                	c.slli64	t1
    185c:	0900                	addi	s0,sp,144
    185e:	0000                	unimp
    1860:	0501                	addi	a0,a0,0
    1862:	0020                	addi	s0,sp,8
    1864:	0402                	c.slli64	s0
    1866:	00030603          	lb	a2,0(t1) # 90017d0 <wiring.c.7604182b+0x8fff054>
    186a:	0009                	c.nop	2
    186c:	0100                	addi	s0,sp,128
    186e:	1705                	addi	a4,a4,-31
    1870:	0200                	addi	s0,sp,256
    1872:	0304                	addi	s1,sp,384
    1874:	00090003          	lb	zero,0(s2)
    1878:	0100                	addi	s0,sp,128
    187a:	1805                	addi	a6,a6,-31
    187c:	0200                	addi	s0,sp,256
    187e:	0304                	addi	s1,sp,384
    1880:	0306                	slli	t1,t1,0x1
    1882:	0900                	addi	s0,sp,144
    1884:	0000                	unimp
    1886:	0501                	addi	a0,a0,0
    1888:	09010317          	auipc	t1,0x9010
    188c:	0000                	unimp
    188e:	0501                	addi	a0,a0,0
    1890:	0301                	addi	t1,t1,0
    1892:	0901                	addi	s2,s2,0
    1894:	0000                	unimp
    1896:	0901                	addi	s2,s2,0
    1898:	0000                	unimp
    189a:	0100                	addi	s0,sp,128
    189c:	0501                	addi	a0,a0,0
    189e:	0029                	c.nop	10
    18a0:	0205                	addi	tp,tp,1
    18a2:	0000                	unimp
    18a4:	0000                	unimp
    18a6:	0100f103          	0x100f103
    18aa:	2b05                	jal	1dda <ch32v003fun.c.8affbd33+0xe85>
    18ac:	00090003          	lb	zero,0(s2)
    18b0:	0100                	addi	s0,sp,128
    18b2:	2905                	jal	1ce2 <ch32v003fun.c.8affbd33+0xd8d>
    18b4:	0306                	slli	t1,t1,0x1
    18b6:	0900                	addi	s0,sp,144
    18b8:	0000                	unimp
    18ba:	0501                	addi	a0,a0,0
    18bc:	0900033b          	0x900033b
    18c0:	0000                	unimp
    18c2:	0501                	addi	a0,a0,0
    18c4:	0329                	addi	t1,t1,10
    18c6:	0900                	addi	s0,sp,144
    18c8:	0000                	unimp
    18ca:	0501                	addi	a0,a0,0
    18cc:	0900033b          	0x900033b
    18d0:	0000                	unimp
    18d2:	0501                	addi	a0,a0,0
    18d4:	0329                	addi	t1,t1,10
    18d6:	0900                	addi	s0,sp,144
    18d8:	0000                	unimp
    18da:	0301                	addi	t1,t1,0
    18dc:	0900                	addi	s0,sp,144
    18de:	0000                	unimp
    18e0:	0501                	addi	a0,a0,0
    18e2:	0900033b          	0x900033b
    18e6:	0000                	unimp
    18e8:	0501                	addi	a0,a0,0
    18ea:	064c                	addi	a1,sp,772
    18ec:	00090003          	lb	zero,0(s2)
    18f0:	0100                	addi	s0,sp,128
    18f2:	5b05                	li	s6,-31
    18f4:	0306                	slli	t1,t1,0x1
    18f6:	0900                	addi	s0,sp,144
    18f8:	0000                	unimp
    18fa:	0501                	addi	a0,a0,0
    18fc:	0058                	addi	a4,sp,4
    18fe:	0402                	c.slli64	s0
    1900:	0301                	addi	t1,t1,0
    1902:	0900                	addi	s0,sp,144
    1904:	0000                	unimp
    1906:	0501                	addi	a0,a0,0
    1908:	005f 0402 0304      	0x3040402005f
    190e:	0900                	addi	s0,sp,144
    1910:	0000                	unimp
    1912:	0901                	addi	s2,s2,0
    1914:	0000                	unimp
    1916:	0100                	addi	s0,sp,128
    1918:	0501                	addi	a0,a0,0
    191a:	0001                	nop
    191c:	0205                	addi	tp,tp,1
    191e:	0000                	unimp
    1920:	0000                	unimp
    1922:	0101a003          	lw	zero,16(gp) # 200008a0 <__global_pointer$+0x10>
    1926:	0205                	addi	tp,tp,1
    1928:	00090103          	lb	sp,0(s2)
    192c:	0100                	addi	s0,sp,128
    192e:	00090103          	lb	sp,0(s2)
    1932:	0100                	addi	s0,sp,128
    1934:	00090103          	lb	sp,0(s2)
    1938:	0100                	addi	s0,sp,128
    193a:	0105                	addi	sp,sp,1
    193c:	0306                	slli	t1,t1,0x1
    193e:	097d                	addi	s2,s2,31
    1940:	0000                	unimp
    1942:	0501                	addi	a0,a0,0
    1944:	0309                	addi	t1,t1,2
    1946:	00000903          	lb	s2,0(zero) # 0 <InterruptVector>
    194a:	0501                	addi	a0,a0,0
    194c:	0301                	addi	t1,t1,0
    194e:	097d                	addi	s2,s2,31
    1950:	0000                	unimp
    1952:	0501                	addi	a0,a0,0
    1954:	0309                	addi	t1,t1,2
    1956:	00000903          	lb	s2,0(zero) # 0 <InterruptVector>
    195a:	0501                	addi	a0,a0,0
    195c:	0602                	c.slli64	a2
    195e:	00090103          	lb	sp,0(s2)
    1962:	0100                	addi	s0,sp,128
    1964:	00090303          	lb	t1,0(s2)
    1968:	0100                	addi	s0,sp,128
    196a:	0805                	addi	a6,a6,1
    196c:	0306                	slli	t1,t1,0x1
    196e:	0900                	addi	s0,sp,144
    1970:	0000                	unimp
    1972:	0501                	addi	a0,a0,0
    1974:	09010303          	lb	t1,144(sp)
    1978:	0000                	unimp
    197a:	0501                	addi	a0,a0,0
    197c:	000c                	0xc
    197e:	0402                	c.slli64	s0
    1980:	0601                	addi	a2,a2,0
    1982:	00097f03          	0x97f03
    1986:	0100                	addi	s0,sp,128
    1988:	0d05                	addi	s10,s10,1
    198a:	0200                	addi	s0,sp,256
    198c:	0104                	addi	s1,sp,128
    198e:	0306                	slli	t1,t1,0x1
    1990:	0900                	addi	s0,sp,144
    1992:	0000                	unimp
    1994:	0501                	addi	a0,a0,0
    1996:	0002                	c.slli64	zero
    1998:	0402                	c.slli64	s0
    199a:	0301                	addi	t1,t1,0
    199c:	0900                	addi	s0,sp,144
    199e:	0000                	unimp
    19a0:	0501                	addi	a0,a0,0
    19a2:	0015                	c.nop	5
    19a4:	0402                	c.slli64	s0
    19a6:	09000303          	lb	t1,144(zero) # 90 <InterruptVector+0x90>
    19aa:	0000                	unimp
    19ac:	0501                	addi	a0,a0,0
    19ae:	0011                	c.nop	4
    19b0:	0402                	c.slli64	s0
    19b2:	09000303          	lb	t1,144(zero) # 90 <InterruptVector+0x90>
    19b6:	0000                	unimp
    19b8:	0501                	addi	a0,a0,0
    19ba:	09020313          	addi	t1,tp,144 # 1090 <ch32v003fun.c.8affbd33+0x13b>
    19be:	0000                	unimp
    19c0:	0501                	addi	a0,a0,0
    19c2:	0301                	addi	t1,t1,0
    19c4:	00dd                	addi	ra,ra,23
    19c6:	0009                	c.nop	2
    19c8:	0100                	addi	s0,sp,128
    19ca:	0305                	addi	t1,t1,1
    19cc:	0200                	addi	s0,sp,256
    19ce:	0404                	addi	s1,sp,512
    19d0:	0306                	slli	t1,t1,0x1
    19d2:	7fa2                	flw	ft11,40(sp)
    19d4:	0009                	c.nop	2
    19d6:	0100                	addi	s0,sp,128
    19d8:	2905                	jal	1e08 <ch32v003fun.c.8affbd33+0xeb3>
    19da:	0200                	addi	s0,sp,256
    19dc:	0404                	addi	s1,sp,512
    19de:	0306                	slli	t1,t1,0x1
    19e0:	0900                	addi	s0,sp,144
    19e2:	0000                	unimp
    19e4:	0501                	addi	a0,a0,0
    19e6:	04020003          	lb	zero,64(tp) # 40 <InterruptVector+0x40>
    19ea:	0304                	addi	s1,sp,384
    19ec:	0900                	addi	s0,sp,144
    19ee:	0000                	unimp
    19f0:	0501                	addi	a0,a0,0
    19f2:	0029                	c.nop	10
    19f4:	0402                	c.slli64	s0
    19f6:	0304                	addi	s1,sp,384
    19f8:	0900                	addi	s0,sp,144
    19fa:	0000                	unimp
    19fc:	0501                	addi	a0,a0,0
    19fe:	002c                	addi	a1,sp,8
    1a00:	0402                	c.slli64	s0
    1a02:	0304                	addi	s1,sp,384
    1a04:	0900                	addi	s0,sp,144
    1a06:	0000                	unimp
    1a08:	0501                	addi	a0,a0,0
    1a0a:	0029                	c.nop	10
    1a0c:	0402                	c.slli64	s0
    1a0e:	0304                	addi	s1,sp,384
    1a10:	0900                	addi	s0,sp,144
    1a12:	0000                	unimp
    1a14:	0501                	addi	a0,a0,0
    1a16:	001a                	c.slli	zero,0x6
    1a18:	0402                	c.slli64	s0
    1a1a:	0604                	addi	s1,sp,768
    1a1c:	00097f03          	0x97f03
    1a20:	0100                	addi	s0,sp,128
    1a22:	0305                	addi	t1,t1,1
    1a24:	00090703          	lb	a4,0(s2)
    1a28:	0100                	addi	s0,sp,128
    1a2a:	0805                	addi	a6,a6,1
    1a2c:	0306                	slli	t1,t1,0x1
    1a2e:	0900                	addi	s0,sp,144
    1a30:	0000                	unimp
    1a32:	0501                	addi	a0,a0,0
    1a34:	09000313          	li	t1,144
    1a38:	0000                	unimp
    1a3a:	0501                	addi	a0,a0,0
    1a3c:	0306                	slli	t1,t1,0x1
    1a3e:	0900                	addi	s0,sp,144
    1a40:	0000                	unimp
    1a42:	0501                	addi	a0,a0,0
    1a44:	0604                	addi	s1,sp,768
    1a46:	00090103          	lb	sp,0(s2)
    1a4a:	0100                	addi	s0,sp,128
    1a4c:	0705                	addi	a4,a4,1
    1a4e:	0306                	slli	t1,t1,0x1
    1a50:	0900                	addi	s0,sp,144
    1a52:	0000                	unimp
    1a54:	0501                	addi	a0,a0,0
    1a56:	0306                	slli	t1,t1,0x1
    1a58:	090a                	slli	s2,s2,0x2
    1a5a:	0000                	unimp
    1a5c:	0501                	addi	a0,a0,0
    1a5e:	7903060b          	0x7903060b
    1a62:	0009                	c.nop	2
    1a64:	0100                	addi	s0,sp,128
    1a66:	0c05                	addi	s8,s8,1
    1a68:	0306                	slli	t1,t1,0x1
    1a6a:	0900                	addi	s0,sp,144
    1a6c:	0000                	unimp
    1a6e:	0501                	addi	a0,a0,0
    1a70:	0306                	slli	t1,t1,0x1
    1a72:	00000907          	0x907
    1a76:	0501                	addi	a0,a0,0
    1a78:	0608                	addi	a0,sp,768
    1a7a:	00097403          	0x97403
    1a7e:	0100                	addi	s0,sp,128
    1a80:	0b05                	addi	s6,s6,1
    1a82:	0306                	slli	t1,t1,0x1
    1a84:	0900                	addi	s0,sp,144
    1a86:	0000                	unimp
    1a88:	0501                	addi	a0,a0,0
    1a8a:	0308                	addi	a0,sp,384
    1a8c:	0900                	addi	s0,sp,144
    1a8e:	0000                	unimp
    1a90:	0501                	addi	a0,a0,0
    1a92:	0319                	addi	t1,t1,6
    1a94:	00000913          	li	s2,0
    1a98:	0501                	addi	a0,a0,0
    1a9a:	0315                	addi	t1,t1,5
    1a9c:	0900                	addi	s0,sp,144
    1a9e:	0000                	unimp
    1aa0:	0501                	addi	a0,a0,0
    1aa2:	030e                	slli	t1,t1,0x3
    1aa4:	0900                	addi	s0,sp,144
    1aa6:	0000                	unimp
    1aa8:	0501                	addi	a0,a0,0
    1aaa:	0305                	addi	t1,t1,1
    1aac:	0900                	addi	s0,sp,144
    1aae:	0000                	unimp
    1ab0:	0501                	addi	a0,a0,0
    1ab2:	0608                	addi	a0,sp,768
    1ab4:	00090103          	lb	sp,0(s2)
    1ab8:	0100                	addi	s0,sp,128
    1aba:	0b05                	addi	s6,s6,1
    1abc:	0306                	slli	t1,t1,0x1
    1abe:	0900                	addi	s0,sp,144
    1ac0:	0000                	unimp
    1ac2:	0501                	addi	a0,a0,0
    1ac4:	0308                	addi	a0,sp,384
    1ac6:	0900                	addi	s0,sp,144
    1ac8:	0000                	unimp
    1aca:	0501                	addi	a0,a0,0
    1acc:	0602                	c.slli64	a2
    1ace:	00090f03          	lb	t5,0(s2)
    1ad2:	0100                	addi	s0,sp,128
    1ad4:	0805                	addi	a6,a6,1
    1ad6:	0306                	slli	t1,t1,0x1
    1ad8:	0900                	addi	s0,sp,144
    1ada:	0000                	unimp
    1adc:	0501                	addi	a0,a0,0
    1ade:	0900030f          	0x900030f
    1ae2:	0000                	unimp
    1ae4:	0501                	addi	a0,a0,0
    1ae6:	0305                	addi	t1,t1,1
    1ae8:	0900                	addi	s0,sp,144
    1aea:	0000                	unimp
    1aec:	0501                	addi	a0,a0,0
    1aee:	0306                	slli	t1,t1,0x1
    1af0:	0904                	addi	s1,sp,144
    1af2:	0000                	unimp
    1af4:	0501                	addi	a0,a0,0
    1af6:	0602                	c.slli64	a2
    1af8:	00090003          	lb	zero,0(s2)
    1afc:	0100                	addi	s0,sp,128
    1afe:	0605                	addi	a2,a2,1
    1b00:	0306                	slli	t1,t1,0x1
    1b02:	0900                	addi	s0,sp,144
    1b04:	0000                	unimp
    1b06:	0501                	addi	a0,a0,0
    1b08:	030e                	slli	t1,t1,0x3
    1b0a:	00000903          	lb	s2,0(zero) # 0 <InterruptVector>
    1b0e:	0501                	addi	a0,a0,0
    1b10:	0305                	addi	t1,t1,1
    1b12:	097d                	addi	s2,s2,31
    1b14:	0000                	unimp
    1b16:	0501                	addi	a0,a0,0
    1b18:	030e                	slli	t1,t1,0x3
    1b1a:	00000903          	lb	s2,0(zero) # 0 <InterruptVector>
    1b1e:	0501                	addi	a0,a0,0
    1b20:	0305                	addi	t1,t1,1
    1b22:	097d                	addi	s2,s2,31
    1b24:	0000                	unimp
    1b26:	0501                	addi	a0,a0,0
    1b28:	01030603          	lb	a2,16(t1) # 9011898 <wiring.c.7604182b+0x900f11c>
    1b2c:	0009                	c.nop	2
    1b2e:	0100                	addi	s0,sp,128
    1b30:	00090103          	lb	sp,0(s2)
    1b34:	0100                	addi	s0,sp,128
    1b36:	0705                	addi	a4,a4,1
    1b38:	0306                	slli	t1,t1,0x1
    1b3a:	0900                	addi	s0,sp,144
    1b3c:	0000                	unimp
    1b3e:	0501                	addi	a0,a0,0
    1b40:	0305                	addi	t1,t1,1
    1b42:	0900                	addi	s0,sp,144
    1b44:	0000                	unimp
    1b46:	0501                	addi	a0,a0,0
    1b48:	0308                	addi	a0,sp,384
    1b4a:	097f                	0x97f
    1b4c:	0000                	unimp
    1b4e:	0501                	addi	a0,a0,0
    1b50:	0602                	c.slli64	a2
    1b52:	00090303          	lb	t1,0(s2)
    1b56:	0100                	addi	s0,sp,128
    1b58:	00090303          	lb	t1,0(s2)
    1b5c:	0100                	addi	s0,sp,128
    1b5e:	0b05                	addi	s6,s6,1
    1b60:	0306                	slli	t1,t1,0x1
    1b62:	00000907          	0x907
    1b66:	0501                	addi	a0,a0,0
    1b68:	09220307          	0x9220307
    1b6c:	0000                	unimp
    1b6e:	0501                	addi	a0,a0,0
    1b70:	0306                	slli	t1,t1,0x1
    1b72:	0954                	addi	a3,sp,148
    1b74:	0000                	unimp
    1b76:	0501                	addi	a0,a0,0
    1b78:	090a030b          	0x90a030b
    1b7c:	0000                	unimp
    1b7e:	0501                	addi	a0,a0,0
    1b80:	0602                	c.slli64	a2
    1b82:	00097c03          	0x97c03
    1b86:	0100                	addi	s0,sp,128
    1b88:	0305                	addi	t1,t1,1
    1b8a:	00090203          	lb	tp,0(s2)
    1b8e:	0100                	addi	s0,sp,128
    1b90:	0805                	addi	a6,a6,1
    1b92:	0306                	slli	t1,t1,0x1
    1b94:	0900                	addi	s0,sp,144
    1b96:	0000                	unimp
    1b98:	0501                	addi	a0,a0,0
    1b9a:	0306                	slli	t1,t1,0x1
    1b9c:	0900                	addi	s0,sp,144
    1b9e:	0000                	unimp
    1ba0:	0501                	addi	a0,a0,0
    1ba2:	031e                	slli	t1,t1,0x7
    1ba4:	00000903          	lb	s2,0(zero) # 0 <InterruptVector>
    1ba8:	0501                	addi	a0,a0,0
    1baa:	0604                	addi	s1,sp,768
    1bac:	00097f03          	0x97f03
    1bb0:	0100                	addi	s0,sp,128
    1bb2:	00090103          	lb	sp,0(s2)
    1bb6:	0100                	addi	s0,sp,128
    1bb8:	1e05                	addi	t3,t3,-31
    1bba:	0306                	slli	t1,t1,0x1
    1bbc:	0900                	addi	s0,sp,144
    1bbe:	0000                	unimp
    1bc0:	0501                	addi	a0,a0,0
    1bc2:	0604                	addi	s1,sp,768
    1bc4:	00090103          	lb	sp,0(s2)
    1bc8:	0100                	addi	s0,sp,128
    1bca:	0705                	addi	a4,a4,1
    1bcc:	0306                	slli	t1,t1,0x1
    1bce:	0900                	addi	s0,sp,144
    1bd0:	0000                	unimp
    1bd2:	0501                	addi	a0,a0,0
    1bd4:	0605                	addi	a2,a2,1
    1bd6:	00090103          	lb	sp,0(s2)
    1bda:	0100                	addi	s0,sp,128
    1bdc:	00090103          	lb	sp,0(s2)
    1be0:	0100                	addi	s0,sp,128
    1be2:	0a05                	addi	s4,s4,1
    1be4:	0306                	slli	t1,t1,0x1
    1be6:	0900                	addi	s0,sp,144
    1be8:	0000                	unimp
    1bea:	0501                	addi	a0,a0,0
    1bec:	0308                	addi	a0,sp,384
    1bee:	0900                	addi	s0,sp,144
    1bf0:	0000                	unimp
    1bf2:	0501                	addi	a0,a0,0
    1bf4:	05030603          	lb	a2,80(t1)
    1bf8:	0009                	c.nop	2
    1bfa:	0100                	addi	s0,sp,128
    1bfc:	0705                	addi	a4,a4,1
    1bfe:	0306                	slli	t1,t1,0x1
    1c00:	0900                	addi	s0,sp,144
    1c02:	0000                	unimp
    1c04:	0501                	addi	a0,a0,0
    1c06:	0306                	slli	t1,t1,0x1
    1c08:	0900                	addi	s0,sp,144
    1c0a:	0000                	unimp
    1c0c:	0501                	addi	a0,a0,0
    1c0e:	0604                	addi	s1,sp,768
    1c10:	00090103          	lb	sp,0(s2)
    1c14:	0100                	addi	s0,sp,128
    1c16:	0f05                	addi	t5,t5,1
    1c18:	0306                	slli	t1,t1,0x1
    1c1a:	0900                	addi	s0,sp,144
    1c1c:	0000                	unimp
    1c1e:	0501                	addi	a0,a0,0
    1c20:	0306                	slli	t1,t1,0x1
    1c22:	0900                	addi	s0,sp,144
    1c24:	0000                	unimp
    1c26:	0501                	addi	a0,a0,0
    1c28:	0604                	addi	s1,sp,768
    1c2a:	00090103          	lb	sp,0(s2)
    1c2e:	0100                	addi	s0,sp,128
    1c30:	0705                	addi	a4,a4,1
    1c32:	0306                	slli	t1,t1,0x1
    1c34:	0900                	addi	s0,sp,144
    1c36:	0000                	unimp
    1c38:	0501                	addi	a0,a0,0
    1c3a:	0605                	addi	a2,a2,1
    1c3c:	00090103          	lb	sp,0(s2)
    1c40:	0100                	addi	s0,sp,128
    1c42:	00090103          	lb	sp,0(s2)
    1c46:	0100                	addi	s0,sp,128
    1c48:	0705                	addi	a4,a4,1
    1c4a:	0306                	slli	t1,t1,0x1
    1c4c:	0900                	addi	s0,sp,144
    1c4e:	0000                	unimp
    1c50:	0501                	addi	a0,a0,0
    1c52:	0605                	addi	a2,a2,1
    1c54:	00090103          	lb	sp,0(s2)
    1c58:	0100                	addi	s0,sp,128
    1c5a:	00090103          	lb	sp,0(s2)
    1c5e:	0100                	addi	s0,sp,128
    1c60:	0905                	addi	s2,s2,1
    1c62:	0306                	slli	t1,t1,0x1
    1c64:	097f                	0x97f
    1c66:	0000                	unimp
    1c68:	0501                	addi	a0,a0,0
    1c6a:	09140307          	0x9140307
    1c6e:	0000                	unimp
    1c70:	0501                	addi	a0,a0,0
    1c72:	060a                	slli	a2,a2,0x2
    1c74:	097faf03          	lw	t5,151(t6)
    1c78:	0000                	unimp
    1c7a:	0501                	addi	a0,a0,0
    1c7c:	0606                	slli	a2,a2,0x1
    1c7e:	00090303          	lb	t1,0(s2)
    1c82:	0100                	addi	s0,sp,128
    1c84:	0d05                	addi	s10,s10,1
    1c86:	00097d03          	0x97d03
    1c8a:	0100                	addi	s0,sp,128
    1c8c:	0405                	addi	s0,s0,1
    1c8e:	0306                	slli	t1,t1,0x1
    1c90:	0905                	addi	s2,s2,1
    1c92:	0000                	unimp
    1c94:	0501                	addi	a0,a0,0
    1c96:	0003060b          	0x3060b
    1c9a:	0009                	c.nop	2
    1c9c:	0100                	addi	s0,sp,128
    1c9e:	0405                	addi	s0,s0,1
    1ca0:	0306                	slli	t1,t1,0x1
    1ca2:	0901                	addi	s2,s2,0
    1ca4:	0000                	unimp
    1ca6:	0501                	addi	a0,a0,0
    1ca8:	7f030607          	0x7f030607
    1cac:	0009                	c.nop	2
    1cae:	0100                	addi	s0,sp,128
    1cb0:	0a05                	addi	s4,s4,1
    1cb2:	00090103          	lb	sp,0(s2)
    1cb6:	0100                	addi	s0,sp,128
    1cb8:	0205                	addi	tp,tp,1
    1cba:	00096e03          	0x96e03
    1cbe:	0100                	addi	s0,sp,128
    1cc0:	0305                	addi	t1,t1,1
    1cc2:	0306                	slli	t1,t1,0x1
    1cc4:	0000091b          	0x91b
    1cc8:	0501                	addi	a0,a0,0
    1cca:	0608                	addi	a0,sp,768
    1ccc:	00090003          	lb	zero,0(s2)
    1cd0:	0100                	addi	s0,sp,128
    1cd2:	1305                	addi	t1,t1,-31
    1cd4:	00090003          	lb	zero,0(s2)
    1cd8:	0100                	addi	s0,sp,128
    1cda:	0605                	addi	a2,a2,1
    1cdc:	00090003          	lb	zero,0(s2)
    1ce0:	0100                	addi	s0,sp,128
    1ce2:	0405                	addi	s0,s0,1
    1ce4:	0306                	slli	t1,t1,0x1
    1ce6:	0901                	addi	s2,s2,0
    1ce8:	0000                	unimp
    1cea:	0501                	addi	a0,a0,0
    1cec:	00030607          	0x30607
    1cf0:	0009                	c.nop	2
    1cf2:	0100                	addi	s0,sp,128
    1cf4:	0605                	addi	a2,a2,1
    1cf6:	00090a03          	lb	s4,0(s2)
    1cfa:	0100                	addi	s0,sp,128
    1cfc:	0b05                	addi	s6,s6,1
    1cfe:	0306                	slli	t1,t1,0x1
    1d00:	0979                	addi	s2,s2,30
    1d02:	0000                	unimp
    1d04:	0501                	addi	a0,a0,0
    1d06:	060c                	addi	a1,sp,768
    1d08:	00090003          	lb	zero,0(s2)
    1d0c:	0100                	addi	s0,sp,128
    1d0e:	0605                	addi	a2,a2,1
    1d10:	00090703          	lb	a4,0(s2)
    1d14:	0100                	addi	s0,sp,128
    1d16:	0a05                	addi	s4,s4,1
    1d18:	0306                	slli	t1,t1,0x1
    1d1a:	097a                	slli	s2,s2,0x1e
    1d1c:	0000                	unimp
    1d1e:	0501                	addi	a0,a0,0
    1d20:	0606                	slli	a2,a2,0x1
    1d22:	00090303          	lb	t1,0(s2)
    1d26:	0100                	addi	s0,sp,128
    1d28:	0d05                	addi	s10,s10,1
    1d2a:	00097d03          	0x97d03
    1d2e:	0100                	addi	s0,sp,128
    1d30:	0405                	addi	s0,s0,1
    1d32:	0306                	slli	t1,t1,0x1
    1d34:	0905                	addi	s2,s2,1
    1d36:	0000                	unimp
    1d38:	0501                	addi	a0,a0,0
    1d3a:	0003060b          	0x3060b
    1d3e:	0009                	c.nop	2
    1d40:	0100                	addi	s0,sp,128
    1d42:	0405                	addi	s0,s0,1
    1d44:	0306                	slli	t1,t1,0x1
    1d46:	0901                	addi	s2,s2,0
    1d48:	0000                	unimp
    1d4a:	0501                	addi	a0,a0,0
    1d4c:	7f030607          	0x7f030607
    1d50:	0009                	c.nop	2
    1d52:	0100                	addi	s0,sp,128
    1d54:	0a05                	addi	s4,s4,1
    1d56:	00090103          	lb	sp,0(s2)
    1d5a:	0100                	addi	s0,sp,128
    1d5c:	0b05                	addi	s6,s6,1
    1d5e:	0306                	slli	t1,t1,0x1
    1d60:	091a                	slli	s2,s2,0x6
    1d62:	0000                	unimp
    1d64:	0501                	addi	a0,a0,0
    1d66:	060d                	addi	a2,a2,3
    1d68:	00090003          	lb	zero,0(s2)
    1d6c:	0100                	addi	s0,sp,128
    1d6e:	0405                	addi	s0,s0,1
    1d70:	0306                	slli	t1,t1,0x1
    1d72:	090d                	addi	s2,s2,3
    1d74:	0000                	unimp
    1d76:	0501                	addi	a0,a0,0
    1d78:	0606                	slli	a2,a2,0x1
    1d7a:	00090003          	lb	zero,0(s2)
    1d7e:	0100                	addi	s0,sp,128
    1d80:	0405                	addi	s0,s0,1
    1d82:	0306                	slli	t1,t1,0x1
    1d84:	0901                	addi	s2,s2,0
    1d86:	0000                	unimp
    1d88:	0301                	addi	t1,t1,0
    1d8a:	0901                	addi	s2,s2,0
    1d8c:	0000                	unimp
    1d8e:	0501                	addi	a0,a0,0
    1d90:	09040303          	lb	t1,144(s0)
    1d94:	0000                	unimp
    1d96:	0501                	addi	a0,a0,0
    1d98:	0609                	addi	a2,a2,2
    1d9a:	00090003          	lb	zero,0(s2)
    1d9e:	0100                	addi	s0,sp,128
    1da0:	1905                	addi	s2,s2,-31
    1da2:	0200                	addi	s0,sp,256
    1da4:	0104                	addi	s1,sp,128
    1da6:	0306                	slli	t1,t1,0x1
    1da8:	0900                	addi	s0,sp,144
    1daa:	0000                	unimp
    1dac:	0501                	addi	a0,a0,0
    1dae:	001a                	c.slli	zero,0x6
    1db0:	0402                	c.slli64	s0
    1db2:	0601                	addi	a2,a2,0
    1db4:	00090003          	lb	zero,0(s2)
    1db8:	0100                	addi	s0,sp,128
    1dba:	0305                	addi	t1,t1,1
    1dbc:	0200                	addi	s0,sp,256
    1dbe:	0104                	addi	s1,sp,128
    1dc0:	00090003          	lb	zero,0(s2)
    1dc4:	0100                	addi	s0,sp,128
    1dc6:	2a05                	jal	1ef6 <main_sw.c.c9eed32e+0x67>
    1dc8:	0200                	addi	s0,sp,256
    1dca:	0304                	addi	s1,sp,384
    1dcc:	00090003          	lb	zero,0(s2)
    1dd0:	0100                	addi	s0,sp,128
    1dd2:	1e05                	addi	t3,t3,-31
    1dd4:	0200                	addi	s0,sp,256
    1dd6:	0304                	addi	s1,sp,384
    1dd8:	00090003          	lb	zero,0(s2)
    1ddc:	0100                	addi	s0,sp,128
    1dde:	0305                	addi	t1,t1,1
    1de0:	0306                	slli	t1,t1,0x1
    1de2:	0901                	addi	s2,s2,0
    1de4:	0000                	unimp
    1de6:	0501                	addi	a0,a0,0
    1de8:	0304                	addi	s1,sp,384
    1dea:	0901                	addi	s2,s2,0
    1dec:	0000                	unimp
    1dee:	0501                	addi	a0,a0,0
    1df0:	060a                	slli	a2,a2,0x2
    1df2:	00090003          	lb	zero,0(s2)
    1df6:	0100                	addi	s0,sp,128
    1df8:	0605                	addi	a2,a2,1
    1dfa:	00090003          	lb	zero,0(s2)
    1dfe:	0100                	addi	s0,sp,128
    1e00:	0405                	addi	s0,s0,1
    1e02:	0306                	slli	t1,t1,0x1
    1e04:	0901                	addi	s2,s2,0
    1e06:	0000                	unimp
    1e08:	0301                	addi	t1,t1,0
    1e0a:	0901                	addi	s2,s2,0
    1e0c:	0000                	unimp
    1e0e:	0501                	addi	a0,a0,0
    1e10:	04020033          	0x4020033
    1e14:	0304                	addi	s1,sp,384
    1e16:	097c                	addi	a5,sp,156
    1e18:	0000                	unimp
    1e1a:	0501                	addi	a0,a0,0
    1e1c:	0402002f          	0x402002f
    1e20:	0304                	addi	s1,sp,384
    1e22:	0900                	addi	s0,sp,144
    1e24:	0000                	unimp
    1e26:	0501                	addi	a0,a0,0
    1e28:	0030                	addi	a2,sp,8
    1e2a:	0402                	c.slli64	s0
    1e2c:	0604                	addi	s1,sp,768
    1e2e:	00090003          	lb	zero,0(s2)
    1e32:	0100                	addi	s0,sp,128
    1e34:	0305                	addi	t1,t1,1
    1e36:	00090003          	lb	zero,0(s2)
    1e3a:	0100                	addi	s0,sp,128
    1e3c:	1005                	c.nop	-31
    1e3e:	0200                	addi	s0,sp,256
    1e40:	0104                	addi	s1,sp,128
    1e42:	0306                	slli	t1,t1,0x1
    1e44:	00000907          	0x907
    1e48:	0501                	addi	a0,a0,0
    1e4a:	04020003          	lb	zero,64(tp) # 40 <InterruptVector+0x40>
    1e4e:	0601                	addi	a2,a2,0
    1e50:	00090003          	lb	zero,0(s2)
    1e54:	0100                	addi	s0,sp,128
    1e56:	1a05                	addi	s4,s4,-31
    1e58:	0200                	addi	s0,sp,256
    1e5a:	0304                	addi	s1,sp,384
    1e5c:	00090003          	lb	zero,0(s2)
    1e60:	0100                	addi	s0,sp,128
    1e62:	2405                	jal	2082 <main_sw.c.c9eed32e+0x1f3>
    1e64:	0200                	addi	s0,sp,256
    1e66:	0304                	addi	s1,sp,384
    1e68:	00090003          	lb	zero,0(s2)
    1e6c:	0100                	addi	s0,sp,128
    1e6e:	1605                	addi	a2,a2,-31
    1e70:	0200                	addi	s0,sp,256
    1e72:	0304                	addi	s1,sp,384
    1e74:	00090003          	lb	zero,0(s2)
    1e78:	0100                	addi	s0,sp,128
    1e7a:	0305                	addi	t1,t1,1
    1e7c:	0306                	slli	t1,t1,0x1
    1e7e:	0901                	addi	s2,s2,0
    1e80:	0000                	unimp
    1e82:	0301                	addi	t1,t1,0
    1e84:	0901                	addi	s2,s2,0
    1e86:	0000                	unimp
    1e88:	0501                	addi	a0,a0,0
    1e8a:	01030607          	0x1030607
    1e8e:	0009                	c.nop	2
    1e90:	0100                	addi	s0,sp,128
    1e92:	0505                	addi	a0,a0,1
    1e94:	00097f03          	0x97f03
    1e98:	0100                	addi	s0,sp,128
    1e9a:	0305                	addi	t1,t1,1
    1e9c:	0306                	slli	t1,t1,0x1
    1e9e:	0901                	addi	s2,s2,0
    1ea0:	0000                	unimp
    1ea2:	0901                	addi	s2,s2,0
    1ea4:	0000                	unimp
    1ea6:	0100                	addi	s0,sp,128
    1ea8:	0501                	addi	a0,a0,0
    1eaa:	0001                	nop
    1eac:	0205                	addi	tp,tp,1
    1eae:	0000                	unimp
    1eb0:	0000                	unimp
    1eb2:	01028903          	lb	s2,16(t0)
    1eb6:	0805                	addi	a6,a6,1
    1eb8:	0306                	slli	t1,t1,0x1
    1eba:	0902                	c.slli64	s2
    1ebc:	0000                	unimp
    1ebe:	0501                	addi	a0,a0,0
    1ec0:	0301                	addi	t1,t1,0
    1ec2:	097e                	slli	s2,s2,0x1f
    1ec4:	0000                	unimp
    1ec6:	0501                	addi	a0,a0,0
    1ec8:	0602                	c.slli64	a2
    1eca:	00090203          	lb	tp,0(s2)
    1ece:	0100                	addi	s0,sp,128
    1ed0:	0505                	addi	a0,a0,1
    1ed2:	0306                	slli	t1,t1,0x1
    1ed4:	0900                	addi	s0,sp,144
    1ed6:	0000                	unimp
    1ed8:	0501                	addi	a0,a0,0
    1eda:	0602                	c.slli64	a2
    1edc:	00090303          	lb	t1,0(s2)
    1ee0:	0100                	addi	s0,sp,128
    1ee2:	0605                	addi	a2,a2,1
    1ee4:	0306                	slli	t1,t1,0x1
    1ee6:	0900                	addi	s0,sp,144
    1ee8:	0000                	unimp
    1eea:	0501                	addi	a0,a0,0
    1eec:	0602                	c.slli64	a2
    1eee:	00090103          	lb	sp,0(s2)
    1ef2:	0100                	addi	s0,sp,128
    1ef4:	0505                	addi	a0,a0,1
    1ef6:	0306                	slli	t1,t1,0x1
    1ef8:	0900                	addi	s0,sp,144
    1efa:	0000                	unimp
    1efc:	0501                	addi	a0,a0,0
    1efe:	000e                	c.slli	zero,0x3
    1f00:	0402                	c.slli64	s0
    1f02:	0302                	c.slli64	t1
    1f04:	0900                	addi	s0,sp,144
    1f06:	0000                	unimp
    1f08:	0501                	addi	a0,a0,0
    1f0a:	0009                	c.nop	2
    1f0c:	0402                	c.slli64	s0
    1f0e:	0302                	c.slli64	t1
    1f10:	0900                	addi	s0,sp,144
    1f12:	0000                	unimp
    1f14:	0501                	addi	a0,a0,0
    1f16:	0602                	c.slli64	a2
    1f18:	00090103          	lb	sp,0(s2)
    1f1c:	0100                	addi	s0,sp,128
    1f1e:	0805                	addi	a6,a6,1
    1f20:	0306                	slli	t1,t1,0x1
    1f22:	0900                	addi	s0,sp,144
    1f24:	0000                	unimp
    1f26:	0501                	addi	a0,a0,0
    1f28:	0305                	addi	t1,t1,1
    1f2a:	0900                	addi	s0,sp,144
    1f2c:	0000                	unimp
    1f2e:	0501                	addi	a0,a0,0
    1f30:	0602                	c.slli64	a2
    1f32:	00090103          	lb	sp,0(s2)
    1f36:	0100                	addi	s0,sp,128
    1f38:	0805                	addi	a6,a6,1
    1f3a:	0306                	slli	t1,t1,0x1
    1f3c:	0900                	addi	s0,sp,144
    1f3e:	0000                	unimp
    1f40:	0501                	addi	a0,a0,0
    1f42:	0305                	addi	t1,t1,1
    1f44:	0900                	addi	s0,sp,144
    1f46:	0000                	unimp
    1f48:	0501                	addi	a0,a0,0
    1f4a:	060d                	addi	a2,a2,3
    1f4c:	00090003          	lb	zero,0(s2)
    1f50:	0100                	addi	s0,sp,128
    1f52:	0205                	addi	tp,tp,1
    1f54:	097ef303          	0x97ef303
    1f58:	0000                	unimp
    1f5a:	0301                	addi	t1,t1,0
    1f5c:	0901                	addi	s2,s2,0
    1f5e:	0000                	unimp
    1f60:	0501                	addi	a0,a0,0
    1f62:	0608                	addi	a0,sp,768
    1f64:	00090003          	lb	zero,0(s2)
    1f68:	0100                	addi	s0,sp,128
    1f6a:	0c05                	addi	s8,s8,1
    1f6c:	0306                	slli	t1,t1,0x1
    1f6e:	0900                	addi	s0,sp,144
    1f70:	0000                	unimp
    1f72:	0501                	addi	a0,a0,0
    1f74:	0602                	c.slli64	a2
    1f76:	00090003          	lb	zero,0(s2)
    1f7a:	0100                	addi	s0,sp,128
    1f7c:	0f05                	addi	t5,t5,1
    1f7e:	00090003          	lb	zero,0(s2)
    1f82:	0100                	addi	s0,sp,128
    1f84:	0205                	addi	tp,tp,1
    1f86:	0306                	slli	t1,t1,0x1
    1f88:	0901                	addi	s2,s2,0
    1f8a:	0000                	unimp
    1f8c:	0501                	addi	a0,a0,0
    1f8e:	061a                	slli	a2,a2,0x6
    1f90:	00090003          	lb	zero,0(s2)
    1f94:	0100                	addi	s0,sp,128
    1f96:	2e05                	jal	22c6 <main_sw.c.c9eed32e+0x437>
    1f98:	0306                	slli	t1,t1,0x1
    1f9a:	097f                	0x97f
    1f9c:	0000                	unimp
    1f9e:	0501                	addi	a0,a0,0
    1fa0:	031c                	addi	a5,sp,384
    1fa2:	0900                	addi	s0,sp,144
    1fa4:	0000                	unimp
    1fa6:	0501                	addi	a0,a0,0
    1fa8:	0629                	addi	a2,a2,10
    1faa:	00090003          	lb	zero,0(s2)
    1fae:	0100                	addi	s0,sp,128
    1fb0:	2305                	jal	24d0 <main_sw.c.c9eed32e+0x641>
    1fb2:	00090003          	lb	zero,0(s2)
    1fb6:	0100                	addi	s0,sp,128
    1fb8:	1f05                	addi	t5,t5,-31
    1fba:	00090003          	lb	zero,0(s2)
    1fbe:	0100                	addi	s0,sp,128
    1fc0:	2705                	jal	26e0 <main_sw.c.c9eed32e+0x851>
    1fc2:	00090003          	lb	zero,0(s2)
    1fc6:	0100                	addi	s0,sp,128
    1fc8:	1f05                	addi	t5,t5,-31
    1fca:	00090003          	lb	zero,0(s2)
    1fce:	0100                	addi	s0,sp,128
    1fd0:	0205                	addi	tp,tp,1
    1fd2:	0306                	slli	t1,t1,0x1
    1fd4:	018d                	addi	gp,gp,3
    1fd6:	0009                	c.nop	2
    1fd8:	0100                	addi	s0,sp,128
    1fda:	0805                	addi	a6,a6,1
    1fdc:	0306                	slli	t1,t1,0x1
    1fde:	0900                	addi	s0,sp,144
    1fe0:	0000                	unimp
    1fe2:	0501                	addi	a0,a0,0
    1fe4:	0305                	addi	t1,t1,1
    1fe6:	0900                	addi	s0,sp,144
    1fe8:	0000                	unimp
    1fea:	0501                	addi	a0,a0,0
    1fec:	0602                	c.slli64	a2
    1fee:	00090103          	lb	sp,0(s2)
    1ff2:	0100                	addi	s0,sp,128
    1ff4:	0805                	addi	a6,a6,1
    1ff6:	0306                	slli	t1,t1,0x1
    1ff8:	0900                	addi	s0,sp,144
    1ffa:	0000                	unimp
    1ffc:	0501                	addi	a0,a0,0
    1ffe:	0305                	addi	t1,t1,1
    2000:	0900                	addi	s0,sp,144
    2002:	0000                	unimp
    2004:	0501                	addi	a0,a0,0
    2006:	060d                	addi	a2,a2,3
    2008:	00090003          	lb	zero,0(s2)
    200c:	0100                	addi	s0,sp,128
    200e:	0205                	addi	tp,tp,1
    2010:	097ef803          	0x97ef803
    2014:	0000                	unimp
    2016:	0501                	addi	a0,a0,0
    2018:	0634                	addi	a3,sp,776
    201a:	00090103          	lb	sp,0(s2)
    201e:	0100                	addi	s0,sp,128
    2020:	2905                	jal	2450 <main_sw.c.c9eed32e+0x5c1>
    2022:	00090003          	lb	zero,0(s2)
    2026:	0100                	addi	s0,sp,128
    2028:	0b05                	addi	s6,s6,1
    202a:	00090003          	lb	zero,0(s2)
    202e:	0100                	addi	s0,sp,128
    2030:	1005                	c.nop	-31
    2032:	00090003          	lb	zero,0(s2)
    2036:	0100                	addi	s0,sp,128
    2038:	2905                	jal	2468 <main_sw.c.c9eed32e+0x5d9>
    203a:	00097f03          	0x97f03
    203e:	0100                	addi	s0,sp,128
    2040:	3405                	jal	1a60 <ch32v003fun.c.8affbd33+0xb0b>
    2042:	00090003          	lb	zero,0(s2)
    2046:	0100                	addi	s0,sp,128
    2048:	0b05                	addi	s6,s6,1
    204a:	00090003          	lb	zero,0(s2)
    204e:	0100                	addi	s0,sp,128
    2050:	1e05                	addi	t3,t3,-31
    2052:	00090003          	lb	zero,0(s2)
    2056:	0100                	addi	s0,sp,128
    2058:	00090103          	lb	sp,0(s2)
    205c:	0100                	addi	s0,sp,128
    205e:	0b05                	addi	s6,s6,1
    2060:	00097f03          	0x97f03
    2064:	0100                	addi	s0,sp,128
    2066:	0205                	addi	tp,tp,1
    2068:	0306                	slli	t1,t1,0x1
    206a:	0901                	addi	s2,s2,0
    206c:	0000                	unimp
    206e:	0501                	addi	a0,a0,0
    2070:	0003060b          	0x3060b
    2074:	0009                	c.nop	2
    2076:	0100                	addi	s0,sp,128
    2078:	0205                	addi	tp,tp,1
    207a:	0306                	slli	t1,t1,0x1
    207c:	0901                	addi	s2,s2,0
    207e:	0000                	unimp
    2080:	0501                	addi	a0,a0,0
    2082:	0608                	addi	a0,sp,768
    2084:	00090003          	lb	zero,0(s2)
    2088:	0100                	addi	s0,sp,128
    208a:	0d05                	addi	s10,s10,1
    208c:	0306                	slli	t1,t1,0x1
    208e:	0900                	addi	s0,sp,144
    2090:	0000                	unimp
    2092:	0501                	addi	a0,a0,0
    2094:	0602                	c.slli64	a2
    2096:	00090003          	lb	zero,0(s2)
    209a:	0100                	addi	s0,sp,128
    209c:	1005                	c.nop	-31
    209e:	00090003          	lb	zero,0(s2)
    20a2:	0100                	addi	s0,sp,128
    20a4:	0205                	addi	tp,tp,1
    20a6:	0306                	slli	t1,t1,0x1
    20a8:	0901                	addi	s2,s2,0
    20aa:	0000                	unimp
    20ac:	0501                	addi	a0,a0,0
    20ae:	061a                	slli	a2,a2,0x6
    20b0:	00090003          	lb	zero,0(s2)
    20b4:	0100                	addi	s0,sp,128
    20b6:	2f05                	jal	27e6 <wiring.c.7604182b+0x6a>
    20b8:	0306                	slli	t1,t1,0x1
    20ba:	097f                	0x97f
    20bc:	0000                	unimp
    20be:	0501                	addi	a0,a0,0
    20c0:	031d                	addi	t1,t1,7
    20c2:	0900                	addi	s0,sp,144
    20c4:	0000                	unimp
    20c6:	0501                	addi	a0,a0,0
    20c8:	0626                	slli	a2,a2,0x9
    20ca:	00090003          	lb	zero,0(s2)
    20ce:	0100                	addi	s0,sp,128
    20d0:	2005                	jal	20f0 <main_sw.c.c9eed32e+0x261>
    20d2:	00090003          	lb	zero,0(s2)
    20d6:	0100                	addi	s0,sp,128
    20d8:	2505                	jal	26f8 <main_sw.c.c9eed32e+0x869>
    20da:	00090003          	lb	zero,0(s2)
    20de:	0100                	addi	s0,sp,128
    20e0:	2005                	jal	2100 <main_sw.c.c9eed32e+0x271>
    20e2:	00090003          	lb	zero,0(s2)
    20e6:	0100                	addi	s0,sp,128
    20e8:	0205                	addi	tp,tp,1
    20ea:	0306                	slli	t1,t1,0x1
    20ec:	00090187          	0x90187
    20f0:	0100                	addi	s0,sp,128
    20f2:	0805                	addi	a6,a6,1
    20f4:	0306                	slli	t1,t1,0x1
    20f6:	0900                	addi	s0,sp,144
    20f8:	0000                	unimp
    20fa:	0501                	addi	a0,a0,0
    20fc:	0305                	addi	t1,t1,1
    20fe:	0900                	addi	s0,sp,144
    2100:	0000                	unimp
    2102:	0501                	addi	a0,a0,0
    2104:	0602                	c.slli64	a2
    2106:	00090103          	lb	sp,0(s2)
    210a:	0100                	addi	s0,sp,128
    210c:	0505                	addi	a0,a0,1
    210e:	0306                	slli	t1,t1,0x1
    2110:	0900                	addi	s0,sp,144
    2112:	0000                	unimp
    2114:	0501                	addi	a0,a0,0
    2116:	060d                	addi	a2,a2,3
    2118:	00090003          	lb	zero,0(s2)
    211c:	0100                	addi	s0,sp,128
    211e:	0205                	addi	tp,tp,1
    2120:	097efe03          	0x97efe03
    2124:	0000                	unimp
    2126:	0501                	addi	a0,a0,0
    2128:	061e                	slli	a2,a2,0x7
    212a:	00090003          	lb	zero,0(s2)
    212e:	0100                	addi	s0,sp,128
    2130:	0b05                	addi	s6,s6,1
    2132:	00090003          	lb	zero,0(s2)
    2136:	0100                	addi	s0,sp,128
    2138:	2905                	jal	2568 <main_sw.c.c9eed32e+0x6d9>
    213a:	00090003          	lb	zero,0(s2)
    213e:	0100                	addi	s0,sp,128
    2140:	3405                	jal	1b60 <ch32v003fun.c.8affbd33+0xc0b>
    2142:	00090003          	lb	zero,0(s2)
    2146:	0100                	addi	s0,sp,128
    2148:	0b05                	addi	s6,s6,1
    214a:	00090003          	lb	zero,0(s2)
    214e:	0100                	addi	s0,sp,128
    2150:	0205                	addi	tp,tp,1
    2152:	0306                	slli	t1,t1,0x1
    2154:	0901                	addi	s2,s2,0
    2156:	0000                	unimp
    2158:	0501                	addi	a0,a0,0
    215a:	0610                	addi	a2,sp,768
    215c:	00090003          	lb	zero,0(s2)
    2160:	0100                	addi	s0,sp,128
    2162:	2905                	jal	2592 <main_sw.c.c9eed32e+0x703>
    2164:	00090003          	lb	zero,0(s2)
    2168:	0100                	addi	s0,sp,128
    216a:	3405                	jal	1b8a <ch32v003fun.c.8affbd33+0xc35>
    216c:	00090003          	lb	zero,0(s2)
    2170:	0100                	addi	s0,sp,128
    2172:	1e05                	addi	t3,t3,-31
    2174:	00090003          	lb	zero,0(s2)
    2178:	0100                	addi	s0,sp,128
    217a:	0b05                	addi	s6,s6,1
    217c:	00090003          	lb	zero,0(s2)
    2180:	0100                	addi	s0,sp,128
    2182:	0205                	addi	tp,tp,1
    2184:	0306                	slli	t1,t1,0x1
    2186:	0901                	addi	s2,s2,0
    2188:	0000                	unimp
    218a:	0501                	addi	a0,a0,0
    218c:	0608                	addi	a0,sp,768
    218e:	00090003          	lb	zero,0(s2)
    2192:	0100                	addi	s0,sp,128
    2194:	0d05                	addi	s10,s10,1
    2196:	0306                	slli	t1,t1,0x1
    2198:	0900                	addi	s0,sp,144
    219a:	0000                	unimp
    219c:	0501                	addi	a0,a0,0
    219e:	0602                	c.slli64	a2
    21a0:	00090003          	lb	zero,0(s2)
    21a4:	0100                	addi	s0,sp,128
    21a6:	1005                	c.nop	-31
    21a8:	00090003          	lb	zero,0(s2)
    21ac:	0100                	addi	s0,sp,128
    21ae:	0205                	addi	tp,tp,1
    21b0:	0306                	slli	t1,t1,0x1
    21b2:	0901                	addi	s2,s2,0
    21b4:	0000                	unimp
    21b6:	0501                	addi	a0,a0,0
    21b8:	061a                	slli	a2,a2,0x6
    21ba:	00090003          	lb	zero,0(s2)
    21be:	0100                	addi	s0,sp,128
    21c0:	2f05                	jal	28f0 <wiring.c.7604182b+0x174>
    21c2:	0306                	slli	t1,t1,0x1
    21c4:	097f                	0x97f
    21c6:	0000                	unimp
    21c8:	0501                	addi	a0,a0,0
    21ca:	031d                	addi	t1,t1,7
    21cc:	0900                	addi	s0,sp,144
    21ce:	0000                	unimp
    21d0:	0501                	addi	a0,a0,0
    21d2:	062a                	slli	a2,a2,0xa
    21d4:	00090003          	lb	zero,0(s2)
    21d8:	0100                	addi	s0,sp,128
    21da:	2405                	jal	23fa <main_sw.c.c9eed32e+0x56b>
    21dc:	00090003          	lb	zero,0(s2)
    21e0:	0100                	addi	s0,sp,128
    21e2:	2005                	jal	2202 <main_sw.c.c9eed32e+0x373>
    21e4:	00090003          	lb	zero,0(s2)
    21e8:	0100                	addi	s0,sp,128
    21ea:	0205                	addi	tp,tp,1
    21ec:	0306                	slli	t1,t1,0x1
    21ee:	0182                	c.slli64	gp
    21f0:	0009                	c.nop	2
    21f2:	0100                	addi	s0,sp,128
    21f4:	0905                	addi	s2,s2,1
    21f6:	0306                	slli	t1,t1,0x1
    21f8:	0900                	addi	s0,sp,144
    21fa:	0000                	unimp
    21fc:	0501                	addi	a0,a0,0
    21fe:	0301                	addi	t1,t1,0
    2200:	0901                	addi	s2,s2,0
    2202:	0000                	unimp
    2204:	0501                	addi	a0,a0,0
    2206:	0309                	addi	t1,t1,2
    2208:	097f                	0x97f
    220a:	0000                	unimp
    220c:	0501                	addi	a0,a0,0
    220e:	0302                	c.slli64	t1
    2210:	7efe                	flw	ft9,252(sp)
    2212:	0009                	c.nop	2
    2214:	0100                	addi	s0,sp,128
    2216:	0105                	addi	sp,sp,1
    2218:	09018303          	lb	t1,144(gp) # 20000920 <__global_pointer$+0x90>
    221c:	0000                	unimp
    221e:	0901                	addi	s2,s2,0
    2220:	0000                	unimp
    2222:	0100                	addi	s0,sp,128
    2224:	0501                	addi	a0,a0,0
    2226:	0001                	nop
    2228:	0205                	addi	tp,tp,1
    222a:	0000                	unimp
    222c:	0000                	unimp
    222e:	0102d903          	lhu	s2,16(t0)
    2232:	0205                	addi	tp,tp,1
    2234:	00090103          	lb	sp,0(s2)
    2238:	0100                	addi	s0,sp,128
    223a:	0105                	addi	sp,sp,1
    223c:	0306                	slli	t1,t1,0x1
    223e:	097f                	0x97f
    2240:	0000                	unimp
    2242:	0301                	addi	t1,t1,0
    2244:	0900                	addi	s0,sp,144
    2246:	0000                	unimp
    2248:	0501                	addi	a0,a0,0
    224a:	0901030b          	0x901030b
    224e:	0000                	unimp
    2250:	0501                	addi	a0,a0,0
    2252:	0602                	c.slli64	a2
    2254:	00090103          	lb	sp,0(s2)
    2258:	0100                	addi	s0,sp,128
    225a:	00090103          	lb	sp,0(s2)
    225e:	0100                	addi	s0,sp,128
    2260:	00090103          	lb	sp,0(s2)
    2264:	0100                	addi	s0,sp,128
    2266:	0105                	addi	sp,sp,1
    2268:	0306                	slli	t1,t1,0x1
    226a:	0901                	addi	s2,s2,0
    226c:	0000                	unimp
    226e:	0901                	addi	s2,s2,0
    2270:	0000                	unimp
    2272:	0100                	addi	s0,sp,128
    2274:	0501                	addi	a0,a0,0
    2276:	0001                	nop
    2278:	0205                	addi	tp,tp,1
    227a:	0000                	unimp
    227c:	0000                	unimp
    227e:	0105cf03          	lbu	t5,16(a1)
    2282:	0205                	addi	tp,tp,1
    2284:	00090103          	lb	sp,0(s2)
    2288:	0100                	addi	s0,sp,128
    228a:	9c09                	0x9c09
    228c:	0000                	unimp
    228e:	0101                	addi	sp,sp,0
    2290:	0105                	addi	sp,sp,1
    2292:	0006                	c.slli	zero,0x1
    2294:	0205                	addi	tp,tp,1
    2296:	0000                	unimp
    2298:	0000                	unimp
    229a:	0105fb03          	0x105fb03
    229e:	0306                	slli	t1,t1,0x1
    22a0:	000901c3          	fmadd.s	ft3,fs2,ft0,ft0,rne
    22a4:	0100                	addi	s0,sp,128
    22a6:	0205                	addi	tp,tp,1
    22a8:	00090103          	lb	sp,0(s2)
    22ac:	0100                	addi	s0,sp,128
    22ae:	00090103          	lb	sp,0(s2)
    22b2:	0100                	addi	s0,sp,128
    22b4:	0105                	addi	sp,sp,1
    22b6:	0306                	slli	t1,t1,0x1
    22b8:	097e                	slli	s2,s2,0x1f
    22ba:	0000                	unimp
    22bc:	0501                	addi	a0,a0,0
    22be:	0902030b          	0x902030b
    22c2:	0000                	unimp
    22c4:	0501                	addi	a0,a0,0
    22c6:	04020007          	0x4020007
    22ca:	0602                	c.slli64	a2
    22cc:	00090003          	lb	zero,0(s2)
    22d0:	0100                	addi	s0,sp,128
    22d2:	0b05                	addi	s6,s6,1
    22d4:	0200                	addi	s0,sp,256
    22d6:	0204                	addi	s1,sp,256
    22d8:	0306                	slli	t1,t1,0x1
    22da:	0900                	addi	s0,sp,144
    22dc:	0000                	unimp
    22de:	0501                	addi	a0,a0,0
    22e0:	0015                	c.nop	5
    22e2:	0402                	c.slli64	s0
    22e4:	0302                	c.slli64	t1
    22e6:	0900                	addi	s0,sp,144
    22e8:	0000                	unimp
    22ea:	0501                	addi	a0,a0,0
    22ec:	04020007          	0x4020007
    22f0:	0302                	c.slli64	t1
    22f2:	0900                	addi	s0,sp,144
    22f4:	0000                	unimp
    22f6:	0501                	addi	a0,a0,0
    22f8:	0602                	c.slli64	a2
    22fa:	00090103          	lb	sp,0(s2)
    22fe:	0100                	addi	s0,sp,128
    2300:	2205                	jal	2420 <main_sw.c.c9eed32e+0x591>
    2302:	0306                	slli	t1,t1,0x1
    2304:	0900                	addi	s0,sp,144
    2306:	0000                	unimp
    2308:	0501                	addi	a0,a0,0
    230a:	0312                	slli	t1,t1,0x4
    230c:	0900                	addi	s0,sp,144
    230e:	0000                	unimp
    2310:	0501                	addi	a0,a0,0
    2312:	0900030b          	0x900030b
    2316:	0000                	unimp
    2318:	0501                	addi	a0,a0,0
    231a:	0602                	c.slli64	a2
    231c:	00090103          	lb	sp,0(s2)
    2320:	0100                	addi	s0,sp,128
    2322:	0905                	addi	s2,s2,1
    2324:	0306                	slli	t1,t1,0x1
    2326:	0900                	addi	s0,sp,144
    2328:	0000                	unimp
    232a:	0501                	addi	a0,a0,0
    232c:	001f 0402 0603      	0x6030402001f
    2332:	00097e03          	0x97e03
    2336:	0100                	addi	s0,sp,128
    2338:	2105                	jal	2758 <main_sw.c.c9eed32e+0x8c9>
    233a:	0200                	addi	s0,sp,256
    233c:	0304                	addi	s1,sp,384
    233e:	0306                	slli	t1,t1,0x1
    2340:	0900                	addi	s0,sp,144
    2342:	0000                	unimp
    2344:	0501                	addi	a0,a0,0
    2346:	0900033b          	0x900033b
    234a:	0000                	unimp
    234c:	0501                	addi	a0,a0,0
    234e:	0301                	addi	t1,t1,0
    2350:	00000903          	lb	s2,0(zero) # 0 <InterruptVector>
    2354:	0901                	addi	s2,s2,0
    2356:	0000                	unimp
    2358:	0100                	addi	s0,sp,128
    235a:	0401                	addi	s0,s0,0
    235c:	00010503          	lb	a0,0(sp)
    2360:	0205                	addi	tp,tp,1
    2362:	03ec                	addi	a1,sp,460
    2364:	0000                	unimp
    2366:	0101e003          	0x101e003
    236a:	0205                	addi	tp,tp,1
    236c:	00090603          	lb	a2,0(s2)
    2370:	0100                	addi	s0,sp,128
    2372:	0105                	addi	sp,sp,1
    2374:	0306                	slli	t1,t1,0x1
    2376:	097a                	slli	s2,s2,0x1e
    2378:	0000                	unimp
    237a:	0501                	addi	a0,a0,0
    237c:	0906030f          	0x906030f
    2380:	0008                	0x8
    2382:	0501                	addi	a0,a0,0
    2384:	0301                	addi	t1,t1,0
    2386:	097a                	slli	s2,s2,0x1e
    2388:	0004                	0x4
    238a:	0501                	addi	a0,a0,0
    238c:	0906030f          	0x906030f
    2390:	0004                	0x4
    2392:	0501                	addi	a0,a0,0
    2394:	0301                	addi	t1,t1,0
    2396:	097a                	slli	s2,s2,0x1e
    2398:	0004                	0x4
    239a:	0501                	addi	a0,a0,0
    239c:	0906030f          	0x906030f
    23a0:	0028                	addi	a0,sp,8
    23a2:	0501                	addi	a0,a0,0
    23a4:	0602                	c.slli64	a2
    23a6:	08090303          	lb	t1,128(s2)
    23aa:	0100                	addi	s0,sp,128
    23ac:	0e05                	addi	t3,t3,1
    23ae:	0306                	slli	t1,t1,0x1
    23b0:	0900                	addi	s0,sp,144
    23b2:	0000                	unimp
    23b4:	0501                	addi	a0,a0,0
    23b6:	0602                	c.slli64	a2
    23b8:	04090203          	lb	tp,64(s2)
    23bc:	0100                	addi	s0,sp,128
    23be:	00090303          	lb	t1,0(s2)
    23c2:	0100                	addi	s0,sp,128
    23c4:	1605                	addi	a2,a2,-31
    23c6:	0306                	slli	t1,t1,0x1
    23c8:	0900                	addi	s0,sp,144
    23ca:	0000                	unimp
    23cc:	0501                	addi	a0,a0,0
    23ce:	0310                	addi	a2,sp,384
    23d0:	0900                	addi	s0,sp,144
    23d2:	0000                	unimp
    23d4:	0501                	addi	a0,a0,0
    23d6:	0316                	slli	t1,t1,0x5
    23d8:	0900                	addi	s0,sp,144
    23da:	000c                	0xc
    23dc:	0501                	addi	a0,a0,0
    23de:	09000307          	0x9000307
    23e2:	0008                	0x8
    23e4:	0501                	addi	a0,a0,0
    23e6:	0602                	c.slli64	a2
    23e8:	04090203          	lb	tp,64(s2)
    23ec:	0100                	addi	s0,sp,128
    23ee:	0505                	addi	a0,a0,1
    23f0:	0306                	slli	t1,t1,0x1
    23f2:	0900                	addi	s0,sp,144
    23f4:	0008                	0x8
    23f6:	0501                	addi	a0,a0,0
    23f8:	09010323          	sb	a6,134(sp)
    23fc:	0004                	0x4
    23fe:	0501                	addi	a0,a0,0
    2400:	00030603          	lb	a2,0(t1)
    2404:	0409                	addi	s0,s0,2
    2406:	0100                	addi	s0,sp,128
    2408:	2305                	jal	2928 <wiring.c.7604182b+0x1ac>
    240a:	0306                	slli	t1,t1,0x1
    240c:	0900                	addi	s0,sp,144
    240e:	0004                	0x4
    2410:	0501                	addi	a0,a0,0
    2412:	09000327          	0x9000327
    2416:	0014                	0x14
    2418:	0501                	addi	a0,a0,0
    241a:	09000303          	lb	t1,144(zero) # 90 <InterruptVector+0x90>
    241e:	0010                	0x10
    2420:	0601                	addi	a2,a2,0
    2422:	06090203          	lb	tp,96(s2)
    2426:	0100                	addi	s0,sp,128
    2428:	2005                	jal	2448 <main_sw.c.c9eed32e+0x5b9>
    242a:	0306                	slli	t1,t1,0x1
    242c:	0900                	addi	s0,sp,144
    242e:	0000                	unimp
    2430:	0501                	addi	a0,a0,0
    2432:	0310                	addi	a2,sp,384
    2434:	0900                	addi	s0,sp,144
    2436:	0004                	0x4
    2438:	0501                	addi	a0,a0,0
    243a:	09020303          	lb	t1,144(tp) # 90 <InterruptVector+0x90>
    243e:	0000                	unimp
    2440:	0501                	addi	a0,a0,0
    2442:	0320                	addi	s0,sp,392
    2444:	097e                	slli	s2,s2,0x1f
    2446:	0004                	0x4
    2448:	0501                	addi	a0,a0,0
    244a:	0325                	addi	t1,t1,9
    244c:	0900                	addi	s0,sp,144
    244e:	0004                	0x4
    2450:	0501                	addi	a0,a0,0
    2452:	0310                	addi	a2,sp,384
    2454:	0900                	addi	s0,sp,144
    2456:	0004                	0x4
    2458:	0501                	addi	a0,a0,0
    245a:	02030603          	lb	a2,32(t1)
    245e:	0409                	addi	s0,s0,2
    2460:	0100                	addi	s0,sp,128
    2462:	2305                	jal	2982 <wiring.c.7604182b+0x206>
    2464:	0306                	slli	t1,t1,0x1
    2466:	0900                	addi	s0,sp,144
    2468:	0000                	unimp
    246a:	0501                	addi	a0,a0,0
    246c:	09000327          	0x9000327
    2470:	0018                	0x18
    2472:	0501                	addi	a0,a0,0
    2474:	09000303          	lb	t1,144(zero) # 90 <InterruptVector+0x90>
    2478:	0014                	0x14
    247a:	0601                	addi	a2,a2,0
    247c:	06090103          	lb	sp,96(s2)
    2480:	0100                	addi	s0,sp,128
    2482:	2c05                	jal	26b2 <main_sw.c.c9eed32e+0x823>
    2484:	0306                	slli	t1,t1,0x1
    2486:	0900                	addi	s0,sp,144
    2488:	0000                	unimp
    248a:	0501                	addi	a0,a0,0
    248c:	09000303          	lb	t1,144(zero) # 90 <InterruptVector+0x90>
    2490:	0004                	0x4
    2492:	0501                	addi	a0,a0,0
    2494:	032c                	addi	a1,sp,392
    2496:	0900                	addi	s0,sp,144
    2498:	0004                	0x4
    249a:	0501                	addi	a0,a0,0
    249c:	09000303          	lb	t1,144(zero) # 90 <InterruptVector+0x90>
    24a0:	0004                	0x4
    24a2:	0601                	addi	a2,a2,0
    24a4:	06090203          	lb	tp,96(s2)
    24a8:	0100                	addi	s0,sp,128
    24aa:	2305                	jal	29ca <wiring.c.7604182b+0x24e>
    24ac:	0306                	slli	t1,t1,0x1
    24ae:	0900                	addi	s0,sp,144
    24b0:	0000                	unimp
    24b2:	0501                	addi	a0,a0,0
    24b4:	0306                	slli	t1,t1,0x1
    24b6:	0900                	addi	s0,sp,144
    24b8:	0004                	0x4
    24ba:	0501                	addi	a0,a0,0
    24bc:	09000323          	sb	a6,134(zero) # 86 <InterruptVector+0x86>
    24c0:	0004                	0x4
    24c2:	0501                	addi	a0,a0,0
    24c4:	0306                	slli	t1,t1,0x1
    24c6:	0900                	addi	s0,sp,144
    24c8:	0008                	0x8
    24ca:	0501                	addi	a0,a0,0
    24cc:	0604                	addi	s1,sp,768
    24ce:	04090103          	lb	sp,64(s2)
    24d2:	0100                	addi	s0,sp,128
    24d4:	2805                	jal	2504 <main_sw.c.c9eed32e+0x675>
    24d6:	0306                	slli	t1,t1,0x1
    24d8:	0900                	addi	s0,sp,144
    24da:	0000                	unimp
    24dc:	0501                	addi	a0,a0,0
    24de:	0304                	addi	s1,sp,384
    24e0:	0900                	addi	s0,sp,144
    24e2:	0004                	0x4
    24e4:	0601                	addi	a2,a2,0
    24e6:	0a090103          	lb	sp,160(s2)
    24ea:	0100                	addi	s0,sp,128
    24ec:	2d05                	jal	2b1c <wiring.c.7604182b+0x3a0>
    24ee:	0306                	slli	t1,t1,0x1
    24f0:	0900                	addi	s0,sp,144
    24f2:	0000                	unimp
    24f4:	0501                	addi	a0,a0,0
    24f6:	0304                	addi	s1,sp,384
    24f8:	0900                	addi	s0,sp,144
    24fa:	0004                	0x4
    24fc:	0501                	addi	a0,a0,0
    24fe:	032d                	addi	t1,t1,11
    2500:	0900                	addi	s0,sp,144
    2502:	0004                	0x4
    2504:	0501                	addi	a0,a0,0
    2506:	0304                	addi	s1,sp,384
    2508:	0900                	addi	s0,sp,144
    250a:	0004                	0x4
    250c:	0501                	addi	a0,a0,0
    250e:	03030603          	lb	a2,48(t1)
    2512:	0a09                	addi	s4,s4,2
    2514:	0100                	addi	s0,sp,128
    2516:	1f05                	addi	t5,t5,-31
    2518:	0306                	slli	t1,t1,0x1
    251a:	0900                	addi	s0,sp,144
    251c:	0000                	unimp
    251e:	0501                	addi	a0,a0,0
    2520:	09000323          	sb	a6,134(zero) # 86 <InterruptVector+0x86>
    2524:	0010                	0x10
    2526:	0501                	addi	a0,a0,0
    2528:	0306                	slli	t1,t1,0x1
    252a:	0900                	addi	s0,sp,144
    252c:	0014                	0x14
    252e:	0501                	addi	a0,a0,0
    2530:	0328                	addi	a0,sp,392
    2532:	0901                	addi	s2,s2,0
    2534:	0004                	0x4
    2536:	0501                	addi	a0,a0,0
    2538:	0304                	addi	s1,sp,384
    253a:	0900                	addi	s0,sp,144
    253c:	0004                	0x4
    253e:	0601                	addi	a2,a2,0
    2540:	08090003          	lb	zero,128(s2)
    2544:	0100                	addi	s0,sp,128
    2546:	2805                	jal	2576 <main_sw.c.c9eed32e+0x6e7>
    2548:	0306                	slli	t1,t1,0x1
    254a:	0900                	addi	s0,sp,144
    254c:	0004                	0x4
    254e:	0501                	addi	a0,a0,0
    2550:	0304                	addi	s1,sp,384
    2552:	0900                	addi	s0,sp,144
    2554:	0004                	0x4
    2556:	0601                	addi	a2,a2,0
    2558:	02090103          	lb	sp,32(s2)
    255c:	0100                	addi	s0,sp,128
    255e:	2d05                	jal	2b8e <wiring.c.7604182b+0x412>
    2560:	0306                	slli	t1,t1,0x1
    2562:	0900                	addi	s0,sp,144
    2564:	0000                	unimp
    2566:	0501                	addi	a0,a0,0
    2568:	0304                	addi	s1,sp,384
    256a:	0900                	addi	s0,sp,144
    256c:	0004                	0x4
    256e:	0501                	addi	a0,a0,0
    2570:	032d                	addi	t1,t1,11
    2572:	0900                	addi	s0,sp,144
    2574:	0004                	0x4
    2576:	0501                	addi	a0,a0,0
    2578:	0304                	addi	s1,sp,384
    257a:	0900                	addi	s0,sp,144
    257c:	0004                	0x4
    257e:	0501                	addi	a0,a0,0
    2580:	03030603          	lb	a2,48(t1)
    2584:	0a09                	addi	s4,s4,2
    2586:	0100                	addi	s0,sp,128
    2588:	1f05                	addi	t5,t5,-31
    258a:	0306                	slli	t1,t1,0x1
    258c:	0900                	addi	s0,sp,144
    258e:	0000                	unimp
    2590:	0501                	addi	a0,a0,0
    2592:	09000323          	sb	a6,134(zero) # 86 <InterruptVector+0x86>
    2596:	0010                	0x10
    2598:	0501                	addi	a0,a0,0
    259a:	0306                	slli	t1,t1,0x1
    259c:	0900                	addi	s0,sp,144
    259e:	0014                	0x14
    25a0:	0501                	addi	a0,a0,0
    25a2:	0604                	addi	s1,sp,768
    25a4:	04090103          	lb	sp,64(s2)
    25a8:	0100                	addi	s0,sp,128
    25aa:	2805                	jal	25da <main_sw.c.c9eed32e+0x74b>
    25ac:	0306                	slli	t1,t1,0x1
    25ae:	0900                	addi	s0,sp,144
    25b0:	0000                	unimp
    25b2:	0501                	addi	a0,a0,0
    25b4:	0304                	addi	s1,sp,384
    25b6:	0900                	addi	s0,sp,144
    25b8:	0004                	0x4
    25ba:	0501                	addi	a0,a0,0
    25bc:	0328                	addi	a0,sp,392
    25be:	0900                	addi	s0,sp,144
    25c0:	0004                	0x4
    25c2:	0501                	addi	a0,a0,0
    25c4:	0304                	addi	s1,sp,384
    25c6:	0900                	addi	s0,sp,144
    25c8:	0004                	0x4
    25ca:	0601                	addi	a2,a2,0
    25cc:	06090103          	lb	sp,96(s2)
    25d0:	0100                	addi	s0,sp,128
    25d2:	2d05                	jal	2c02 <wiring.c.7604182b+0x486>
    25d4:	0306                	slli	t1,t1,0x1
    25d6:	0900                	addi	s0,sp,144
    25d8:	0000                	unimp
    25da:	0501                	addi	a0,a0,0
    25dc:	0304                	addi	s1,sp,384
    25de:	0900                	addi	s0,sp,144
    25e0:	0004                	0x4
    25e2:	0501                	addi	a0,a0,0
    25e4:	032d                	addi	t1,t1,11
    25e6:	0900                	addi	s0,sp,144
    25e8:	0004                	0x4
    25ea:	0501                	addi	a0,a0,0
    25ec:	0304                	addi	s1,sp,384
    25ee:	0900                	addi	s0,sp,144
    25f0:	0004                	0x4
    25f2:	0501                	addi	a0,a0,0
    25f4:	0602                	c.slli64	a2
    25f6:	06090d03          	lb	s10,96(s2)
    25fa:	0100                	addi	s0,sp,128
    25fc:	1e05                	addi	t3,t3,-31
    25fe:	0306                	slli	t1,t1,0x1
    2600:	0900                	addi	s0,sp,144
    2602:	0000                	unimp
    2604:	0501                	addi	a0,a0,0
    2606:	0305                	addi	t1,t1,1
    2608:	0900                	addi	s0,sp,144
    260a:	0004                	0x4
    260c:	0501                	addi	a0,a0,0
    260e:	031e                	slli	t1,t1,0x7
    2610:	0900                	addi	s0,sp,144
    2612:	0004                	0x4
    2614:	0501                	addi	a0,a0,0
    2616:	0322                	slli	t1,t1,0x8
    2618:	0900                	addi	s0,sp,144
    261a:	0010                	0x10
    261c:	0501                	addi	a0,a0,0
    261e:	0305                	addi	t1,t1,1
    2620:	0900                	addi	s0,sp,144
    2622:	0014                	0x14
    2624:	0501                	addi	a0,a0,0
    2626:	09010327          	0x9010327
    262a:	0004                	0x4
    262c:	0501                	addi	a0,a0,0
    262e:	09000303          	lb	t1,144(zero) # 90 <InterruptVector+0x90>
    2632:	0004                	0x4
    2634:	0601                	addi	a2,a2,0
    2636:	10090003          	lb	zero,256(s2)
    263a:	0100                	addi	s0,sp,128
    263c:	0205                	addi	tp,tp,1
    263e:	0a090203          	lb	tp,160(s2)
    2642:	0100                	addi	s0,sp,128
    2644:	1e05                	addi	t3,t3,-31
    2646:	0306                	slli	t1,t1,0x1
    2648:	0900                	addi	s0,sp,144
    264a:	0000                	unimp
    264c:	0501                	addi	a0,a0,0
    264e:	0305                	addi	t1,t1,1
    2650:	0900                	addi	s0,sp,144
    2652:	000c                	0xc
    2654:	0501                	addi	a0,a0,0
    2656:	0322                	slli	t1,t1,0x8
    2658:	0900                	addi	s0,sp,144
    265a:	0004                	0x4
    265c:	0501                	addi	a0,a0,0
    265e:	0305                	addi	t1,t1,1
    2660:	0900                	addi	s0,sp,144
    2662:	0014                	0x14
    2664:	0501                	addi	a0,a0,0
    2666:	09010327          	0x9010327
    266a:	0004                	0x4
    266c:	0501                	addi	a0,a0,0
    266e:	09000303          	lb	t1,144(zero) # 90 <InterruptVector+0x90>
    2672:	0004                	0x4
    2674:	0601                	addi	a2,a2,0
    2676:	10090003          	lb	zero,256(s2)
    267a:	0100                	addi	s0,sp,128
    267c:	0205                	addi	tp,tp,1
    267e:	0a090203          	lb	tp,160(s2)
    2682:	0100                	addi	s0,sp,128
    2684:	1e05                	addi	t3,t3,-31
    2686:	0306                	slli	t1,t1,0x1
    2688:	0900                	addi	s0,sp,144
    268a:	0000                	unimp
    268c:	0501                	addi	a0,a0,0
    268e:	0322                	slli	t1,t1,0x8
    2690:	0900                	addi	s0,sp,144
    2692:	000c                	0xc
    2694:	0501                	addi	a0,a0,0
    2696:	0305                	addi	t1,t1,1
    2698:	0900                	addi	s0,sp,144
    269a:	0010                	0x10
    269c:	0501                	addi	a0,a0,0
    269e:	0322                	slli	t1,t1,0x8
    26a0:	0900                	addi	s0,sp,144
    26a2:	0004                	0x4
    26a4:	0501                	addi	a0,a0,0
    26a6:	0305                	addi	t1,t1,1
    26a8:	0900                	addi	s0,sp,144
    26aa:	0004                	0x4
    26ac:	0501                	addi	a0,a0,0
    26ae:	01030603          	lb	a2,16(t1)
    26b2:	0409                	addi	s0,s0,2
    26b4:	0100                	addi	s0,sp,128
    26b6:	2705                	jal	2dd6 <wiring.c.7604182b+0x65a>
    26b8:	0306                	slli	t1,t1,0x1
    26ba:	0900                	addi	s0,sp,144
    26bc:	0000                	unimp
    26be:	0501                	addi	a0,a0,0
    26c0:	09000303          	lb	t1,144(zero) # 90 <InterruptVector+0x90>
    26c4:	0004                	0x4
    26c6:	0501                	addi	a0,a0,0
    26c8:	0301                	addi	t1,t1,0
    26ca:	0902                	c.slli64	s2
    26cc:	000a                	c.slli	zero,0x2
    26ce:	0901                	addi	s2,s2,0
    26d0:	0038                	addi	a4,sp,8
    26d2:	0100                	addi	s0,sp,128
    26d4:	0401                	addi	s0,s0,0
    26d6:	0001                	nop
    26d8:	0400                	addi	s0,sp,512
    26da:	fe00                	fsw	fs0,56(a2)
    26dc:	0000                	unimp
    26de:	0100                	addi	s0,sp,128
    26e0:	0101                	addi	sp,sp,0
    26e2:	f2f6                	fsw	ft9,100(sp)
    26e4:	000d                	c.nop	3
    26e6:	0101                	addi	sp,sp,0
    26e8:	0101                	addi	sp,sp,0
    26ea:	0000                	unimp
    26ec:	0100                	addi	s0,sp,128
    26ee:	0000                	unimp
    26f0:	6301                	0x6301
    26f2:	3368                	fld	fa0,224(a4)
    26f4:	7632                	flw	fa2,44(sp)
    26f6:	3030                	fld	fa2,96(s0)
    26f8:	6e756633          	0x6e756633
    26fc:	2f00                	fld	fs0,24(a4)
    26fe:	7375                	lui	t1,0xffffd
    2700:	2f72                	fld	ft10,280(sp)
    2702:	6e69                	lui	t3,0x1a
    2704:	64756c63          	bltu	a0,t2,2d5c <wiring.c.7604182b+0x5e0>
    2708:	2f65                	jal	2ec0 <wiring.c.7604182b+0x744>
    270a:	656e                	flw	fa0,216(sp)
    270c:	62696c77          	0x62696c77
    2710:	63616d2f          	0x63616d2f
    2714:	6968                	flw	fa0,84(a0)
    2716:	656e                	flw	fa0,216(sp)
    2718:	2f00                	fld	fs0,24(a4)
    271a:	7375                	lui	t1,0xffffd
    271c:	2f72                	fld	ft10,280(sp)
    271e:	6e69                	lui	t3,0x1a
    2720:	64756c63          	bltu	a0,t2,2d78 <wiring.c.7604182b+0x5fc>
    2724:	2f65                	jal	2edc <wiring.c.7604182b+0x760>
    2726:	656e                	flw	fa0,216(sp)
    2728:	62696c77          	0x62696c77
    272c:	7379732f          	0x7379732f
    2730:	2f00                	fld	fs0,24(a4)
    2732:	7375                	lui	t1,0xffffd
    2734:	2f72                	fld	ft10,280(sp)
    2736:	6e69                	lui	t3,0x1a
    2738:	64756c63          	bltu	a0,t2,2d90 <wiring.c.7604182b+0x614>
    273c:	2f65                	jal	2ef4 <wiring.c.7604182b+0x778>
    273e:	656e                	flw	fa0,216(sp)
    2740:	62696c77          	0x62696c77
    2744:	2f00                	fld	fs0,24(a4)
    2746:	7375                	lui	t1,0xffffd
    2748:	2f72                	fld	ft10,280(sp)
    274a:	696c                	flw	fa1,84(a0)
    274c:	2f62                	fld	ft10,24(sp)
    274e:	2f636367          	0x2f636367
    2752:	6972                	flw	fs2,28(sp)
    2754:	36766373          	csrrsi	t1,0x367,12
    2758:	2d34                	fld	fa3,88(a0)
    275a:	6e75                	lui	t3,0x1d
    275c:	776f6e6b          	0x776f6e6b
    2760:	2d6e                	fld	fs10,216(sp)
    2762:	6c65                	lui	s8,0x19
    2764:	2f66                	fld	ft10,88(sp)
    2766:	3031                	jal	1f72 <main_sw.c.c9eed32e+0xe3>
    2768:	322e                	fld	ft4,232(sp)
    276a:	302e                	fld	ft0,232(sp)
    276c:	636e692f          	0x636e692f
    2770:	756c                	flw	fa1,108(a0)
    2772:	6564                	flw	fs1,76(a0)
    2774:	0000                	unimp
    2776:	645f 6665 7561      	0x75616665645f
    277c:	746c                	flw	fa1,108(s0)
    277e:	745f 7079 7365      	0x73657079745f
    2784:	682e                	flw	fa6,200(sp)
    2786:	0200                	addi	s0,sp,256
    2788:	0000                	unimp
    278a:	64647473          	csrrci	s0,0x646,8
    278e:	6665                	lui	a2,0x19
    2790:	682e                	flw	fa6,200(sp)
    2792:	0500                	addi	s0,sp,640
    2794:	0000                	unimp
    2796:	61647473          	csrrci	s0,0x616,8
    279a:	6772                	flw	fa4,28(sp)
    279c:	682e                	flw	fa6,200(sp)
    279e:	0500                	addi	s0,sp,640
    27a0:	0000                	unimp
    27a2:	69647473          	csrrci	s0,0x696,8
    27a6:	00682e6f          	jal	t3,847ac <wiring.c.7604182b+0x82030>
    27aa:	0004                	0x4
    27ac:	5f00                	lw	s0,56(a4)
    27ae:	69647473          	csrrci	s0,0x696,8
    27b2:	746e                	flw	fs0,248(sp)
    27b4:	682e                	flw	fa6,200(sp)
    27b6:	0300                	addi	s0,sp,384
    27b8:	0000                	unimp
    27ba:	32336863          	bltu	t1,gp,2aea <wiring.c.7604182b+0x36e>
    27be:	3076                	fld	ft0,376(sp)
    27c0:	3330                	fld	fa2,96(a4)
    27c2:	7566                	flw	fa0,120(sp)
    27c4:	2e6e                	fld	ft8,216(sp)
    27c6:	0068                	addi	a0,sp,12
    27c8:	0001                	nop
    27ca:	6300                	flw	fs0,0(a4)
    27cc:	3368                	fld	fa0,224(a4)
    27ce:	7632                	flw	fa2,44(sp)
    27d0:	3030                	fld	fa2,96(s0)
    27d2:	6e756633          	0x6e756633
    27d6:	632e                	flw	ft6,200(sp)
    27d8:	0100                	addi	s0,sp,128
    27da:	0000                	unimp
    27dc:	a500                	fsd	fs0,8(a0)
    27de:	0000                	unimp
    27e0:	0400                	addi	s0,sp,512
    27e2:	9f00                	0x9f00
    27e4:	0000                	unimp
    27e6:	0100                	addi	s0,sp,128
    27e8:	0101                	addi	sp,sp,0
    27ea:	f2f6                	fsw	ft9,100(sp)
    27ec:	000d                	c.nop	3
    27ee:	0101                	addi	sp,sp,0
    27f0:	0101                	addi	sp,sp,0
    27f2:	0000                	unimp
    27f4:	0100                	addi	s0,sp,128
    27f6:	0000                	unimp
    27f8:	6301                	0x6301
    27fa:	3368                	fld	fa0,224(a4)
    27fc:	7632                	flw	fa2,44(sp)
    27fe:	3030                	fld	fa2,96(s0)
    2800:	6e756633          	0x6e756633
    2804:	2f00                	fld	fs0,24(a4)
    2806:	7375                	lui	t1,0xffffd
    2808:	2f72                	fld	ft10,280(sp)
    280a:	6e69                	lui	t3,0x1a
    280c:	64756c63          	bltu	a0,t2,2e64 <wiring.c.7604182b+0x6e8>
    2810:	2f65                	jal	2fc8 <wiring.c.7604182b+0x84c>
    2812:	656e                	flw	fa0,216(sp)
    2814:	62696c77          	0x62696c77
    2818:	63616d2f          	0x63616d2f
    281c:	6968                	flw	fa0,84(a0)
    281e:	656e                	flw	fa0,216(sp)
    2820:	2f00                	fld	fs0,24(a4)
    2822:	7375                	lui	t1,0xffffd
    2824:	2f72                	fld	ft10,280(sp)
    2826:	6e69                	lui	t3,0x1a
    2828:	64756c63          	bltu	a0,t2,2e80 <wiring.c.7604182b+0x704>
    282c:	2f65                	jal	2fe4 <wiring.c.7604182b+0x868>
    282e:	656e                	flw	fa0,216(sp)
    2830:	62696c77          	0x62696c77
    2834:	7379732f          	0x7379732f
    2838:	0000                	unimp
    283a:	32336863          	bltu	t1,gp,2b6a <wiring.c.7604182b+0x3ee>
    283e:	3076                	fld	ft0,376(sp)
    2840:	3330                	fld	fa2,96(a4)
    2842:	7566                	flw	fa0,120(sp)
    2844:	2e6e                	fld	ft8,216(sp)
    2846:	0068                	addi	a0,sp,12
    2848:	0001                	nop
    284a:	5f00                	lw	s0,56(a4)
    284c:	6564                	flw	fs1,76(a0)
    284e:	6166                	flw	ft2,88(sp)
    2850:	6c75                	lui	s8,0x1d
    2852:	5f74                	lw	a3,124(a4)
    2854:	7974                	flw	fa3,116(a0)
    2856:	6570                	flw	fa2,76(a0)
    2858:	00682e73          	csrrs	t3,0x6,a6
    285c:	0002                	c.slli64	zero
    285e:	5f00                	lw	s0,56(a4)
    2860:	69647473          	csrrci	s0,0x696,8
    2864:	746e                	flw	fs0,248(sp)
    2866:	682e                	flw	fa6,200(sp)
    2868:	0300                	addi	s0,sp,384
    286a:	0000                	unimp
    286c:	69726977          	0x69726977
    2870:	676e                	flw	fa4,216(sp)
    2872:	682e                	flw	fa6,200(sp)
    2874:	0000                	unimp
    2876:	0000                	unimp
    2878:	616d                	addi	sp,sp,240
    287a:	6e69                	lui	t3,0x1a
    287c:	732d                	lui	t1,0xfffeb
    287e:	00632e77          	0x632e77
    2882:	0000                	unimp
    2884:	0000                	unimp
    2886:	00a4                	addi	s1,sp,72
    2888:	0000                	unimp
    288a:	0004                	0x4
    288c:	009e                	slli	ra,ra,0x7
    288e:	0000                	unimp
    2890:	0101                	addi	sp,sp,0
    2892:	f601                	bnez	a2,279a <wiring.c.7604182b+0x1e>
    2894:	0df2                	slli	s11,s11,0x1c
    2896:	0100                	addi	s0,sp,128
    2898:	0101                	addi	sp,sp,0
    289a:	0001                	nop
    289c:	0000                	unimp
    289e:	0001                	nop
    28a0:	0100                	addi	s0,sp,128
    28a2:	32336863          	bltu	t1,gp,2bd2 <wiring.c.7604182b+0x456>
    28a6:	3076                	fld	ft0,376(sp)
    28a8:	3330                	fld	fa2,96(a4)
    28aa:	7566                	flw	fa0,120(sp)
    28ac:	006e                	c.slli	zero,0x1b
    28ae:	7273752f          	0x7273752f
    28b2:	636e692f          	0x636e692f
    28b6:	756c                	flw	fa1,108(a0)
    28b8:	6564                	flw	fs1,76(a0)
    28ba:	77656e2f          	0x77656e2f
    28be:	696c                	flw	fa1,84(a0)
    28c0:	2f62                	fld	ft10,24(sp)
    28c2:	616d                	addi	sp,sp,240
    28c4:	6e696863          	bltu	s2,t1,2fb4 <wiring.c.7604182b+0x838>
    28c8:	0065                	c.nop	25
    28ca:	7273752f          	0x7273752f
    28ce:	636e692f          	0x636e692f
    28d2:	756c                	flw	fa1,108(a0)
    28d4:	6564                	flw	fs1,76(a0)
    28d6:	77656e2f          	0x77656e2f
    28da:	696c                	flw	fa1,84(a0)
    28dc:	2f62                	fld	ft10,24(sp)
    28de:	00737973          	csrrci	s2,0x7,6
    28e2:	5f00                	lw	s0,56(a4)
    28e4:	6564                	flw	fs1,76(a0)
    28e6:	6166                	flw	ft2,88(sp)
    28e8:	6c75                	lui	s8,0x1d
    28ea:	5f74                	lw	a3,124(a4)
    28ec:	7974                	flw	fa3,116(a0)
    28ee:	6570                	flw	fa2,76(a0)
    28f0:	00682e73          	csrrs	t3,0x6,a6
    28f4:	0002                	c.slli64	zero
    28f6:	5f00                	lw	s0,56(a4)
    28f8:	69647473          	csrrci	s0,0x696,8
    28fc:	746e                	flw	fs0,248(sp)
    28fe:	682e                	flw	fa6,200(sp)
    2900:	0300                	addi	s0,sp,384
    2902:	0000                	unimp
    2904:	32336863          	bltu	t1,gp,2c34 <wiring.c.7604182b+0x4b8>
    2908:	3076                	fld	ft0,376(sp)
    290a:	3330                	fld	fa2,96(a4)
    290c:	7566                	flw	fa0,120(sp)
    290e:	2e6e                	fld	ft8,216(sp)
    2910:	0068                	addi	a0,sp,12
    2912:	0001                	nop
    2914:	7700                	flw	fs0,40(a4)
    2916:	7269                	lui	tp,0xffffa
    2918:	6e69                	lui	t3,0x1a
    291a:	00682e67          	0x682e67
    291e:	0000                	unimp
    2920:	7700                	flw	fs0,40(a4)
    2922:	7269                	lui	tp,0xffffa
    2924:	6e69                	lui	t3,0x1a
    2926:	00632e67          	0x632e67
    292a:	0000                	unimp
    292c:	0000                	unimp
    292e:	0088                	addi	a0,sp,64
    2930:	0000                	unimp
    2932:	00420003          	lb	zero,4(tp) # ffffa004 <__global_pointer$+0xdfff9774>
    2936:	0000                	unimp
    2938:	0101                	addi	sp,sp,0
    293a:	000d0efb          	0xd0efb
    293e:	0101                	addi	sp,sp,0
    2940:	0101                	addi	sp,sp,0
    2942:	0000                	unimp
    2944:	0100                	addi	s0,sp,128
    2946:	0000                	unimp
    2948:	2e01                	jal	2c58 <wiring.c.7604182b+0x4dc>
    294a:	2f2e                	fld	ft10,200(sp)
    294c:	2e2e                	fld	ft8,200(sp)
    294e:	2f2e2e2f          	0x2f2e2e2f
    2952:	2e2e                	fld	ft8,200(sp)
    2954:	2f2e2e2f          	0x2f2e2e2f
    2958:	696c                	flw	fa1,84(a0)
    295a:	6762                	flw	fa4,24(sp)
    295c:	632f6363          	bltu	t5,s2,2f82 <wiring.c.7604182b+0x806>
    2960:	69666e6f          	jal	t3,68ff6 <wiring.c.7604182b+0x6687a>
    2964:	69722f67          	0x69722f67
    2968:	00766373          	csrrsi	t1,0x7,12
    296c:	6d00                	flw	fs0,24(a0)
    296e:	6c75                	lui	s8,0x1d
    2970:	6964                	flw	fs1,84(a0)
    2972:	00532e33          	slt	t3,t1,t0
    2976:	0001                	nop
    2978:	0000                	unimp
    297a:	0500                	addi	s0,sp,640
    297c:	a002                	fsd	ft0,0(sp)
    297e:	0000                	unimp
    2980:	0300                	addi	s0,sp,384
    2982:	0124                	addi	s1,sp,136
    2984:	04090103          	lb	sp,64(s2)
    2988:	0100                	addi	s0,sp,128
    298a:	04090203          	lb	tp,64(s2)
    298e:	0100                	addi	s0,sp,128
    2990:	04090103          	lb	sp,64(s2)
    2994:	0100                	addi	s0,sp,128
    2996:	04090103          	lb	sp,64(s2)
    299a:	0100                	addi	s0,sp,128
    299c:	04090203          	lb	tp,64(s2)
    29a0:	0100                	addi	s0,sp,128
    29a2:	04090103          	lb	sp,64(s2)
    29a6:	0100                	addi	s0,sp,128
    29a8:	04090103          	lb	sp,64(s2)
    29ac:	0100                	addi	s0,sp,128
    29ae:	04090103          	lb	sp,64(s2)
    29b2:	0100                	addi	s0,sp,128
    29b4:	0409                	addi	s0,s0,2
    29b6:	0000                	unimp
    29b8:	0101                	addi	sp,sp,0

Disassembly of section .debug_str:

00000000 <.debug_str>:
	asm volatile( "\n\
   0:	5f5f 6475 7669      	0x766964755f5f
   6:	00336973          	csrrsi	s2,fcsr,6
   a:	5f5f 7562 6c69      	0x6c6975625f5f
  10:	6974                	flw	fa3,84(a0)
  12:	5f6e                	lw	t5,248(sp)
  14:	656d                	lui	a0,0x1b
  16:	736d                	lui	t1,0xffffb
  18:	7465                	lui	s0,0xffff9
  1a:	5f00                	lw	s0,56(a4)
  1c:	625f 6975 746c      	0x746c6975625f
  22:	6e69                	lui	t3,0x1a
  24:	6d5f 6d65 7063      	0x70636d656d5f
  2a:	0079                	c.nop	30
  2c:	20554e47          	fmsub.s	ft8,fa0,ft5,ft4,rmm
  30:	504d4947          	fmsub.s	fs2,fs10,ft4,fa0,rmm
  34:	454c                	lw	a1,12(a0)
  36:	3120                	fld	fs0,96(a0)
  38:	2e30                	fld	fa2,88(a2)
  3a:	2e32                	fld	ft8,264(sp)
  3c:	2030                	fld	fa2,64(s0)
  3e:	6d2d                	lui	s10,0xb
  40:	7261                	lui	tp,0xffff8
  42:	723d6863          	bltu	s10,gp,772 <_data_lma+0xaa>
  46:	3376                	fld	ft6,376(sp)
  48:	6532                	flw	fa0,12(sp)
  4a:	6d2d2063          	0x6d2d2063
  4e:	6261                	lui	tp,0x18
  50:	3d69                	jal	fffffeea <__global_pointer$+0xdffff65a>
  52:	6c69                	lui	s8,0x1a
  54:	3370                	fld	fa2,224(a4)
  56:	6532                	flw	fa0,12(sp)
  58:	2d20                	fld	fs0,88(a0)
  5a:	616d                	addi	sp,sp,240
  5c:	6372                	flw	ft6,28(sp)
  5e:	3d68                	fld	fa0,248(a0)
  60:	7672                	flw	fa2,60(sp)
  62:	63653233          	0x63653233
  66:	2d20                	fld	fs0,88(a0)
  68:	616d                	addi	sp,sp,240
  6a:	6962                	flw	fs2,24(sp)
  6c:	693d                	lui	s2,0xf
  6e:	706c                	flw	fa1,100(s0)
  70:	20653233          	0x20653233
  74:	672d                	lui	a4,0xb
  76:	2d20                	fld	fs0,88(a0)
  78:	4f2d2067          	0x4f2d2067
  7c:	4f2d2073          	csrs	0x4f2,s10
  80:	662d2073          	csrs	0x662,s10
  84:	6f6e                	flw	ft10,216(sp)
  86:	6f2d                	lui	t5,0xb
  88:	6570                	flw	fa2,76(a0)
  8a:	6d6e                	flw	fs10,216(sp)
  8c:	2070                	fld	fa2,192(s0)
  8e:	662d                	lui	a2,0xb
  90:	6f6e                	flw	ft10,216(sp)
  92:	6f2d                	lui	t5,0xb
  94:	6570                	flw	fa2,76(a0)
  96:	616e                	flw	ft2,216(sp)
  98:	2d206363          	bltu	zero,s2,35e <main+0x1ba>
  9c:	6e66                	flw	ft8,88(sp)
  9e:	69702d6f          	jal	s10,2f34 <wiring.c.7604182b+0x7b8>
  a2:	2065                	jal	14a <pinMode+0x36>
  a4:	662d                	lui	a2,0xb
  a6:	7566                	flw	fa0,120(sp)
  a8:	636e                	flw	ft6,216(sp)
  aa:	6974                	flw	fa3,84(a0)
  ac:	732d6e6f          	jal	t3,d67de <wiring.c.7604182b+0xd4062>
  b0:	6365                	lui	t1,0x19
  b2:	6974                	flw	fa3,84(a0)
  b4:	20736e6f          	jal	t3,36aba <wiring.c.7604182b+0x3433e>
  b8:	662d                	lui	a2,0xb
  ba:	746c                	flw	fa1,108(s0)
  bc:	6172                	flw	ft2,28(sp)
  be:	736e                	flw	ft6,248(sp)
  c0:	5f00                	lw	s0,56(a4)
  c2:	755f 6f6d 7364      	0x73646f6d755f
	if (pin <= pin_A2) {
  c8:	3369                	jal	fffffe52 <__global_pointer$+0xdffff5c2>
		PinOffset = (pin + 1);
  ca:	3c00                	fld	fs0,56(s0)
  cc:	7261                	lui	tp,0xffff8
		GPIOx = GPIOA;
  ce:	6974                	flw	fa3,84(a0)
  d0:	6966                	flw	fs2,88(sp)
		PinOffset = (pin + 1);
  d2:	6c616963          	bltu	sp,t1,7a4 <_data_lma+0xdc>
		GPIOx = GPIOA;
  d6:	003e                	c.slli	zero,0xf
		GPIOx-> BSHR |= 1 << PinOffset;
  d8:	5f5f 756d 736c      	0x736c756d5f5f
		GPIOx-> BSHR |= 1 << (16 + PinOffset);
  de:	3369                	jal	fffffe68 <__global_pointer$+0xdffff5d8>
  e0:	2f00                	fld	fs0,24(a4)
  e2:	6f68                	flw	fa0,92(a4)
  e4:	656d                	lui	a0,0x1b
}
  e6:	7264622f          	0x7264622f
	else if (pin <= pin_C7) {
  ea:	632f796f          	jal	s2,f771c <wiring.c.7604182b+0xf4fa0>
		PinOffset = (pin - 2);
  ee:	3368                	fld	fa0,224(a4)
  f0:	7632                	flw	fa2,44(sp)
  f2:	622d                	lui	tp,0xb
		GPIOx = GPIOC;
  f4:	7361                	lui	t1,0xffff8
  f6:	2f65                	jal	8ae <_data_lma+0x1e6>
  f8:	7250                	flw	fa2,36(a2)
	else if (pin <= pin_D7) {
  fa:	63656a6f          	jal	s4,56730 <wiring.c.7604182b+0x53fb4>
  fe:	7374                	flw	fa3,100(a4)
		PinOffset = (pin - 10);
 100:	6168632f          	0x6168632f
		GPIOx = GPIOD;
 104:	6c72                	flw	fs8,28(sp)
 106:	6569                	lui	a0,0x1a
		PinOffset = (pin - 10);
 108:	6c70                	flw	fa2,92(s0)
		GPIOx = GPIOD;
 10a:	7865                	lui	a6,0xffff9
 10c:	5200                	lw	s0,32(a2)
 10e:	5345                	li	t1,-15
		GPIOx-> BSHR |= 1 << (16 + PinOffset);
 110:	5245                	li	tp,-15
 112:	4556                	lw	a0,84(sp)
	if (pin <= pin_A2) {
 114:	0044                	addi	s1,sp,4
 116:	4f42                	lw	t5,16(sp)
 118:	4d5f544f          	0x4d5f544f
		PinOffset *= (pin + 1);
 11c:	4b45444f          	fnmadd.d	fs0,fa0,fs4,fs1,rmm
 120:	5945                	li	s2,-15
		GPIOx = GPIOA;
 122:	0052                	c.slli	zero,0x14
 124:	72727473          	csrrci	s0,0x727,4
 128:	00726863          	bltu	tp,t2,138 <pinMode+0x24>
	GPIOx->CFGLR &= ~(0b1111<<PinOffset);							// zero the 4 configuration bits
 12c:	7265766f          	jal	a2,57852 <wiring.c.7604182b+0x550d6>
 130:	6c66                	flw	fs8,88(sp)
 132:	7300776f          	jal	a4,7862 <wiring.c.7604182b+0x50e6>
 136:	7274                	flw	fa3,100(a2)
 138:	656c                	flw	fa1,76(a0)
 13a:	006e                	c.slli	zero,0x1b
	switch (mode) {
 13c:	6f66                	flw	ft10,88(sp)
 13e:	6d72                	flw	fs10,28(sp)
 140:	7461                	lui	s0,0xffff8
 142:	6300                	flw	fs0,0(a4)
 144:	3368                	fld	fa0,224(a4)
 146:	7632                	flw	fa2,44(sp)
 148:	3030                	fld	fa2,96(s0)
	GPIOx->CFGLR |= modeMask<<PinOffset;
 14a:	6e756633          	0x6e756633
 14e:	3368632f          	0x3368632f
 152:	7632                	flw	fa2,44(sp)
 154:	3030                	fld	fa2,96(s0)
 156:	6e756633          	0x6e756633
 15a:	632e                	flw	ft6,200(sp)
 15c:	7300                	flw	fs0,32(a4)
 15e:	7274                	flw	fa3,100(a2)
 160:	636e                	flw	ft6,216(sp)
 162:	706d                	c.lui	zero,0xffffb
 164:	4100                	lw	s0,0(a0)
	if (target_pin_state > pinState_nochange) {
 166:	4344                	lw	s1,4(a4)
		digitalWrite(pin, target_pin_state - 1);
 168:	7250                	flw	fa2,36(a2)
 16a:	7365                	lui	t1,0xffff9
 16c:	62615463          	bge	sp,t1,794 <_data_lma+0xcc>
 170:	656c                	flw	fa1,76(a0)
	else if (pin <= pin_C7) {
 172:	6500                	flw	fs0,8(a0)
 174:	7272                	flw	ft4,60(sp)
 176:	6f6e                	flw	ft10,216(sp)
		PinOffset *= (pin - 2);
 178:	7300                	flw	fs0,32(a4)
 17a:	7274                	flw	fa3,100(a2)
 17c:	6c6e                	flw	fs8,216(sp)
 17e:	6e65                	lui	t3,0x19
 180:	5f00                	lw	s0,56(a4)
		GPIOx = GPIOC;
 182:	695f 746e 3233      	0x3233746e695f
	else if (pin <= pin_D7) {
 188:	745f 7400 7261      	0x72617400745f
		PinOffset *= (pin - 10);
 18e:	646e6567          	0x646e6567
 192:	5300                	lw	s0,32(a4)
 194:	7379                	lui	t1,0xffffe
		GPIOx = GPIOD;
 196:	6574                	flw	fa3,76(a0)
 198:	496d                	li	s2,27
		PinOffset *= (pin - 10);
 19a:	696e                	flw	fs2,216(sp)
		GPIOx = GPIOD;
 19c:	3274                	fld	fa3,224(a2)
 19e:	4834                	lw	a3,80(s0)
 1a0:	75004953          	0x75004953
int main() {
 1a4:	736e                	flw	ft6,248(sp)
 1a6:	6769                	lui	a4,0x1a
 1a8:	7000                	flw	fs0,32(s0)
 1aa:	7475                	lui	s0,0xffffd
	RCC->CFGR0 = RCC_HPRE_DIV1 | RCC_PLLSRC_HSI_Mul2;      // PLLCLK = HSI * 2 = 48 MHz; HCLK = SYSCLK = APB1
 1ac:	72616863          	bltu	sp,t1,8dc <_data_lma+0x214>
	RCC->CTLR  = RCC_HSION | RCC_PLLON | ((HSITRIM) << 3); // Use HSI, but enable PLL.
 1b0:	4100                	lw	s0,0(a0)
 1b2:	4250                	lw	a2,4(a2)
	RCC->CFGR0 = RCC_HPRE_DIV1 | RCC_PLLSRC_HSI_Mul2;      // PLLCLK = HSI * 2 = 48 MHz; HCLK = SYSCLK = APB1
 1b4:	5032                	0x5032
 1b6:	524e4543          	fmadd.d	fa0,ft8,ft4,fa0,rmm
	RCC->CTLR  = RCC_HSION | RCC_PLLON | ((HSITRIM) << 3); // Use HSI, but enable PLL.
 1ba:	4900                	lw	s0,16(a0)
 1bc:	444e                	lw	s0,208(sp)
	FLASH->ACTLR = FLASH_ACTLR_LATENCY_1;                  // 1 Cycle Latency
 1be:	0052                	c.slli	zero,0x14
 1c0:	696d                	lui	s2,0x1b
 1c2:	696e                	flw	fs2,216(sp)
 1c4:	765f 6e73 7270      	0x72706e73765f
	RCC->INTR  = 0x009F0000;                               // Clear PLL, CSSC, HSE, HSI and LSI ready flags.
 1ca:	6e69                	lui	t3,0x1a
	while((RCC->CTLR & RCC_PLLRDY) == 0);                                      // Wait till PLL is ready
 1cc:	6674                	flw	fa3,76(a2)
 1ce:	4700                	lw	s0,8(a4)
 1d0:	4950                	lw	a2,20(a0)
 1d2:	70535f4f          	fnmadd.s	ft10,ft6,ft5,fa4,unknown
 1d6:	6565                	lui	a0,0x19
 1d8:	5f64                	lw	s1,124(a4)
	RCC->CFGR0 = ( RCC->CFGR0 & ((uint32_t)~(RCC_SW))) | (uint32_t)RCC_SW_PLL; // Select PLL as system clock source
 1da:	4d32                	lw	s10,12(sp)
	while ((RCC->CFGR0 & (uint32_t)RCC_SWS) != (uint32_t)0x08);                // Wait till PLL is used as system clock source
 1dc:	7a48                	flw	fa0,52(a2)
	RCC->CFGR0 = ( RCC->CFGR0 & ((uint32_t)~(RCC_SW))) | (uint32_t)RCC_SW_PLL; // Select PLL as system clock source
 1de:	6d00                	flw	fs0,24(a0)
 1e0:	6e69                	lui	t3,0x1a
 1e2:	5f69                	li	t5,-6
 1e4:	7469                	lui	s0,0xffffa
	while ((RCC->CFGR0 & (uint32_t)RCC_SWS) != (uint32_t)0x08);                // Wait till PLL is used as system clock source
 1e6:	5700616f          	jal	sp,6756 <wiring.c.7604182b+0x3fda>
 1ea:	6961                	lui	s2,0x18
 1ec:	4674                	lw	a3,76(a2)
 1ee:	6544726f          	jal	tp,47842 <wiring.c.7604182b+0x450c6>
	SysTick->CTLR = 0;
 1f2:	7562                	flw	fa0,56(sp)
 1f4:	72656767          	0x72656767
 1f8:	6f54                	flw	fa3,28(a4)
 1fa:	7441                	lui	s0,0xffff0
 1fc:	6174                	flw	fa3,68(a0)
 1fe:	73006863          	bltu	zero,a6,92e <_data_lma+0x266>
 202:	7274                	flw	fa3,100(a2)
	SysTick->CMP = (SYSTEM_CORE_CLOCK/SYSTICKHZ)-1;
 204:	00797063          	bgeu	s2,t2,204 <main+0x60>
 208:	6e49                	lui	t3,0x12
	SysTick->CNT = 0;
 20a:	6574                	flw	fa3,76(a0)
 20c:	7272                	flw	ft4,60(sp)
	SysTick->CTLR = SYSTICK_CTLR_STE | SYSTICK_CTLR_STIE |
 20e:	7075                	c.lui	zero,0xffffd
 210:	5674                	lw	a3,108(a2)
	RCC->CFGR0 &= ~(0x1F<<11);
 212:	6365                	lui	t1,0x19
 214:	6f74                	flw	fa3,92(a4)
 216:	4472                	lw	s0,28(sp)
 218:	6665                	lui	a2,0x19
 21a:	7561                	lui	a0,0xffff8
 21c:	746c                	flw	fa1,108(s0)
	RCC->APB2PCENR |= RCC_APB2Periph_GPIOA | RCC_APB2Periph_ADC1;
 21e:	4100                	lw	s0,0(a0)
	GPIOA->CFGLR &= ~(0xf<<(4*GPIO_PinSource2));	// CNF = 00: Analog, MODE = 00: Input
 220:	4250                	lw	a2,4(a2)
 222:	5031                	c.li	zero,-20
 224:	5352                	lw	t1,52(sp)
	RCC->APB2PCENR |= RCC_APB2Periph_GPIOA | RCC_APB2Periph_ADC1;
 226:	5254                	lw	a3,36(a2)
 228:	4900                	lw	s0,16(a0)
 22a:	544e                	lw	s0,240(sp)
	GPIOA->CFGLR &= ~(0xf<<(4*GPIO_PinSource2));	// CNF = 00: Analog, MODE = 00: Input
 22c:	0052                	c.slli	zero,0x14
 22e:	66696873          	csrrsi	a6,0x666,18
 232:	0074                	addi	a3,sp,12
 234:	656d                	lui	a0,0x1b
 236:	6d6d                	lui	s10,0x1b
 238:	0065766f          	jal	a2,5723e <wiring.c.7604182b+0x54ac2>
	ADC1->CTLR2 |= ADC_ADON | ADC_EXTSEL;
 23c:	4c474643          	0x4c474643
 240:	0052                	c.slli	zero,0x14
	RCC->APB2PRSTR |= RCC_APB2Periph_ADC1;
 242:	696d                	lui	s2,0x1b
 244:	696e                	flw	fs2,216(sp)
 246:	705f 6461 5300      	0x53006461705f
	RCC->APB2PRSTR &= ~RCC_APB2Periph_ADC1;
 24c:	7465                	lui	s0,0xffff9
 24e:	7075                	c.lui	zero,0xffffd
	ADC1->RSQR1 = 0;
 250:	4155                	li	sp,21
 252:	5452                	lw	s0,52(sp)
 254:	4700                	lw	s0,8(a4)
 256:	4950                	lw	a2,20(a0)
	ADC1->RSQR2 = 0;
 258:	70535f4f          	fnmadd.s	ft10,ft6,ft5,fa4,unknown
	ADC1->RSQR3 = ADC_Channel_0;	// 0-9 for 8 ext inputs and two internals
 25c:	6565                	lui	a0,0x19
 25e:	5f64                	lw	s1,124(a4)
	ADC1->SAMPTR2 &= ~ADC_SMP2;
 260:	3031                	jal	fffffa6c <__global_pointer$+0xdffff1dc>
 262:	484d                	li	a6,19
 264:	007a                	c.slli	zero,0x1e
 266:	6175                	addi	sp,sp,368
 268:	7472                	flw	fs0,60(sp)
 26a:	5242                	lw	tp,48(sp)
	ADC1->SAMPTR2 |= ( ADC_SampleTime_3Cycles << (3 * ADC_Channel_0 ) );	// 0:7 => 3/9/15/30/43/57/73/241 cycles
 26c:	0052                	c.slli	zero,0x14
 26e:	6f6c                	flw	fa1,92(a4)
 270:	676e                	flw	fa4,216(sp)
 272:	6c20                	flw	fs0,88(s0)
	ADC1->CTLR2 |= ADC_ADON | ADC_EXTSEL;
 274:	20676e6f          	jal	t3,7647a <wiring.c.7604182b+0x73cfe>
 278:	6e75                	lui	t3,0x1d
 27a:	6e676973          	csrrsi	s2,0x6e6,14
	ADC1->CTLR2 |= ADC_RSTCAL;
 27e:	6465                	lui	s0,0x19
 280:	6920                	flw	fs0,80(a0)
	while(ADC1->CTLR2 & ADC_RSTCAL);
 282:	746e                	flw	fs0,248(sp)
 284:	6d00                	flw	fs0,24(a0)
	ADC1->CTLR2 |= ADC_RSTCAL;
 286:	6e69                	lui	t3,0x1a
 288:	5f69                	li	t5,-6
 28a:	72706e73          	csrrsi	t3,0x727,0
	while(ADC1->CTLR2 & ADC_RSTCAL);
 28e:	6e69                	lui	t3,0x1a
 290:	6674                	flw	fa3,76(a2)
 292:	7300                	flw	fs0,32(a4)
 294:	7274                	flw	fa3,100(a2)
	ADC1->CTLR2 |= ADC_CAL;
 296:	636e                	flw	ft6,216(sp)
 298:	7970                	flw	fa2,116(a0)
 29a:	4400                	lw	s0,8(s0)
 29c:	6c65                	lui	s8,0x19
 29e:	7961                	lui	s2,0xffff8
 2a0:	54737953          	0x54737953
	while(ADC1->CTLR2 & ADC_CAL);
 2a4:	6369                	lui	t1,0x1a
 2a6:	5f5f006b          	0x5f5f006b
 2aa:	7570                	flw	fa2,108(a0)
 2ac:	7374                	flw	fa3,100(a4)
			RCC->APB2PCENR |= RCC_APB2Periph_GPIOA;
 2ae:	755f 7261 0074      	0x747261755f
	pinMode(pin_A1, pinMode_I_floating);
 2b4:	5f5f 6975 746e      	0x746e69755f5f
 2ba:	3631                	jal	fffffdc6 <__global_pointer$+0xdffff536>
 2bc:	745f 7000 616c      	0x616c7000745f
		int temp=LEDs[0].brightness;
 2c2:	76006563          	bltu	zero,zero,a2c <_data_lma+0x364>
	ADC1->CTLR2 |= ADC_SWSTART;
 2c6:	6c61                	lui	s8,0x18
			RCC->APB2PCENR |= RCC_APB2Periph_GPIOC;
 2c8:	6575                	lui	a0,0x1d
 2ca:	5f00                	lw	s0,56(a4)
 2cc:	675f 756e 5f63      	0x5f63756e675f
	pinMode(pin_A2, pinMode_I_floating);
 2d2:	6176                	flw	ft2,92(sp)
 2d4:	6c5f 7369 0074      	0x7473696c5f
	pinMode(pin_C1, pinMode_I_floating);
 2da:	6572                	flw	fa0,28(sp)
	pinMode(pin_C2, pinMode_I_floating);
 2dc:	5f74                	lw	a3,124(a4)
 2de:	74617473          	csrrci	s0,0x746,2
		Delay_Ms(( Delay >> 3 ) + 5 );
 2e2:	7375                	lui	t1,0xffffd
 2e4:	7500                	flw	fs0,40(a0)
	ADC1->CTLR2 |= ADC_SWSTART;
 2e6:	7070                	flw	fa2,100(s0)
 2e8:	7265                	lui	tp,0xffff9
	uint32_t targend = SysTick->CNT + n;
 2ea:	65736163          	bltu	t1,s7,92c <_data_lma+0x264>
		Delay_Ms(( Delay >> 3 ) + 5 );
 2ee:	7300                	flw	fs0,32(a4)
 2f0:	7a69                	lui	s4,0xffffa
 2f2:	5f65                	li	t5,-7
		int temp=LEDs[0].brightness;
 2f4:	0074                	addi	a3,sp,12
 2f6:	4454554f          	0x4454554f
	ADC1->CTLR2 |= ADC_SWSTART;
 2fa:	0052                	c.slli	zero,0x14
 2fc:	5348                	lw	a0,36(a4)
 2fe:	4245                	li	tp,17
 300:	5059                	c.li	zero,-10
 302:	4600                	lw	s0,8(a2)
	while(!(ADC1->STATR & ADC_EOC));
 304:	414c                	lw	a1,4(a0)
 306:	545f4853          	0x545f4853
 30a:	7079                	c.lui	zero,0xffffe
	return ADC1->RDATAR;
 30c:	4465                	li	s0,25
 30e:	6665                	lui	a2,0x19
 310:	6d00                	flw	fs0,24(a0)
 312:	6e69                	lui	t3,0x1a
		Delay_Ms(( Delay >> 3 ) + 5 );
 314:	5f69                	li	t5,-6
 316:	7070                	flw	fa2,100(s0)
 318:	6972                	flw	fs2,28(sp)
 31a:	746e                	flw	fs0,248(sp)
 31c:	0066                	c.slli	zero,0x19
 31e:	4352                	lw	t1,20(sp)
 320:	79545f43          	fmadd.s	ft10,fs0,fs5,fa5,unknown
 324:	6570                	flw	fa2,76(a0)
 326:	6544                	flw	fs1,12(a0)
 328:	0066                	c.slli	zero,0x19
 32a:	4341                	li	t1,16
 32c:	4c54                	lw	a3,28(s0)
 32e:	0052                	c.slli	zero,0x14
 330:	7774                	flw	fa3,108(a4)
 332:	7961776f          	jal	a4,17ac8 <wiring.c.7604182b+0x1534c>
	while( ((int32_t)( SysTick->CNT - targend )) < 0 );
 336:	735f 7274 7473      	0x74737274735f
 33c:	0072                	c.slli	zero,0x1c
 33e:	5342                	lw	t1,48(sp)
		int temp=LEDs[0].brightness;
 340:	5248                	lw	a0,36(a2)
 342:	5500                	lw	s0,40(a0)
		for(int i=1; i<12; i++){
 344:	54524153          	0x54524153
		int temp=LEDs[0].brightness;
 348:	545f 7079 4465      	0x44657079545f
			LEDs[i-1].brightness=LEDs[i].brightness;
 34e:	6665                	lui	a2,0x19
 350:	6d00                	flw	fs0,24(a0)
 352:	6d65                	lui	s10,0x19
 354:	00726863          	bltu	tp,t2,364 <main+0x1c0>
 358:	696d                	lui	s2,0x1b
 35a:	696e                	flw	fs2,216(sp)
 35c:	765f 7070 6972      	0x69727070765f
 362:	746e                	flw	fs0,248(sp)
 364:	0066                	c.slli	zero,0x19
 366:	74737953          	0x74737953
 36a:	6d65                	lui	s10,0x19
		for(int i=1; i<12; i++){
 36c:	6e49                	lui	t3,0x12
 36e:	7469                	lui	s0,0xffffa
 370:	5348                	lw	a0,36(a4)
		LEDs[11].brightness=temp;
 372:	5045                	c.li	zero,-15
 374:	4c4c                	lw	a1,28(s0)
	while(1){
 376:	6c00                	flw	fs0,24(s0)
	asm volatile( "\n\
 378:	20676e6f          	jal	t3,7657e <wiring.c.7604182b+0x73e02>
 37c:	6f6c                	flw	fa1,92(a4)
 37e:	676e                	flw	fa4,216(sp)
 380:	6920                	flw	fs0,80(a0)
 382:	746e                	flw	fs0,248(sp)
 384:	7000                	flw	fs0,32(s0)
 386:	7562                	flw	fa0,56(sp)
 388:	6666                	flw	fa2,88(sp)
 38a:	7265                	lui	tp,0xffff9
 38c:	7000                	flw	fs0,32(s0)
 38e:	6461                	lui	s0,0x18
 390:	635f 6168 0072      	0x726168635f
 396:	6964                	flw	fs1,84(a0)
 398:	00746967          	0x746967
 39c:	6168                	flw	fa0,68(a0)
 39e:	646e                	flw	fs0,216(sp)
asm volatile(
 3a0:	656c                	flw	fa1,76(a0)
 3a2:	725f 7365 7465      	0x74657365725f
 3a8:	7300                	flw	fs0,32(a4)
 3aa:	7a69                	lui	s4,0xffffa
 3ac:	0065                	c.nop	25
 3ae:	4841                	li	a6,16
 3b0:	5042                	0x5042
 3b2:	524e4543          	fmadd.d	fa0,ft8,ft4,fa0,rmm
 3b6:	4300                	lw	s0,0(a4)
 3b8:	4746                	lw	a4,80(sp)
 3ba:	3052                	fld	ft0,304(sp)
 3bc:	5f00                	lw	s0,56(a4)
 3be:	7570                	flw	fa2,108(a0)
 3c0:	7374                	flw	fa3,100(a4)
 3c2:	7000                	flw	fs0,32(s0)
 3c4:	6461                	lui	s0,0x18
 3c6:	745f 006f 7267      	0x7267006f745f
 3cc:	4100776f          	jal	a4,77dc <wiring.c.7604182b+0x5060>
 3d0:	4250                	lw	a2,4(a2)
 3d2:	5031                	c.li	zero,-20
 3d4:	524e4543          	fmadd.d	fa0,ft8,ft4,fa0,rmm
	SETUP_SYSTICK_HCLK
 3d8:	6100                	flw	fs0,0(a0)
 3da:	6772                	flw	fa4,28(sp)
 3dc:	79530073          	0x79530073
asm volatile(
 3e0:	63695473          	csrrwi	s0,0x636,18
 3e4:	79545f6b          	0x79545f6b
 3e8:	6570                	flw	fa2,76(a0)
	asm volatile( "1: j 1b" );
 3ea:	6c00                	flw	fs0,24(s0)
{
 3ec:	20676e6f          	jal	t3,765f2 <wiring.c.7604182b+0x73e76>
 3f0:	6f64                	flw	fs1,92(a4)
 3f2:	6275                	lui	tp,0x1d
	SysTick->CMP += (SYSTEM_CORE_CLOCK/SYSTICKHZ);
 3f4:	656c                	flw	fa1,76(a0)
 3f6:	5f00                	lw	s0,56(a4)
{
 3f8:	74697277          	0x74697277
	SysTick->CMP += (SYSTEM_CORE_CLOCK/SYSTICKHZ);
 3fc:	0065                	c.nop	25
 3fe:	524c5443          	fmadd.d	fs0,fs8,ft4,fa0,unknown
{
 402:	0031                	c.nop	12
 404:	524c5443          	fmadd.d	fs0,fs8,ft4,fa0,unknown
 408:	0032                	c.slli	zero,0xc
 40a:	524c5443          	fmadd.d	fs0,fs8,ft4,fa0,unknown
 40e:	5f5f0033          	0x5f5f0033
 412:	6975                	lui	s2,0x1d
 414:	746e                	flw	fs0,248(sp)
 416:	7470                	flw	fa2,108(s0)
 418:	5f72                	lw	t5,60(sp)
 41a:	0074                	addi	a3,sp,12
 41c:	74737953          	0x74737953
 420:	6d65                	lui	s10,0x19
 422:	6e49                	lui	t3,0x12
 424:	7469                	lui	s0,0xffffa
 426:	5348                	lw	a0,36(a4)
	SysTick->CMP += (SYSTEM_CORE_CLOCK/SYSTICKHZ);
 428:	0045                	c.nop	17
 42a:	5352                	lw	t1,52(sp)
 42c:	5354                	lw	a3,36(a4)
 42e:	00524b43          	fmadd.s	fs6,ft4,ft5,ft0,rmm
	SysTick->SR = 0;
 432:	63727473          	csrrci	s0,0x637,4
	ramp = ( ramp + 1 ) & 0x3F;		// 0 to 63
 436:	7268                	flw	fa0,100(a2)
 438:	5200                	lw	s0,32(a2)
 43a:	5345                	li	t1,-15
 43c:	5245                	li	tp,-15
 43e:	4556                	lw	a0,84(sp)
 440:	3044                	fld	fs1,160(s0)
 442:	5200                	lw	s0,32(a2)
 444:	5345                	li	t1,-15
 446:	5245                	li	tp,-15
 448:	4556                	lw	a0,84(sp)
 44a:	3144                	fld	fs1,160(a0)
	if (ramp == 0) {
 44c:	5200                	lw	s0,32(a2)
 44e:	5345                	li	t1,-15
 450:	5245                	li	tp,-15
 452:	4556                	lw	a0,84(sp)
 454:	3244                	fld	fs1,160(a2)
 456:	5200                	lw	s0,32(a2)
		pinMode(LEDs[group[currentgroup][0]].pinCathode, pinMode_I_floating); // switch off this group
 458:	5345                	li	t1,-15
 45a:	5245                	li	tp,-15
 45c:	4556                	lw	a0,84(sp)
 45e:	3344                	fld	fs1,160(a4)
 460:	5200                	lw	s0,32(a2)
 462:	5345                	li	t1,-15
 464:	5245                	li	tp,-15
 466:	4556                	lw	a0,84(sp)
 468:	3444                	fld	fs1,168(s0)
 46a:	5200                	lw	s0,32(a2)
 46c:	5345                	li	t1,-15
 46e:	5245                	li	tp,-15
 470:	4556                	lw	a0,84(sp)
 472:	3544                	fld	fs1,168(a0)
 474:	5200                	lw	s0,32(a2)
 476:	5345                	li	t1,-15
 478:	5245                	li	tp,-15
 47a:	4556                	lw	a0,84(sp)
 47c:	3644                	fld	fs1,168(a2)
 47e:	7300                	flw	fs0,32(a4)
 480:	6f68                	flw	fa0,92(a4)
 482:	7472                	flw	fs0,60(sp)
 484:	6920                	flw	fs0,80(a0)
 486:	746e                	flw	fs0,248(sp)
 488:	5300                	lw	s0,32(a4)
		currentgroup = (currentgroup + 1) & 0x3;	// move to next group
 48a:	7465                	lui	s0,0xffff9
 48c:	7075                	c.lui	zero,0xffffd
		pinMode(LEDs[group[currentgroup][0]].pinCathode, pinMode_O_pushPull); // switch on the group
 48e:	6544                	flw	fs1,12(a0)
 490:	7562                	flw	fa0,56(sp)
		currentgroup = (currentgroup + 1) & 0x3;	// move to next group
 492:	69725067          	0x69725067
 496:	746e                	flw	fs0,248(sp)
 498:	0066                	c.slli	zero,0x19
 49a:	5041                	c.li	zero,-16
 49c:	4142                	lw	sp,16(sp)
		pinMode(LEDs[group[currentgroup][0]].pinCathode, pinMode_O_pushPull); // switch on the group
 49e:	4248                	lw	a0,4(a2)
 4a0:	7250                	flw	fa2,36(a2)
 4a2:	7365                	lui	t1,0xffff9
 4a4:	62615463          	bge	sp,t1,acc <_data_lma+0x404>
 4a8:	656c                	flw	fa1,76(a0)
 4aa:	6e00                	flw	fs0,24(a2)
 4ac:	6765                	lui	a4,0x19
 4ae:	7461                	lui	s0,0xffff8
 4b0:	7669                	lui	a2,0xffffa
 4b2:	0065                	c.nop	25
 4b4:	656d                	lui	a0,0x1b
 4b6:	306d                	jal	fffffd60 <__global_pointer$+0xdffff4d0>
 4b8:	6d00                	flw	fs0,24(a0)
 4ba:	6d65                	lui	s10,0x19
 4bc:	00706d63          	bltu	zero,t2,4d6 <SysTick_Handler+0xea>
 4c0:	6544                	flw	fs1,12(a0)
 4c2:	6166                	flw	ft2,88(sp)
 4c4:	6c75                	lui	s8,0x1d
 4c6:	4974                	lw	a3,84(a0)
 4c8:	5152                	lw	sp,52(sp)
 4ca:	6148                	flw	fa0,4(a0)
 4cc:	646e                	flw	fs0,216(sp)
 4ce:	656c                	flw	fa1,76(a0)
		digitalWrite(LEDs[group[currentgroup][0]].pinCathode, low);
 4d0:	0072                	c.slli	zero,0x1c
 4d2:	5f5f 656d 726d      	0x726d656d5f5f
 4d8:	00726863          	bltu	tp,t2,4e8 <SysTick_Handler+0xfc>
 4dc:	74737953          	0x74737953
 4e0:	6d65                	lui	s10,0x19
		if (LEDs[group[currentgroup][0]].brightness) { 
 4e2:	6e49                	lui	t3,0x12
 4e4:	7469                	lui	s0,0xffffa
 4e6:	3834                	fld	fa3,112(s0)
 4e8:	5348                	lw	a0,36(a4)
 4ea:	0049                	c.nop	18
 4ec:	5041                	c.li	zero,-16
 4ee:	3242                	fld	ft4,48(sp)
 4f0:	5250                	lw	a2,36(a2)
 4f2:	00525453          	fadd.s	fs0,ft4,ft5,unknown
			pinMode(LEDs[group[currentgroup][0]].pinAnode, pinMode_O_pushPull); // switch on this LED
 4f6:	6172                	flw	ft2,28(sp)
 4f8:	6964                	flw	fs1,84(a0)
 4fa:	0078                	addi	a4,sp,12
 4fc:	5f5f 6975 746e      	0x746e69755f5f
 502:	5f38                	lw	a4,120(a4)
			digitalWrite(LEDs[group[currentgroup][0]].pinAnode, high);
 504:	0074                	addi	a3,sp,12
 506:	4f495047          	fmsub.q	ft0,fs2,fs4,fs1,unknown
 50a:	545f 7079 4465      	0x44657079545f
 510:	6665                	lui	a2,0x19
 512:	6600                	flw	fs0,8(a2)
 514:	6272756f          	jal	a0,2833a <wiring.c.7604182b+0x25bbe>
 518:	7479                	lui	s0,0xffffe
		if (LEDs[group[currentgroup][1]].brightness) { 
 51a:	5f65                	li	t5,-7
 51c:	73727473          	csrrci	s0,0x737,4
 520:	7274                	flw	fa3,100(a2)
 522:	6200                	flw	fs0,0(a2)
 524:	6675                	lui	a2,0x1d
 526:	6566                	flw	fa0,88(sp)
 528:	5f72                	lw	t5,60(sp)
 52a:	656c                	flw	fa1,76(a0)
 52c:	006e                	c.slli	zero,0x1b
 52e:	6f74                	flw	fa3,92(a4)
 530:	646e6573          	csrrsi	a0,0x646,28
 534:	6200                	flw	fs0,0(a2)
 536:	7479                	lui	s0,0xffffe
 538:	7365                	lui	t1,0xffff9
 53a:	7465                	lui	s0,0xffff9
 53c:	7500                	flw	fs0,40(a0)
 53e:	736e                	flw	ft6,248(sp)
 540:	6769                	lui	a4,0x1a
			pinMode(LEDs[group[currentgroup][1]].pinAnode, pinMode_O_pushPull); // switch on this LED
 542:	656e                	flw	fa0,216(sp)
 544:	2064                	fld	fs1,192(s0)
 546:	72616863          	bltu	sp,t1,c76 <_data_lma+0x5ae>
 54a:	5f00                	lw	s0,56(a4)
 54c:	755f 6e69 3374      	0x33746e69755f
 552:	5f32                	lw	t5,44(sp)
 554:	0074                	addi	a3,sp,12
 556:	4f495047          	fmsub.q	ft0,fs2,fs4,fs1,unknown
			digitalWrite(LEDs[group[currentgroup][1]].pinAnode, high);
 55a:	535f 6570 6465      	0x64656570535f
 560:	355f 4d30 7a48      	0x7a484d30355f
 566:	7400                	flw	fs0,40(s0)
 568:	6d69                	lui	s10,0x1a
 56a:	6f65                	lui	t5,0x19
 56c:	7475                	lui	s0,0xffffd
		if (LEDs[group[currentgroup][2]].brightness) { 
 56e:	7400                	flw	fs0,40(s0)
 570:	7268                	flw	fa0,100(a2)
 572:	6565                	lui	a0,0x19
 574:	7962                	flw	fs2,56(sp)
 576:	6574                	flw	fa3,76(a0)
 578:	735f 7274 7473      	0x74737274735f
 57e:	0072                	c.slli	zero,0x1c
 580:	454b424f          	0x454b424f
 584:	5259                	li	tp,-10
 586:	5300                	lw	s0,32(a4)
 588:	4154                	lw	a3,4(a0)
 58a:	5254                	lw	a3,36(a2)
 58c:	4700                	lw	s0,8(a4)
 58e:	554e                	lw	a0,240(sp)
 590:	4320                	lw	s0,64(a4)
 592:	3731                	jal	49e <SysTick_Handler+0xb2>
 594:	3120                	fld	fs0,96(a0)
			pinMode(LEDs[group[currentgroup][2]].pinAnode, pinMode_O_pushPull); // switch on this LED
 596:	2e30                	fld	fa2,88(a2)
 598:	2e32                	fld	ft8,264(sp)
 59a:	2030                	fld	fa2,64(s0)
 59c:	6d2d                	lui	s10,0xb
 59e:	7261                	lui	tp,0xffff8
 5a0:	723d6863          	bltu	s10,gp,cd0 <_data_lma+0x608>
 5a4:	3376                	fld	ft6,376(sp)
 5a6:	6532                	flw	fa0,12(sp)
			digitalWrite(LEDs[group[currentgroup][2]].pinAnode, high);
 5a8:	6d2d2063          	0x6d2d2063
 5ac:	6261                	lui	tp,0x18
 5ae:	3d69                	jal	448 <SysTick_Handler+0x5c>
 5b0:	6c69                	lui	s8,0x1a
 5b2:	3370                	fld	fa2,224(a4)
 5b4:	6532                	flw	fa0,12(sp)
 5b6:	2d20                	fld	fs0,88(a0)
 5b8:	4f2d2067          	0x4f2d2067
	if (LEDs[group[currentgroup][0]].brightness <= ramp) { // if the target pulse width has been achieved
 5bc:	662d2073          	csrs	0x662,s10
 5c0:	746c                	flw	fa1,108(s0)
 5c2:	662d206f          	j	d2c24 <wiring.c.7604182b+0xd04a8>
 5c6:	7566                	flw	fa0,120(sp)
 5c8:	636e                	flw	ft6,216(sp)
 5ca:	6974                	flw	fa3,84(a0)
 5cc:	732d6e6f          	jal	t3,d6cfe <wiring.c.7604182b+0xd4582>
 5d0:	6365                	lui	t1,0x19
 5d2:	6974                	flw	fa3,84(a0)
 5d4:	00736e6f          	jal	t3,36dda <wiring.c.7604182b+0x3465e>
 5d8:	726f6873          	csrrsi	a6,0x726,30
 5dc:	2074                	fld	fa3,192(s0)
 5de:	6e75                	lui	t3,0x1d
 5e0:	6e676973          	csrrsi	s2,0x6e6,14
 5e4:	6465                	lui	s0,0x19
 5e6:	6920                	flw	fs0,80(a0)
 5e8:	746e                	flw	fs0,248(sp)
		pinMode(LEDs[group[currentgroup][0]].pinAnode, pinMode_I_floating); // switch off this LED
 5ea:	5f00                	lw	s0,56(a4)
 5ec:	625f 6975 746c      	0x746c6975625f
 5f2:	6e69                	lui	t3,0x1a
 5f4:	765f 5f61 696c      	0x696c5f61765f
 5fa:	6d007473          	csrrci	s0,0x6d0,0
 5fe:	6e69                	lui	t3,0x1a
 600:	5f69                	li	t5,-6
 602:	7562                	flw	fa0,56(sp)
 604:	6666                	flw	fa2,88(sp)
 606:	4300                	lw	s0,0(a4)
	if (LEDs[group[currentgroup][1]].brightness <= ramp) {
 608:	4746                	lw	a4,80(sp)
 60a:	5248                	lw	a0,36(a2)
 60c:	6400                	flw	fs0,8(s0)
 60e:	7365                	lui	t1,0xffff9
 610:	0074                	addi	a3,sp,12
 612:	7774                	flw	fa3,108(a4)
 614:	7479626f          	jal	tp,9755a <wiring.c.7604182b+0x94dde>
 618:	5f65                	li	t5,-7
 61a:	73727473          	csrrci	s0,0x737,4
 61e:	7274                	flw	fa3,100(a2)
 620:	4c00                	lw	s0,24(s0)
 622:	00524b43          	fmadd.s	fs6,ft4,ft5,ft0,rmm
 626:	63727473          	csrrci	s0,0x637,4
 62a:	706d                	c.lui	zero,0xffffb
 62c:	4900                	lw	s0,16(a0)
 62e:	00525153          	fadd.s	ft2,ft4,ft5,unknown
		pinMode(LEDs[group[currentgroup][1]].pinAnode, pinMode_I_floating); // switch off this LED
 632:	5845                	li	a6,-15
 634:	4954                	lw	a3,20(a0)
 636:	5f305f37          	lui	t5,0x5f305
 63a:	5249                	li	tp,-14
 63c:	6e51                	lui	t3,0x14
 63e:	4700                	lw	s0,8(a4)
 640:	5349                	li	t1,-14
 642:	0052                	c.slli	zero,0x14
 644:	54484457          	0x54484457
 648:	0052                	c.slli	zero,0x14
 64a:	6970                	flw	fa2,84(a0)
 64c:	4d6e                	lw	s10,216(sp)
	if (LEDs[group[currentgroup][2]].brightness <= ramp) {
 64e:	5f65646f          	jal	s0,56c44 <wiring.c.7604182b+0x544c8>
 652:	706f5f4f          	fnmadd.s	ft10,ft10,ft6,fa4,unknown
 656:	6e65                	lui	t3,0x19
 658:	7244                	flw	fs1,36(a2)
 65a:	6961                	lui	s2,0x18
 65c:	006e                	c.slli	zero,0x1b
 65e:	5741                	li	a4,-16
 660:	5f55                	li	t5,-11
 662:	5249                	li	tp,-14
 664:	6e51                	lui	t3,0x14
 666:	4400                	lw	s0,8(s0)
 668:	414d                	li	sp,19
 66a:	5f31                	li	t5,-20
 66c:	6e616843          	fmadd.q	fa6,ft2,ft6,fa3,unknown
 670:	656e                	flw	fa0,216(sp)
 672:	376c                	fld	fa1,232(a4)
 674:	495f 5152 006e      	0x6e5152495f
		pinMode(LEDs[group[currentgroup][2]].pinAnode, pinMode_I_floating); // switch off this LED
 67a:	6461                	lui	s0,0x18
 67c:	65675f63          	bge	a4,s6,cda <_data_lma+0x612>
 680:	0074                	addi	a3,sp,12
 682:	4c544353          	0x4c544353
}
 686:	0052                	c.slli	zero,0x14
 688:	4d44                	lw	s1,28(a0)
 68a:	3141                	jal	30a <main+0x166>
 68c:	435f 6168 6e6e      	0x6e6e6168435f
 692:	6c65                	lui	s8,0x19
 694:	5f32                	lw	t5,44(sp)
 696:	5249                	li	tp,-14
 698:	6e51                	lui	t3,0x14
 69a:	5700                	lw	s0,40(a4)
 69c:	4c44                	lw	s1,28(s0)
 69e:	5254                	lw	a3,36(a2)
 6a0:	4e00                	lw	s0,24(a2)
 6a2:	4956                	lw	s2,84(sp)
 6a4:	6e455f43          	fmadd.q	ft10,fa0,ft4,fa3,unknown
 6a8:	6261                	lui	tp,0x18
 6aa:	656c                	flw	fa1,76(a0)
 6ac:	5249                	li	tp,-14
 6ae:	0051                	c.nop	20
 6b0:	4c46                	lw	s8,80(sp)
 6b2:	5341                	li	t1,-16
 6b4:	5f48                	lw	a0,60(a4)
 6b6:	5249                	li	tp,-14
 6b8:	6e51                	lui	t3,0x14
 6ba:	4900                	lw	s0,16(a0)
 6bc:	4332                	lw	t1,12(sp)
 6be:	5f31                	li	t5,-20
 6c0:	5645                	li	a2,-15
 6c2:	495f 5152 006e      	0x6e5152495f
 6c8:	4f495047          	fmsub.q	ft0,fs2,fs4,fs1,unknown
 6cc:	6970                	flw	fa2,84(a0)
 6ce:	736e                	flw	ft6,248(sp)
 6d0:	4900                	lw	s0,16(a0)
 6d2:	4854                	lw	a3,20(s0)
 6d4:	4552                	lw	a0,20(sp)
 6d6:	00524453          	fadd.s	fs0,ft4,ft5,rmm
 6da:	5845                	li	a6,-15
 6dc:	52495f43          	fmadd.d	ft10,fs2,ft4,fa0,unknown
 6e0:	6e51                	lui	t3,0x14
 6e2:	5600                	lw	s0,40(a2)
 6e4:	4654                	lw	a3,12(a2)
 6e6:	4449                	li	s0,18
 6e8:	0052                	c.slli	zero,0x14
 6ea:	4352                	lw	t1,20(sp)
 6ec:	52495f43          	fmadd.d	ft10,fs2,ft4,fa0,unknown
 6f0:	6e51                	lui	t3,0x14
 6f2:	7000                	flw	fs0,32(s0)
 6f4:	6e69                	lui	t3,0x1a
 6f6:	415f 0032 4954      	0x49540032415f
 6fc:	314d                	jal	39e <handle_reset+0x26>
 6fe:	425f 4b52 495f      	0x495f4b52425f
 704:	5152                	lw	sp,52(sp)
 706:	006e                	c.slli	zero,0x1b
 708:	4149                	li	sp,18
 70a:	00525443          	fmadd.s	fs0,ft4,ft5,ft0,unknown
 70e:	74666f53          	0x74666f53
 712:	65726177          	0x65726177
 716:	495f 5152 006e      	0x6e5152495f
 71c:	31495053          	0x31495053
 720:	495f 5152 006e      	0x6e5152495f
 726:	6970                	flw	fa2,84(a0)
 728:	436e                	lw	t1,216(sp)
 72a:	7461                	lui	s0,0xffff8
 72c:	6f68                	flw	fa0,92(a4)
 72e:	6564                	flw	fs1,76(a0)
 730:	4400                	lw	s0,8(s0)
 732:	414d                	li	sp,19
 734:	5f31                	li	t5,-20
 736:	6e616843          	fmadd.q	fa6,ft2,ft6,fa3,unknown
 73a:	656e                	flw	fa0,216(sp)
 73c:	346c                	fld	fa1,232(s0)
 73e:	495f 5152 006e      	0x6e5152495f
 744:	504d4153          	0x504d4153
 748:	5254                	lw	a3,36(a2)
 74a:	0031                	c.nop	12
 74c:	504d4153          	0x504d4153
 750:	5254                	lw	a3,36(a2)
 752:	0032                	c.slli	zero,0xc
 754:	4549                	li	a0,18
 756:	524e                	lw	tp,240(sp)
 758:	7300                	flw	fs0,32(a4)
 75a:	7379                	lui	t1,0xffffe
 75c:	6974                	flw	fa3,84(a0)
 75e:	695f6b63          	bltu	t5,s5,df4 <_data_lma+0x72c>
 762:	696e                	flw	fs2,216(sp)
 764:	0074                	addi	a3,sp,12
 766:	72727563          	bgeu	tp,t2,e90 <_data_lma+0x7c8>
 76a:	6e65                	lui	t3,0x19
 76c:	6774                	flw	fa3,76(a4)
 76e:	6f72                	flw	ft10,28(sp)
 770:	7075                	c.lui	zero,0xffffd
 772:	4900                	lw	s0,16(a0)
 774:	3152464f          	fnmadd.s	fa2,ft4,fs5,ft6,rmm
 778:	4900                	lw	s0,16(a0)
 77a:	3252464f          	fnmadd.d	fa2,ft4,ft5,ft6,rmm
 77e:	4900                	lw	s0,16(a0)
 780:	3352464f          	fnmadd.d	fa2,ft4,fs5,ft6,rmm
 784:	4900                	lw	s0,16(a0)
 786:	3452464f          	0x3452464f
 78a:	7000                	flw	fs0,32(s0)
 78c:	6e69                	lui	t3,0x1a
 78e:	435f 0030 6970      	0x69700030435f
 794:	5f6e                	lw	t5,248(sp)
 796:	70003143          	fmadd.s	ft2,ft0,ft0,fa4,rup
 79a:	6e69                	lui	t3,0x1a
 79c:	435f 0032 5249      	0x52490032435f
 7a2:	6e51                	lui	t3,0x14
 7a4:	545f 7079 0065      	0x657079545f
 7aa:	6970                	flw	fa2,84(a0)
 7ac:	5f6e                	lw	t5,248(sp)
 7ae:	70003443          	fmadd.s	fs0,ft0,ft0,fa4,rup
 7b2:	6e69                	lui	t3,0x1a
 7b4:	435f 0035 6970      	0x69700035435f
 7ba:	5f6e                	lw	t5,248(sp)
 7bc:	70003643          	fmadd.s	fa2,ft0,ft0,fa4,rup
 7c0:	6e69                	lui	t3,0x1a
 7c2:	435f 0037 5049      	0x50490037435f
 7c8:	4952                	lw	s2,20(sp)
 7ca:	7000524f          	fnmadd.s	ft4,ft0,ft0,fa4,unknown
 7ce:	6e69                	lui	t3,0x1a
 7d0:	6f4d                	lui	t5,0x13
 7d2:	6564                	flw	fs1,76(a0)
 7d4:	4f5f 705f 7375      	0x7375705f4f5f
 7da:	5068                	lw	a0,100(s0)
 7dc:	6c75                	lui	s8,0x1d
 7de:	006c                	addi	a1,sp,12
 7e0:	454c                	lw	a1,12(a0)
 7e2:	7344                	flw	fs1,36(a4)
 7e4:	4900                	lw	s0,16(a0)
 7e6:	4144                	lw	s1,4(a0)
 7e8:	4154                	lw	a3,4(a0)
 7ea:	3152                	fld	ft2,304(sp)
 7ec:	4900                	lw	s0,16(a0)
 7ee:	4144                	lw	s1,4(a0)
 7f0:	4154                	lw	a3,4(a0)
 7f2:	3252                	fld	ft4,304(sp)
 7f4:	4900                	lw	s0,16(a0)
 7f6:	4144                	lw	s1,4(a0)
 7f8:	4154                	lw	a3,4(a0)
 7fa:	3352                	fld	ft6,304(sp)
 7fc:	4900                	lw	s0,16(a0)
 7fe:	4144                	lw	s1,4(a0)
 800:	4154                	lw	a3,4(a0)
 802:	3452                	fld	fs0,304(sp)
 804:	7000                	flw	fs0,32(s0)
 806:	6e69                	lui	t3,0x1a
 808:	445f 0030 6970      	0x69700030445f
 80e:	5f6e                	lw	t5,248(sp)
 810:	3144                	fld	fs1,160(a0)
 812:	7000                	flw	fs0,32(s0)
 814:	6e69                	lui	t3,0x1a
 816:	445f 0033 6970      	0x69700033445f
 81c:	5f6e                	lw	t5,248(sp)
 81e:	3444                	fld	fs1,168(s0)
 820:	7000                	flw	fs0,32(s0)
 822:	6e69                	lui	t3,0x1a
 824:	445f 0035 6970      	0x69700035445f
 82a:	5f6e                	lw	t5,248(sp)
 82c:	3644                	fld	fs1,168(a2)
 82e:	7000                	flw	fs0,32(s0)
 830:	6e69                	lui	t3,0x1a
 832:	445f 0037 6574      	0x65740037445f
 838:	706d                	c.lui	zero,0xffffb
 83a:	7000                	flw	fs0,32(s0)
 83c:	6e69                	lui	t3,0x1a
 83e:	6f4d                	lui	t5,0x13
 840:	6564                	flw	fs1,76(a0)
 842:	495f 665f 6f6c      	0x6f6c665f495f
 848:	7461                	lui	s0,0xffff8
 84a:	6e69                	lui	t3,0x1a
 84c:	79530067          	jr	1941(t1) # ffffe795 <__global_pointer$+0xdfffdf05>
 850:	63695473          	csrrwi	s0,0x636,18
 854:	52495f4b          	fnmsub.d	ft10,fs2,ft4,fa0,unknown
 858:	6e51                	lui	t3,0x14
 85a:	4400                	lw	s0,8(s0)
 85c:	414d                	li	sp,19
 85e:	5f31                	li	t5,-20
 860:	6e616843          	fmadd.q	fa6,ft2,ft6,fa3,unknown
 864:	656e                	flw	fa0,216(sp)
 866:	366c                	fld	fa1,232(a2)
 868:	495f 5152 006e      	0x6e5152495f
 86e:	4d44                	lw	s1,28(a0)
 870:	3141                	jal	4f0 <SysTick_Handler+0x104>
 872:	435f 6168 6e6e      	0x6e6e6168435f
 878:	6c65                	lui	s8,0x19
 87a:	5f31                	li	t5,-20
 87c:	5249                	li	tp,-14
 87e:	6e51                	lui	t3,0x14
 880:	4100                	lw	s0,0(a0)
 882:	4344                	lw	s1,4(a4)
 884:	545f 7079 4465      	0x44657079545f
 88a:	6665                	lui	a2,0x19
 88c:	5700                	lw	s0,40(a4)
 88e:	5f474457          	0x5f474457
 892:	5249                	li	tp,-14
 894:	6e51                	lui	t3,0x14
 896:	6200                	flw	fs0,0(a2)
 898:	6972                	flw	fs2,28(sp)
 89a:	6e746867          	0x6e746867
 89e:	7365                	lui	t1,0xffff9
 8a0:	79530073          	0x79530073
 8a4:	63695473          	csrrwi	s0,0x636,18
 8a8:	61485f6b          	0x61485f6b
 8ac:	646e                	flw	fs0,216(sp)
 8ae:	656c                	flw	fa1,76(a0)
 8b0:	0072                	c.slli	zero,0x1c
 8b2:	6461                	lui	s0,0x18
 8b4:	6e695f63          	bge	s2,t1,fb2 <ch32v003fun.c.8affbd33+0x5d>
 8b8:	7469                	lui	s0,0xffffa
 8ba:	5000                	lw	s0,32(s0)
 8bc:	4946                	lw	s2,80(sp)
 8be:	79545f43          	fmadd.s	ft10,fs0,fs5,fa5,unknown
 8c2:	6570                	flw	fa2,76(a0)
 8c4:	7000                	flw	fs0,32(s0)
 8c6:	6e69                	lui	t3,0x1a
 8c8:	415f 0031 5650      	0x56500031415f
 8ce:	5f44                	lw	s1,60(a4)
 8d0:	5249                	li	tp,-14
 8d2:	6e51                	lui	t3,0x14
 8d4:	4100                	lw	s0,0(a0)
 8d6:	4344                	lw	s1,4(a4)
 8d8:	495f 5152 006e      	0x6e5152495f
 8de:	4452                	lw	s0,20(sp)
 8e0:	5441                	li	s0,-16
 8e2:	5241                	li	tp,-16
 8e4:	4400                	lw	s0,8(s0)
 8e6:	414d                	li	sp,19
 8e8:	5f31                	li	t5,-20
 8ea:	6e616843          	fmadd.q	fa6,ft2,ft6,fa3,unknown
 8ee:	656e                	flw	fa0,216(sp)
 8f0:	336c                	fld	fa1,224(a4)
 8f2:	495f 5152 006e      	0x6e5152495f
 8f8:	6970                	flw	fa2,84(a0)
 8fa:	4d6e                	lw	s10,216(sp)
 8fc:	5f65646f          	jal	s0,56ef2 <wiring.c.7604182b+0x54776>
 900:	5f49                	li	t5,-14
 902:	6e61                	lui	t3,0x18
 904:	6c61                	lui	s8,0x18
 906:	5400676f          	jal	a4,6e46 <wiring.c.7604182b+0x46ca>
 90a:	4d49                	li	s10,18
 90c:	5f31                	li	t5,-20
 90e:	5055                	c.li	zero,-11
 910:	495f 5152 006e      	0x6e5152495f
 916:	6970                	flw	fa2,84(a0)
 918:	4d6e                	lw	s10,216(sp)
 91a:	5f65646f          	jal	s0,56f10 <wiring.c.7604182b+0x54794>
 91e:	75705f4f          	0x75705f4f
 922:	75506873          	csrrsi	a6,0x755,0
 926:	6c6c                	flw	fa1,92(s0)
 928:	754d                	lui	a0,0xffff3
 92a:	0078                	addi	a4,sp,12
 92c:	616d                	addi	sp,sp,240
 92e:	6e69                	lui	t3,0x1a
 930:	732d                	lui	t1,0xfffeb
 932:	00632e77          	0x632e77
 936:	5355                	li	t1,-11
 938:	5241                	li	tp,-16
 93a:	3154                	fld	fa3,160(a0)
 93c:	495f 5152 006e      	0x6e5152495f
 942:	6f4e                	flw	ft10,208(sp)
 944:	4d6e                	lw	s10,216(sp)
 946:	7361                	lui	t1,0xffff8
 948:	6c62616b          	0x6c62616b
 94c:	4965                	li	s2,25
 94e:	746e                	flw	fs0,248(sp)
 950:	495f 5152 006e      	0x6e5152495f
 956:	6f70                	flw	fa2,92(a4)
 958:	7472                	flw	fs0,60(sp)
 95a:	415f 7000 726f      	0x726f7000415f
 960:	5f74                	lw	a3,124(a4)
 962:	6f700043          	fmadd.q	ft0,ft0,fs7,fa3,rne
 966:	7472                	flw	fs0,60(sp)
 968:	445f 5400 4d49      	0x4d495400445f
 96e:	5f31                	li	t5,-20
 970:	495f4343          	fmadd.s	ft6,ft10,fs5,fs1,rmm
 974:	5152                	lw	sp,52(sp)
 976:	006e                	c.slli	zero,0x1b
 978:	52474643          	fmadd.d	fa2,fa4,ft4,fa0,rmm
 97c:	7000                	flw	fs0,32(s0)
 97e:	6e69                	lui	t3,0x1a
 980:	6f4d                	lui	t5,0x13
 982:	6564                	flw	fs1,76(a0)
 984:	4f5f 6f5f 6570      	0x65706f5f4f5f
 98a:	446e                	lw	s0,216(sp)
 98c:	6172                	flw	ft2,28(sp)
 98e:	6e69                	lui	t3,0x1a
 990:	754d                	lui	a0,0xffff3
 992:	0078                	addi	a4,sp,12
 994:	6970                	flw	fa2,84(a0)
 996:	4d6e                	lw	s10,216(sp)
 998:	5f65646f          	jal	s0,56f8e <wiring.c.7604182b+0x54812>
 99c:	5f49                	li	t5,-14
 99e:	7570                	flw	fa2,108(a0)
 9a0:	6c6c                	flw	fa1,92(s0)
 9a2:	6f44                	flw	fs1,28(a4)
 9a4:	70006e77          	0x70006e77
 9a8:	6e69                	lui	t3,0x1a
 9aa:	6e41                	lui	t3,0x10
 9ac:	0065646f          	jal	s0,569b2 <wiring.c.7604182b+0x54236>
 9b0:	4954                	lw	a3,20(a0)
 9b2:	314d                	jal	654 <SysTick_Handler+0x268>
 9b4:	545f 4752 435f      	0x435f4752545f
 9ba:	495f4d4f          	fnmadd.s	fs10,ft10,fs5,fs1,rmm
 9be:	5152                	lw	sp,52(sp)
 9c0:	006e                	c.slli	zero,0x1b
 9c2:	3249                	jal	344 <main+0x1a0>
 9c4:	455f3143          	0x455f3143
 9c8:	5f52                	lw	t5,52(sp)
 9ca:	5249                	li	tp,-14
 9cc:	6e51                	lui	t3,0x14
 9ce:	7200                	flw	fs0,32(a2)
 9d0:	6d61                	lui	s10,0x18
 9d2:	0070                	addi	a2,sp,12
 9d4:	4954                	lw	a3,20(a0)
 9d6:	324d                	jal	378 <handle_reset>
 9d8:	495f 5152 006e      	0x6e5152495f
 9de:	6970                	flw	fa2,84(a0)
 9e0:	5f6e                	lw	t5,248(sp)
 9e2:	49003343          	fmadd.s	ft6,ft0,fa6,fs1,rup
 9e6:	4552                	lw	a0,20(sp)
 9e8:	0052                	c.slli	zero,0x14
 9ea:	5352                	lw	t1,52(sp)
 9ec:	5251                	li	tp,-12
 9ee:	0031                	c.nop	12
 9f0:	5352                	lw	t1,52(sp)
 9f2:	5251                	li	tp,-12
 9f4:	0032                	c.slli	zero,0xc
 9f6:	5352                	lw	t1,52(sp)
 9f8:	5251                	li	tp,-12
 9fa:	65440033          	0x65440033
 9fe:	616c                	flw	fa1,68(a0)
 a00:	0079                	c.nop	30
 a02:	4c44                	lw	s1,28(s0)
 a04:	5259                	li	tp,-10
 a06:	4900                	lw	s0,16(a0)
 a08:	5250                	lw	a2,36(a2)
 a0a:	0052                	c.slli	zero,0x14
 a0c:	4d44                	lw	s1,28(a0)
 a0e:	3141                	jal	68e <SysTick_Handler+0x2a2>
 a10:	435f 6168 6e6e      	0x6e6e6168435f
 a16:	6c65                	lui	s8,0x19
 a18:	5f35                	li	t5,-19
 a1a:	5249                	li	tp,-14
 a1c:	6e51                	lui	t3,0x14
 a1e:	5600                	lw	s0,40(a2)
 a20:	4654                	lw	a3,12(a2)
 a22:	4441                	li	s0,16
 a24:	5244                	lw	s1,36(a2)
 a26:	6c00                	flw	fs0,24(s0)
 a28:	6968776f          	jal	a4,880be <wiring.c.7604182b+0x85942>
 a2c:	43006867          	0x43006867
 a30:	656e6e6f          	jal	t3,e7086 <wiring.c.7604182b+0xe490a>
 a34:	6f697463          	bgeu	s2,s6,111c <ch32v003fun.c.8affbd33+0x1c7>
 a38:	006e                	c.slli	zero,0x1b
 a3a:	616d                	addi	sp,sp,240
 a3c:	6e69                	lui	t3,0x1a
 a3e:	7000                	flw	fs0,32(s0)
 a40:	6e69                	lui	t3,0x1a
 a42:	445f 0032 5047      	0x50470032445f
 a48:	4f49                	li	t5,18
 a4a:	6970                	flw	fa2,84(a0)
 a4c:	4d6e                	lw	s10,216(sp)
 a4e:	0065646f          	jal	s0,56a54 <wiring.c.7604182b+0x542d8>
 a52:	5049                	c.li	zero,-14
 a54:	70005253          	0x70005253
 a58:	6e69                	lui	t3,0x1a
 a5a:	6e5f 6e6f 0065      	0x656e6f6e5f
 a60:	4552                	lw	a0,20(sp)
 a62:	56524553          	0x56524553
 a66:	4445                	li	s0,17
 a68:	69700037          	lui	zero,0x69700
 a6c:	4d6e                	lw	s10,216(sp)
 a6e:	5f65646f          	jal	s0,57064 <wiring.c.7604182b+0x548e8>
 a72:	5f49                	li	t5,-14
 a74:	7570                	flw	fa2,108(a0)
 a76:	6c6c                	flw	fa1,92(s0)
 a78:	7055                	c.lui	zero,0xffff5
 a7a:	4700                	lw	s0,8(a4)
 a7c:	4950                	lw	a2,20(a0)
 a7e:	726f704f          	fnmadd.d	ft0,ft10,ft6,fa4
 a82:	7374                	flw	fa3,100(a4)
 a84:	7000                	flw	fs0,32(s0)
 a86:	5f74726f          	jal	tp,4887c <wiring.c.7604182b+0x46100>
 a8a:	6f6e                	flw	ft10,216(sp)
 a8c:	656e                	flw	fa0,216(sp)
 a8e:	6900                	flw	fs0,16(a0)
 a90:	706e                	flw	ft0,248(sp)
 a92:	7475                	lui	s0,0xffffd
 a94:	4100                	lw	s0,0(a0)
 a96:	414e                	lw	sp,208(sp)
 a98:	4f4c                	lw	a1,28(a4)
 a9a:	706e6947          	fmsub.s	fs2,ft8,ft6,fa4,unknown
 a9e:	7475                	lui	s0,0xffffd
 aa0:	69640073          	0x69640073
 aa4:	61746967          	0x61746967
 aa8:	576c                	lw	a1,108(a4)
 aaa:	6972                	flw	fs2,28(sp)
 aac:	6574                	flw	fa3,76(a0)
 aae:	7700                	flw	fs0,40(a4)
 ab0:	7269                	lui	tp,0xffffa
 ab2:	6e69                	lui	t3,0x1a
 ab4:	00632e67          	0x632e67
 ab8:	7341                	lui	t1,0xffff0
 aba:	5f74                	lw	a3,124(a4)
 abc:	00796333          	or	t1,s2,t2
 ac0:	6f6d                	lui	t5,0x1b
 ac2:	6564                	flw	fs1,76(a0)
 ac4:	4100                	lw	s0,0(a0)
 ac6:	6e69                	lui	t3,0x1a
 ac8:	5f34                	lw	a3,120(a4)
 aca:	3344                	fld	fs1,160(a4)
 acc:	7000                	flw	fs0,32(s0)
 ace:	4574726f          	jal	tp,48724 <wiring.c.7604182b+0x45fa8>
 ad2:	616e                	flw	ft2,216(sp)
 ad4:	6c62                	flw	fs8,24(sp)
 ad6:	0065                	c.nop	25
 ad8:	7341                	lui	t1,0xffff0
 ada:	5f74                	lw	a3,124(a4)
 adc:	3432                	fld	fs0,296(sp)
 ade:	6331                	lui	t1,0xc
 ae0:	5f79                	li	t5,-2
 ae2:	6564                	flw	fs1,76(a0)
 ae4:	6166                	flw	ft2,88(sp)
 ae6:	6c75                	lui	s8,0x1d
 ae8:	0074                	addi	a3,sp,12
 aea:	4f495047          	fmsub.q	ft0,fs2,fs4,fs1,unknown
 aee:	6970                	flw	fa2,84(a0)
 af0:	536e                	lw	t1,248(sp)
 af2:	6174                	flw	fa3,68(a0)
 af4:	6574                	flw	fa3,76(a0)
 af6:	4100                	lw	s0,0(a0)
 af8:	6e69                	lui	t3,0x1a
 afa:	5f31                	li	t5,-20
 afc:	3141                	jal	77c <_data_lma+0xb4>
 afe:	7200                	flw	fs0,32(a2)
 b00:	7365                	lui	t1,0xffff9
 b02:	6c75                	lui	s8,0x1d
 b04:	0074                	addi	a3,sp,12
 b06:	6970                	flw	fa2,84(a0)
 b08:	536e                	lw	t1,248(sp)
 b0a:	6174                	flw	fa3,68(a0)
 b0c:	6574                	flw	fa3,76(a0)
 b0e:	6e5f 636f 6168      	0x6168636f6e5f
 b14:	676e                	flw	fa4,216(sp)
 b16:	0065                	c.nop	25
 b18:	7341                	lui	t1,0xffff0
 b1a:	5f74                	lw	a3,124(a4)
 b1c:	3735                	jal	a48 <_data_lma+0x380>
 b1e:	41007963          	bgeu	zero,a6,f30 <_data_lma+0x868>
 b22:	315f7473          	csrrci	s0,0x315,30
 b26:	6335                	lui	t1,0xd
 b28:	0079                	c.nop	30
 b2a:	4441                	li	s0,16
 b2c:	74657343          	0x74657343
 b30:	6f50                	flw	fa2,28(a4)
 b32:	00726577          	0x726577
 b36:	7341                	lui	t1,0xffff0
 b38:	5f74                	lw	a3,124(a4)
 b3a:	79633033          	0x79633033
 b3e:	6100                	flw	fs0,0(a0)
 b40:	616e                	flw	ft2,216(sp)
 b42:	6f6c                	flw	fa1,92(a4)
 b44:	61655267          	0x61655267
 b48:	0064                	addi	s1,sp,12
 b4a:	50746567          	0x50746567
 b4e:	0074726f          	jal	tp,48354 <wiring.c.7604182b+0x45bd8>
 b52:	6970                	flw	fa2,84(a0)
 b54:	536e                	lw	t1,248(sp)
 b56:	6174                	flw	fa3,68(a0)
 b58:	6574                	flw	fa3,76(a0)
 b5a:	6c5f 776f 4100      	0x4100776f6c5f
 b60:	4344                	lw	s1,4(a4)
 b62:	696c6163          	bltu	s8,s6,11e4 <ch32v003fun.c.8affbd33+0x28f>
 b66:	7262                	flw	ft4,56(sp)
 b68:	7461                	lui	s0,0xffff8
 b6a:	0065                	c.nop	25
 b6c:	6941                	lui	s2,0x10
 b6e:	566e                	lw	a2,248(sp)
 b70:	6572                	flw	fa0,28(sp)
 b72:	0066                	c.slli	zero,0x19
 b74:	6941                	lui	s2,0x10
 b76:	566e                	lw	a2,248(sp)
 b78:	006c6163          	bltu	s8,t1,b7a <_data_lma+0x4b2>
 b7c:	6941                	lui	s2,0x10
 b7e:	336e                	fld	ft6,248(sp)
 b80:	445f 0032 4e41      	0x4e410032445f
 b86:	4c41                	li	s8,16
 b88:	6173474f          	fnmadd.s	fa4,ft6,fs7,fa2,rmm
 b8c:	706d                	c.lui	zero,0xffffb
 b8e:	656c                	flw	fa1,76(a0)
 b90:	6974                	flw	fa3,84(a0)
 b92:	656d                	lui	a0,0x1b
 b94:	5f5f0073          	0x5f5f0073
 b98:	6e69                	lui	t3,0x1a
 b9a:	3874                	fld	fa3,240(s0)
 b9c:	745f 4700 4950      	0x49504700745f
 ba2:	4100784f          	fnmadd.s	fa6,ft0,fa6,fs0
 ba6:	6e69                	lui	t3,0x1a
 ba8:	5f30                	lw	a2,120(a4)
 baa:	3241                	jal	52a <SysTick_Handler+0x13e>
 bac:	4100                	lw	s0,0(a0)
 bae:	4344                	lw	s1,4(a4)
 bb0:	53746573          	csrrsi	a0,0x537,8
 bb4:	6d61                	lui	s10,0x18
 bb6:	6c70                	flw	fa2,92(s0)
 bb8:	7465                	lui	s0,0xffff9
 bba:	6d69                	lui	s10,0x1a
 bbc:	0065                	c.nop	25
 bbe:	6964                	flw	fs1,84(a0)
 bc0:	61746967          	0x61746967
 bc4:	526c                	lw	a1,100(a2)
 bc6:	6165                	addi	sp,sp,112
 bc8:	0064                	addi	s1,sp,12
 bca:	6941                	lui	s2,0x10
 bcc:	356e                	fld	fa0,248(sp)
 bce:	445f 0035 6e65      	0x6e650035445f
 bd4:	6261                	lui	tp,0x18
 bd6:	656c                	flw	fa1,76(a0)
 bd8:	6d00                	flw	fs0,24(a0)
 bda:	4d65646f          	jal	s0,570b0 <wiring.c.7604182b+0x54934>
 bde:	7361                	lui	t1,0xffff8
 be0:	4441006b          	0x4441006b
 be4:	696e6943          	fmadd.s	fs2,ft8,fs6,fa3,unknown
 be8:	0074                	addi	a3,sp,12
 bea:	6f70                	flw	fa2,92(a4)
 bec:	7472                	flw	fs0,60(sp)
 bee:	4100                	lw	s0,0(a0)
 bf0:	375f7473          	csrrci	s0,0x375,30
 bf4:	00796333          	or	t1,s2,t2
 bf8:	6941                	lui	s2,0x10
 bfa:	376e                	fld	fa4,248(sp)
 bfc:	445f 0034 6950      	0x69500034445f
 c02:	4f6e                	lw	t5,216(sp)
 c04:	6666                	flw	fa2,88(sp)
 c06:	00746573          	csrrsi	a0,0x7,8
 c0a:	6970                	flw	fa2,84(a0)
 c0c:	536e                	lw	t1,248(sp)
 c0e:	6174                	flw	fa3,68(a0)
 c10:	6574                	flw	fa3,76(a0)
 c12:	685f 6769 0068      	0x686769685f
 c18:	7341                	lui	t1,0xffff0
 c1a:	5f74                	lw	a3,124(a4)
 c1c:	3334                	fld	fa3,96(a4)
 c1e:	41007963          	bgeu	zero,a6,1030 <ch32v003fun.c.8affbd33+0xdb>
 c22:	6e69                	lui	t3,0x1a
 c24:	5f32                	lw	t5,44(sp)
 c26:	74003443          	0x74003443
 c2a:	7261                	lui	tp,0xffff8
 c2c:	5f746567          	0x5f746567
 c30:	6970                	flw	fa2,84(a0)
 c32:	5f6e                	lw	t5,248(sp)
 c34:	74617473          	csrrci	s0,0x746,2
 c38:	0065                	c.nop	25
 c3a:	7341                	lui	t1,0xffff0
 c3c:	5f74                	lw	a3,124(a4)
 c3e:	6339                	lui	t1,0xe
 c40:	0079                	c.nop	30
 c42:	6941                	lui	s2,0x10
 c44:	366e                	fld	fa2,248(sp)
 c46:	445f 0036 2e2e      	0x2e2e0036445f
 c4c:	2f2e2e2f          	0x2f2e2e2f
 c50:	2e2e                	fld	ft8,200(sp)
 c52:	2f2e2e2f          	0x2f2e2e2f
 c56:	2e2e                	fld	ft8,200(sp)
 c58:	62696c2f          	0x62696c2f
 c5c:	2f636367          	0x2f636367
 c60:	666e6f63          	bltu	t3,t1,12de <ch32v003fun.c.8affbd33+0x389>
 c64:	6769                	lui	a4,0x1a
 c66:	7369722f          	0x7369722f
 c6a:	6d2f7663          	bgeu	t5,s2,1336 <ch32v003fun.c.8affbd33+0x3e1>
 c6e:	6c75                	lui	s8,0x1d
 c70:	6964                	flw	fs1,84(a0)
 c72:	00532e33          	slt	t3,t1,t0
 c76:	6975622f          	0x6975622f
 c7a:	646c                	flw	fa1,76(s0)
 c7c:	6363672f          	0x6363672f
 c80:	722d                	lui	tp,0xfffeb
 c82:	7369                	lui	t1,0xffffa
 c84:	34367663          	bgeu	a2,gp,fd0 <ch32v003fun.c.8affbd33+0x7b>
 c88:	752d                	lui	a0,0xfffeb
 c8a:	6b6e                	flw	fs6,216(sp)
 c8c:	6f6e                	flw	ft10,216(sp)
 c8e:	652d6e77          	0x652d6e77
 c92:	666c                	flw	fa1,76(a2)
 c94:	4c2d                	li	s8,11
 c96:	6569636b          	0x6569636b
 c9a:	2f46                	fld	ft10,80(sp)
 c9c:	2d636367          	0x2d636367
 ca0:	6972                	flw	fs2,28(sp)
 ca2:	36766373          	csrrsi	t1,0x367,12
 ca6:	2d34                	fld	fa3,88(a0)
 ca8:	6e75                	lui	t3,0x1d
 caa:	776f6e6b          	0x776f6e6b
 cae:	2d6e                	fld	fs10,216(sp)
 cb0:	6c65                	lui	s8,0x19
 cb2:	2d66                	fld	fs10,88(sp)
 cb4:	3031                	jal	4c0 <SysTick_Handler+0xd4>
 cb6:	322e                	fld	ft4,232(sp)
 cb8:	302e                	fld	ft0,232(sp)
 cba:	6975622f          	0x6975622f
 cbe:	646c                	flw	fa1,76(s0)
 cc0:	7369722f          	0x7369722f
 cc4:	34367663          	bgeu	a2,gp,1010 <ch32v003fun.c.8affbd33+0xbb>
 cc8:	752d                	lui	a0,0xfffeb
 cca:	6b6e                	flw	fs6,216(sp)
 ccc:	6f6e                	flw	ft10,216(sp)
 cce:	652d6e77          	0x652d6e77
 cd2:	666c                	flw	fa1,76(a2)
 cd4:	3376722f          	0x3376722f
 cd8:	6532                	flw	fa0,12(sp)
 cda:	706c692f          	0x706c692f
 cde:	2f653233          	0x2f653233
 ce2:	696c                	flw	fa1,84(a0)
 ce4:	6762                	flw	fa4,24(sp)
 ce6:	47006363          	bltu	zero,a6,114c <ch32v003fun.c.8affbd33+0x1f7>
 cea:	554e                	lw	a0,240(sp)
 cec:	4120                	lw	s0,64(a0)
 cee:	2e322053          	0x2e322053
 cf2:	312e3533          	0x312e3533
	...

Disassembly of section .comment:

00000000 <.comment>:
	asm volatile( "\n\
   0:	3a434347          	fmsub.d	ft6,ft6,ft4,ft7,rmm
   4:	2820                	fld	fs0,80(s0)
   6:	2029                	jal	10 <InterruptVector+0x10>
   8:	3031                	jal	fffff814 <__global_pointer$+0xdfffef84>
   a:	322e                	fld	ft4,232(sp)
   c:	302e                	fld	ft0,232(sp)
	...

Disassembly of section .riscv.attributes:

00000000 <.riscv.attributes>:
   0:	2441                	jal	280 <main+0xdc>
   2:	0000                	unimp
   4:	7200                	flw	fs0,32(a2)
   6:	7369                	lui	t1,0xffffa
   8:	01007663          	bgeu	zero,a6,14 <InterruptVector+0x14>
   c:	001a                	c.slli	zero,0x6
   e:	0000                	unimp
  10:	0404                	addi	s1,sp,512
  12:	7205                	lui	tp,0xfffe1
  14:	3376                	fld	ft6,376(sp)
  16:	6532                	flw	fa0,12(sp)
  18:	7031                	c.lui	zero,0xfffec
  1a:	5f39                	li	t5,-18
  1c:	30703263          	0x30703263
  20:	0800                	addi	s0,sp,16
  22:	0a01                	addi	s4,s4,0
  24:	0b              	Address 0x0000000000000024 is out of bounds.


Disassembly of section .debug_frame:

00000000 <.debug_frame>:
   0:	000c                	0xc
   2:	0000                	unimp
   4:	ffff                	0xffff
   6:	ffff                	0xffff
   8:	7c010003          	lb	zero,1984(sp)
   c:	0d01                	addi	s10,s10,0
   e:	0002                	c.slli64	zero
  10:	000c                	0xc
	...
  1e:	0000                	unimp
  20:	0024                	addi	s1,sp,8
	...
  2e:	0000                	unimp
  30:	0e42                	slli	t3,t3,0x10
  32:	4614                	lw	a3,8(a2)
  34:	0389                	addi	t2,t2,2
  36:	0181                	addi	gp,gp,0
  38:	0288                	addi	a0,sp,320
  3a:	0002                	c.slli64	zero
  3c:	c10a                	sw	sp,128(sp)
  3e:	c842                	sw	a6,16(sp)
  40:	c942                	sw	a6,144(sp)
  42:	0e42                	slli	t3,t3,0x10
  44:	4200                	lw	s0,0(a2)
  46:	0024000b          	0x24000b
	...
  56:	0000                	unimp
  58:	0e42                	slli	t3,t3,0x10
  5a:	4620                	lw	s0,72(a2)
  5c:	0181                	addi	gp,gp,0
  5e:	0288                	addi	a0,sp,320
  60:	0389                	addi	t2,t2,2
  62:	0002                	c.slli64	zero
  64:	c10a                	sw	sp,128(sp)
  66:	c842                	sw	a6,16(sp)
  68:	c942                	sw	a6,144(sp)
  6a:	0e42                	slli	t3,t3,0x10
  6c:	4200                	lw	s0,0(a2)
  6e:	000c000b          	0xc000b
  72:	0000                	unimp
  74:	0000                	unimp
  76:	0000                	unimp
  78:	00c4                	addi	s1,sp,68
  7a:	0000                	unimp
  7c:	0050                	addi	a2,sp,4
  7e:	0000                	unimp
  80:	000c                	0xc
  82:	0000                	unimp
  84:	0000                	unimp
  86:	0000                	unimp
  88:	0114                	addi	a3,sp,128
  8a:	0000                	unimp
  8c:	0090                	addi	a2,sp,64
  8e:	0000                	unimp
  90:	0020                	addi	s0,sp,8
	...
  9e:	0000                	unimp
  a0:	0e42                	slli	t3,t3,0x10
  a2:	4618                	lw	a4,8(a2)
  a4:	0288                	addi	a0,sp,320
  a6:	0389                	addi	t2,t2,2
  a8:	0181                	addi	gp,gp,0
  aa:	0002                	c.slli64	zero
  ac:	44c1                	li	s1,16
  ae:	42c8                	lw	a0,4(a3)
  b0:	42c9                	li	t0,18
  b2:	000e                	c.slli	zero,0x3
  b4:	001c                	0x1c
	...
  c2:	0000                	unimp
	if (pin <= pin_A2) {
  c4:	0e42                	slli	t3,t3,0x10
  c6:	440c                	lw	a1,8(s0)
  c8:	0288                	addi	a0,sp,320
		PinOffset = (pin + 1);
  ca:	0181                	addi	gp,gp,0
  cc:	c140                	sw	s0,4(a0)
		GPIOx = GPIOA;
  ce:	c844                	sw	s1,20(s0)
  d0:	0e42                	slli	t3,t3,0x10
		PinOffset = (pin + 1);
  d2:	0000                	unimp
		GPIOx = GPIOA;
  d4:	0018                	0x18
  d6:	0000                	unimp
		GPIOx-> BSHR |= 1 << PinOffset;
  d8:	0000                	unimp
	if (value) {
  da:	0000                	unimp
		GPIOx-> BSHR |= 1 << (16 + PinOffset);
  dc:	01a4                	addi	s1,sp,200
  de:	0000                	unimp
  e0:	01d4                	addi	a3,sp,196
  e2:	0000                	unimp
  e4:	0e42                	slli	t3,t3,0x10
}
  e6:	4610                	lw	a2,8(a2)
	else if (pin <= pin_C7) {
  e8:	0181                	addi	gp,gp,0
  ea:	0288                	addi	a0,sp,320
  ec:	0389                	addi	t2,t2,2
		PinOffset = (pin - 2);
  ee:	0000                	unimp
  f0:	000c                	0xc
  f2:	0000                	unimp
		GPIOx = GPIOC;
  f4:	0000                	unimp
  f6:	0000                	unimp
  f8:	0378                	addi	a4,sp,396
	else if (pin <= pin_D7) {
  fa:	0000                	unimp
  fc:	0072                	c.slli	zero,0x1c
  fe:	0000                	unimp
		PinOffset = (pin - 10);
 100:	000c                	0xc
 102:	0000                	unimp
		GPIOx = GPIOD;
 104:	0000                	unimp
 106:	0000                	unimp
		PinOffset = (pin - 10);
 108:	03ea                	slli	t2,t2,0x1a
		GPIOx = GPIOD;
 10a:	0000                	unimp
 10c:	0002                	c.slli64	zero
 10e:	0000                	unimp
		GPIOx-> BSHR |= 1 << (16 + PinOffset);
 110:	000c                	0xc
	...
		PinOffset *= (pin + 1);
 11e:	0000                	unimp
 120:	0024                	addi	s1,sp,8
	...
	GPIOx->CFGLR &= ~(0b1111<<PinOffset);							// zero the 4 configuration bits
 12e:	0000                	unimp
 130:	0e44                	addi	s1,sp,788
 132:	4a6c                	lw	a1,84(a2)
 134:	0889                	addi	a7,a7,2
 136:	0681                	addi	a3,a3,0
 138:	0788                	addi	a0,sp,960
 13a:	0a40                	addi	s0,sp,276
	switch (mode) {
 13c:	42c1                	li	t0,16
 13e:	44c8                	lw	a0,12(s1)
 140:	44c9                	li	s1,18
 142:	000e                	c.slli	zero,0x3
 144:	0b42                	slli	s6,s6,0x10
 146:	0000                	unimp
 148:	000c                	0xc
	...
	GPIOx->CFGLR |= modeMask<<PinOffset;
 156:	0000                	unimp
 158:	000c                	0xc
	...
	if (target_pin_state > pinState_nochange) {
 166:	0000                	unimp
		digitalWrite(pin, target_pin_state - 1);
 168:	000c                	0xc
	...
	else if (pin <= pin_C7) {
 176:	0000                	unimp
		PinOffset *= (pin - 2);
 178:	000c                	0xc
	...
		GPIOx = GPIOC;
 186:	0000                	unimp
	else if (pin <= pin_D7) {
 188:	000c                	0xc
	...
		GPIOx = GPIOD;
 196:	0000                	unimp
 198:	0020                	addi	s0,sp,8
	...
int main() {
 1a6:	0000                	unimp
 1a8:	0e42                	slli	t3,t3,0x10
 1aa:	440c                	lw	a1,8(s0)
	RCC->CFGR0 = RCC_HPRE_DIV1 | RCC_PLLSRC_HSI_Mul2;      // PLLCLK = HSI * 2 = 48 MHz; HCLK = SYSCLK = APB1
 1ac:	0288                	addi	a0,sp,320
 1ae:	0181                	addi	gp,gp,0
	RCC->CTLR  = RCC_HSION | RCC_PLLON | ((HSITRIM) << 3); // Use HSI, but enable PLL.
 1b0:	0a40                	addi	s0,sp,276
 1b2:	44c1                	li	s1,16
	RCC->CFGR0 = RCC_HPRE_DIV1 | RCC_PLLSRC_HSI_Mul2;      // PLLCLK = HSI * 2 = 48 MHz; HCLK = SYSCLK = APB1
 1b4:	42c8                	lw	a0,4(a3)
 1b6:	000e                	c.slli	zero,0x3
	RCC->CTLR  = RCC_HSION | RCC_PLLON | ((HSITRIM) << 3); // Use HSI, but enable PLL.
 1b8:	0b42                	slli	s6,s6,0x10
 1ba:	0000                	unimp
 1bc:	0020                	addi	s0,sp,8
	...
	RCC->INTR  = 0x009F0000;                               // Clear PLL, CSSC, HSE, HSI and LSI ready flags.
 1ca:	0000                	unimp
	while((RCC->CTLR & RCC_PLLRDY) == 0);                                      // Wait till PLL is ready
 1cc:	0e42                	slli	t3,t3,0x10
 1ce:	440c                	lw	a1,8(s0)
 1d0:	0288                	addi	a0,sp,320
 1d2:	0389                	addi	t2,t2,2
 1d4:	8146                	mv	sp,a7
 1d6:	4001                	c.li	zero,0
 1d8:	42c1                	li	t0,16
	RCC->CFGR0 = ( RCC->CFGR0 & ((uint32_t)~(RCC_SW))) | (uint32_t)RCC_SW_PLL; // Select PLL as system clock source
 1da:	42c8                	lw	a0,4(a3)
	while ((RCC->CFGR0 & (uint32_t)RCC_SWS) != (uint32_t)0x08);                // Wait till PLL is used as system clock source
 1dc:	42c9                	li	t0,18
	RCC->CFGR0 = ( RCC->CFGR0 & ((uint32_t)~(RCC_SW))) | (uint32_t)RCC_SW_PLL; // Select PLL as system clock source
 1de:	000e                	c.slli	zero,0x3
 1e0:	000c                	0xc
	...
	while ((RCC->CFGR0 & (uint32_t)RCC_SWS) != (uint32_t)0x08);                // Wait till PLL is used as system clock source
 1ee:	0000                	unimp
 1f0:	000c                	0xc
	...
 1fe:	0000                	unimp
 200:	000c                	0xc
	...
	SysTick->CTLR = SYSTICK_CTLR_STE | SYSTICK_CTLR_STIE |
 20e:	0000                	unimp
 210:	000c                	0xc
	...
	RCC->APB2PCENR |= RCC_APB2Periph_GPIOA | RCC_APB2Periph_ADC1;
 21e:	0000                	unimp
	GPIOA->CFGLR &= ~(0xf<<(4*GPIO_PinSource2));	// CNF = 00: Analog, MODE = 00: Input
 220:	0020                	addi	s0,sp,8
	...
 22e:	0000                	unimp
 230:	0e42                	slli	t3,t3,0x10
 232:	440c                	lw	a1,8(s0)
 234:	0288                	addi	a0,sp,320
 236:	8948                	0x8948
 238:	40018103          	lb	sp,1024(gp) # 20000c90 <__global_pointer$+0x400>
	ADC1->CTLR2 |= ADC_ADON | ADC_EXTSEL;
 23c:	44c1                	li	s1,16
 23e:	42c8                	lw	a0,4(a3)
 240:	42c9                	li	t0,18
	RCC->APB2PRSTR |= RCC_APB2Periph_ADC1;
 242:	000e                	c.slli	zero,0x3
 244:	0024                	addi	s1,sp,8
	...
	ADC1->RSQR1 = 0;
 252:	0000                	unimp
 254:	0e44                	addi	s1,sp,788
 256:	08cc                	addi	a1,sp,84
	ADC1->RSQR2 = 0;
 258:	8958                	0x8958
 25a:	88018103          	lb	sp,-1920(gp) # 20000110 <_ebss+0x6c>
	ADC1->RSQR3 = ADC_Channel_0;	// 0-9 for 8 ext inputs and two internals
 25e:	4002                	0x4002
	ADC1->SAMPTR2 &= ~ADC_SMP2;
 260:	c10a                	sw	sp,128(sp)
 262:	c846                	sw	a7,16(sp)
 264:	c944                	sw	s1,20(a0)
 266:	0e44                	addi	s1,sp,788
 268:	4200                	lw	s0,0(a2)
 26a:	0030000b          	0x30000b
	...
	ADC1->CTLR2 |= ADC_ADON | ADC_EXTSEL;
 27a:	0000                	unimp
 27c:	0e42                	slli	t3,t3,0x10
	ADC1->CTLR2 |= ADC_RSTCAL;
 27e:	460c                	lw	a1,8(a2)
 280:	0181                	addi	gp,gp,0
	while(ADC1->CTLR2 & ADC_RSTCAL);
 282:	0288                	addi	a0,sp,320
 284:	0389                	addi	t2,t2,2
	ADC1->CTLR2 |= ADC_RSTCAL;
 286:	0a000003          	lb	zero,160(zero) # a0 <__mulsi3>
 28a:	42c8                	lw	a0,4(a3)
 28c:	42c1                	li	t0,16
	while(ADC1->CTLR2 & ADC_RSTCAL);
 28e:	42c9                	li	t0,18
 290:	000e                	c.slli	zero,0x3
 292:	0b40                	addi	s0,sp,404
 294:	c144                	sw	s1,4(a0)
	ADC1->CTLR2 |= ADC_CAL;
 296:	c842                	sw	a6,16(sp)
 298:	c942                	sw	a6,144(sp)
 29a:	0e44                	addi	s1,sp,788
 29c:	0000                	unimp
 29e:	0000                	unimp
 2a0:	0020                	addi	s0,sp,8
	...
			RCC->APB2PCENR |= RCC_APB2Periph_GPIOA;
 2ae:	0000                	unimp
 2b0:	0e42                	slli	t3,t3,0x10
 2b2:	460c                	lw	a1,8(a2)
	pinMode(pin_A1, pinMode_I_floating);
 2b4:	0181                	addi	gp,gp,0
 2b6:	0288                	addi	a0,sp,320
 2b8:	0389                	addi	t2,t2,2
 2ba:	c140                	sw	s0,4(a0)
 2bc:	c846                	sw	a7,16(sp)
			RCC->APB2PCENR |= RCC_APB2Periph_GPIOC;
 2be:	c942                	sw	a6,144(sp)
		int temp=LEDs[0].brightness;
 2c0:	0e42                	slli	t3,t3,0x10
 2c2:	0000                	unimp
	ADC1->CTLR2 |= ADC_SWSTART;
 2c4:	000c                	0xc
	...
	pinMode(pin_A1, pinMode_I_floating);
 2ce:	0000                	unimp
	pinMode(pin_A2, pinMode_I_floating);
 2d0:	009c                	addi	a5,sp,64
 2d2:	0000                	unimp
 2d4:	000c                	0xc
	...
		Delay_Ms(( Delay >> 3 ) + 5 );
 2e2:	0000                	unimp
 2e4:	0048                	addi	a0,sp,4
	ADC1->CTLR2 |= ADC_SWSTART;
 2e6:	0000                	unimp
 2e8:	0000                	unimp
	uint32_t targend = SysTick->CNT + n;
 2ea:	0000                	unimp
 2ec:	03ec                	addi	a1,sp,460
		Delay_Ms(( Delay >> 3 ) + 5 );
 2ee:	0000                	unimp
 2f0:	02d0                	addi	a2,sp,324
 2f2:	0000                	unimp
		int temp=LEDs[0].brightness;
 2f4:	0e44                	addi	s1,sp,788
 2f6:	4440                	lw	s0,12(s0)
	ADC1->CTLR2 |= ADC_SWSTART;
 2f8:	8e480c8f          	0x8e480c8f
 2fc:	05886c0b          	0x5886c0b
 300:	0689                	addi	a3,a3,2
 302:	0181                	addi	gp,gp,0
	while(!(ADC1->STATR & ADC_EOC));
 304:	0285                	addi	t0,t0,1
 306:	0386                	slli	t2,t2,0x1
 308:	078a0487          	0x78a0487
	return ADC1->RDATAR;
 30c:	098c088b          	0x98c088b
 310:	0a8d                	addi	s5,s5,3
 312:	c8026003          	0xc8026003
		Delay_Ms(( Delay >> 3 ) + 5 );
 316:	c144                	sw	s1,4(a0)
 318:	c544                	sw	s1,12(a0)
 31a:	c644                	sw	s1,12(a2)
 31c:	c744                	sw	s1,12(a4)
 31e:	c944                	sw	s1,20(a0)
 320:	ca44                	sw	s1,20(a2)
 322:	cb44                	sw	s1,20(a4)
 324:	cc44                	sw	s1,28(s0)
 326:	cd44                	sw	s1,28(a0)
 328:	ce44                	sw	s1,28(a2)
 32a:	cf44                	sw	s1,28(a4)
 32c:	0e44                	addi	s1,sp,788
	...
